   1              		.cpu cortex-m0
   2              		.arch armv6s-m
   3              		.fpu softvfp
   4              		.eabi_attribute 20, 1
   5              		.eabi_attribute 21, 1
   6              		.eabi_attribute 23, 3
   7              		.eabi_attribute 24, 1
   8              		.eabi_attribute 25, 1
   9              		.eabi_attribute 26, 1
  10              		.eabi_attribute 30, 4
  11              		.eabi_attribute 34, 0
  12              		.eabi_attribute 18, 4
  13              		.file	"simpleserial-base.c"
  14              		.text
  15              	.Ltext0:
  16              		.cfi_sections	.debug_frame
  17              		.file 1 "simpleserial-base.c"
  18              		.section	.text.get_key,"ax",%progbits
  19              		.align	1
  20              		.global	get_key
  21              		.syntax unified
  22              		.code	16
  23              		.thumb_func
  25              	get_key:
  26              	.LVL0:
  27              	.LFB0:
   1:simpleserial-base.c **** /*
   2:simpleserial-base.c ****     This file is part of the ChipWhisperer Example Targets
   3:simpleserial-base.c ****     Copyright (C) 2012-2017 NewAE Technology Inc.
   4:simpleserial-base.c **** 
   5:simpleserial-base.c ****     This program is free software: you can redistribute it and/or modify
   6:simpleserial-base.c ****     it under the terms of the GNU General Public License as published by
   7:simpleserial-base.c ****     the Free Software Foundation, either version 3 of the License, or
   8:simpleserial-base.c ****     (at your option) any later version.
   9:simpleserial-base.c **** 
  10:simpleserial-base.c ****     This program is distributed in the hope that it will be useful,
  11:simpleserial-base.c ****     but WITHOUT ANY WARRANTY; without even the implied warranty of
  12:simpleserial-base.c ****     MERCHANTABILITY or FITNESS FOR A PARTICULAR PURPOSE.  See the
  13:simpleserial-base.c ****     GNU General Public License for more details.
  14:simpleserial-base.c **** 
  15:simpleserial-base.c ****     You should have received a copy of the GNU General Public License
  16:simpleserial-base.c ****     along with this program.  If not, see <http://www.gnu.org/licenses/>.
  17:simpleserial-base.c **** */
  18:simpleserial-base.c **** 
  19:simpleserial-base.c **** #include "hal.h"
  20:simpleserial-base.c **** #include <stdint.h>
  21:simpleserial-base.c **** #include <stdlib.h>
  22:simpleserial-base.c **** 
  23:simpleserial-base.c **** #include "simpleserial.h"
  24:simpleserial-base.c **** 
  25:simpleserial-base.c **** uint8_t get_key(uint8_t* k, uint8_t len)
  26:simpleserial-base.c **** {
  28              		.loc 1 26 1 view -0
  29              		.cfi_startproc
  30              		@ args = 0, pretend = 0, frame = 0
  31              		@ frame_needed = 0, uses_anonymous_args = 0
  32              		@ link register save eliminated.
  27:simpleserial-base.c **** 	// Load key here
  28:simpleserial-base.c **** 	return 0x00;
  33              		.loc 1 28 2 view .LVU1
  29:simpleserial-base.c **** }
  34              		.loc 1 29 1 is_stmt 0 view .LVU2
  35 0000 0020     		movs	r0, #0
  36              	.LVL1:
  37              		.loc 1 29 1 view .LVU3
  38              		@ sp needed
  39 0002 7047     		bx	lr
  40              		.cfi_endproc
  41              	.LFE0:
  43              		.section	.text.get_pt,"ax",%progbits
  44              		.align	1
  45              		.global	get_pt
  46              		.syntax unified
  47              		.code	16
  48              		.thumb_func
  50              	get_pt:
  51              	.LVL2:
  52              	.LFB1:
  30:simpleserial-base.c **** 
  31:simpleserial-base.c **** uint8_t get_pt(uint8_t* pt, uint8_t len)
  32:simpleserial-base.c **** {
  53              		.loc 1 32 1 is_stmt 1 view -0
  54              		.cfi_startproc
  55              		@ args = 0, pretend = 0, frame = 8
  56              		@ frame_needed = 0, uses_anonymous_args = 0
  33:simpleserial-base.c **** 	/**********************************
  34:simpleserial-base.c **** 	* Start user-specific code here. */
  35:simpleserial-base.c **** 	trigger_high();
  57              		.loc 1 35 2 view .LVU5
  32:simpleserial-base.c **** 	/**********************************
  58              		.loc 1 32 1 is_stmt 0 view .LVU6
  59 0000 13B5     		push	{r0, r1, r4, lr}
  60              	.LCFI0:
  61              		.cfi_def_cfa_offset 16
  62              		.cfi_offset 0, -16
  63              		.cfi_offset 1, -12
  64              		.cfi_offset 4, -8
  65              		.cfi_offset 14, -4
  36:simpleserial-base.c **** 
  37:simpleserial-base.c ****     volatile long int A = 0x2BAA;
  66              		.loc 1 37 23 view .LVU7
  67 0002 1E24     		movs	r4, #30
  35:simpleserial-base.c **** 
  68              		.loc 1 35 2 view .LVU8
  69 0004 FFF7FEFF 		bl	trigger_high
  70              	.LVL3:
  71              		.loc 1 37 5 is_stmt 1 view .LVU9
  72              		.loc 1 37 23 is_stmt 0 view .LVU10
  73 0008 094B     		ldr	r3, .L5
  74 000a 0193     		str	r3, [sp, #4]
  38:simpleserial-base.c **** 
  39:simpleserial-base.c ****     for(int i = 0; i < 30; i++){
  75              		.loc 1 39 5 is_stmt 1 view .LVU11
  76              	.LBB2:
  77              		.loc 1 39 9 view .LVU12
  78              	.LVL4:
  79              		.loc 1 39 22 discriminator 1 view .LVU13
  80              	.L3:
  40:simpleserial-base.c ****         A*=4;
  81              		.loc 1 40 9 view .LVU14
  82              		.loc 1 40 10 is_stmt 0 view .LVU15
  83 000c 019B     		ldr	r3, [sp, #4]
  39:simpleserial-base.c ****         A*=4;
  84              		.loc 1 39 22 discriminator 1 view .LVU16
  85 000e 013C     		subs	r4, r4, #1
  86              	.LVL5:
  87              		.loc 1 40 10 view .LVU17
  88 0010 9B00     		lsls	r3, r3, #2
  89 0012 0193     		str	r3, [sp, #4]
  41:simpleserial-base.c ****         A+=1;
  90              		.loc 1 41 9 is_stmt 1 view .LVU18
  91              		.loc 1 41 10 is_stmt 0 view .LVU19
  92 0014 019B     		ldr	r3, [sp, #4]
  93 0016 0133     		adds	r3, r3, #1
  94 0018 0193     		str	r3, [sp, #4]
  42:simpleserial-base.c ****         A/=2;
  95              		.loc 1 42 9 is_stmt 1 view .LVU20
  96              		.loc 1 42 10 is_stmt 0 view .LVU21
  97 001a 019A     		ldr	r2, [sp, #4]
  98 001c D30F     		lsrs	r3, r2, #31
  99 001e 9B18     		adds	r3, r3, r2
 100 0020 5B10     		asrs	r3, r3, #1
 101 0022 0193     		str	r3, [sp, #4]
  39:simpleserial-base.c ****         A*=4;
 102              		.loc 1 39 29 is_stmt 1 discriminator 3 view .LVU22
 103              	.LVL6:
  39:simpleserial-base.c ****         A*=4;
 104              		.loc 1 39 22 discriminator 1 view .LVU23
 105 0024 002C     		cmp	r4, #0
 106 0026 F1D1     		bne	.L3
 107              	.LBE2:
  43:simpleserial-base.c ****     }
  44:simpleserial-base.c ****     
  45:simpleserial-base.c **** 	trigger_low();
 108              		.loc 1 45 2 view .LVU24
 109 0028 FFF7FEFF 		bl	trigger_low
 110              	.LVL7:
  46:simpleserial-base.c **** 	/* End user-specific code here. *
  47:simpleserial-base.c **** 	********************************/
  48:simpleserial-base.c **** 	// simpleserial_put('r', 16, pt);
  49:simpleserial-base.c **** 	return 0x00;
 111              		.loc 1 49 2 view .LVU25
  50:simpleserial-base.c **** }
 112              		.loc 1 50 1 is_stmt 0 view .LVU26
 113              		@ sp needed
 114 002c 2000     		movs	r0, r4
 115 002e 16BD     		pop	{r1, r2, r4, pc}
 116              	.L6:
 117              		.align	2
 118              	.L5:
 119 0030 AA2B0000 		.word	11178
 120              		.cfi_endproc
 121              	.LFE1:
 123              		.section	.text.reset,"ax",%progbits
 124              		.align	1
 125              		.global	reset
 126              		.syntax unified
 127              		.code	16
 128              		.thumb_func
 130              	reset:
 131              	.LFB5:
 132              		.cfi_startproc
  51:simpleserial-base.c **** 
  52:simpleserial-base.c **** uint8_t reset(uint8_t* x, uint8_t len)
 133              		.loc 1 52 9 is_stmt 1 view -0
 134              		@ args = 0, pretend = 0, frame = 0
 135              		@ frame_needed = 0, uses_anonymous_args = 0
 136              		@ link register save eliminated.
 137 0000 0020     		movs	r0, #0
 138              		@ sp needed
 139 0002 7047     		bx	lr
 140              		.cfi_endproc
 141              	.LFE5:
 143              		.section	.text.startup.main,"ax",%progbits
 144              		.align	1
 145              		.global	main
 146              		.syntax unified
 147              		.code	16
 148              		.thumb_func
 150              	main:
 151              	.LFB3:
  53:simpleserial-base.c **** {
  54:simpleserial-base.c **** 	// Reset key here if needed
  55:simpleserial-base.c **** 	return 0x00;
  56:simpleserial-base.c **** }
  57:simpleserial-base.c **** 
  58:simpleserial-base.c **** #if SS_VER == SS_VER_2_1
  59:simpleserial-base.c **** uint8_t aes(uint8_t cmd, uint8_t scmd, uint8_t len, uint8_t *buf)
  60:simpleserial-base.c **** {
  61:simpleserial-base.c ****     uint8_t req_len = 0;
  62:simpleserial-base.c ****     uint8_t err = 0;
  63:simpleserial-base.c **** 
  64:simpleserial-base.c ****     if (scmd & 0x02) {
  65:simpleserial-base.c ****         req_len += 16;
  66:simpleserial-base.c ****         if (req_len > len) {
  67:simpleserial-base.c ****             return SS_ERR_LEN;
  68:simpleserial-base.c ****         }
  69:simpleserial-base.c ****         err = get_key(buf + req_len - 16, 16);
  70:simpleserial-base.c ****         if (err)
  71:simpleserial-base.c ****             return err;
  72:simpleserial-base.c ****     }
  73:simpleserial-base.c ****     if (scmd & 0x01) {
  74:simpleserial-base.c ****         req_len += 16;
  75:simpleserial-base.c ****         if (req_len > len) {
  76:simpleserial-base.c ****             return SS_ERR_LEN;
  77:simpleserial-base.c ****         }
  78:simpleserial-base.c ****         err = get_pt(buf + req_len - 16, 16);
  79:simpleserial-base.c ****         if (err)
  80:simpleserial-base.c ****             return err;
  81:simpleserial-base.c ****     }
  82:simpleserial-base.c **** 
  83:simpleserial-base.c ****     if (len != req_len) {
  84:simpleserial-base.c ****         return SS_ERR_LEN;
  85:simpleserial-base.c ****     }
  86:simpleserial-base.c **** 
  87:simpleserial-base.c ****     return 0x00;
  88:simpleserial-base.c **** 
  89:simpleserial-base.c **** }
  90:simpleserial-base.c **** #endif
  91:simpleserial-base.c **** 
  92:simpleserial-base.c **** int main(void)
  93:simpleserial-base.c **** {
 152              		.loc 1 93 1 view -0
 153              		.cfi_startproc
 154              		@ Volatile: function does not return.
 155              		@ args = 0, pretend = 0, frame = 0
 156              		@ frame_needed = 0, uses_anonymous_args = 0
  94:simpleserial-base.c ****     platform_init();
 157              		.loc 1 94 5 view .LVU29
  93:simpleserial-base.c ****     platform_init();
 158              		.loc 1 93 1 is_stmt 0 view .LVU30
 159 0000 10B5     		push	{r4, lr}
 160              	.LCFI1:
 161              		.cfi_def_cfa_offset 8
 162              		.cfi_offset 4, -8
 163              		.cfi_offset 14, -4
 164              		.loc 1 94 5 view .LVU31
 165 0002 FFF7FEFF 		bl	platform_init
 166              	.LVL8:
  95:simpleserial-base.c **** 	init_uart();
 167              		.loc 1 95 2 is_stmt 1 view .LVU32
 168 0006 FFF7FEFF 		bl	init_uart
 169              	.LVL9:
  96:simpleserial-base.c **** 	trigger_setup();
 170              		.loc 1 96 2 view .LVU33
 171 000a FFF7FEFF 		bl	trigger_setup
 172              	.LVL10:
  97:simpleserial-base.c **** 
  98:simpleserial-base.c ****  	/* Uncomment this to get a HELLO message for debug */
  99:simpleserial-base.c **** 	/*
 100:simpleserial-base.c **** 	putch('h');
 101:simpleserial-base.c **** 	putch('e');
 102:simpleserial-base.c **** 	putch('l');
 103:simpleserial-base.c **** 	putch('l');
 104:simpleserial-base.c **** 	putch('o');
 105:simpleserial-base.c **** 	putch('\n');
 106:simpleserial-base.c **** 	*/
 107:simpleserial-base.c **** 
 108:simpleserial-base.c **** 	simpleserial_init();
 173              		.loc 1 108 2 view .LVU34
 174 000e FFF7FEFF 		bl	simpleserial_init
 175              	.LVL11:
 109:simpleserial-base.c **** #if SS_VER != SS_VER_2_1
 110:simpleserial-base.c **** 	simpleserial_addcmd('p', 16, get_pt);
 176              		.loc 1 110 2 view .LVU35
 177 0012 1021     		movs	r1, #16
 178 0014 084A     		ldr	r2, .L10
 179 0016 7020     		movs	r0, #112
 180 0018 FFF7FEFF 		bl	simpleserial_addcmd
 181              	.LVL12:
 111:simpleserial-base.c **** 	simpleserial_addcmd('k', 16, get_key);
 182              		.loc 1 111 2 view .LVU36
 183 001c 1021     		movs	r1, #16
 184 001e 074A     		ldr	r2, .L10+4
 185 0020 6B20     		movs	r0, #107
 186 0022 FFF7FEFF 		bl	simpleserial_addcmd
 187              	.LVL13:
 112:simpleserial-base.c **** 	simpleserial_addcmd('x', 0, reset);
 188              		.loc 1 112 2 view .LVU37
 189 0026 0021     		movs	r1, #0
 190 0028 7820     		movs	r0, #120
 191 002a 054A     		ldr	r2, .L10+8
 192 002c FFF7FEFF 		bl	simpleserial_addcmd
 193              	.LVL14:
 194              	.L9:
 113:simpleserial-base.c **** #else
 114:simpleserial-base.c ****     simpleserial_addcmd(0x01, 16, aes);
 115:simpleserial-base.c **** 
 116:simpleserial-base.c **** #endif    
 117:simpleserial-base.c **** 	while(1){
 195              		.loc 1 117 2 view .LVU38
 118:simpleserial-base.c **** 		simpleserial_get();
 196              		.loc 1 118 3 discriminator 1 view .LVU39
 197 0030 FFF7FEFF 		bl	simpleserial_get
 198              	.LVL15:
 117:simpleserial-base.c **** 		simpleserial_get();
 199              		.loc 1 117 7 view .LVU40
 200 0034 FCE7     		b	.L9
 201              	.L11:
 202 0036 C046     		.align	2
 203              	.L10:
 204 0038 00000000 		.word	get_pt
 205 003c 00000000 		.word	get_key
 206 0040 00000000 		.word	reset
 207              		.cfi_endproc
 208              	.LFE3:
 210              		.text
 211              	.Letext0:
 212              		.file 2 ".././simpleserial/simpleserial.h"
 213              		.file 3 ".././hal/stm32f0/stm32f0_hal.h"
 214              		.file 4 ".././hal/hal.h"
 215              		.file 5 "/usr/lib/gcc/arm-none-eabi/13.2.1/include/stdint.h"