
Chrono.elf:     file format elf32-littlenios2
Chrono.elf
architecture: nios2:r1, flags 0x00000112:
EXEC_P, HAS_SYMS, D_PAGED
start address 0x00000238

Program Header:
    LOAD off    0x00001000 vaddr 0x00000000 paddr 0x00000000 align 2**12
         filesz 0x00000020 memsz 0x00000020 flags r-x
    LOAD off    0x00001020 vaddr 0x00000020 paddr 0x00000020 align 2**12
         filesz 0x0001c934 memsz 0x0001c934 flags r-x
    LOAD off    0x0001d954 vaddr 0x0001c954 paddr 0x0001f6c8 align 2**12
         filesz 0x00002d74 memsz 0x00002d74 flags rw-
    LOAD off    0x0000043c vaddr 0x0002243c paddr 0x0002243c align 2**12
         filesz 0x00000000 memsz 0x0000c9f8 flags rw-

Sections:
Idx Name          Size      VMA       LMA       File off  Algn
  0 .entry        00000020  00000000  00000000  00001000  2**5
                  CONTENTS, ALLOC, LOAD, READONLY, CODE
  1 .exceptions   00000218  00000020  00000020  00001020  2**2
                  CONTENTS, ALLOC, LOAD, READONLY, CODE
  2 .text         0001beb8  00000238  00000238  00001238  2**2
                  CONTENTS, ALLOC, LOAD, READONLY, CODE
  3 .rodata       00000864  0001c0f0  0001c0f0  0001d0f0  2**2
                  CONTENTS, ALLOC, LOAD, READONLY, DATA
  4 .rwdata       00002d74  0001c954  0001f6c8  0001d954  2**2
                  CONTENTS, ALLOC, LOAD, DATA, SMALL_DATA
  5 .bss          0000c9f8  0002243c  0002243c  0002143c  2**2
                  ALLOC, SMALL_DATA
  6 .sdram        00000000  0002ee34  0002ee34  000206c8  2**0
                  CONTENTS
  7 .onchip_sram  00000000  08000000  08000000  000206c8  2**0
                  CONTENTS
  8 .VGA_Char_Buf_Subsystem_Onchip_SRAM 00000000  09000000  09000000  000206c8  2**0
                  CONTENTS
  9 .comment      0000002d  00000000  00000000  000206c8  2**0
                  CONTENTS, READONLY
 10 .debug_aranges 000012b8  00000000  00000000  000206f8  2**3
                  CONTENTS, READONLY, DEBUGGING, OCTETS
 11 .debug_info   0003aa70  00000000  00000000  000219b0  2**0
                  CONTENTS, READONLY, DEBUGGING, OCTETS
 12 .debug_abbrev 0000ec52  00000000  00000000  0005c420  2**0
                  CONTENTS, READONLY, DEBUGGING, OCTETS
 13 .debug_line   000170b0  00000000  00000000  0006b072  2**0
                  CONTENTS, READONLY, DEBUGGING, OCTETS
 14 .debug_frame  000038fc  00000000  00000000  00082124  2**2
                  CONTENTS, READONLY, DEBUGGING, OCTETS
 15 .debug_str    00003b87  00000000  00000000  00085a20  2**0
                  CONTENTS, READONLY, DEBUGGING, OCTETS
 16 .debug_alt_sim_info 00000030  00000000  00000000  000895a8  2**2
                  CONTENTS, READONLY, DEBUGGING, OCTETS
 17 .debug_ranges 00000070  00000000  00000000  000895d8  2**3
                  CONTENTS, READONLY, DEBUGGING, OCTETS
 18 .debug_line_str 00002215  00000000  00000000  00089648  2**0
                  CONTENTS, READONLY, DEBUGGING, OCTETS
 19 .debug_loclists 00017943  00000000  00000000  0008b85d  2**0
                  CONTENTS, READONLY, DEBUGGING, OCTETS
 20 .debug_rnglists 0000191f  00000000  00000000  000a31a0  2**0
                  CONTENTS, READONLY, DEBUGGING, OCTETS
 21 .thread_model 00000006  00000000  00000000  000a9e32  2**0
                  CONTENTS, READONLY
 22 .cpu          00000005  00000000  00000000  000a9e38  2**0
                  CONTENTS, READONLY
 23 .qsys         00000001  00000000  00000000  000a9e3d  2**0
                  CONTENTS, READONLY
 24 .simulation_enabled 00000001  00000000  00000000  000a9e3e  2**0
                  CONTENTS, READONLY
 25 .stderr_dev   00000009  00000000  00000000  000a9e3f  2**0
                  CONTENTS, READONLY
 26 .stdin_dev    00000009  00000000  00000000  000a9e48  2**0
                  CONTENTS, READONLY
 27 .stdout_dev   00000009  00000000  00000000  000a9e51  2**0
                  CONTENTS, READONLY
 28 .sopc_system_name 00000005  00000000  00000000  000a9e5a  2**0
                  CONTENTS, READONLY
 29 .quartus_project_dir 0000001a  00000000  00000000  000a9e5f  2**0
                  CONTENTS, READONLY
 30 .jdi          00004480  00000000  00000000  000a9e79  2**0
                  CONTENTS, READONLY
 31 .sopcinfo     000c2337  00000000  00000000  000ae2f9  2**0
                  CONTENTS, READONLY
SYMBOL TABLE:
00000000 l    d  .entry	00000000 .entry
00000020 l    d  .exceptions	00000000 .exceptions
00000238 l    d  .text	00000000 .text
0001c0f0 l    d  .rodata	00000000 .rodata
0001c954 l    d  .rwdata	00000000 .rwdata
0002243c l    d  .bss	00000000 .bss
0002ee34 l    d  .sdram	00000000 .sdram
08000000 l    d  .onchip_sram	00000000 .onchip_sram
09000000 l    d  .VGA_Char_Buf_Subsystem_Onchip_SRAM	00000000 .VGA_Char_Buf_Subsystem_Onchip_SRAM
00000000 l    d  .comment	00000000 .comment
00000000 l    d  .debug_aranges	00000000 .debug_aranges
00000000 l    d  .debug_info	00000000 .debug_info
00000000 l    d  .debug_abbrev	00000000 .debug_abbrev
00000000 l    d  .debug_line	00000000 .debug_line
00000000 l    d  .debug_frame	00000000 .debug_frame
00000000 l    d  .debug_str	00000000 .debug_str
00000000 l    d  .debug_alt_sim_info	00000000 .debug_alt_sim_info
00000000 l    d  .debug_ranges	00000000 .debug_ranges
00000000 l    d  .debug_line_str	00000000 .debug_line_str
00000000 l    d  .debug_loclists	00000000 .debug_loclists
00000000 l    d  .debug_rnglists	00000000 .debug_rnglists
00000000 l    df *ABS*	00000000 crt0.o
00000280 l       .text	00000000 alt_after_alt_main
00000000 l    df *ABS*	00000000 alt_irq_handler.c
00000000 l    df *ABS*	00000000 alt_instruction_exception_entry.c
00000000 l    df *ABS*	00000000 bsp.c
0001c954 l     O .rwdata	00000010 szMap
00000000 l    df *ABS*	00000000 hello_ucosii.c
00000000 l    df *ABS*	00000000 rom8x8.c
00000000 l    df *ABS*	00000000 vgalib.c
00022460 l     O .bss	00000004 video_buffer
00022464 l     O .bss	00000004 cur_x
00022468 l     O .bss	00000004 cur_y
00000000 l    df *ABS*	00000000 lib2-divmod.c
00000000 l    df *ABS*	00000000 printf.c
00000000 l    df *ABS*	00000000 rand.c
00000000 l    df *ABS*	00000000 sprintf.c
00000000 l    df *ABS*	00000000 strlen.c
00000000 l    df *ABS*	00000000 vfprintf.c
0001c184 l     O .rodata	00000010 blanks.1
0001c174 l     O .rodata	00000010 zeroes.0
00000000 l    df *ABS*	00000000 vfprintf.c
000054fc l     F .text	000000c0 __sbprintf
0001c1a4 l     O .rodata	00000010 blanks.1
0001c194 l     O .rodata	00000010 zeroes.0
00000000 l    df *ABS*	00000000 wsetup.c
00000000 l    df *ABS*	00000000 dtoa.c
00005720 l     F .text	000001fc quorem
00000000 l    df *ABS*	00000000 fflush.c
00000000 l    df *ABS*	00000000 findfp.c
00007384 l     F .text	00000008 __fp_lock
00007398 l     F .text	00000008 __fp_unlock
000073a0 l     F .text	00000168 __sinit.part.0
00000000 l    df *ABS*	00000000 mallocr.c
00000000 l    df *ABS*	00000000 fwalk.c
00000000 l    df *ABS*	00000000 impure.c
0001d964 l     O .rwdata	00000424 impure_data
00000000 l    df *ABS*	00000000 localeconv.c
00000000 l    df *ABS*	00000000 makebuf.c
00000000 l    df *ABS*	00000000 mallocr.c
00000000 l    df *ABS*	00000000 memchr.c
00000000 l    df *ABS*	00000000 memcpy.c
00000000 l    df *ABS*	00000000 memset.c
00000000 l    df *ABS*	00000000 mprec.c
0001c250 l     O .rodata	0000000c p05.0
00000000 l    df *ABS*	00000000 sbrkr.c
00000000 l    df *ABS*	00000000 stdio.c
00000000 l    df *ABS*	00000000 vfprintf.c
0001c384 l     O .rodata	00000010 blanks.1
0001c374 l     O .rodata	00000010 zeroes.0
00000000 l    df *ABS*	00000000 vfprintf.c
0000adfc l     F .text	000000f4 __sprint_r.part.0
0000c170 l     F .text	000000c0 __sbprintf
0001c3a4 l     O .rodata	00000010 blanks.1
0001c394 l     O .rodata	00000010 zeroes.0
00000000 l    df *ABS*	00000000 writer.c
00000000 l    df *ABS*	00000000 closer.c
00000000 l    df *ABS*	00000000 assert.c
00000000 l    df *ABS*	00000000 mallocr.c
00000000 l    df *ABS*	00000000 errno.c
00000000 l    df *ABS*	00000000 fclose.c
00000000 l    df *ABS*	00000000 fiprintf.c
00000000 l    df *ABS*	00000000 fputwc.c
00000000 l    df *ABS*	00000000 fstatr.c
00000000 l    df *ABS*	00000000 fvwrite.c
00000000 l    df *ABS*	00000000 int_errno.c
00000000 l    df *ABS*	00000000 isattyr.c
00000000 l    df *ABS*	00000000 locale.c
00000000 l    df *ABS*	00000000 lseekr.c
00000000 l    df *ABS*	00000000 mbtowc_r.c
00000000 l    df *ABS*	00000000 memmove.c
00000000 l    df *ABS*	00000000 readr.c
00000000 l    df *ABS*	00000000 mallocr.c
00000000 l    df *ABS*	00000000 strcmp.c
00000000 l    df *ABS*	00000000 vfiprintfr_1.c
00000000 l    df *ABS*	00000000 wbuf.c
00000000 l    df *ABS*	00000000 wcrtomb.c
00000000 l    df *ABS*	00000000 wctomb_r.c
00000000 l    df *ABS*	00000000 abort.c
00000000 l    df *ABS*	00000000 ctype_.c
00000000 l    df *ABS*	00000000 signal.c
00000000 l    df *ABS*	00000000 signalr.c
00000000 l    df *ABS*	00000000 libgcc2.c
00000000 l    df *ABS*	00000000 libgcc2.c
00000000 l    df *ABS*	00000000 libgcc2.c
00000000 l    df *ABS*	00000000 adddf3.c
00000000 l    df *ABS*	00000000 divdf3.c
00000000 l    df *ABS*	00000000 eqdf2.c
00000000 l    df *ABS*	00000000 gedf2.c
00000000 l    df *ABS*	00000000 ledf2.c
00000000 l    df *ABS*	00000000 muldf3.c
00000000 l    df *ABS*	00000000 subdf3.c
00000000 l    df *ABS*	00000000 unorddf2.c
00000000 l    df *ABS*	00000000 fixdfsi.c
00000000 l    df *ABS*	00000000 floatsidf.c
00000000 l    df *ABS*	00000000 floatunsidf.c
00000000 l    df *ABS*	00000000 libgcc2.c
00000000 l    df *ABS*	00000000 libgcc2.c
00000000 l    df *ABS*	00000000 alt_close.c
00010f88 l     F .text	0000003c alt_get_errno
00000000 l    df *ABS*	00000000 alt_dev.c
00011094 l     F .text	0000002c alt_dev_null_write
00000000 l    df *ABS*	00000000 alt_errno.c
00000000 l    df *ABS*	00000000 alt_exit.c
00000000 l    df *ABS*	00000000 alt_fstat.c
000110f8 l     F .text	0000003c alt_get_errno
00000000 l    df *ABS*	00000000 alt_getpid.c
00000000 l    df *ABS*	00000000 alt_isatty.c
00011204 l     F .text	0000003c alt_get_errno
00000000 l    df *ABS*	00000000 alt_kill.c
000112e4 l     F .text	0000003c alt_get_errno
00000000 l    df *ABS*	00000000 alt_load.c
00011410 l     F .text	00000068 alt_load_section
00000000 l    df *ABS*	00000000 alt_lseek.c
000114fc l     F .text	0000003c alt_get_errno
00000000 l    df *ABS*	00000000 alt_main.c
00000000 l    df *ABS*	00000000 alt_read.c
000116cc l     F .text	0000003c alt_get_errno
00000000 l    df *ABS*	00000000 alt_release_fd.c
00000000 l    df *ABS*	00000000 alt_sbrk.c
0001f638 l     O .rwdata	00000004 heap_end
00000000 l    df *ABS*	00000000 alt_write.c
00011914 l     F .text	0000003c alt_get_errno
00000000 l    df *ABS*	00000000 alt_env_lock.c
0001f63c l     O .rwdata	00000004 lockid
00022494 l     O .bss	00000004 locks
00000000 l    df *ABS*	00000000 alt_malloc_lock.c
0001f640 l     O .rwdata	00000004 lockid
0002249c l     O .bss	00000004 locks
00000000 l    df *ABS*	00000000 os_core.c
00013320 l     F .text	0000004c OS_InitMisc
0001336c l     F .text	00000064 OS_InitRdyList
000134d8 l     F .text	00000100 OS_InitTCBList
00013224 l     F .text	000000fc OS_InitEventList
000133d0 l     F .text	00000084 OS_InitTaskIdle
00013454 l     F .text	00000084 OS_InitTaskStat
00013768 l     F .text	0000006c OS_SchedNew
00000000 l    df *ABS*	00000000 os_dbg_r.c
00000000 l    df *ABS*	00000000 os_flag.c
0001551c l     F .text	00000104 OS_FlagTaskRdy
000152c4 l     F .text	0000015c OS_FlagBlock
00000000 l    df *ABS*	00000000 os_mem.c
00000000 l    df *ABS*	00000000 os_q.c
00000000 l    df *ABS*	00000000 os_sem.c
00000000 l    df *ABS*	00000000 os_task.c
00000000 l    df *ABS*	00000000 os_time.c
00000000 l    df *ABS*	00000000 alt_sys_init.c
00019814 l     F .text	00000034 alt_dev_reg
0001e4a4 l     O .rwdata	0000106c jtag_uart
0001f510 l     O .rwdata	0000005c VGA_Char_Buf_Subsystem_Char_Buf_DMA
0001f56c l     O .rwdata	0000005c VGA_VGA_Pixel_DMA
0001f5c8 l     O .rwdata	00000044 VGA_VGA_Pixel_RGB_Resampler
00000000 l    df *ABS*	00000000 altera_avalon_jtag_uart_fd.c
00000000 l    df *ABS*	00000000 altera_avalon_jtag_uart_init.c
0001a068 l     F .text	000002ac altera_avalon_jtag_uart_irq
0001a314 l     F .text	0000010c altera_avalon_jtag_uart_timeout
00000000 l    df *ABS*	00000000 altera_avalon_jtag_uart_ioctl.c
00000000 l    df *ABS*	00000000 altera_avalon_jtag_uart_read.c
00000000 l    df *ABS*	00000000 altera_avalon_jtag_uart_write.c
00000000 l    df *ABS*	00000000 altera_avalon_timer_sc.c
0001ab14 l     F .text	0000007c alt_avalon_timer_sc_irq
00000000 l    df *ABS*	00000000 alt_alarm_start.c
00000000 l    df *ABS*	00000000 alt_dcache_flush_all.c
00000000 l    df *ABS*	00000000 alt_dev_llist_insert.c
0001adc0 l     F .text	0000003c alt_get_errno
00000000 l    df *ABS*	00000000 alt_do_ctors.c
00000000 l    df *ABS*	00000000 alt_do_dtors.c
00000000 l    df *ABS*	00000000 alt_icache_flush_all.c
00000000 l    df *ABS*	00000000 alt_iic.c
00000000 l    df *ABS*	00000000 alt_iic_isr_register.c
00000000 l    df *ABS*	00000000 alt_io_redirect.c
0001b238 l     F .text	000000b0 alt_open_fd
00000000 l    df *ABS*	00000000 alt_irq_vars.c
00000000 l    df *ABS*	00000000 alt_open.c
0001b364 l     F .text	0000003c alt_get_errno
0001b3a0 l     F .text	000000b8 alt_file_locked
00000000 l    df *ABS*	00000000 alt_tick.c
00000000 l    df *ABS*	00000000 altera_nios2_gen2_irq.c
00000000 l    df *ABS*	00000000 os_cpu_a.o
00000040 l       *ABS*	00000000 OSCtxSw_SWITCH_PC
00000000 l    df *ABS*	00000000 os_cpu_c.c
00000014 l       *ABS*	00000000 OSTCBNext_OFFSET
0000003a l       *ABS*	00000000 OSTCBPrio_OFFSET
00000000 l       *ABS*	00000000 OSTCBStkPtr_OFFSET
00000000 l    df *ABS*	00000000 alt_find_dev.c
00000000 l    df *ABS*	00000000 alt_find_file.c
00000000 l    df *ABS*	00000000 alt_get_fd.c
00000000 l    df *ABS*	00000000 alt_icache_flush.c
00000000 l    df *ABS*	00000000 atexit.c
00000000 l    df *ABS*	00000000 exit.c
00000000 l    df *ABS*	00000000 memcmp.c
00000000 l    df *ABS*	00000000 __atexit.c
00000000 l    df *ABS*	00000000 __call_atexit.c
000224fc g     O .bss	00000004 alt_instruction_exception_handler
00009960 g     F .text	00000070 _mprec_log10
00009a4c g     F .text	00000060 __any_on
0000cd18 g     F .text	00000058 _isatty_r
0001c25c g     O .rodata	00000028 __mprec_tinytens
0001160c g     F .text	000000c0 alt_main
0002ed34 g     O .bss	00000100 alt_irq
0000ce64 g     F .text	00000064 _lseek_r
00015cf0 g     F .text	000000dc OS_MemInit
0001f6c8 g       *ABS*	00000000 __flash_rwdata_start
000197b0 g     F .text	00000064 OSTimeSet
0000fae4 g     F .text	00000080 .hidden __eqdf2
00011f70 g     F .text	00000640 OSEventPendMulti
0002ee34 g       *ABS*	00000000 __alt_heap_start
0001b9bc g     F .text	00000024 OSTaskCreateHook
00022500 g     O .bss	00002000 task1_stk
0000de68 g     F .text	00000060 _kill_r
0000133c g     F .text	00000038 printf
0001f666 g     O .rwdata	00000002 OSMboxEn
00012608 g     F .text	0000004c OSIntEnter
0000d834 g     F .text	0000006c _wcrtomb_r
0000d9d8 g     F .text	00000098 _signal_r
00009be0 g     F .text	0000005c __sseek
000076c0 g     F .text	00000010 __sinit
0000d6d4 g     F .text	00000148 __swbuf_r
000190d0 g     F .text	000000b0 OSTaskRegGetID
0001f676 g     O .rwdata	00000002 OSQEn
0000cd70 g     F .text	00000074 _setlocale_r
00007508 g     F .text	00000068 __sfmoreglue
00000338 g     F .text	0000005c BSP_clrLED
0001f662 g     O .rwdata	00000002 OSFlagNameEn
00011c90 g     F .text	000000d4 __malloc_unlock
0001ba24 g     F .text	00000020 OSTaskStatHook
000224ba g     O .bss	00000001 OSLockNesting
000224e4 g     O .bss	00000001 OSTaskRegNextAvailID
0001f6b8 g     O .rwdata	00000002 OSDataSize
000224c1 g     O .bss	00000001 OSRunning
0000cf18 g     F .text	0000012c memmove
0001ba64 g     F .text	00000020 OSInitHookBegin
0001f6b0 g     O .rwdata	00000002 OSTmrSize
000076ac g     F .text	00000014 _cleanup
00008964 g     F .text	000000a4 _Balloc
000224c4 g     O .bss	00000004 OSIdleCtr
0000fb64 g     F .text	000000e8 .hidden __gtdf2
0001b77c g     F .text	00000024 altera_nios2_gen2_irq_init
0001b84c g       .text	00000000 OSStartTsk
0000c490 g     F .text	0000000c __errno
00013ad4 g     F .text	00000350 OS_TCBInit
00000000 g     F .entry	0000001c __reset
00019288 g     F .text	0000003c OS_TaskReturn
00007c60 g     F .text	00000008 __localeconv_l
0001f6b6 g     O .rwdata	00000002 OSTmrWheelTblSize
00000020 g       *ABS*	00000000 __flash_exceptions_start
0001f652 g     O .rwdata	00000002 OSEventSize
000224bc g     O .bss	00000001 OSPrioHighRdy
0000c7fc g     F .text	00000060 _fstat_r
0001b9e0 g     F .text	00000024 OSTaskDelHook
00022478 g     O .bss	00000004 errno
00009b58 g     F .text	00000008 __seofread
0001b82c g       .text	00000000 OSStartHighRdy
00017fb4 g     F .text	000001dc OSTaskCreateExt
00009e08 g     F .text	00000ff4 ___svfiprintf_internal_r
00014e00 g     F .text	00000064 OSFlagPendGetFlagsRdy
0001f692 g     O .rwdata	00000002 OSTaskStatStkSize
00013fb4 g     F .text	0000030c OSFlagAccept
00016324 g     F .text	000000bc OSQFlush
0001f60c g     O .rwdata	00000004 BtnIDs
00015dcc g     F .text	00000134 OSQAccept
00022488 g     O .bss	00000004 alt_argv
0002760c g       *ABS*	00000000 _gp
00017e10 g     F .text	000001a4 OSTaskCreate
0001795c g     F .text	000004b4 OSTaskChangePrio
00022498 g     O .bss	00000004 alt_heapsem
000111e4 g     F .text	00000020 getpid
00013e24 g     F .text	00000190 OSDebugInit
00018190 g     F .text	00000340 OSTaskDel
0001e324 g     O .rwdata	00000180 alt_fd_list
0002ca00 g     O .bss	00000140 OSFlagTbl
00013020 g     F .text	000000b0 OS_EventTaskRemove
0001bb0c g     F .text	00000090 alt_find_dev
00008770 g     F .text	00000100 memcpy
0001f67c g     O .rwdata	00000002 OSRdyTblSize
0000738c g     F .text	0000000c _cleanup_r
00010df0 g     F .text	000000b8 .hidden __floatsidf
0001b2e8 g     F .text	0000007c alt_io_redirect
0000fc4c g     F .text	000000e8 .hidden __ltdf2
0001c0f0 g       *ABS*	00000000 __DTOR_END__
0001be0c g     F .text	00000074 alt_exception_cause_generated_bad_addr
00011d64 g     F .text	00000120 OSEventNameGet
0001f660 g     O .rwdata	00000002 OSFlagMax
000098b8 g     F .text	000000a8 __ratio
00000f4c g     F .text	0000008c VgaWriteScreen
00012654 g     F .text	000000f4 OSIntExit
0000c154 g     F .text	0000001c __vfiprintf_internal
0001f69c g     O .rwdata	00000002 OSTCBSize
000224bb g     O .bss	00000001 OSPrioCur
0001a57c g     F .text	000002c8 altera_avalon_jtag_uart_read
0000130c g     F .text	00000030 _printf_r
0000124c g     F .text	00000064 .hidden __udivsi3
00011240 g     F .text	000000a4 isatty
0000da70 g     F .text	000000c4 _raise_r
0001f680 g     O .rwdata	00000002 OSStkWidth
0000c2ec g     F .text	00000064 __assert_func
0001c2ac g     O .rodata	000000c8 __mprec_tens
0001f674 g     O .rwdata	00000002 OSPtrSize
0001f654 g     O .rwdata	00000002 OSEventTblSize
0001b7a0 g       .text	00000000 OSCtxSw
0001bd7c g     F .text	00000090 alt_icache_flush
00022474 g     O .bss	00000004 __malloc_top_pad
000224d4 g     O .bss	00000004 OSTCBList
0000dec8 g     F .text	00000004 _getpid_r
00019180 g     F .text	00000108 OSTaskRegSet
00022480 g     O .bss	00000004 alt_fd_list_lock
00007c68 g     F .text	0000000c _localeconv_r
0000c85c g     F .text	000004bc __sfvwrite_r
00008db0 g     F .text	000000b0 __i2b
0000db34 g     F .text	000000bc __sigtramp_r
0002e5b4 g     O .bss	000005a0 OSMemTbl
000224d8 g     O .bss	00000001 OSTickStepState
0001f66c g     O .rwdata	00000002 OSMemNameEn
00009aac g     F .text	00000058 _sbrk_r
09000000 g       *ABS*	00000000 __alt_mem_VGA_Char_Buf_Subsystem_Onchip_SRAM
0001f678 g     O .rwdata	00000002 OSQMax
0002cb40 g     O .bss	00000800 OSTaskStatStk
00015974 g     F .text	000000f0 OSMemNameGet
00028500 g     O .bss	00002000 task4_stk
0001f658 g     O .rwdata	00000002 OSFlagEn
0000d044 g     F .text	00000064 _read_r
0001f6a0 g     O .rwdata	00000002 OSTimeTickHookEn
00015620 g     F .text	000000a4 OS_FlagUnlink
000167d0 g     F .text	00000174 OSQPost
0001f630 g     O .rwdata	00000004 alt_max_fd
00013630 g     F .text	0000006c OS_MemCopy
0001369c g     F .text	000000cc OS_Sched
0000c49c g     F .text	000000f8 _fclose_r
0001588c g     F .text	000000e8 OSMemGet
000187c0 g     F .text	00000160 OSTaskNameSet
00007300 g     F .text	00000084 fflush
00022470 g     O .bss	00000004 __malloc_max_sbrked_mem
000224a0 g     O .bss	00000004 OSCtxSwCtr
0001ba44 g     F .text	00000020 OSTimeTickHook
000009d8 g     F .text	0000014c task_rect
00022450 g     O .bss	00000004 ms
000130d0 g     F .text	000000f4 OS_EventTaskRemoveMulti
0000e98c g     F .text	0000090c .hidden __adddf3
00012ed8 g     F .text	00000148 OS_EventTaskWaitMulti
00009668 g     F .text	000000f8 __b2d
0001f67a g     O .rwdata	00000002 OSQSize
0000e47c g     F .text	00000510 .hidden __umoddi3
00011538 g     F .text	000000d4 lseek
000172c8 g     F .text	0000020c OSSemPend
0001f650 g     O .rwdata	00000002 OSEventNameEn
0001f610 g     O .rwdata	00000004 _global_impure_ptr
0000d0a8 g     F .text	00000570 _realloc_r
0001f664 g     O .rwdata	00000002 OSLowestPrio
0002ee34 g       *ABS*	00000000 __bss_end
0001b150 g     F .text	000000e8 alt_iic_isr_register
0001bae8 g     F .text	00000024 OSTCBInitHook
0001f6ae g     O .rwdata	00000002 OSTmrCfgTicksPerSec
0001b650 g     F .text	0000012c alt_tick
0000df2c g     F .text	00000550 .hidden __udivdi3
0000c760 g     F .text	00000024 _fputwc_r
0001f64c g     O .rwdata	00000002 OSEventEn
0001c284 g     O .rodata	00000028 __mprec_bigtens
00008b64 g     F .text	00000138 __s2b
0000d964 g     F .text	00000018 abort
00010ea8 g     F .text	00000090 .hidden __floatunsidf
00009384 g     F .text	00000058 __mcmp
000076e0 g     F .text	00000014 __fp_lock_all
0001b104 g     F .text	0000004c alt_ic_irq_enabled
00015420 g     F .text	000000fc OS_FlagInit
08000000 g       *ABS*	00000000 __alt_mem_onchip_sram
0001b5ac g     F .text	000000a4 alt_alarm_stop
0001f68e g     O .rwdata	00000002 OSTaskNameEn
00000fd8 g     F .text	00000048 VgaPrintAt
0001f688 g     O .rwdata	00000002 OSTaskIdleStkSize
000224ec g     O .bss	00000004 alt_irq_active
00016f04 g     F .text	000000b4 OSSemAccept
00015b24 g     F .text	000000e0 OSMemPut
000156c4 g     F .text	000001c8 OSMemCreate
000224b0 g     O .bss	00000004 OSIdleCtrMax
000000fc g     F .exceptions	000000c8 alt_irq_handler
0001e2fc g     O .rwdata	00000028 alt_dev_null
0001f69e g     O .rwdata	00000002 OSTicksPerSec
0001bac4 g     F .text	00000024 OSTaskReturnHook
0001b7a0 g       .text	00000000 OSIntCtxSw
0001ad74 g     F .text	0000004c alt_dcache_flush_all
00008c9c g     F .text	00000064 __hi0bits
00010d70 g     F .text	00000080 .hidden __fixdfsi
00018fc0 g     F .text	00000110 OSTaskRegGet
0000075c g     F .text	00000168 task_btn
0001f6a4 g     O .rwdata	00000002 OS_TLS_TblSize
000224cc g     O .bss	00000004 OSTCBFreeList
0001f6c8 g       *ABS*	00000000 __ram_rwdata_end
000174d4 g     F .text	00000164 OSSemPendAbort
0001f628 g     O .rwdata	00000008 alt_dev_list
00011950 g     F .text	000000f8 write
0001f6a2 g     O .rwdata	00000002 OSVersionNbr
0001c954 g       *ABS*	00000000 __ram_rodata_end
00011134 g     F .text	000000b0 fstat
00011320 g     F .text	000000f0 kill
0000fc4c g     F .text	000000e8 .hidden __ledf2
0001f648 g     O .rwdata	00000004 OSEndiannessTest
000090b4 g     F .text	00000148 __pow5mult
0000af08 g     F .text	0000124c ___vfiprintf_internal_r
000012b0 g     F .text	0000005c .hidden __umodsi3
00000394 g     F .text	00000024 BSP_readSW
0001f65a g     O .rwdata	00000002 OSFlagGrpSize
0001c964 g     O .rwdata	00001000 rom8x8_bits
0002ee34 g       *ABS*	00000000 end
00019f18 g     F .text	00000150 altera_avalon_jtag_uart_init
00013898 g     F .text	00000178 OS_TaskStat
000001c4 g     F .exceptions	00000074 alt_instruction_exception_entry
0001c0f0 g       *ABS*	00000000 __CTOR_LIST__
04000000 g       *ABS*	00000000 __alt_stack_pointer
0001ab90 g     F .text	00000084 alt_avalon_timer_sc_init
00010f38 g     F .text	00000050 .hidden __clzsi2
0001a844 g     F .text	000002d0 altera_avalon_jtag_uart_write
00000284 g     F .text	0000005c BSP_init
000076d0 g     F .text	00000004 __sfp_lock_acquire
000086a4 g     F .text	000000cc memchr
000135d8 g     F .text	00000058 OS_MemClr
000034d0 g     F .text	00002010 ___vfprintf_internal_r
0001b870 g     F .text	0000014c OSTaskStkInit
000013e8 g     F .text	00000054 _sprintf_r
00007824 g     F .text	000002fc _free_r
0001c508 g     O .rodata	00000180 _ctype_b
0000cde4 g     F .text	0000000c __locale_mb_cur_max
00012c44 g     F .text	0000018c OS_EventTaskRdy
0001bfd0 g     F .text	00000120 __call_exitprocs
000224ac g     O .bss	00000001 OSCPUUsage
0001f618 g     O .rwdata	00000004 __malloc_sbrk_base
00000238 g     F .text	0000004c _start
000224f0 g     O .bss	00000004 _alt_tick_rate
000163e0 g     F .text	0000028c OSQPend
00019334 g     F .text	00000118 OSTimeDly
00001388 g     F .text	00000060 rand
000091fc g     F .text	00000188 __lshift
00000d20 g     F .text	000000a4 VgaClearScreen
000224f4 g     O .bss	00000008 _alt_nticks
0000dcac g     F .text	000000a0 signal
00011708 g     F .text	000000fc read
00019884 g     F .text	00000530 alt_sys_init
00009c44 g     F .text	000001c4 __ssprint_r
0002243c g     O .bss	00000004 MsgQueueBoutons
0001bf40 g     F .text	00000090 __register_exitproc
000224c2 g     O .bss	00000001 OSTaskCtr
0001944c g     F .text	00000128 OSTimeDlyHMSM
00008e60 g     F .text	00000254 __multiply
0001a420 g     F .text	00000068 altera_avalon_jtag_uart_close
0001f6aa g     O .rwdata	00000002 OSTmrCfgNameEn
0001c954 g       *ABS*	00000000 __ram_rwdata_start
0001c0f0 g       *ABS*	00000000 __ram_rodata_start
0002c528 g     O .bss	00000028 __malloc_current_mallinfo
0001f64e g     O .rwdata	00000002 OSEventMax
00009760 g     F .text	00000158 __d2b
00017638 g     F .text	0000011c OSSemPost
000127d8 g     F .text	000000e4 OSSchedUnlock
00019db4 g     F .text	00000060 altera_avalon_jtag_uart_read_fd
0001bca4 g     F .text	000000d8 alt_get_fd
000224dc g     O .bss	00000004 OSMemFreeList
00012924 g     F .text	000000b8 OSStatInit
0001520c g     F .text	000000b8 OSFlagQuery
00000cec g     F .text	00000034 VgaInit
0001f684 g     O .rwdata	00000002 OSTaskCreateExtEn
0000c294 g     F .text	00000058 _close_r
0001bec8 g     F .text	00000078 memcmp
00012c24 g     F .text	00000020 OS_Dummy
00019e74 g     F .text	00000050 altera_avalon_jtag_uart_close_fd
0002ee34 g       *ABS*	00000000 __alt_stack_base
00019ec4 g     F .text	00000054 altera_avalon_jtag_uart_ioctl_fd
0002c500 g     O .bss	00000028 MsgQueueBoutonsTbl
000055bc g     F .text	00000164 __swsetup_r
00022448 g     O .bss	00000001 getconfig
0002eb54 g     O .bss	000001e0 OSQTbl
000003b8 g     F .text	00000050 BSP_readBP
0000f298 g     F .text	0000084c .hidden __divdf3
00007570 g     F .text	0000013c __sfp
000099d0 g     F .text	0000007c __copybits
0001dd88 g     O .rwdata	00000408 __malloc_av_
000076dc g     F .text	00000004 __sinit_lock_release
000224d0 g     O .bss	00000004 OSTCBHighRdy
0000fd34 g     F .text	00000714 .hidden __muldf3
00009b04 g     F .text	00000054 __sread
000224e0 g     O .bss	00000004 OSQFreeList
0001bb9c g     F .text	00000108 alt_find_file
000008c4 g     F .text	000000e0 task_interface
000004d8 g     F .text	000000d4 SEG7_Decimal
0001adfc g     F .text	000000a8 alt_dev_llist_insert
00011b68 g     F .text	00000128 __malloc_lock
0001185c g     F .text	000000b8 sbrk
00001538 g     F .text	00001f98 ___svfprintf_internal_r
00011e84 g     F .text	000000ec OSEventNameSet
000072a0 g     F .text	00000060 _fflush_r
0000c364 g     F .text	0000012c _calloc_r
000224bd g     O .bss	00000001 OSRdyGrp
00022440 g     O .bss	00000004 BtnCounters
00000e44 g     F .text	00000108 VgaWriteCharacter
0002243c g       *ABS*	00000000 __bss_start
00008870 g     F .text	000000f4 memset
00000b24 g     F .text	000001c8 main
0002248c g     O .bss	00000004 alt_envp
0002246c g     O .bss	00000004 __malloc_max_total_mem
00019e14 g     F .text	00000060 altera_avalon_jtag_uart_write_fd
0000d81c g     F .text	00000018 __swbuf
00001374 g     F .text	00000014 srand
0001c7a4 g     O .rodata	00000100 OSUnMapTbl
0001f67e g     O .rwdata	00000002 OSSemEn
00014e64 g     F .text	000003a8 OSFlagPost
00009c3c g     F .text	00000008 __sclose
04000000 g       *ABS*	00000000 __alt_heap_limit
0000c594 g     F .text	00000010 fclose
00012dd0 g     F .text	00000108 OS_EventTaskWait
00024500 g     O .bss	00002000 task2_stk
00013a10 g     F .text	000000c4 OS_TaskStatStkChk
000184d0 g     F .text	00000158 OSTaskDelReq
0000591c g     F .text	0000175c _dtoa_r
00007ec0 g     F .text	000007e4 _malloc_r
0000d934 g     F .text	00000030 __ascii_wctomb
0001f634 g     O .rwdata	00000004 alt_errno
000128bc g     F .text	00000068 OSStart
00026500 g     O .bss	00002000 task3_stk
0000c5a4 g     F .text	00000020 _fiprintf_r
0000dd4c g     F .text	00000060 _init_signal
00011b08 g     F .text	00000060 __env_unlock
00007b20 g     F .text	00000098 _fwalk
00018920 g     F .text	000001e0 OSTaskResume
00015c04 g     F .text	000000ec OSMemQuery
0001f690 g     O .rwdata	00000002 OSTaskStatEn
0000cec8 g     F .text	0000000c _mbtowc_r
0001f66a g     O .rwdata	00000002 OSMemMax
00016944 g     F .text	0000017c OSQPostFront
00001158 g     F .text	00000080 .hidden __divsi3
000224be g     O .bss	00000003 OSRdyTbl
0001f644 g     O .rwdata	00000002 OSDebugEn
00007708 g     F .text	0000011c _malloc_trim_r
0001c0f0 g       *ABS*	00000000 __CTOR_END__
0001f65c g     O .rwdata	00000002 OSFlagNodeSize
0001f6a8 g     O .rwdata	00000002 OSTmrCfgMax
0000d618 g     F .text	000000b8 strcmp
00015f00 g     F .text	000001ac OSQCreate
00018628 g     F .text	00000198 OSTaskNameGet
0001c0f0 g       *ABS*	00000000 __flash_rodata_start
00016ac0 g     F .text	00000218 OSQPostOpt
000129dc g     F .text	00000228 OSTimeTick
0001f68c g     O .rwdata	00000002 OSTaskMax
0001c0f0 g       *ABS*	00000000 __DTOR_LIST__
00016fb8 g     F .text	000000d8 OSSemCreate
0001f6b4 g     O .rwdata	00000002 OSTmrWheelSize
000009a4 g     F .text	00000034 min
0000fae4 g     F .text	00000080 .hidden __nedf2
0001f686 g     O .rwdata	00000002 OSTaskDelEn
00017754 g     F .text	00000114 OSSemQuery
000160ac g     F .text	00000278 OSQDel
0001666c g     F .text	00000164 OSQPendAbort
00019848 g     F .text	0000003c alt_irq_init
00011804 g     F .text	00000058 alt_release_fd
0000143c g     F .text	00000064 sprintf
0001c688 g     O .rodata	00000100 .hidden __clz_tab
000005ac g     F .text	00000124 task_chrono
0002247c g     O .bss	00000004 _PathLocale
00000408 g     F .text	0000006c SEG7_on
0001be80 g     F .text	00000014 atexit
00000474 g     F .text	00000064 SEG7_off
0000c230 g     F .text	00000064 _write_r
00012748 g     F .text	00000090 OSSchedLock
0000cdf0 g     F .text	00000074 setlocale
000142c0 g     F .text	000000fc OSFlagCreate
0001f614 g     O .rwdata	00000004 _impure_ptr
00022484 g     O .bss	00000004 alt_argc
00007078 g     F .text	00000228 __sflush_r
00022454 g     O .bss	00000004 s
0001af08 g     F .text	00000064 _do_dtors
0002245c g     O .bss	00000004 h
0001f656 g     O .rwdata	00000002 OSEventMultiEn
000143bc g     F .text	00000244 OSFlagDel
000224a4 g     O .bss	00000004 OSEventFreeList
00000020 g       .exceptions	00000000 alt_irq_entry
0000ced4 g     F .text	00000044 __ascii_mbtowc
00009608 g     F .text	00000060 __ulp
00014828 g     F .text	000005d8 OSFlagPend
0001f6a6 g     O .rwdata	00000002 OSTmrEn
000076f4 g     F .text	00000014 __fp_unlock_all
0001f620 g     O .rwdata	00000008 alt_fs_list
0001ba84 g     F .text	00000020 OSInitHookEnd
00000020 g       *ABS*	00000000 __ram_exceptions_start
0001f69a g     O .rwdata	00000002 OSTCBPrioTblMax
00007c74 g     F .text	0000000c localeconv
00007e30 g     F .text	00000090 __swhatbuf_r
0001f694 g     O .rwdata	00000002 OSTaskStatStkChkEn
0001afa0 g     F .text	00000050 alt_ic_isr_register
0001f668 g     O .rwdata	00000002 OSMemEn
0001f672 g     O .rwdata	00000002 OSMutexEn
00000dc4 g     F .text	00000080 VgaSetCursor
0001f6c8 g       *ABS*	00000000 _edata
0002ee34 g       *ABS*	00000000 _end
000224b9 g     O .bss	00000001 OSIntNesting
0000c5fc g     F .text	00000164 __fputwc
00000238 g       *ABS*	00000000 __ram_exceptions_end
0001a488 g     F .text	000000f4 altera_avalon_jtag_uart_ioctl
00019574 g     F .text	000001dc OSTimeDlyResume
0001472c g     F .text	000000fc OSFlagNameSet
0001f698 g     O .rwdata	00000002 OSTaskRegTblSize
00018b00 g     F .text	000001b0 OSTaskStkChk
0001b078 g     F .text	0000008c alt_ic_irq_disable
0001f66e g     O .rwdata	00000002 OSMemSize
00009b60 g     F .text	00000080 __swrite
0001f61c g     O .rwdata	00000004 __malloc_trim_threshold
000224c8 g     O .bss	00000004 OSTCBCur
0001be94 g     F .text	00000034 exit
0000c5c4 g     F .text	00000038 fiprintf
0000d6d0 g     F .text	00000004 _vfiprintf_r
0001f670 g     O .rwdata	00000002 OSMemTblSize
00007bb8 g     F .text	000000a8 _fwalk_reent
000093dc g     F .text	0000022c __mdiff
000011d8 g     F .text	00000074 .hidden __modsi3
00022444 g     O .bss	00000004 BtnState
04000000 g       *ABS*	00000000 __alt_data_end
00000020 g     F .exceptions	00000000 alt_exception
000076d4 g     F .text	00000004 __sfp_lock_release
000125b0 g     F .text	00000058 OSInit
00000000 g       *ABS*	00000000 __alt_mem_sdram
00018e98 g     F .text	00000128 OSTaskQuery
00016e38 g     F .text	000000cc OS_QInit
000137d4 g     F .text	00000064 OS_StrLen
00015a64 g     F .text	000000c0 OSMemNameSet
0001c404 g     O .rodata	00000101 _ctype_
00010d1c g     F .text	00000054 .hidden __unorddf2
0001f68a g     O .rwdata	00000002 OSTaskProfileEn
000224e8 g     O .bss	00000004 OSTime
0002d340 g     O .bss	00000800 OSTaskIdleStk
000110c0 g     F .text	00000038 _exit
0001ac14 g     F .text	00000160 alt_alarm_start
00014600 g     F .text	0000012c OSFlagNameGet
00019750 g     F .text	00000060 OSTimeGet
00022458 g     O .bss	00000004 m
0000decc g     F .text	00000060 .hidden __muldi3
00007c80 g     F .text	000001b0 __smakebuf_r
000014a0 g     F .text	00000098 strlen
0000d97c g     F .text	0000005c _init_signal_r
0001ba04 g     F .text	00000020 OSTaskSwHook
0001b458 g     F .text	00000154 open
0002c550 g     O .bss	000004b0 OSEventTbl
0000fb64 g     F .text	000000e8 .hidden __gedf2
0002db94 g     O .bss	00000a20 OSTCBTbl
00017868 g     F .text	000000f4 OSSemSet
0000c350 g     F .text	00000014 __assert
0000aef0 g     F .text	00000018 __sprint_r
0001af6c g     F .text	00000034 alt_icache_flush_all
0001f6bc g     O .rwdata	00000004 alt_priority_mask
00017090 g     F .text	00000238 OSSemDel
000224a8 g     O .bss	00000004 OSFlagFreeList
0001aff0 g     F .text	00000088 alt_ic_irq_enable
000054e0 g     F .text	0000001c __vfprintf_internal
000224b8 g     O .bss	00000001 OSStatRdy
0002db40 g     O .bss	00000054 OSTCBPrioTbl
0000d928 g     F .text	0000000c _wctomb_r
00011a48 g     F .text	000000c0 __env_lock
0001f696 g     O .rwdata	00000002 OSTaskSwHookEn
00010448 g     F .text	000008d4 .hidden __subdf3
000006d0 g     F .text	0000008c task_affichage
00008d00 g     F .text	000000b0 __lo0bits
0001f6c0 g     O .rwdata	00000008 alt_alarm_list
0001f65e g     O .rwdata	00000002 OSFlagWidth
0001aea4 g     F .text	00000064 _do_ctors
0000ddac g     F .text	000000bc __sigtramp
0000d8a0 g     F .text	00000088 wcrtomb
00010fc4 g     F .text	000000d0 close
0002a500 g     O .bss	00002000 task5_stk
000002e0 g     F .text	00000058 BSP_setLED
00022490 g     O .bss	00000004 alt_envsem
000224b4 g     O .bss	00000004 OSIdleCtrRun
0002244c g     O .bss	00000004 config
0001e190 g     O .rwdata	0000016c __global_locale
00012c04 g     F .text	00000020 OSVersion
0001f6ac g     O .rwdata	00000002 OSTmrCfgWheelSize
00011478 g     F .text	00000084 alt_load
000192c4 g     F .text	00000070 OS_TaskStkClr
0001f682 g     O .rwdata	00000002 OSTaskCreateEn
000131c4 g     F .text	00000060 OS_EventWaitListInit
00001020 g     F .text	00000138 VgaDrawBox
0000c784 g     F .text	00000078 fputwc
0000dbf0 g     F .text	000000bc raise
0001baa4 g     F .text	00000020 OSTaskIdleHook
000076d8 g     F .text	00000004 __sinit_lock_acquire
00008a2c g     F .text	00000138 __multadd
00018cb0 g     F .text	000001e8 OSTaskSuspend
00008a08 g     F .text	00000024 _Bfree
00013838 g     F .text	00000060 OS_TaskIdle
0001f6b2 g     O .rwdata	00000002 OSTmrTblSize
00016cd8 g     F .text	00000160 OSQQuery



Disassembly of section .entry:

00000000 <__reset>:
#if NIOS2_ICACHE_SIZE > 0 && defined(ALT_ALLOW_CODE_AT_RESET) && (!defined(ALT_SIM_OPTIMIZE) || defined(NIOS2_ECC_PRESENT))
    /* Assume the instruction cache size is always a power of two. */
#if NIOS2_ICACHE_SIZE > 0x8000
    movhi r2, %hi(NIOS2_ICACHE_SIZE)
#else
    movui r2, NIOS2_ICACHE_SIZE
   0:	00840014 	movui	r2,4096
#endif

0:
    initi r2
   4:	1001483a 	initi	r2
    addi r2, r2, -NIOS2_ICACHE_LINE_SIZE
   8:	10bff804 	addi	r2,r2,-32
    bgt r2, zero, 0b
   c:	00bffd16 	blt	zero,r2,4 <__reset+0x4>
 * Jump to the _start entry point in the .text section if reset code
 * is allowed or if optimizing for RTL simulation.
 */
#if defined(ALT_ALLOW_CODE_AT_RESET) || defined(ALT_SIM_OPTIMIZE)
    /* Jump to the _start entry point in the .text section. */
    movhi r1, %hi(_start)
  10:	00400034 	movhi	at,0
    ori r1, r1, %lo(_start)
  14:	08408e14 	ori	at,at,568
    jmp r1
  18:	0800683a 	jmp	at
  1c:	00000000 	call	0 <__reset>

Disassembly of section .exceptions:

00000020 <alt_exception>:

#else /* ALT_EXCEPTION_STACK disabled */
        /* 
         * Reserve space on normal stack for registers about to be pushed.
         */
        addi  sp, sp, -76
  20:	deffed04 	addi	sp,sp,-76
         * documentation for details).
         *
         * Leave a gap in the stack frame at 4(sp) for the muldiv handler to
         * store zero into.
         */
        stw   ra,  0(sp)
  24:	dfc00015 	stw	ra,0(sp)
        stw   r1,   8(sp)
  28:	d8400215 	stw	at,8(sp)
        stw   r2,  12(sp)
  2c:	d8800315 	stw	r2,12(sp)
        stw   r3,  16(sp)
  30:	d8c00415 	stw	r3,16(sp)
        stw   r4,  20(sp)
  34:	d9000515 	stw	r4,20(sp)
        stw   r5,  24(sp)
  38:	d9400615 	stw	r5,24(sp)
        stw   r6,  28(sp)
  3c:	d9800715 	stw	r6,28(sp)
        stw   r7,  32(sp)
  40:	d9c00815 	stw	r7,32(sp)
        rdctl r5, estatus   /* Read early to avoid usage stall */
  44:	000b307a 	rdctl	r5,estatus
        stw   r8,  36(sp)
  48:	da000915 	stw	r8,36(sp)
        stw   r9,  40(sp)
  4c:	da400a15 	stw	r9,40(sp)
        stw   r10, 44(sp)
  50:	da800b15 	stw	r10,44(sp)
        stw   r11, 48(sp)
  54:	dac00c15 	stw	r11,48(sp)
        stw   r12, 52(sp)
  58:	db000d15 	stw	r12,52(sp)
        stw   r13, 56(sp)
  5c:	db400e15 	stw	r13,56(sp)
        stw   r14, 60(sp)
  60:	db800f15 	stw	r14,60(sp)
        stw   r15, 64(sp)
  64:	dbc01015 	stw	r15,64(sp)
        /*
         * ea-4 contains the address of the instruction being executed
         * when the exception occured. For interrupt exceptions, we will
         * will be re-issue the isntruction. Store it in 72(sp)
         */
        stw   r5,  68(sp)  /* estatus */
  68:	d9401115 	stw	r5,68(sp)
        addi  r15, ea, -4  /* instruction that caused exception */
  6c:	ebffff04 	addi	r15,ea,-4
        stw   r15,  72(sp)
  70:	dbc01215 	stw	r15,72(sp)
#else
        /*
         * Test to see if the exception was a software exception or caused 
         * by an external interrupt, and vector accordingly.
         */
        rdctl r4, ipending
  74:	0009313a 	rdctl	r4,ipending
        andi  r2, r5, 1
  78:	2880004c 	andi	r2,r5,1
        beq   r2, zero, .Lnot_irq
  7c:	10000326 	beq	r2,zero,8c <OSCtxSw_SWITCH_PC+0x4c>
        beq   r4, zero, .Lnot_irq
  80:	20000226 	beq	r4,zero,8c <OSCtxSw_SWITCH_PC+0x4c>
        /*
         * Now that all necessary registers have been preserved, call 
         * alt_irq_handler() to process the interrupts.
         */

        call alt_irq_handler
  84:	00000fc0 	call	fc <alt_irq_handler>

        .section .exceptions.irqreturn, "xa"

        br    .Lexception_exit
  88:	00000706 	br	a8 <OSCtxSw_SWITCH_PC+0x68>
         * upon completion, so we write ea (address of instruction *after*
         * the one where the exception occured) into 72(sp). The actual
         * instruction that caused the exception is written in r2, which these
         * handlers will utilize.
         */
        stw ea, 72(sp) /* EA is PC+4 so will skip over instruction causing exception */
  8c:	df401215 	stw	ea,72(sp)
.Lunknown_16bit:
        addi.n r4, r4, 2 /* Need PC+2 to skip over instruction causing exception */
        stw r4, 72(sp)

#else /* CDX is not Enabled and all instructions are 32bits */
        ldw r2, -4(ea) /* Instruction value that caused exception */
  90:	e8bfff17 	ldw	r2,-4(ea)
  94:	e93fff04 	addi	r4,ea,-4
  98:	00001c40 	call	1c4 <alt_instruction_exception_entry>
  9c:	1000021e 	bne	r2,zero,a8 <OSCtxSw_SWITCH_PC+0x68>
  a0:	ebffff04 	addi	r15,ea,-4
  a4:	dbc01215 	stw	r15,72(sp)
        /* 
         * Restore the saved registers, so that all general purpose registers 
         * have been restored to their state at the time the interrupt occured.
         */

        ldw   r5,  68(sp)
  a8:	d9401117 	ldw	r5,68(sp)
        ldw   ea,  72(sp)  /* This becomes the PC once eret is executed */
  ac:	df401217 	ldw	ea,72(sp)
        ldw   ra,   0(sp)
  b0:	dfc00017 	ldw	ra,0(sp)

        wrctl estatus, r5
  b4:	2801707a 	wrctl	estatus,r5

        ldw   r1,   8(sp)
  b8:	d8400217 	ldw	at,8(sp)
        ldw   r2,  12(sp)
  bc:	d8800317 	ldw	r2,12(sp)
        ldw   r3,  16(sp)
  c0:	d8c00417 	ldw	r3,16(sp)
        ldw   r4,  20(sp)
  c4:	d9000517 	ldw	r4,20(sp)
        ldw   r5,  24(sp)
  c8:	d9400617 	ldw	r5,24(sp)
        ldw   r6,  28(sp)
  cc:	d9800717 	ldw	r6,28(sp)
        ldw   r7,  32(sp)
  d0:	d9c00817 	ldw	r7,32(sp)

#if defined(ALT_EXCEPTION_STACK) && defined(ALT_STACK_CHECK)
        ldw   et, %gprel(alt_exception_old_stack_limit)(gp)
#endif

        ldw   r8,  36(sp)
  d4:	da000917 	ldw	r8,36(sp)
        ldw   r9,  40(sp)
  d8:	da400a17 	ldw	r9,40(sp)
        ldw   r10, 44(sp)
  dc:	da800b17 	ldw	r10,44(sp)
        ldw   r11, 48(sp)
  e0:	dac00c17 	ldw	r11,48(sp)
        ldw   r12, 52(sp)
  e4:	db000d17 	ldw	r12,52(sp)
        ldw   r13, 56(sp)
  e8:	db400e17 	ldw	r13,56(sp)
        ldw   r14, 60(sp)
  ec:	db800f17 	ldw	r14,60(sp)
        ldw   r15, 64(sp)
  f0:	dbc01017 	ldw	r15,64(sp)
        stw   et, %gprel(alt_stack_limit_value)(gp)
        stw   zero, %gprel(alt_exception_old_stack_limit)(gp)
#endif /* ALT_STACK_CHECK */
        ldw   sp,  76(sp)
#else /* ALT_EXCEPTION_STACK disabled */
        addi  sp, sp, 76
  f4:	dec01304 	addi	sp,sp,76

        /*
         * Return to the interrupted instruction.
         */

        eret
  f8:	ef80083a 	eret

000000fc <alt_irq_handler>:
 * instruction is present if the macro ALT_CI_INTERRUPT_VECTOR defined.
 */

void alt_irq_handler (void) __attribute__ ((section (".exceptions")));
void alt_irq_handler (void)
{
  fc:	defff904 	addi	sp,sp,-28
 100:	dfc00615 	stw	ra,24(sp)
 104:	df000515 	stw	fp,20(sp)
 108:	df000504 	addi	fp,sp,20
  
  /*
   * Notify the operating system that we are at interrupt level.
   */ 
  
  ALT_OS_INT_ENTER();
 10c:	00126080 	call	12608 <OSIntEnter>
#ifndef NIOS2_EIC_PRESENT
static ALT_INLINE alt_u32 ALT_ALWAYS_INLINE alt_irq_pending (void)
{
  alt_u32 active;

  NIOS2_READ_IPENDING (active);
 110:	0005313a 	rdctl	r2,ipending
 114:	e0bffc15 	stw	r2,-16(fp)

  return active;
 118:	e0bffc17 	ldw	r2,-16(fp)
   * Consider the case where the high priority interupt is asserted during
   * the interrupt entry sequence for a lower priority interrupt to see why
   * this is the case.
   */

  active = alt_irq_pending ();
 11c:	e0bfff15 	stw	r2,-4(fp)

  do
  {
    i = 0;
 120:	e03ffd15 	stw	zero,-12(fp)
    mask = 1;
 124:	00800044 	movi	r2,1
 128:	e0bffe15 	stw	r2,-8(fp)
     * called to clear the interrupt condition.
     */

    do
    {
      if (active & mask)
 12c:	e0ffff17 	ldw	r3,-4(fp)
 130:	e0bffe17 	ldw	r2,-8(fp)
 134:	1884703a 	and	r2,r3,r2
 138:	10001126 	beq	r2,zero,180 <alt_irq_handler+0x84>
      { 
#ifdef ALT_ENHANCED_INTERRUPT_API_PRESENT
        alt_irq[i].handler(alt_irq[i].context); 
 13c:	e0bffd17 	ldw	r2,-12(fp)
 140:	100690fa 	slli	r3,r2,3
 144:	008000f4 	movhi	r2,3
 148:	1885883a 	add	r2,r3,r2
 14c:	10fb4d17 	ldw	r3,-4812(r2)
 150:	e0bffd17 	ldw	r2,-12(fp)
 154:	100890fa 	slli	r4,r2,3
 158:	008000f4 	movhi	r2,3
 15c:	2085883a 	add	r2,r4,r2
 160:	10bb4e17 	ldw	r2,-4808(r2)
 164:	1009883a 	mov	r4,r2
 168:	183ee83a 	callr	r3
#else
        alt_irq[i].handler(alt_irq[i].context, i); 
#endif
        break;
 16c:	0001883a 	nop
  NIOS2_READ_IPENDING (active);
 170:	0005313a 	rdctl	r2,ipending
 174:	e0bffb15 	stw	r2,-20(fp)
  return active;
 178:	e0bffb17 	ldw	r2,-20(fp)
 17c:	00000706 	br	19c <alt_irq_handler+0xa0>
      }
      mask <<= 1;
 180:	e0bffe17 	ldw	r2,-8(fp)
 184:	1085883a 	add	r2,r2,r2
 188:	e0bffe15 	stw	r2,-8(fp)
      i++;
 18c:	e0bffd17 	ldw	r2,-12(fp)
 190:	10800044 	addi	r2,r2,1
 194:	e0bffd15 	stw	r2,-12(fp)
      if (active & mask)
 198:	003fe406 	br	12c <alt_irq_handler+0x30>

    } while (1);

    active = alt_irq_pending ();
 19c:	e0bfff15 	stw	r2,-4(fp)
    
  } while (active);
 1a0:	e0bfff17 	ldw	r2,-4(fp)
 1a4:	103fde1e 	bne	r2,zero,120 <alt_irq_handler+0x24>

  /*
   * Notify the operating system that interrupt processing is complete.
   */ 

  ALT_OS_INT_EXIT();
 1a8:	00126540 	call	12654 <OSIntExit>
}
 1ac:	0001883a 	nop
 1b0:	e037883a 	mov	sp,fp
 1b4:	dfc00117 	ldw	ra,4(sp)
 1b8:	df000017 	ldw	fp,0(sp)
 1bc:	dec00204 	addi	sp,sp,8
 1c0:	f800283a 	ret

000001c4 <alt_instruction_exception_entry>:
 * that handler if it has been registered. Absent a handler, it will
 * break break or hang as discussed below.
 */
int 
alt_instruction_exception_entry (alt_u32 exception_pc)
{
 1c4:	defffb04 	addi	sp,sp,-20
 1c8:	dfc00415 	stw	ra,16(sp)
 1cc:	df000315 	stw	fp,12(sp)
 1d0:	df000304 	addi	fp,sp,12
 1d4:	e13ffd15 	stw	r4,-12(fp)
 * NIOS2_EXCEPTION_CAUSE_NOT_PRESENT. Your handling routine should
 * check the validity of the cause argument before proceeding.
 */
#ifdef NIOS2_HAS_EXTRA_EXCEPTION_INFO
  /* Get exception cause & "badaddr" */
  NIOS2_READ_EXCEPTION(cause);
 1d8:	000531fa 	rdctl	r2,exception
 1dc:	e0bfff15 	stw	r2,-4(fp)
  cause = ( (cause & NIOS2_EXCEPTION_REG_CAUSE_MASK) >>
 1e0:	e0bfff17 	ldw	r2,-4(fp)
 1e4:	1004d0ba 	srli	r2,r2,2
 1e8:	108007cc 	andi	r2,r2,31
 1ec:	e0bfff15 	stw	r2,-4(fp)
              NIOS2_EXCEPTION_REG_CAUSE_OFST );

  NIOS2_READ_BADADDR(badaddr);
 1f0:	0005333a 	rdctl	r2,badaddr
 1f4:	e0bffe15 	stw	r2,-8(fp)
#else
  cause = NIOS2_EXCEPTION_CAUSE_NOT_PRESENT;
  badaddr = 0;
#endif /* NIOS2_HAS_EXTRA_EXCEPTION_INFO */

  if(alt_instruction_exception_handler) {
 1f8:	d0abbc17 	ldw	r2,-20752(gp)
 1fc:	10000726 	beq	r2,zero,21c <alt_instruction_exception_entry+0x58>
     * Call handler. Its return value indicates whether the exception-causing
     * instruction should be re-issued. The code that called us,
     * alt_eceptions_entry.S, will look at this value and adjust the ea
     * register as necessary
     */
    return alt_instruction_exception_handler(cause, exception_pc, badaddr);
 200:	d0abbc17 	ldw	r2,-20752(gp)
 204:	e0ffff17 	ldw	r3,-4(fp)
 208:	e1bffe17 	ldw	r6,-8(fp)
 20c:	e17ffd17 	ldw	r5,-12(fp)
 210:	1809883a 	mov	r4,r3
 214:	103ee83a 	callr	r2
 218:	00000206 	br	224 <alt_instruction_exception_entry+0x60>
   *    (a peripheral which negates its interrupt output before its
   *    interrupt handler has been executed will cause spurious interrupts)
   */
  else {
#ifdef NIOS2_HAS_DEBUG_STUB
    NIOS2_BREAK();
 21c:	003da03a 	break	0
      ;
#endif /* NIOS2_HAS_DEBUG_STUB */
  }

  /* We should not get here. Remove compiler warning. */
  return NIOS2_EXCEPTION_RETURN_REISSUE_INST;
 220:	0005883a 	mov	r2,zero
}
 224:	e037883a 	mov	sp,fp
 228:	dfc00117 	ldw	ra,4(sp)
 22c:	df000017 	ldw	fp,0(sp)
 230:	dec00204 	addi	sp,sp,8
 234:	f800283a 	ret

Disassembly of section .text:

00000238 <_start>:

    /* Assume the data cache size is always a power of two. */
#if NIOS2_DCACHE_SIZE > 0x8000
    movhi r2, %hi(NIOS2_DCACHE_SIZE)
#else
    movui r2, NIOS2_DCACHE_SIZE
     238:	00820014 	movui	r2,2048
#endif

0:
    initd 0(r2)
     23c:	10000033 	initd	0(r2)
#ifdef NIOS2_ECC_PRESENT
    addi r2, r2, -4
#else
    addi r2, r2, -NIOS2_DCACHE_LINE_SIZE
     240:	10bff804 	addi	r2,r2,-32
#endif
    bgt r2, zero, 0b
     244:	00bffd16 	blt	zero,r2,23c <_start+0x4>

    /*
     * Now that the caches are initialized, set up the stack pointer and global pointer.
     * The values provided by the linker are assumed to be correctly aligned.
     */
    movhi sp, %hi(__alt_stack_pointer)
     248:	06c10034 	movhi	sp,1024
    ori sp, sp, %lo(__alt_stack_pointer)
     24c:	dec00014 	ori	sp,sp,0
    movhi gp, %hi(_gp)
     250:	068000b4 	movhi	gp,2
    ori gp, gp, %lo(_gp)
     254:	d69d8314 	ori	gp,gp,30220
 */
#ifndef ALT_SIM_OPTIMIZE
    /* Log that the BSS is about to be cleared. */
    ALT_LOG_PUTS(alt_log_msg_bss)

    movhi r2, %hi(__bss_start)
     258:	008000b4 	movhi	r2,2
    ori r2, r2, %lo(__bss_start)
     25c:	10890f14 	ori	r2,r2,9276

    movhi r3, %hi(__bss_end)
     260:	00c000b4 	movhi	r3,2
    ori r3, r3, %lo(__bss_end)
     264:	18fb8d14 	ori	r3,r3,60980

    beq r2, r3, 1f
     268:	10c00326 	beq	r2,r3,278 <_start+0x40>

0:
    stw zero, (r2)
     26c:	10000015 	stw	zero,0(r2)
    addi r2, r2, 4
     270:	10800104 	addi	r2,r2,4
    bltu r2, r3, 0b
     274:	10fffd36 	bltu	r2,r3,26c <_start+0x34>
     * section aren't defined until alt_load() has been called).
     */
    mov   et, zero
#endif

    call alt_load
     278:	00114780 	call	11478 <alt_load>

    /* Log that alt_main is about to be called. */
    ALT_LOG_PUTS(alt_log_msg_alt_main)

    /* Call the C entry point. It should never return. */
    call alt_main
     27c:	001160c0 	call	1160c <alt_main>

00000280 <alt_after_alt_main>:

    /* Wait in infinite loop in case alt_main does return. */
alt_after_alt_main:
    br alt_after_alt_main
     280:	003fff06 	br	280 <alt_after_alt_main>

00000284 <BSP_init>:
static unsigned char szMap[] = {
        63, 6, 91, 79, 102, 109, 125, 7, 127, 111, 119, 124, 57, 94, 121, 113};
      // 0, 1,  2,  3,   4,   5,   6, 7,   8,   9,   a,   b,  c,  d,   e,   f


void BSP_init(void){
     284:	defffd04 	addi	sp,sp,-12
     288:	dfc00215 	stw	ra,8(sp)
     28c:	df000115 	stw	fp,4(sp)
     290:	df000104 	addi	fp,sp,4
	int i;
	for (i = 0;i< 10;i++){
     294:	e03fff15 	stw	zero,-4(fp)
     298:	00000706 	br	2b8 <BSP_init+0x34>
		BSP_clrLED(i);
     29c:	e0bfff17 	ldw	r2,-4(fp)
     2a0:	10803fcc 	andi	r2,r2,255
     2a4:	1009883a 	mov	r4,r2
     2a8:	00003380 	call	338 <BSP_clrLED>
	for (i = 0;i< 10;i++){
     2ac:	e0bfff17 	ldw	r2,-4(fp)
     2b0:	10800044 	addi	r2,r2,1
     2b4:	e0bfff15 	stw	r2,-4(fp)
     2b8:	e0bfff17 	ldw	r2,-4(fp)
     2bc:	10800290 	cmplti	r2,r2,10
     2c0:	103ff61e 	bne	r2,zero,29c <BSP_init+0x18>
	}
	SEG7_off();
     2c4:	00004740 	call	474 <SEG7_off>
}
     2c8:	0001883a 	nop
     2cc:	e037883a 	mov	sp,fp
     2d0:	dfc00117 	ldw	ra,4(sp)
     2d4:	df000017 	ldw	fp,0(sp)
     2d8:	dec00204 	addi	sp,sp,8
     2dc:	f800283a 	ret

000002e0 <BSP_setLED>:

void BSP_setLED(unsigned char lite){
     2e0:	defffd04 	addi	sp,sp,-12
     2e4:	df000215 	stw	fp,8(sp)
     2e8:	df000204 	addi	fp,sp,8
     2ec:	2005883a 	mov	r2,r4
     2f0:	e0bffe05 	stb	r2,-8(fp)
	int led_status;
	led_status = IORD(LEDS_BASE,0);
     2f4:	0083c034 	movhi	r2,3840
     2f8:	10803037 	ldwio	r2,192(r2)
     2fc:	e0bfff15 	stw	r2,-4(fp)
	led_status = led_status | 1 << lite;
     300:	e0bffe03 	ldbu	r2,-8(fp)
     304:	00c00044 	movi	r3,1
     308:	1884983a 	sll	r2,r3,r2
     30c:	e0ffff17 	ldw	r3,-4(fp)
     310:	1884b03a 	or	r2,r3,r2
     314:	e0bfff15 	stw	r2,-4(fp)
	IOWR(LEDS_BASE,0,led_status);
     318:	e0ffff17 	ldw	r3,-4(fp)
     31c:	0083c034 	movhi	r2,3840
     320:	10c03035 	stwio	r3,192(r2)
}
     324:	0001883a 	nop
     328:	e037883a 	mov	sp,fp
     32c:	df000017 	ldw	fp,0(sp)
     330:	dec00104 	addi	sp,sp,4
     334:	f800283a 	ret

00000338 <BSP_clrLED>:

void BSP_clrLED(unsigned char lite){
     338:	defffd04 	addi	sp,sp,-12
     33c:	df000215 	stw	fp,8(sp)
     340:	df000204 	addi	fp,sp,8
     344:	2005883a 	mov	r2,r4
     348:	e0bffe05 	stb	r2,-8(fp)
	int led_status;
	led_status = IORD(LEDS_BASE,0);
     34c:	0083c034 	movhi	r2,3840
     350:	10803037 	ldwio	r2,192(r2)
     354:	e0bfff15 	stw	r2,-4(fp)
	led_status = led_status & ~(1 << lite);
     358:	e0bffe03 	ldbu	r2,-8(fp)
     35c:	00c00044 	movi	r3,1
     360:	1884983a 	sll	r2,r3,r2
     364:	0084303a 	nor	r2,zero,r2
     368:	e0ffff17 	ldw	r3,-4(fp)
     36c:	1884703a 	and	r2,r3,r2
     370:	e0bfff15 	stw	r2,-4(fp)
	IOWR(LEDS_BASE,0,led_status);
     374:	e0ffff17 	ldw	r3,-4(fp)
     378:	0083c034 	movhi	r2,3840
     37c:	10c03035 	stwio	r3,192(r2)
}
     380:	0001883a 	nop
     384:	e037883a 	mov	sp,fp
     388:	df000017 	ldw	fp,0(sp)
     38c:	dec00104 	addi	sp,sp,4
     390:	f800283a 	ret

00000394 <BSP_readSW>:

unsigned int BSP_readSW(){
     394:	deffff04 	addi	sp,sp,-4
     398:	df000015 	stw	fp,0(sp)
     39c:	d839883a 	mov	fp,sp
	return IORD(SWITCHS_BASE,0);
     3a0:	0083c034 	movhi	r2,3840
     3a4:	10802837 	ldwio	r2,160(r2)
}
     3a8:	e037883a 	mov	sp,fp
     3ac:	df000017 	ldw	fp,0(sp)
     3b0:	dec00104 	addi	sp,sp,4
     3b4:	f800283a 	ret

000003b8 <BSP_readBP>:

unsigned int BSP_readBP(unsigned char nbr){
     3b8:	defffd04 	addi	sp,sp,-12
     3bc:	df000215 	stw	fp,8(sp)
     3c0:	df000204 	addi	fp,sp,8
     3c4:	2005883a 	mov	r2,r4
     3c8:	e0bffe05 	stb	r2,-8(fp)
	int btn;
	btn = (IORD(BP_BASE,0) >> nbr) & 1;
     3cc:	0083c034 	movhi	r2,3840
     3d0:	10c02037 	ldwio	r3,128(r2)
     3d4:	e0bffe03 	ldbu	r2,-8(fp)
     3d8:	1885d83a 	sra	r2,r3,r2
     3dc:	1080004c 	andi	r2,r2,1
     3e0:	e0bfff15 	stw	r2,-4(fp)
	if(btn)
     3e4:	e0bfff17 	ldw	r2,-4(fp)
     3e8:	10000226 	beq	r2,zero,3f4 <BSP_readBP+0x3c>
		return ON;
     3ec:	0005883a 	mov	r2,zero
     3f0:	00000106 	br	3f8 <BSP_readBP+0x40>
	else
		return OFF;
     3f4:	00800044 	movi	r2,1
}
     3f8:	e037883a 	mov	sp,fp
     3fc:	df000017 	ldw	fp,0(sp)
     400:	dec00104 	addi	sp,sp,4
     404:	f800283a 	ret

00000408 <SEG7_on>:

void SEG7_on(void){
     408:	defffe04 	addi	sp,sp,-8
     40c:	df000115 	stw	fp,4(sp)
     410:	df000104 	addi	fp,sp,4
	int seg_num;
	for (seg_num=0;seg_num<SEG7_NUM;seg_num++){
     414:	e03fff15 	stw	zero,-4(fp)
     418:	00000d06 	br	450 <SEG7_on+0x48>
		SEG7_SET(seg_num,szMap[8]);
     41c:	e0bfff17 	ldw	r2,-4(fp)
     420:	100490ba 	slli	r2,r2,2
     424:	1007883a 	mov	r3,r2
     428:	0083c034 	movhi	r2,3840
     42c:	10803804 	addi	r2,r2,224
     430:	1885883a 	add	r2,r3,r2
     434:	00c000b4 	movhi	r3,2
     438:	18f25703 	ldbu	r3,-13988(r3)
     43c:	18c03fcc 	andi	r3,r3,255
     440:	10c00035 	stwio	r3,0(r2)
	for (seg_num=0;seg_num<SEG7_NUM;seg_num++){
     444:	e0bfff17 	ldw	r2,-4(fp)
     448:	10800044 	addi	r2,r2,1
     44c:	e0bfff15 	stw	r2,-4(fp)
     450:	e0bfff17 	ldw	r2,-4(fp)
     454:	10800190 	cmplti	r2,r2,6
     458:	103ff01e 	bne	r2,zero,41c <SEG7_on+0x14>
	}
}
     45c:	0001883a 	nop
     460:	0001883a 	nop
     464:	e037883a 	mov	sp,fp
     468:	df000017 	ldw	fp,0(sp)
     46c:	dec00104 	addi	sp,sp,4
     470:	f800283a 	ret

00000474 <SEG7_off>:

void SEG7_off(void){
     474:	defffe04 	addi	sp,sp,-8
     478:	df000115 	stw	fp,4(sp)
     47c:	df000104 	addi	fp,sp,4
	int seg_num;
	for (seg_num=0;seg_num<SEG7_NUM;seg_num++){
     480:	e03fff15 	stw	zero,-4(fp)
     484:	00000b06 	br	4b4 <SEG7_off+0x40>
		SEG7_SET(seg_num,0);
     488:	e0bfff17 	ldw	r2,-4(fp)
     48c:	100490ba 	slli	r2,r2,2
     490:	1007883a 	mov	r3,r2
     494:	0083c034 	movhi	r2,3840
     498:	10803804 	addi	r2,r2,224
     49c:	1885883a 	add	r2,r3,r2
     4a0:	0007883a 	mov	r3,zero
     4a4:	10c00035 	stwio	r3,0(r2)
	for (seg_num=0;seg_num<SEG7_NUM;seg_num++){
     4a8:	e0bfff17 	ldw	r2,-4(fp)
     4ac:	10800044 	addi	r2,r2,1
     4b0:	e0bfff15 	stw	r2,-4(fp)
     4b4:	e0bfff17 	ldw	r2,-4(fp)
     4b8:	10800190 	cmplti	r2,r2,6
     4bc:	103ff21e 	bne	r2,zero,488 <SEG7_off+0x14>
	}
}
     4c0:	0001883a 	nop
     4c4:	0001883a 	nop
     4c8:	e037883a 	mov	sp,fp
     4cc:	df000017 	ldw	fp,0(sp)
     4d0:	dec00104 	addi	sp,sp,4
     4d4:	f800283a 	ret

000004d8 <SEG7_Decimal>:

void SEG7_Decimal(unsigned int value){
     4d8:	defff904 	addi	sp,sp,-28
     4dc:	dfc00615 	stw	ra,24(sp)
     4e0:	df000515 	stw	fp,20(sp)
     4e4:	df000504 	addi	fp,sp,20
     4e8:	e13ffb15 	stw	r4,-20(fp)
	char seg[10];
	int seg_num;

	sprintf(seg,"%d",value);
     4ec:	e0bffc84 	addi	r2,fp,-14
     4f0:	e1bffb17 	ldw	r6,-20(fp)
     4f4:	014000b4 	movhi	r5,2
     4f8:	29703c04 	addi	r5,r5,-16144
     4fc:	1009883a 	mov	r4,r2
     500:	000143c0 	call	143c <sprintf>
	SEG7_off();
     504:	00004740 	call	474 <SEG7_off>

	for (seg_num=0;seg_num<strlen(seg);seg_num++){
     508:	e03fff15 	stw	zero,-4(fp)
     50c:	00001a06 	br	578 <SEG7_Decimal+0xa0>
		SEG7_SET(strlen(seg)-seg_num-1, szMap[seg[seg_num]-'0']);
     510:	e0bffc84 	addi	r2,fp,-14
     514:	1009883a 	mov	r4,r2
     518:	00014a00 	call	14a0 <strlen>
     51c:	1007883a 	mov	r3,r2
     520:	e0bfff17 	ldw	r2,-4(fp)
     524:	1885c83a 	sub	r2,r3,r2
     528:	10bfffc4 	addi	r2,r2,-1
     52c:	100690ba 	slli	r3,r2,2
     530:	0083c034 	movhi	r2,3840
     534:	10803804 	addi	r2,r2,224
     538:	1887883a 	add	r3,r3,r2
     53c:	e0bfff17 	ldw	r2,-4(fp)
     540:	e085883a 	add	r2,fp,r2
     544:	10bffc83 	ldbu	r2,-14(r2)
     548:	10803fcc 	andi	r2,r2,255
     54c:	1080201c 	xori	r2,r2,128
     550:	10bfe004 	addi	r2,r2,-128
     554:	113ff404 	addi	r4,r2,-48
     558:	008000b4 	movhi	r2,2
     55c:	2085883a 	add	r2,r4,r2
     560:	10b25503 	ldbu	r2,-13996(r2)
     564:	10803fcc 	andi	r2,r2,255
     568:	18800035 	stwio	r2,0(r3)
	for (seg_num=0;seg_num<strlen(seg);seg_num++){
     56c:	e0bfff17 	ldw	r2,-4(fp)
     570:	10800044 	addi	r2,r2,1
     574:	e0bfff15 	stw	r2,-4(fp)
     578:	e0bffc84 	addi	r2,fp,-14
     57c:	1009883a 	mov	r4,r2
     580:	00014a00 	call	14a0 <strlen>
     584:	1007883a 	mov	r3,r2
     588:	e0bfff17 	ldw	r2,-4(fp)
     58c:	10ffe036 	bltu	r2,r3,510 <SEG7_Decimal+0x38>
	}
}
     590:	0001883a 	nop
     594:	0001883a 	nop
     598:	e037883a 	mov	sp,fp
     59c:	dfc00117 	ldw	ra,4(sp)
     5a0:	df000017 	ldw	fp,0(sp)
     5a4:	dec00204 	addi	sp,sp,8
     5a8:	f800283a 	ret

000005ac <task_chrono>:
int s;
int m;
int h;


void *task_chrono() {
     5ac:	defffe04 	addi	sp,sp,-8
     5b0:	dfc00115 	stw	ra,4(sp)
     5b4:	df000015 	stw	fp,0(sp)
     5b8:	d839883a 	mov	fp,sp
  while(1) {
	switch (config){
     5bc:	d0ab9017 	ldw	r2,-20928(gp)
     5c0:	10c00120 	cmpeqi	r3,r2,4
     5c4:	18001a1e 	bne	r3,zero,630 <task_chrono+0x84>
     5c8:	10c00148 	cmpgei	r3,r2,5
     5cc:	18001d1e 	bne	r3,zero,644 <task_chrono+0x98>
     5d0:	10c000e0 	cmpeqi	r3,r2,3
     5d4:	1800111e 	bne	r3,zero,61c <task_chrono+0x70>
     5d8:	10c00108 	cmpgei	r3,r2,4
     5dc:	1800191e 	bne	r3,zero,644 <task_chrono+0x98>
     5e0:	10c00060 	cmpeqi	r3,r2,1
     5e4:	1800031e 	bne	r3,zero,5f4 <task_chrono+0x48>
     5e8:	108000a0 	cmpeqi	r2,r2,2
     5ec:	1000061e 	bne	r2,zero,608 <task_chrono+0x5c>
			config = 0;
			break;

		default:
			// ne fait rien
			break;
     5f0:	00001406 	br	644 <task_chrono+0x98>
			m++;
     5f4:	d0ab9317 	ldw	r2,-20916(gp)
     5f8:	10800044 	addi	r2,r2,1
     5fc:	d0ab9315 	stw	r2,-20916(gp)
			config = 0;
     600:	d02b9015 	stw	zero,-20928(gp)
			break;
     604:	00001006 	br	648 <task_chrono+0x9c>
			m += 10;
     608:	d0ab9317 	ldw	r2,-20916(gp)
     60c:	10800284 	addi	r2,r2,10
     610:	d0ab9315 	stw	r2,-20916(gp)
			config = 0;
     614:	d02b9015 	stw	zero,-20928(gp)
			break;
     618:	00000b06 	br	648 <task_chrono+0x9c>
			h++;
     61c:	d0ab9417 	ldw	r2,-20912(gp)
     620:	10800044 	addi	r2,r2,1
     624:	d0ab9415 	stw	r2,-20912(gp)
			config = 0;
     628:	d02b9015 	stw	zero,-20928(gp)
			break;
     62c:	00000606 	br	648 <task_chrono+0x9c>
			h += 10;
     630:	d0ab9417 	ldw	r2,-20912(gp)
     634:	10800284 	addi	r2,r2,10
     638:	d0ab9415 	stw	r2,-20912(gp)
			config = 0;
     63c:	d02b9015 	stw	zero,-20928(gp)
			break;
     640:	00000106 	br	648 <task_chrono+0x9c>
			break;
     644:	0001883a 	nop
	}
	ms += 100;
     648:	d0ab9117 	ldw	r2,-20924(gp)
     64c:	10801904 	addi	r2,r2,100
     650:	d0ab9115 	stw	r2,-20924(gp)
	if(ms >= 1000){
     654:	d0ab9117 	ldw	r2,-20924(gp)
     658:	1080fa10 	cmplti	r2,r2,1000
     65c:	1000041e 	bne	r2,zero,670 <task_chrono+0xc4>
		ms = 0;
     660:	d02b9115 	stw	zero,-20924(gp)
		s++;
     664:	d0ab9217 	ldw	r2,-20920(gp)
     668:	10800044 	addi	r2,r2,1
     66c:	d0ab9215 	stw	r2,-20920(gp)
	}
	if(s >= 60){
     670:	d0ab9217 	ldw	r2,-20920(gp)
     674:	10800f10 	cmplti	r2,r2,60
     678:	1000041e 	bne	r2,zero,68c <task_chrono+0xe0>
		s = 0;
     67c:	d02b9215 	stw	zero,-20920(gp)
		m++;
     680:	d0ab9317 	ldw	r2,-20916(gp)
     684:	10800044 	addi	r2,r2,1
     688:	d0ab9315 	stw	r2,-20916(gp)
	}
	if(m >= 60){
     68c:	d0ab9317 	ldw	r2,-20916(gp)
     690:	10800f10 	cmplti	r2,r2,60
     694:	1000041e 	bne	r2,zero,6a8 <task_chrono+0xfc>
		m = 0;
     698:	d02b9315 	stw	zero,-20916(gp)
		h++;
     69c:	d0ab9417 	ldw	r2,-20912(gp)
     6a0:	10800044 	addi	r2,r2,1
     6a4:	d0ab9415 	stw	r2,-20912(gp)
	}
	if(h >= 24){
     6a8:	d0ab9417 	ldw	r2,-20912(gp)
     6ac:	10800610 	cmplti	r2,r2,24
     6b0:	1000011e 	bne	r2,zero,6b8 <task_chrono+0x10c>
		h = 0;
     6b4:	d02b9415 	stw	zero,-20912(gp)
	}
    OSTimeDlyHMSM(0, 0, 0, 100);
     6b8:	01c01904 	movi	r7,100
     6bc:	000d883a 	mov	r6,zero
     6c0:	000b883a 	mov	r5,zero
     6c4:	0009883a 	mov	r4,zero
     6c8:	001944c0 	call	1944c <OSTimeDlyHMSM>
	switch (config){
     6cc:	003fbb06 	br	5bc <task_chrono+0x10>

000006d0 <task_affichage>:
  }
}


void *task_affichage(){
     6d0:	defff504 	addi	sp,sp,-44
     6d4:	dfc00a15 	stw	ra,40(sp)
     6d8:	df000915 	stw	fp,36(sp)
     6dc:	df000904 	addi	fp,sp,36
	char buf[30];
	while(1){
		SEG7_Decimal(h*10000 + m *100 + s);
     6e0:	d0ab9417 	ldw	r2,-20912(gp)
     6e4:	10c9c424 	muli	r3,r2,10000
     6e8:	d0ab9317 	ldw	r2,-20916(gp)
     6ec:	10801924 	muli	r2,r2,100
     6f0:	1887883a 	add	r3,r3,r2
     6f4:	d0ab9217 	ldw	r2,-20920(gp)
     6f8:	1885883a 	add	r2,r3,r2
     6fc:	1009883a 	mov	r4,r2
     700:	00004d80 	call	4d8 <SEG7_Decimal>
		sprintf(buf,"%02d:%02d:%02d",h,m,s);
     704:	d12b9417 	ldw	r4,-20912(gp)
     708:	d16b9317 	ldw	r5,-20916(gp)
     70c:	d0ab9217 	ldw	r2,-20920(gp)
     710:	e0fff884 	addi	r3,fp,-30
     714:	d8800015 	stw	r2,0(sp)
     718:	280f883a 	mov	r7,r5
     71c:	200d883a 	mov	r6,r4
     720:	014000b4 	movhi	r5,2
     724:	29703d04 	addi	r5,r5,-16140
     728:	1809883a 	mov	r4,r3
     72c:	000143c0 	call	143c <sprintf>
		VgaPrintAt(13,15,buf);
     730:	e0bff884 	addi	r2,fp,-30
     734:	100d883a 	mov	r6,r2
     738:	014003c4 	movi	r5,15
     73c:	01000344 	movi	r4,13
     740:	0000fd80 	call	fd8 <VgaPrintAt>
		OSTimeDlyHMSM(0, 0, 0, 100);
     744:	01c01904 	movi	r7,100
     748:	000d883a 	mov	r6,zero
     74c:	000b883a 	mov	r5,zero
     750:	0009883a 	mov	r4,zero
     754:	001944c0 	call	1944c <OSTimeDlyHMSM>
	while(1){
     758:	003fe106 	br	6e0 <task_affichage+0x10>

0000075c <task_btn>:
	}
}


void *task_btn()
{
     75c:	defffc04 	addi	sp,sp,-16
     760:	dfc00315 	stw	ra,12(sp)
     764:	df000215 	stw	fp,8(sp)
     768:	df000204 	addi	fp,sp,8
  INT8U i;
  unsigned int raw_state;

  for(i = 0; i< BUTTON; i++){
     76c:	e03fffc5 	stb	zero,-1(fp)
     770:	00000b06 	br	7a0 <task_btn+0x44>
	  BtnCounters[i] = 0;
     774:	e0ffffc3 	ldbu	r3,-1(fp)
     778:	d0ab8d04 	addi	r2,gp,-20940
     77c:	1885883a 	add	r2,r3,r2
     780:	10000005 	stb	zero,0(r2)
	  BtnState[i] = 0;
     784:	e0ffffc3 	ldbu	r3,-1(fp)
     788:	d0ab8e04 	addi	r2,gp,-20936
     78c:	1885883a 	add	r2,r3,r2
     790:	10000005 	stb	zero,0(r2)
  for(i = 0; i< BUTTON; i++){
     794:	e0bfffc3 	ldbu	r2,-1(fp)
     798:	10800044 	addi	r2,r2,1
     79c:	e0bfffc5 	stb	r2,-1(fp)
     7a0:	e0bfffc3 	ldbu	r2,-1(fp)
     7a4:	10800130 	cmpltui	r2,r2,4
     7a8:	103ff21e 	bne	r2,zero,774 <task_btn+0x18>
  }

  while (1)
  {

	for(i=0;i<BUTTON;i++){
     7ac:	e03fffc5 	stb	zero,-1(fp)
     7b0:	00003b06 	br	8a0 <task_btn+0x144>
		raw_state = BSP_readBP(i);
     7b4:	e0bfffc3 	ldbu	r2,-1(fp)
     7b8:	1009883a 	mov	r4,r2
     7bc:	00003b80 	call	3b8 <BSP_readBP>
     7c0:	e0bffe15 	stw	r2,-8(fp)

		if (raw_state ==1){
     7c4:	e0bffe17 	ldw	r2,-8(fp)
     7c8:	10800058 	cmpnei	r2,r2,1
     7cc:	1000291e 	bne	r2,zero,874 <task_btn+0x118>

			if (BtnCounters[i] < THRES){
     7d0:	e0ffffc3 	ldbu	r3,-1(fp)
     7d4:	d0ab8d04 	addi	r2,gp,-20940
     7d8:	1885883a 	add	r2,r3,r2
     7dc:	10800003 	ldbu	r2,0(r2)
     7e0:	10803fcc 	andi	r2,r2,255
     7e4:	108000e8 	cmpgeui	r2,r2,3
     7e8:	10002a1e 	bne	r2,zero,894 <task_btn+0x138>
				BtnCounters[i]++;
     7ec:	e0bfffc3 	ldbu	r2,-1(fp)
     7f0:	d0eb8d04 	addi	r3,gp,-20940
     7f4:	10c7883a 	add	r3,r2,r3
     7f8:	18c00003 	ldbu	r3,0(r3)
     7fc:	18c00044 	addi	r3,r3,1
     800:	1809883a 	mov	r4,r3
     804:	d0eb8d04 	addi	r3,gp,-20940
     808:	10c5883a 	add	r2,r2,r3
     80c:	11000005 	stb	r4,0(r2)

				if (BtnCounters[i]==THRES){
     810:	e0ffffc3 	ldbu	r3,-1(fp)
     814:	d0ab8d04 	addi	r2,gp,-20940
     818:	1885883a 	add	r2,r3,r2
     81c:	10800003 	ldbu	r2,0(r2)
     820:	10803fcc 	andi	r2,r2,255
     824:	108000d8 	cmpnei	r2,r2,3
     828:	10001a1e 	bne	r2,zero,894 <task_btn+0x138>
					if (BtnState[i]==0){
     82c:	e0ffffc3 	ldbu	r3,-1(fp)
     830:	d0ab8e04 	addi	r2,gp,-20936
     834:	1885883a 	add	r2,r3,r2
     838:	10800003 	ldbu	r2,0(r2)
     83c:	10803fcc 	andi	r2,r2,255
     840:	1000141e 	bne	r2,zero,894 <task_btn+0x138>
						BtnState[i]=1;
     844:	e0ffffc3 	ldbu	r3,-1(fp)
     848:	d0ab8e04 	addi	r2,gp,-20936
     84c:	1885883a 	add	r2,r3,r2
     850:	00c00044 	movi	r3,1
     854:	10c00005 	stb	r3,0(r2)
						OSQPost(MsgQueueBoutons,(void*)&BtnIDs[i]);
     858:	d12b8c17 	ldw	r4,-20944(gp)
     85c:	e0ffffc3 	ldbu	r3,-1(fp)
     860:	d0a00004 	addi	r2,gp,-32768
     864:	1885883a 	add	r2,r3,r2
     868:	100b883a 	mov	r5,r2
     86c:	00167d00 	call	167d0 <OSQPost>
     870:	00000806 	br	894 <task_btn+0x138>

			}
		}

		else{
			BtnCounters[i] = 0;
     874:	e0ffffc3 	ldbu	r3,-1(fp)
     878:	d0ab8d04 	addi	r2,gp,-20940
     87c:	1885883a 	add	r2,r3,r2
     880:	10000005 	stb	zero,0(r2)
			BtnState[i]=0;
     884:	e0ffffc3 	ldbu	r3,-1(fp)
     888:	d0ab8e04 	addi	r2,gp,-20936
     88c:	1885883a 	add	r2,r3,r2
     890:	10000005 	stb	zero,0(r2)
	for(i=0;i<BUTTON;i++){
     894:	e0bfffc3 	ldbu	r2,-1(fp)
     898:	10800044 	addi	r2,r2,1
     89c:	e0bfffc5 	stb	r2,-1(fp)
     8a0:	e0bfffc3 	ldbu	r2,-1(fp)
     8a4:	10800130 	cmpltui	r2,r2,4
     8a8:	103fc21e 	bne	r2,zero,7b4 <task_btn+0x58>
		}
	}


    OSTimeDlyHMSM(0, 0, 0, 20);
     8ac:	01c00504 	movi	r7,20
     8b0:	000d883a 	mov	r6,zero
     8b4:	000b883a 	mov	r5,zero
     8b8:	0009883a 	mov	r4,zero
     8bc:	001944c0 	call	1944c <OSTimeDlyHMSM>
	for(i=0;i<BUTTON;i++){
     8c0:	003fba06 	br	7ac <task_btn+0x50>

000008c4 <task_interface>:
  }
}


void *task_interface(){
     8c4:	defffc04 	addi	sp,sp,-16
     8c8:	dfc00315 	stw	ra,12(sp)
     8cc:	df000215 	stw	fp,8(sp)
     8d0:	df000204 	addi	fp,sp,8
  INT8U err;
  INT8U * btn_received;
  while(1){


	  btn_received = (INT8U*)OSQPend(MsgQueueBoutons,0,&err);
     8d4:	d0ab8c17 	ldw	r2,-20944(gp)
     8d8:	e0fffec4 	addi	r3,fp,-5
     8dc:	180d883a 	mov	r6,r3
     8e0:	000b883a 	mov	r5,zero
     8e4:	1009883a 	mov	r4,r2
     8e8:	00163e00 	call	163e0 <OSQPend>
     8ec:	e0bfff15 	stw	r2,-4(fp)
	  printf("err %d \n", err);
     8f0:	e0bffec3 	ldbu	r2,-5(fp)
     8f4:	10803fcc 	andi	r2,r2,255
     8f8:	100b883a 	mov	r5,r2
     8fc:	010000b4 	movhi	r4,2
     900:	21304104 	addi	r4,r4,-16124
     904:	000133c0 	call	133c <printf>
	  if (err == 0 && btn_received != (void *) 0){
     908:	e0bffec3 	ldbu	r2,-5(fp)
     90c:	10803fcc 	andi	r2,r2,255
     910:	10001e1e 	bne	r2,zero,98c <task_interface+0xc8>
     914:	e0bfff17 	ldw	r2,-4(fp)
     918:	10001c26 	beq	r2,zero,98c <task_interface+0xc8>
		  switch (*btn_received){
     91c:	e0bfff17 	ldw	r2,-4(fp)
     920:	10800003 	ldbu	r2,0(r2)
     924:	10803fcc 	andi	r2,r2,255
     928:	10c00120 	cmpeqi	r3,r2,4
     92c:	1800141e 	bne	r3,zero,980 <task_interface+0xbc>
     930:	10c00148 	cmpgei	r3,r2,5
     934:	1800151e 	bne	r3,zero,98c <task_interface+0xc8>
     938:	10c000e0 	cmpeqi	r3,r2,3
     93c:	18000d1e 	bne	r3,zero,974 <task_interface+0xb0>
     940:	10c00108 	cmpgei	r3,r2,4
     944:	1800111e 	bne	r3,zero,98c <task_interface+0xc8>
     948:	10c00060 	cmpeqi	r3,r2,1
     94c:	1800031e 	bne	r3,zero,95c <task_interface+0x98>
     950:	108000a0 	cmpeqi	r2,r2,2
     954:	1000041e 	bne	r2,zero,968 <task_interface+0xa4>
     958:	00000c06 	br	98c <task_interface+0xc8>
		  case 1:
			  config = 1;
     95c:	00800044 	movi	r2,1
     960:	d0ab9015 	stw	r2,-20928(gp)
			  break;
     964:	00000906 	br	98c <task_interface+0xc8>
		  case 2:
			  config = 2;
     968:	00800084 	movi	r2,2
     96c:	d0ab9015 	stw	r2,-20928(gp)
			  break;
     970:	00000606 	br	98c <task_interface+0xc8>
		  case 3:
			  config = 3;
     974:	008000c4 	movi	r2,3
     978:	d0ab9015 	stw	r2,-20928(gp)
			  break;
     97c:	00000306 	br	98c <task_interface+0xc8>
		  case 4:
			  config = 4;
     980:	00800104 	movi	r2,4
     984:	d0ab9015 	stw	r2,-20928(gp)
			  break;
     988:	0001883a 	nop
		  }

	  }
	  OSTimeDlyHMSM(0, 0, 0, 20);
     98c:	01c00504 	movi	r7,20
     990:	000d883a 	mov	r6,zero
     994:	000b883a 	mov	r5,zero
     998:	0009883a 	mov	r4,zero
     99c:	001944c0 	call	1944c <OSTimeDlyHMSM>
	  btn_received = (INT8U*)OSQPend(MsgQueueBoutons,0,&err);
     9a0:	003fcc06 	br	8d4 <task_interface+0x10>

000009a4 <min>:
  }
}

int min(int a, int b){
     9a4:	defffd04 	addi	sp,sp,-12
     9a8:	df000215 	stw	fp,8(sp)
     9ac:	df000204 	addi	fp,sp,8
     9b0:	e13fff15 	stw	r4,-4(fp)
     9b4:	e17ffe15 	stw	r5,-8(fp)
	return a < b ? a : b;
     9b8:	e0ffff17 	ldw	r3,-4(fp)
     9bc:	e0bffe17 	ldw	r2,-8(fp)
     9c0:	1880010e 	bge	r3,r2,9c8 <min+0x24>
     9c4:	1805883a 	mov	r2,r3
}
     9c8:	e037883a 	mov	sp,fp
     9cc:	df000017 	ldw	fp,0(sp)
     9d0:	dec00104 	addi	sp,sp,4
     9d4:	f800283a 	ret

000009d8 <task_rect>:

void *task_rect(void* pdata){
     9d8:	defff604 	addi	sp,sp,-40
     9dc:	dfc00915 	stw	ra,36(sp)
     9e0:	df000815 	stw	fp,32(sp)
     9e4:	df000804 	addi	fp,sp,32
     9e8:	e13ff915 	stw	r4,-28(fp)
	int x1,x2,y1,y2;
	short pixel_color;
	char r,g,b;

	while (1){
		x1 = rand()%320;
     9ec:	00013880 	call	1388 <rand>
     9f0:	01405004 	movi	r5,320
     9f4:	1009883a 	mov	r4,r2
     9f8:	00011d80 	call	11d8 <__modsi3>
     9fc:	e0bfff15 	stw	r2,-4(fp)
		x2 = min(x1 + rand() % 100, 319);
     a00:	00013880 	call	1388 <rand>
     a04:	01401904 	movi	r5,100
     a08:	1009883a 	mov	r4,r2
     a0c:	00011d80 	call	11d8 <__modsi3>
     a10:	1007883a 	mov	r3,r2
     a14:	e0bfff17 	ldw	r2,-4(fp)
     a18:	1885883a 	add	r2,r3,r2
     a1c:	01404fc4 	movi	r5,319
     a20:	1009883a 	mov	r4,r2
     a24:	00009a40 	call	9a4 <min>
     a28:	e0bffe15 	stw	r2,-8(fp)
		y1 = rand() % 240;
     a2c:	00013880 	call	1388 <rand>
     a30:	01403c04 	movi	r5,240
     a34:	1009883a 	mov	r4,r2
     a38:	00011d80 	call	11d8 <__modsi3>
     a3c:	e0bffd15 	stw	r2,-12(fp)
		y2 = min(y1 + rand() % 50,239);
     a40:	00013880 	call	1388 <rand>
     a44:	01400c84 	movi	r5,50
     a48:	1009883a 	mov	r4,r2
     a4c:	00011d80 	call	11d8 <__modsi3>
     a50:	1007883a 	mov	r3,r2
     a54:	e0bffd17 	ldw	r2,-12(fp)
     a58:	1885883a 	add	r2,r3,r2
     a5c:	01403bc4 	movi	r5,239
     a60:	1009883a 	mov	r4,r2
     a64:	00009a40 	call	9a4 <min>
     a68:	e0bffc15 	stw	r2,-16(fp)
		r = 32 + (rand() % 32);
     a6c:	00013880 	call	1388 <rand>
     a70:	1007883a 	mov	r3,r2
     a74:	00a00034 	movhi	r2,32768
     a78:	108007c4 	addi	r2,r2,31
     a7c:	1884703a 	and	r2,r3,r2
     a80:	1000040e 	bge	r2,zero,a94 <task_rect+0xbc>
     a84:	10bfffc4 	addi	r2,r2,-1
     a88:	00fff804 	movi	r3,-32
     a8c:	10c4b03a 	or	r2,r2,r3
     a90:	10800044 	addi	r2,r2,1
     a94:	10800804 	addi	r2,r2,32
     a98:	e0bffbc5 	stb	r2,-17(fp)
		g = 20;
     a9c:	00800504 	movi	r2,20
     aa0:	e0bffb85 	stb	r2,-18(fp)
		b = 15;
     aa4:	008003c4 	movi	r2,15
     aa8:	e0bffb45 	stb	r2,-19(fp)
		pixel_color =  (r << 11) + (g << 5) + b;
     aac:	e0bffbc7 	ldb	r2,-17(fp)
     ab0:	100492fa 	slli	r2,r2,11
     ab4:	1007883a 	mov	r3,r2
     ab8:	e0bffb87 	ldb	r2,-18(fp)
     abc:	1004917a 	slli	r2,r2,5
     ac0:	1885883a 	add	r2,r3,r2
     ac4:	1007883a 	mov	r3,r2
     ac8:	e0bffb47 	ldb	r2,-19(fp)
     acc:	1885883a 	add	r2,r3,r2
     ad0:	e0bffa8d 	sth	r2,-22(fp)
		VgaDrawBox(x1, y1, x2, y2, pixel_color);
     ad4:	e0bffa8f 	ldh	r2,-22(fp)
     ad8:	d8800015 	stw	r2,0(sp)
     adc:	e1fffc17 	ldw	r7,-16(fp)
     ae0:	e1bffe17 	ldw	r6,-8(fp)
     ae4:	e17ffd17 	ldw	r5,-12(fp)
     ae8:	e13fff17 	ldw	r4,-4(fp)
     aec:	00010200 	call	1020 <VgaDrawBox>
		VgaSetCursor(10,5);
     af0:	01400144 	movi	r5,5
     af4:	01000284 	movi	r4,10
     af8:	0000dc40 	call	dc4 <VgaSetCursor>
		VgaWriteScreen("Horloge DE MORT");
     afc:	010000b4 	movhi	r4,2
     b00:	21304404 	addi	r4,r4,-16112
     b04:	0000f4c0 	call	f4c <VgaWriteScreen>
		OSTimeDly(rand()%500);
     b08:	00013880 	call	1388 <rand>
     b0c:	01407d04 	movi	r5,500
     b10:	1009883a 	mov	r4,r2
     b14:	00011d80 	call	11d8 <__modsi3>
     b18:	1009883a 	mov	r4,r2
     b1c:	00193340 	call	19334 <OSTimeDly>
	while (1){
     b20:	003fb206 	br	9ec <task_rect+0x14>

00000b24 <main>:
	}
}


int main() {
     b24:	defff904 	addi	sp,sp,-28
     b28:	dfc00615 	stw	ra,24(sp)
     b2c:	df000515 	stw	fp,20(sp)
     b30:	df000504 	addi	fp,sp,20

BSP_init();
     b34:	00002840 	call	284 <BSP_init>
VgaClearScreen();
     b38:	0000d200 	call	d20 <VgaClearScreen>
VgaInit();
     b3c:	0000cec0 	call	cec <VgaInit>

MsgQueueBoutons = OSQCreate(&MsgQueueBoutonsTbl[0],10);
     b40:	01400284 	movi	r5,10
     b44:	010000f4 	movhi	r4,3
     b48:	21314004 	addi	r4,r4,-15104
     b4c:	0015f000 	call	15f00 <OSQCreate>
     b50:	d0ab8c15 	stw	r2,-20944(gp)
config = 0;
     b54:	d02b9015 	stw	zero,-20928(gp)

VgaDrawBox(0, 0, 319, 239, 63 << 11);
     b58:	008000b4 	movhi	r2,2
     b5c:	10be0004 	addi	r2,r2,-2048
     b60:	d8800015 	stw	r2,0(sp)
     b64:	01c03bc4 	movi	r7,239
     b68:	01804fc4 	movi	r6,319
     b6c:	000b883a 	mov	r5,zero
     b70:	0009883a 	mov	r4,zero
     b74:	00010200 	call	1020 <VgaDrawBox>
VgaSetCursor(10,5);
     b78:	01400144 	movi	r5,5
     b7c:	01000284 	movi	r4,10
     b80:	0000dc40 	call	dc4 <VgaSetCursor>
VgaWriteScreen("CHRONO DE MORT");
     b84:	010000b4 	movhi	r4,2
     b88:	21304804 	addi	r4,r4,-16096
     b8c:	0000f4c0 	call	f4c <VgaWriteScreen>

OSTaskCreateExt(task_chrono,
     b90:	d8000415 	stw	zero,16(sp)
     b94:	d8000315 	stw	zero,12(sp)
     b98:	00820004 	movi	r2,2048
     b9c:	d8800215 	stw	r2,8(sp)
     ba0:	008000b4 	movhi	r2,2
     ba4:	10894004 	addi	r2,r2,9472
     ba8:	d8800115 	stw	r2,4(sp)
     bac:	00800044 	movi	r2,1
     bb0:	d8800015 	stw	r2,0(sp)
     bb4:	01c00044 	movi	r7,1
     bb8:	018000b4 	movhi	r6,2
     bbc:	31913f04 	addi	r6,r6,17660
     bc0:	000b883a 	mov	r5,zero
     bc4:	01000034 	movhi	r4,0
     bc8:	21016b04 	addi	r4,r4,1452
     bcc:	0017fb40 	call	17fb4 <OSTaskCreateExt>
				STACKSIZE,
				NULL,
				0 );


OSTaskCreateExt(task_affichage,
     bd0:	d8000415 	stw	zero,16(sp)
     bd4:	d8000315 	stw	zero,12(sp)
     bd8:	00820004 	movi	r2,2048
     bdc:	d8800215 	stw	r2,8(sp)
     be0:	008000b4 	movhi	r2,2
     be4:	10914004 	addi	r2,r2,17664
     be8:	d8800115 	stw	r2,4(sp)
     bec:	008000c4 	movi	r2,3
     bf0:	d8800015 	stw	r2,0(sp)
     bf4:	01c000c4 	movi	r7,3
     bf8:	018000b4 	movhi	r6,2
     bfc:	31993f04 	addi	r6,r6,25852
     c00:	000b883a 	mov	r5,zero
     c04:	01000034 	movhi	r4,0
     c08:	2101b404 	addi	r4,r4,1744
     c0c:	0017fb40 	call	17fb4 <OSTaskCreateExt>
				STACKSIZE,
				NULL,
				0 );


OSTaskCreateExt(task_interface,
     c10:	d8000415 	stw	zero,16(sp)
     c14:	d8000315 	stw	zero,12(sp)
     c18:	00820004 	movi	r2,2048
     c1c:	d8800215 	stw	r2,8(sp)
     c20:	008000b4 	movhi	r2,2
     c24:	10994004 	addi	r2,r2,25856
     c28:	d8800115 	stw	r2,4(sp)
     c2c:	00800104 	movi	r2,4
     c30:	d8800015 	stw	r2,0(sp)
     c34:	01c00104 	movi	r7,4
     c38:	018000f4 	movhi	r6,3
     c3c:	31a13f04 	addi	r6,r6,-31492
     c40:	000b883a 	mov	r5,zero
     c44:	01000034 	movhi	r4,0
     c48:	21023104 	addi	r4,r4,2244
     c4c:	0017fb40 	call	17fb4 <OSTaskCreateExt>
				STACKSIZE,
				NULL,
				0 );


OSTaskCreateExt(task_btn,
     c50:	d8000415 	stw	zero,16(sp)
     c54:	d8000315 	stw	zero,12(sp)
     c58:	00820004 	movi	r2,2048
     c5c:	d8800215 	stw	r2,8(sp)
     c60:	008000f4 	movhi	r2,3
     c64:	10a14004 	addi	r2,r2,-31488
     c68:	d8800115 	stw	r2,4(sp)
     c6c:	00800084 	movi	r2,2
     c70:	d8800015 	stw	r2,0(sp)
     c74:	01c00084 	movi	r7,2
     c78:	018000f4 	movhi	r6,3
     c7c:	31a93f04 	addi	r6,r6,-23300
     c80:	000b883a 	mov	r5,zero
     c84:	01000034 	movhi	r4,0
     c88:	2101d704 	addi	r4,r4,1884
     c8c:	0017fb40 	call	17fb4 <OSTaskCreateExt>
				STACKSIZE,
				NULL,
				0 );


OSTaskCreateExt(task_rect,
     c90:	d8000415 	stw	zero,16(sp)
     c94:	d8000315 	stw	zero,12(sp)
     c98:	00820004 	movi	r2,2048
     c9c:	d8800215 	stw	r2,8(sp)
     ca0:	008000f4 	movhi	r2,3
     ca4:	10a94004 	addi	r2,r2,-23296
     ca8:	d8800115 	stw	r2,4(sp)
     cac:	00800144 	movi	r2,5
     cb0:	d8800015 	stw	r2,0(sp)
     cb4:	01c00144 	movi	r7,5
     cb8:	018000f4 	movhi	r6,3
     cbc:	31b13f04 	addi	r6,r6,-15108
     cc0:	000b883a 	mov	r5,zero
     cc4:	01000034 	movhi	r4,0
     cc8:	21027604 	addi	r4,r4,2520
     ccc:	0017fb40 	call	17fb4 <OSTaskCreateExt>
				STACKSIZE,
				NULL,
				0 );


OSStart();
     cd0:	00128bc0 	call	128bc <OSStart>

return(0);
     cd4:	0005883a 	mov	r2,zero
}
     cd8:	e037883a 	mov	sp,fp
     cdc:	dfc00117 	ldw	ra,4(sp)
     ce0:	df000017 	ldw	fp,0(sp)
     ce4:	dec00204 	addi	sp,sp,8
     ce8:	f800283a 	ret

00000cec <VgaInit>:

static int cur_x; // En pixel
static int cur_y; // En pixel


void VgaInit() {
     cec:	deffff04 	addi	sp,sp,-4
     cf0:	df000015 	stw	fp,0(sp)
     cf4:	d839883a 	mov	fp,sp
  video_buffer = (int *)VGA_VGA_PIXEL_DMA_BASE;
     cf8:	0083c034 	movhi	r2,3840
     cfc:	10800404 	addi	r2,r2,16
     d00:	d0ab9515 	stw	r2,-20908(gp)
  cur_y = 0;
     d04:	d02b9715 	stw	zero,-20900(gp)
  cur_x = 0;
     d08:	d02b9615 	stw	zero,-20904(gp)
}
     d0c:	0001883a 	nop
     d10:	e037883a 	mov	sp,fp
     d14:	df000017 	ldw	fp,0(sp)
     d18:	dec00104 	addi	sp,sp,4
     d1c:	f800283a 	ret

00000d20 <VgaClearScreen>:

void VgaClearScreen(void) {
     d20:	defffd04 	addi	sp,sp,-12
     d24:	df000215 	stw	fp,8(sp)
     d28:	df000204 	addi	fp,sp,8
  int i;
  int  *ptr;

  // Memoire video pixels
  ptr = (int *)*(int *)VGA_VGA_PIXEL_DMA_BASE;
     d2c:	0083c034 	movhi	r2,3840
     d30:	10800404 	addi	r2,r2,16
     d34:	10800017 	ldw	r2,0(r2)
     d38:	e0bffe15 	stw	r2,-8(fp)
  for(i= 0; i<(0x40000/4); i++)
     d3c:	e03fff15 	stw	zero,-4(fp)
     d40:	00000806 	br	d64 <VgaClearScreen+0x44>
    *(ptr+i)= 0;
     d44:	e0bfff17 	ldw	r2,-4(fp)
     d48:	100490ba 	slli	r2,r2,2
     d4c:	e0fffe17 	ldw	r3,-8(fp)
     d50:	1885883a 	add	r2,r3,r2
     d54:	10000015 	stw	zero,0(r2)
  for(i= 0; i<(0x40000/4); i++)
     d58:	e0bfff17 	ldw	r2,-4(fp)
     d5c:	10800044 	addi	r2,r2,1
     d60:	e0bfff15 	stw	r2,-4(fp)
     d64:	e0bfff17 	ldw	r2,-4(fp)
     d68:	00ffffd4 	movui	r3,65535
     d6c:	18bff50e 	bge	r3,r2,d44 <VgaClearScreen+0x24>

  // Memoire video caracteres
  ptr = (int *)VGA_CHAR_BUF_SUBSYSTEM_ONCHIP_SRAM_BASE;
     d70:	00824034 	movhi	r2,2304
     d74:	e0bffe15 	stw	r2,-8(fp)
  for(i= 0; i<(0x2000/4); i++)
     d78:	e03fff15 	stw	zero,-4(fp)
     d7c:	00000806 	br	da0 <VgaClearScreen+0x80>
    *(ptr+i)= 0;
     d80:	e0bfff17 	ldw	r2,-4(fp)
     d84:	100490ba 	slli	r2,r2,2
     d88:	e0fffe17 	ldw	r3,-8(fp)
     d8c:	1885883a 	add	r2,r3,r2
     d90:	10000015 	stw	zero,0(r2)
  for(i= 0; i<(0x2000/4); i++)
     d94:	e0bfff17 	ldw	r2,-4(fp)
     d98:	10800044 	addi	r2,r2,1
     d9c:	e0bfff15 	stw	r2,-4(fp)
     da0:	e0bfff17 	ldw	r2,-4(fp)
     da4:	10820010 	cmplti	r2,r2,2048
     da8:	103ff51e 	bne	r2,zero,d80 <VgaClearScreen+0x60>
}
     dac:	0001883a 	nop
     db0:	0001883a 	nop
     db4:	e037883a 	mov	sp,fp
     db8:	df000017 	ldw	fp,0(sp)
     dbc:	dec00104 	addi	sp,sp,4
     dc0:	f800283a 	ret

00000dc4 <VgaSetCursor>:

void VgaSetCursor(int col, int row) {
     dc4:	defffd04 	addi	sp,sp,-12
     dc8:	df000215 	stw	fp,8(sp)
     dcc:	df000204 	addi	fp,sp,8
     dd0:	e13fff15 	stw	r4,-4(fp)
     dd4:	e17ffe15 	stw	r5,-8(fp)
  if(row > CHAR_ROW - 1) row = CHAR_ROW - 1;
     dd8:	e0bffe17 	ldw	r2,-8(fp)
     ddc:	10800790 	cmplti	r2,r2,30
     de0:	1000021e 	bne	r2,zero,dec <VgaSetCursor+0x28>
     de4:	00800744 	movi	r2,29
     de8:	e0bffe15 	stw	r2,-8(fp)
  if(col > CHAR_COL - 1) col = CHAR_COL - 1;
     dec:	e0bfff17 	ldw	r2,-4(fp)
     df0:	10800a10 	cmplti	r2,r2,40
     df4:	1000021e 	bne	r2,zero,e00 <VgaSetCursor+0x3c>
     df8:	008009c4 	movi	r2,39
     dfc:	e0bfff15 	stw	r2,-4(fp)
  if(row < 0) row = 0;
     e00:	e0bffe17 	ldw	r2,-8(fp)
     e04:	1000010e 	bge	r2,zero,e0c <VgaSetCursor+0x48>
     e08:	e03ffe15 	stw	zero,-8(fp)
  if(col < 0) col = 0;
     e0c:	e0bfff17 	ldw	r2,-4(fp)
     e10:	1000010e 	bge	r2,zero,e18 <VgaSetCursor+0x54>
     e14:	e03fff15 	stw	zero,-4(fp)
  cur_y = row*8;
     e18:	e0bffe17 	ldw	r2,-8(fp)
     e1c:	100490fa 	slli	r2,r2,3
     e20:	d0ab9715 	stw	r2,-20900(gp)
  cur_x = col*8;
     e24:	e0bfff17 	ldw	r2,-4(fp)
     e28:	100490fa 	slli	r2,r2,3
     e2c:	d0ab9615 	stw	r2,-20904(gp)
}
     e30:	0001883a 	nop
     e34:	e037883a 	mov	sp,fp
     e38:	df000017 	ldw	fp,0(sp)
     e3c:	dec00104 	addi	sp,sp,4
     e40:	f800283a 	ret

00000e44 <VgaWriteCharacter>:

void VgaWriteCharacter(unsigned char c) {
     e44:	defff904 	addi	sp,sp,-28
     e48:	df000615 	stw	fp,24(sp)
     e4c:	df000604 	addi	fp,sp,24
     e50:	2005883a 	mov	r2,r4
     e54:	e0bffa05 	stb	r2,-24(fp)
  int pixel_buf_ptr;
  int pixel_ptr, row, col;

  // cur_x * 2 car les pixels sont sur 16 bits
  // cur_y * 1024 car lignes sont alignees sur 1024 bits
  pixel_buf_ptr = *(int *)video_buffer + cur_x * 2 + (cur_y * 1024);
     e58:	d0ab9517 	ldw	r2,-20908(gp)
     e5c:	10c00017 	ldw	r3,0(r2)
     e60:	d0ab9617 	ldw	r2,-20904(gp)
     e64:	1085883a 	add	r2,r2,r2
     e68:	1887883a 	add	r3,r3,r2
     e6c:	d0ab9717 	ldw	r2,-20900(gp)
     e70:	100492ba 	slli	r2,r2,10
     e74:	1885883a 	add	r2,r3,r2
     e78:	e0bffd15 	stw	r2,-12(fp)

  for (row = 0; row < 8; row++) {
     e7c:	e03fff15 	stw	zero,-4(fp)
     e80:	00002906 	br	f28 <VgaWriteCharacter+0xe4>
    short row_color = rom8x8_bits[(c * 8) + row];
     e84:	e0bffa03 	ldbu	r2,-24(fp)
     e88:	100690fa 	slli	r3,r2,3
     e8c:	e0bfff17 	ldw	r2,-4(fp)
     e90:	1885883a 	add	r2,r3,r2
     e94:	1087883a 	add	r3,r2,r2
     e98:	008000b4 	movhi	r2,2
     e9c:	1885883a 	add	r2,r3,r2
     ea0:	10b2590b 	ldhu	r2,-13980(r2)
     ea4:	e0bffc8d 	sth	r2,-14(fp)
    for (col = 0; col < 8; col++) {
     ea8:	e03ffe15 	stw	zero,-8(fp)
     eac:	00001806 	br	f10 <VgaWriteCharacter+0xcc>
      pixel_ptr = pixel_buf_ptr + (row * 1024) + (col << 1);
     eb0:	e0bfff17 	ldw	r2,-4(fp)
     eb4:	100692ba 	slli	r3,r2,10
     eb8:	e0bffd17 	ldw	r2,-12(fp)
     ebc:	1887883a 	add	r3,r3,r2
     ec0:	e0bffe17 	ldw	r2,-8(fp)
     ec4:	1085883a 	add	r2,r2,r2
     ec8:	1885883a 	add	r2,r3,r2
     ecc:	e0bffb15 	stw	r2,-20(fp)
      if ((row_color >> (15 - col)) & 1) {
     ed0:	e0fffc8f 	ldh	r3,-14(fp)
     ed4:	010003c4 	movi	r4,15
     ed8:	e0bffe17 	ldw	r2,-8(fp)
     edc:	2085c83a 	sub	r2,r4,r2
     ee0:	1885d83a 	sra	r2,r3,r2
     ee4:	1080004c 	andi	r2,r2,1
     ee8:	10000426 	beq	r2,zero,efc <VgaWriteCharacter+0xb8>
	*(short *)pixel_ptr = 0xFFFF;
     eec:	e0bffb17 	ldw	r2,-20(fp)
     ef0:	00ffffc4 	movi	r3,-1
     ef4:	10c0000d 	sth	r3,0(r2)
     ef8:	00000206 	br	f04 <VgaWriteCharacter+0xc0>
      }
      else {
	*(short *)pixel_ptr = 0;
     efc:	e0bffb17 	ldw	r2,-20(fp)
     f00:	1000000d 	sth	zero,0(r2)
    for (col = 0; col < 8; col++) {
     f04:	e0bffe17 	ldw	r2,-8(fp)
     f08:	10800044 	addi	r2,r2,1
     f0c:	e0bffe15 	stw	r2,-8(fp)
     f10:	e0bffe17 	ldw	r2,-8(fp)
     f14:	10800210 	cmplti	r2,r2,8
     f18:	103fe51e 	bne	r2,zero,eb0 <VgaWriteCharacter+0x6c>
  for (row = 0; row < 8; row++) {
     f1c:	e0bfff17 	ldw	r2,-4(fp)
     f20:	10800044 	addi	r2,r2,1
     f24:	e0bfff15 	stw	r2,-4(fp)
     f28:	e0bfff17 	ldw	r2,-4(fp)
     f2c:	10800210 	cmplti	r2,r2,8
     f30:	103fd41e 	bne	r2,zero,e84 <VgaWriteCharacter+0x40>
      }
    }
  }
}
     f34:	0001883a 	nop
     f38:	0001883a 	nop
     f3c:	e037883a 	mov	sp,fp
     f40:	df000017 	ldw	fp,0(sp)
     f44:	dec00104 	addi	sp,sp,4
     f48:	f800283a 	ret

00000f4c <VgaWriteScreen>:

void VgaWriteScreen(char *string) {
     f4c:	defffc04 	addi	sp,sp,-16
     f50:	dfc00315 	stw	ra,12(sp)
     f54:	df000215 	stw	fp,8(sp)
     f58:	df000204 	addi	fp,sp,8
     f5c:	e13ffe15 	stw	r4,-8(fp)
  int count;

  count = 0;
     f60:	e03fff15 	stw	zero,-4(fp)

  while(string[count] != '\0') {
     f64:	00000d06 	br	f9c <VgaWriteScreen+0x50>
    VgaWriteCharacter(string[count]);
     f68:	e0bfff17 	ldw	r2,-4(fp)
     f6c:	e0fffe17 	ldw	r3,-8(fp)
     f70:	1885883a 	add	r2,r3,r2
     f74:	10800003 	ldbu	r2,0(r2)
     f78:	10803fcc 	andi	r2,r2,255
     f7c:	1009883a 	mov	r4,r2
     f80:	0000e440 	call	e44 <VgaWriteCharacter>
    cur_x += 8;
     f84:	d0ab9617 	ldw	r2,-20904(gp)
     f88:	10800204 	addi	r2,r2,8
     f8c:	d0ab9615 	stw	r2,-20904(gp)
    count++;
     f90:	e0bfff17 	ldw	r2,-4(fp)
     f94:	10800044 	addi	r2,r2,1
     f98:	e0bfff15 	stw	r2,-4(fp)
  while(string[count] != '\0') {
     f9c:	e0bfff17 	ldw	r2,-4(fp)
     fa0:	e0fffe17 	ldw	r3,-8(fp)
     fa4:	1885883a 	add	r2,r3,r2
     fa8:	10800003 	ldbu	r2,0(r2)
     fac:	10803fcc 	andi	r2,r2,255
     fb0:	1080201c 	xori	r2,r2,128
     fb4:	10bfe004 	addi	r2,r2,-128
     fb8:	103feb1e 	bne	r2,zero,f68 <VgaWriteScreen+0x1c>
  }
  //VgaWriteCharacter(' ');
}
     fbc:	0001883a 	nop
     fc0:	0001883a 	nop
     fc4:	e037883a 	mov	sp,fp
     fc8:	dfc00117 	ldw	ra,4(sp)
     fcc:	df000017 	ldw	fp,0(sp)
     fd0:	dec00204 	addi	sp,sp,8
     fd4:	f800283a 	ret

00000fd8 <VgaPrintAt>:

void VgaPrintAt(int col, int row, char *string) {
     fd8:	defffb04 	addi	sp,sp,-20
     fdc:	dfc00415 	stw	ra,16(sp)
     fe0:	df000315 	stw	fp,12(sp)
     fe4:	df000304 	addi	fp,sp,12
     fe8:	e13fff15 	stw	r4,-4(fp)
     fec:	e17ffe15 	stw	r5,-8(fp)
     ff0:	e1bffd15 	stw	r6,-12(fp)
  VgaSetCursor(col, row);
     ff4:	e17ffe17 	ldw	r5,-8(fp)
     ff8:	e13fff17 	ldw	r4,-4(fp)
     ffc:	0000dc40 	call	dc4 <VgaSetCursor>
  VgaWriteScreen(string);
    1000:	e13ffd17 	ldw	r4,-12(fp)
    1004:	0000f4c0 	call	f4c <VgaWriteScreen>
}
    1008:	0001883a 	nop
    100c:	e037883a 	mov	sp,fp
    1010:	dfc00117 	ldw	ra,4(sp)
    1014:	df000017 	ldw	fp,0(sp)
    1018:	dec00204 	addi	sp,sp,8
    101c:	f800283a 	ret

00001020 <VgaDrawBox>:

int VgaDrawBox(int x1, int y1, int x2, int y2, short pixel_color) {
    1020:	defff604 	addi	sp,sp,-40
    1024:	df000915 	stw	fp,36(sp)
    1028:	df000904 	addi	fp,sp,36
    102c:	e13ffb15 	stw	r4,-20(fp)
    1030:	e17ffa15 	stw	r5,-24(fp)
    1034:	e1bff915 	stw	r6,-28(fp)
    1038:	e1fff815 	stw	r7,-32(fp)
    103c:	e0800117 	ldw	r2,4(fp)
    1040:	e0bff70d 	sth	r2,-36(fp)
  int pixel_buf_ptr = *(int *)video_buffer;
    1044:	d0ab9517 	ldw	r2,-20908(gp)
    1048:	10800017 	ldw	r2,0(r2)
    104c:	e0bffd15 	stw	r2,-12(fp)
  int pixel_ptr, row, col;

  if((x1 < 0) || (x2 < 0) || (y1 < 0) || (y2 <0)) return(-1);
    1050:	e0bffb17 	ldw	r2,-20(fp)
    1054:	10000616 	blt	r2,zero,1070 <VgaDrawBox+0x50>
    1058:	e0bff917 	ldw	r2,-28(fp)
    105c:	10000416 	blt	r2,zero,1070 <VgaDrawBox+0x50>
    1060:	e0bffa17 	ldw	r2,-24(fp)
    1064:	10000216 	blt	r2,zero,1070 <VgaDrawBox+0x50>
    1068:	e0bff817 	ldw	r2,-32(fp)
    106c:	1000020e 	bge	r2,zero,1078 <VgaDrawBox+0x58>
    1070:	00bfffc4 	movi	r2,-1
    1074:	00003406 	br	1148 <VgaDrawBox+0x128>
  if((x1 > SIZE_X - 1) || (x2 > SIZE_X - 1) || (y1 > SIZE_Y - 1) || (y2 > SIZE_Y - 1)) return(-1);
    1078:	e0bffb17 	ldw	r2,-20(fp)
    107c:	10805008 	cmpgei	r2,r2,320
    1080:	1000091e 	bne	r2,zero,10a8 <VgaDrawBox+0x88>
    1084:	e0bff917 	ldw	r2,-28(fp)
    1088:	10805008 	cmpgei	r2,r2,320
    108c:	1000061e 	bne	r2,zero,10a8 <VgaDrawBox+0x88>
    1090:	e0bffa17 	ldw	r2,-24(fp)
    1094:	10803c08 	cmpgei	r2,r2,240
    1098:	1000031e 	bne	r2,zero,10a8 <VgaDrawBox+0x88>
    109c:	e0bff817 	ldw	r2,-32(fp)
    10a0:	10803c10 	cmplti	r2,r2,240
    10a4:	1000021e 	bne	r2,zero,10b0 <VgaDrawBox+0x90>
    10a8:	00bfffc4 	movi	r2,-1
    10ac:	00002606 	br	1148 <VgaDrawBox+0x128>
  if((x2 < x1) ||(y2 < y1)) return(-1);
    10b0:	e0fff917 	ldw	r3,-28(fp)
    10b4:	e0bffb17 	ldw	r2,-20(fp)
    10b8:	18800316 	blt	r3,r2,10c8 <VgaDrawBox+0xa8>
    10bc:	e0fff817 	ldw	r3,-32(fp)
    10c0:	e0bffa17 	ldw	r2,-24(fp)
    10c4:	1880020e 	bge	r3,r2,10d0 <VgaDrawBox+0xb0>
    10c8:	00bfffc4 	movi	r2,-1
    10cc:	00001e06 	br	1148 <VgaDrawBox+0x128>

  for (row = y1; row <= y2; row++) {
    10d0:	e0bffa17 	ldw	r2,-24(fp)
    10d4:	e0bfff15 	stw	r2,-4(fp)
    10d8:	00001706 	br	1138 <VgaDrawBox+0x118>
    for (col = x1; col <= x2; col++) {
    10dc:	e0bffb17 	ldw	r2,-20(fp)
    10e0:	e0bffe15 	stw	r2,-8(fp)
    10e4:	00000e06 	br	1120 <VgaDrawBox+0x100>
      pixel_ptr = pixel_buf_ptr + (row * 1024) + (col << 1);
    10e8:	e0bfff17 	ldw	r2,-4(fp)
    10ec:	100692ba 	slli	r3,r2,10
    10f0:	e0bffd17 	ldw	r2,-12(fp)
    10f4:	1887883a 	add	r3,r3,r2
    10f8:	e0bffe17 	ldw	r2,-8(fp)
    10fc:	1085883a 	add	r2,r2,r2
    1100:	1885883a 	add	r2,r3,r2
    1104:	e0bffc15 	stw	r2,-16(fp)
      *(short *)pixel_ptr = pixel_color;
    1108:	e0bffc17 	ldw	r2,-16(fp)
    110c:	e0fff70b 	ldhu	r3,-36(fp)
    1110:	10c0000d 	sth	r3,0(r2)
    for (col = x1; col <= x2; col++) {
    1114:	e0bffe17 	ldw	r2,-8(fp)
    1118:	10800044 	addi	r2,r2,1
    111c:	e0bffe15 	stw	r2,-8(fp)
    1120:	e0bffe17 	ldw	r2,-8(fp)
    1124:	e0fff917 	ldw	r3,-28(fp)
    1128:	18bfef0e 	bge	r3,r2,10e8 <VgaDrawBox+0xc8>
  for (row = y1; row <= y2; row++) {
    112c:	e0bfff17 	ldw	r2,-4(fp)
    1130:	10800044 	addi	r2,r2,1
    1134:	e0bfff15 	stw	r2,-4(fp)
    1138:	e0bfff17 	ldw	r2,-4(fp)
    113c:	e0fff817 	ldw	r3,-32(fp)
    1140:	18bfe60e 	bge	r3,r2,10dc <VgaDrawBox+0xbc>
    }
  }
  return(0);
    1144:	0005883a 	mov	r2,zero
}
    1148:	e037883a 	mov	sp,fp
    114c:	df000017 	ldw	fp,0(sp)
    1150:	dec00104 	addi	sp,sp,4
    1154:	f800283a 	ret

00001158 <__divsi3>:
    1158:	20001a16 	blt	r4,zero,11c4 <__divsi3+0x6c>
    115c:	000f883a 	mov	r7,zero
    1160:	2800020e 	bge	r5,zero,116c <__divsi3+0x14>
    1164:	014bc83a 	sub	r5,zero,r5
    1168:	39c0005c 	xori	r7,r7,1
    116c:	200d883a 	mov	r6,r4
    1170:	00c00044 	movi	r3,1
    1174:	2900092e 	bgeu	r5,r4,119c <__divsi3+0x44>
    1178:	00800804 	movi	r2,32
    117c:	00c00044 	movi	r3,1
    1180:	00000106 	br	1188 <__divsi3+0x30>
    1184:	10001226 	beq	r2,zero,11d0 <__divsi3+0x78>
    1188:	294b883a 	add	r5,r5,r5
    118c:	10bfffc4 	addi	r2,r2,-1
    1190:	18c7883a 	add	r3,r3,r3
    1194:	293ffb36 	bltu	r5,r4,1184 <__divsi3+0x2c>
    1198:	18000d26 	beq	r3,zero,11d0 <__divsi3+0x78>
    119c:	0005883a 	mov	r2,zero
    11a0:	31400236 	bltu	r6,r5,11ac <__divsi3+0x54>
    11a4:	314dc83a 	sub	r6,r6,r5
    11a8:	10c4b03a 	or	r2,r2,r3
    11ac:	1806d07a 	srli	r3,r3,1
    11b0:	280ad07a 	srli	r5,r5,1
    11b4:	183ffa1e 	bne	r3,zero,11a0 <__divsi3+0x48>
    11b8:	38000126 	beq	r7,zero,11c0 <__divsi3+0x68>
    11bc:	0085c83a 	sub	r2,zero,r2
    11c0:	f800283a 	ret
    11c4:	0109c83a 	sub	r4,zero,r4
    11c8:	01c00044 	movi	r7,1
    11cc:	003fe406 	br	1160 <__divsi3+0x8>
    11d0:	0005883a 	mov	r2,zero
    11d4:	003ff806 	br	11b8 <__divsi3+0x60>

000011d8 <__modsi3>:
    11d8:	20001916 	blt	r4,zero,1240 <__modsi3+0x68>
    11dc:	000f883a 	mov	r7,zero
    11e0:	2005883a 	mov	r2,r4
    11e4:	2800010e 	bge	r5,zero,11ec <__modsi3+0x14>
    11e8:	014bc83a 	sub	r5,zero,r5
    11ec:	00c00044 	movi	r3,1
    11f0:	2900092e 	bgeu	r5,r4,1218 <__modsi3+0x40>
    11f4:	01800804 	movi	r6,32
    11f8:	00c00044 	movi	r3,1
    11fc:	00000106 	br	1204 <__modsi3+0x2c>
    1200:	30000d26 	beq	r6,zero,1238 <__modsi3+0x60>
    1204:	294b883a 	add	r5,r5,r5
    1208:	31bfffc4 	addi	r6,r6,-1
    120c:	18c7883a 	add	r3,r3,r3
    1210:	293ffb36 	bltu	r5,r4,1200 <__modsi3+0x28>
    1214:	18000826 	beq	r3,zero,1238 <__modsi3+0x60>
    1218:	1806d07a 	srli	r3,r3,1
    121c:	11400136 	bltu	r2,r5,1224 <__modsi3+0x4c>
    1220:	1145c83a 	sub	r2,r2,r5
    1224:	280ad07a 	srli	r5,r5,1
    1228:	183ffb1e 	bne	r3,zero,1218 <__modsi3+0x40>
    122c:	38000126 	beq	r7,zero,1234 <__modsi3+0x5c>
    1230:	0085c83a 	sub	r2,zero,r2
    1234:	f800283a 	ret
    1238:	2005883a 	mov	r2,r4
    123c:	003ffb06 	br	122c <__modsi3+0x54>
    1240:	0109c83a 	sub	r4,zero,r4
    1244:	01c00044 	movi	r7,1
    1248:	003fe506 	br	11e0 <__modsi3+0x8>

0000124c <__udivsi3>:
    124c:	200d883a 	mov	r6,r4
    1250:	2900152e 	bgeu	r5,r4,12a8 <__udivsi3+0x5c>
    1254:	28001416 	blt	r5,zero,12a8 <__udivsi3+0x5c>
    1258:	00800804 	movi	r2,32
    125c:	00c00044 	movi	r3,1
    1260:	00000206 	br	126c <__udivsi3+0x20>
    1264:	10000e26 	beq	r2,zero,12a0 <__udivsi3+0x54>
    1268:	28000516 	blt	r5,zero,1280 <__udivsi3+0x34>
    126c:	294b883a 	add	r5,r5,r5
    1270:	10bfffc4 	addi	r2,r2,-1
    1274:	18c7883a 	add	r3,r3,r3
    1278:	293ffa36 	bltu	r5,r4,1264 <__udivsi3+0x18>
    127c:	18000826 	beq	r3,zero,12a0 <__udivsi3+0x54>
    1280:	0005883a 	mov	r2,zero
    1284:	31400236 	bltu	r6,r5,1290 <__udivsi3+0x44>
    1288:	314dc83a 	sub	r6,r6,r5
    128c:	10c4b03a 	or	r2,r2,r3
    1290:	1806d07a 	srli	r3,r3,1
    1294:	280ad07a 	srli	r5,r5,1
    1298:	183ffa1e 	bne	r3,zero,1284 <__udivsi3+0x38>
    129c:	f800283a 	ret
    12a0:	0005883a 	mov	r2,zero
    12a4:	f800283a 	ret
    12a8:	00c00044 	movi	r3,1
    12ac:	003ff406 	br	1280 <__udivsi3+0x34>

000012b0 <__umodsi3>:
    12b0:	2005883a 	mov	r2,r4
    12b4:	2900132e 	bgeu	r5,r4,1304 <__umodsi3+0x54>
    12b8:	28001216 	blt	r5,zero,1304 <__umodsi3+0x54>
    12bc:	01800804 	movi	r6,32
    12c0:	00c00044 	movi	r3,1
    12c4:	00000206 	br	12d0 <__umodsi3+0x20>
    12c8:	30000c26 	beq	r6,zero,12fc <__umodsi3+0x4c>
    12cc:	28000516 	blt	r5,zero,12e4 <__umodsi3+0x34>
    12d0:	294b883a 	add	r5,r5,r5
    12d4:	31bfffc4 	addi	r6,r6,-1
    12d8:	18c7883a 	add	r3,r3,r3
    12dc:	293ffa36 	bltu	r5,r4,12c8 <__umodsi3+0x18>
    12e0:	18000626 	beq	r3,zero,12fc <__umodsi3+0x4c>
    12e4:	1806d07a 	srli	r3,r3,1
    12e8:	11400136 	bltu	r2,r5,12f0 <__umodsi3+0x40>
    12ec:	1145c83a 	sub	r2,r2,r5
    12f0:	280ad07a 	srli	r5,r5,1
    12f4:	183ffb1e 	bne	r3,zero,12e4 <__umodsi3+0x34>
    12f8:	f800283a 	ret
    12fc:	2005883a 	mov	r2,r4
    1300:	f800283a 	ret
    1304:	00c00044 	movi	r3,1
    1308:	003ff606 	br	12e4 <__umodsi3+0x34>

0000130c <_printf_r>:
    130c:	defffd04 	addi	sp,sp,-12
    1310:	2805883a 	mov	r2,r5
    1314:	dfc00015 	stw	ra,0(sp)
    1318:	d9800115 	stw	r6,4(sp)
    131c:	d9c00215 	stw	r7,8(sp)
    1320:	21400217 	ldw	r5,8(r4)
    1324:	d9c00104 	addi	r7,sp,4
    1328:	100d883a 	mov	r6,r2
    132c:	00034d00 	call	34d0 <___vfprintf_internal_r>
    1330:	dfc00017 	ldw	ra,0(sp)
    1334:	dec00304 	addi	sp,sp,12
    1338:	f800283a 	ret

0000133c <printf>:
    133c:	defffc04 	addi	sp,sp,-16
    1340:	dfc00015 	stw	ra,0(sp)
    1344:	d9400115 	stw	r5,4(sp)
    1348:	d9800215 	stw	r6,8(sp)
    134c:	d9c00315 	stw	r7,12(sp)
    1350:	008000b4 	movhi	r2,2
    1354:	10bd8517 	ldw	r2,-2540(r2)
    1358:	200b883a 	mov	r5,r4
    135c:	d9800104 	addi	r6,sp,4
    1360:	11000217 	ldw	r4,8(r2)
    1364:	00054e00 	call	54e0 <__vfprintf_internal>
    1368:	dfc00017 	ldw	ra,0(sp)
    136c:	dec00404 	addi	sp,sp,16
    1370:	f800283a 	ret

00001374 <srand>:
    1374:	008000b4 	movhi	r2,2
    1378:	10bd8517 	ldw	r2,-2540(r2)
    137c:	11002915 	stw	r4,164(r2)
    1380:	10002a15 	stw	zero,168(r2)
    1384:	f800283a 	ret

00001388 <rand>:
    1388:	defffe04 	addi	sp,sp,-8
    138c:	008000b4 	movhi	r2,2
    1390:	dc000015 	stw	r16,0(sp)
    1394:	143d8517 	ldw	r16,-2540(r2)
    1398:	dfc00115 	stw	ra,4(sp)
    139c:	01932574 	movhi	r6,19605
    13a0:	81002917 	ldw	r4,164(r16)
    13a4:	81402a17 	ldw	r5,168(r16)
    13a8:	01d614b4 	movhi	r7,22610
    13ac:	319fcb44 	addi	r6,r6,32557
    13b0:	39fd0b44 	addi	r7,r7,-3027
    13b4:	000decc0 	call	decc <__muldi3>
    13b8:	11400044 	addi	r5,r2,1
    13bc:	2885803a 	cmpltu	r2,r5,r2
    13c0:	01200034 	movhi	r4,32768
    13c4:	10c5883a 	add	r2,r2,r3
    13c8:	213fffc4 	addi	r4,r4,-1
    13cc:	80802a15 	stw	r2,168(r16)
    13d0:	1104703a 	and	r2,r2,r4
    13d4:	81402915 	stw	r5,164(r16)
    13d8:	dfc00117 	ldw	ra,4(sp)
    13dc:	dc000017 	ldw	r16,0(sp)
    13e0:	dec00204 	addi	sp,sp,8
    13e4:	f800283a 	ret

000013e8 <_sprintf_r>:
    13e8:	deffe404 	addi	sp,sp,-112
    13ec:	2807883a 	mov	r3,r5
    13f0:	dfc01a15 	stw	ra,104(sp)
    13f4:	d9c01b15 	stw	r7,108(sp)
    13f8:	00a00034 	movhi	r2,32768
    13fc:	023ffff4 	movhi	r8,65535
    1400:	10bfffc4 	addi	r2,r2,-1
    1404:	42008204 	addi	r8,r8,520
    1408:	d9c01b04 	addi	r7,sp,108
    140c:	d80b883a 	mov	r5,sp
    1410:	d8c00015 	stw	r3,0(sp)
    1414:	d8c00415 	stw	r3,16(sp)
    1418:	d8800515 	stw	r2,20(sp)
    141c:	d8800215 	stw	r2,8(sp)
    1420:	da000315 	stw	r8,12(sp)
    1424:	00015380 	call	1538 <___svfprintf_internal_r>
    1428:	d8c00017 	ldw	r3,0(sp)
    142c:	18000005 	stb	zero,0(r3)
    1430:	dfc01a17 	ldw	ra,104(sp)
    1434:	dec01c04 	addi	sp,sp,112
    1438:	f800283a 	ret

0000143c <sprintf>:
    143c:	deffe304 	addi	sp,sp,-116
    1440:	2007883a 	mov	r3,r4
    1444:	dfc01a15 	stw	ra,104(sp)
    1448:	d9801b15 	stw	r6,108(sp)
    144c:	d9c01c15 	stw	r7,112(sp)
    1450:	008000b4 	movhi	r2,2
    1454:	113d8517 	ldw	r4,-2540(r2)
    1458:	023ffff4 	movhi	r8,65535
    145c:	00a00034 	movhi	r2,32768
    1460:	10bfffc4 	addi	r2,r2,-1
    1464:	42008204 	addi	r8,r8,520
    1468:	280d883a 	mov	r6,r5
    146c:	d9c01b04 	addi	r7,sp,108
    1470:	d80b883a 	mov	r5,sp
    1474:	d8c00015 	stw	r3,0(sp)
    1478:	d8c00415 	stw	r3,16(sp)
    147c:	d8800515 	stw	r2,20(sp)
    1480:	d8800215 	stw	r2,8(sp)
    1484:	da000315 	stw	r8,12(sp)
    1488:	00015380 	call	1538 <___svfprintf_internal_r>
    148c:	d8c00017 	ldw	r3,0(sp)
    1490:	18000005 	stb	zero,0(r3)
    1494:	dfc01a17 	ldw	ra,104(sp)
    1498:	dec01d04 	addi	sp,sp,116
    149c:	f800283a 	ret

000014a0 <strlen>:
    14a0:	208000cc 	andi	r2,r4,3
    14a4:	10000926 	beq	r2,zero,14cc <strlen+0x2c>
    14a8:	2005883a 	mov	r2,r4
    14ac:	00000306 	br	14bc <strlen+0x1c>
    14b0:	10800044 	addi	r2,r2,1
    14b4:	10c000cc 	andi	r3,r2,3
    14b8:	18000526 	beq	r3,zero,14d0 <strlen+0x30>
    14bc:	10c00007 	ldb	r3,0(r2)
    14c0:	183ffb1e 	bne	r3,zero,14b0 <strlen+0x10>
    14c4:	1105c83a 	sub	r2,r2,r4
    14c8:	f800283a 	ret
    14cc:	2005883a 	mov	r2,r4
    14d0:	11400017 	ldw	r5,0(r2)
    14d4:	01ffbff4 	movhi	r7,65279
    14d8:	39ffbfc4 	addi	r7,r7,-257
    14dc:	29c7883a 	add	r3,r5,r7
    14e0:	01a02074 	movhi	r6,32897
    14e4:	014a303a 	nor	r5,zero,r5
    14e8:	1946703a 	and	r3,r3,r5
    14ec:	31a02004 	addi	r6,r6,-32640
    14f0:	1986703a 	and	r3,r3,r6
    14f4:	1800071e 	bne	r3,zero,1514 <strlen+0x74>
    14f8:	11400117 	ldw	r5,4(r2)
    14fc:	10800104 	addi	r2,r2,4
    1500:	29c7883a 	add	r3,r5,r7
    1504:	014a303a 	nor	r5,zero,r5
    1508:	1946703a 	and	r3,r3,r5
    150c:	1986703a 	and	r3,r3,r6
    1510:	183ff926 	beq	r3,zero,14f8 <strlen+0x58>
    1514:	10c00007 	ldb	r3,0(r2)
    1518:	183fea26 	beq	r3,zero,14c4 <strlen+0x24>
    151c:	10c00047 	ldb	r3,1(r2)
    1520:	10800044 	addi	r2,r2,1
    1524:	183fe726 	beq	r3,zero,14c4 <strlen+0x24>
    1528:	10c00047 	ldb	r3,1(r2)
    152c:	10800044 	addi	r2,r2,1
    1530:	183ffa1e 	bne	r3,zero,151c <strlen+0x7c>
    1534:	003fe306 	br	14c4 <strlen+0x24>

00001538 <___svfprintf_internal_r>:
    1538:	deffbf04 	addi	sp,sp,-260
    153c:	dfc04015 	stw	ra,256(sp)
    1540:	dd803d15 	stw	r22,244(sp)
    1544:	dcc03a15 	stw	r19,232(sp)
    1548:	dc803915 	stw	r18,228(sp)
    154c:	2027883a 	mov	r19,r4
    1550:	2825883a 	mov	r18,r5
    1554:	302d883a 	mov	r22,r6
    1558:	d9c00615 	stw	r7,24(sp)
    155c:	df003f15 	stw	fp,252(sp)
    1560:	ddc03e15 	stw	r23,248(sp)
    1564:	dd403c15 	stw	r21,240(sp)
    1568:	dd003b15 	stw	r20,236(sp)
    156c:	dc403815 	stw	r17,224(sp)
    1570:	dc003715 	stw	r16,220(sp)
    1574:	0007c680 	call	7c68 <_localeconv_r>
    1578:	10800017 	ldw	r2,0(r2)
    157c:	1009883a 	mov	r4,r2
    1580:	d8800d15 	stw	r2,52(sp)
    1584:	00014a00 	call	14a0 <strlen>
    1588:	90c0030b 	ldhu	r3,12(r18)
    158c:	d8800c15 	stw	r2,48(sp)
    1590:	18c0200c 	andi	r3,r3,128
    1594:	18000226 	beq	r3,zero,15a0 <___svfprintf_internal_r+0x68>
    1598:	90800417 	ldw	r2,16(r18)
    159c:	10052926 	beq	r2,zero,2a44 <___svfprintf_internal_r+0x150c>
    15a0:	d8802704 	addi	r2,sp,156
    15a4:	b02f883a 	mov	r23,r22
    15a8:	d8801a15 	stw	r2,104(sp)
    15ac:	d8001c15 	stw	zero,112(sp)
    15b0:	d8001b15 	stw	zero,108(sp)
    15b4:	d8000815 	stw	zero,32(sp)
    15b8:	d8000915 	stw	zero,36(sp)
    15bc:	d8000a15 	stw	zero,40(sp)
    15c0:	d8000b15 	stw	zero,44(sp)
    15c4:	d8001015 	stw	zero,64(sp)
    15c8:	d8000515 	stw	zero,20(sp)
    15cc:	102d883a 	mov	r22,r2
    15d0:	b8800007 	ldb	r2,0(r23)
    15d4:	1000d526 	beq	r2,zero,192c <___svfprintf_internal_r+0x3f4>
    15d8:	b821883a 	mov	r16,r23
    15dc:	00000306 	br	15ec <___svfprintf_internal_r+0xb4>
    15e0:	80800047 	ldb	r2,1(r16)
    15e4:	84000044 	addi	r16,r16,1
    15e8:	10010626 	beq	r2,zero,1a04 <___svfprintf_internal_r+0x4cc>
    15ec:	10800958 	cmpnei	r2,r2,37
    15f0:	103ffb1e 	bne	r2,zero,15e0 <___svfprintf_internal_r+0xa8>
    15f4:	85e3c83a 	sub	r17,r16,r23
    15f8:	85c1041e 	bne	r16,r23,1a0c <___svfprintf_internal_r+0x4d4>
    15fc:	80800003 	ldbu	r2,0(r16)
    1600:	10803fcc 	andi	r2,r2,255
    1604:	1080201c 	xori	r2,r2,128
    1608:	10bfe004 	addi	r2,r2,-128
    160c:	1000c726 	beq	r2,zero,192c <___svfprintf_internal_r+0x3f4>
    1610:	82c00047 	ldb	r11,1(r16)
    1614:	85c00044 	addi	r23,r16,1
    1618:	d8001345 	stb	zero,77(sp)
    161c:	0009883a 	mov	r4,zero
    1620:	000b883a 	mov	r5,zero
    1624:	023fffc4 	movi	r8,-1
    1628:	0021883a 	mov	r16,zero
    162c:	0019883a 	mov	r12,zero
    1630:	bdc00044 	addi	r23,r23,1
    1634:	5839883a 	mov	fp,r11
    1638:	e0bff804 	addi	r2,fp,-32
    163c:	10c01668 	cmpgeui	r3,r2,89
    1640:	18006a1e 	bne	r3,zero,17ec <___svfprintf_internal_r+0x2b4>
    1644:	100490ba 	slli	r2,r2,2
    1648:	00c00034 	movhi	r3,0
    164c:	10c7883a 	add	r3,r2,r3
    1650:	18859617 	ldw	r2,5720(r3)
    1654:	1000683a 	jmp	r2
    1658:	00001e90 	cmplti	zero,zero,122
    165c:	000017ec 	andhi	zero,zero,95
    1660:	000017ec 	andhi	zero,zero,95
    1664:	00001e84 	movi	zero,122
    1668:	000017ec 	andhi	zero,zero,95
    166c:	000017ec 	andhi	zero,zero,95
    1670:	000017ec 	andhi	zero,zero,95
    1674:	000017ec 	andhi	zero,zero,95
    1678:	000017ec 	andhi	zero,zero,95
    167c:	000017ec 	andhi	zero,zero,95
    1680:	00001ce4 	muli	zero,zero,115
    1684:	00001e74 	movhi	zero,121
    1688:	000017ec 	andhi	zero,zero,95
    168c:	00001cfc 	xorhi	zero,zero,115
    1690:	00001d14 	movui	zero,116
    1694:	000017ec 	andhi	zero,zero,95
    1698:	00001e68 	cmpgeui	zero,zero,121
    169c:	000017bc 	xorhi	zero,zero,94
    16a0:	000017bc 	xorhi	zero,zero,94
    16a4:	000017bc 	xorhi	zero,zero,94
    16a8:	000017bc 	xorhi	zero,zero,94
    16ac:	000017bc 	xorhi	zero,zero,94
    16b0:	000017bc 	xorhi	zero,zero,94
    16b4:	000017bc 	xorhi	zero,zero,94
    16b8:	000017bc 	xorhi	zero,zero,94
    16bc:	000017bc 	xorhi	zero,zero,94
    16c0:	000017ec 	andhi	zero,zero,95
    16c4:	000017ec 	andhi	zero,zero,95
    16c8:	000017ec 	andhi	zero,zero,95
    16cc:	000017ec 	andhi	zero,zero,95
    16d0:	000017ec 	andhi	zero,zero,95
    16d4:	000017ec 	andhi	zero,zero,95
    16d8:	000017ec 	andhi	zero,zero,95
    16dc:	000017ec 	andhi	zero,zero,95
    16e0:	000017ec 	andhi	zero,zero,95
    16e4:	000017ec 	andhi	zero,zero,95
    16e8:	00001d58 	cmpnei	zero,zero,117
    16ec:	00001a68 	cmpgeui	zero,zero,105
    16f0:	000017ec 	andhi	zero,zero,95
    16f4:	00001a68 	cmpgeui	zero,zero,105
    16f8:	000017ec 	andhi	zero,zero,95
    16fc:	000017ec 	andhi	zero,zero,95
    1700:	000017ec 	andhi	zero,zero,95
    1704:	000017ec 	andhi	zero,zero,95
    1708:	00001d08 	cmpgei	zero,zero,116
    170c:	000017ec 	andhi	zero,zero,95
    1710:	000017ec 	andhi	zero,zero,95
    1714:	0000199c 	xori	zero,zero,102
    1718:	000017ec 	andhi	zero,zero,95
    171c:	000017ec 	andhi	zero,zero,95
    1720:	000017ec 	andhi	zero,zero,95
    1724:	000017ec 	andhi	zero,zero,95
    1728:	000017ec 	andhi	zero,zero,95
    172c:	00001974 	movhi	zero,101
    1730:	000017ec 	andhi	zero,zero,95
    1734:	000017ec 	andhi	zero,zero,95
    1738:	00001f18 	cmpnei	zero,zero,124
    173c:	000017ec 	andhi	zero,zero,95
    1740:	000017ec 	andhi	zero,zero,95
    1744:	000017ec 	andhi	zero,zero,95
    1748:	000017ec 	andhi	zero,zero,95
    174c:	000017ec 	andhi	zero,zero,95
    1750:	000017ec 	andhi	zero,zero,95
    1754:	000017ec 	andhi	zero,zero,95
    1758:	000017ec 	andhi	zero,zero,95
    175c:	000017ec 	andhi	zero,zero,95
    1760:	000017ec 	andhi	zero,zero,95
    1764:	00001ef0 	cmpltui	zero,zero,123
    1768:	00001c70 	cmpltui	zero,zero,113
    176c:	00001a68 	cmpgeui	zero,zero,105
    1770:	00001a68 	cmpgeui	zero,zero,105
    1774:	00001a68 	cmpgeui	zero,zero,105
    1778:	00001ee4 	muli	zero,zero,123
    177c:	00001c70 	cmpltui	zero,zero,113
    1780:	000017ec 	andhi	zero,zero,95
    1784:	000017ec 	andhi	zero,zero,95
    1788:	00001ebc 	xorhi	zero,zero,122
    178c:	000017ec 	andhi	zero,zero,95
    1790:	0000204c 	andi	zero,zero,129
    1794:	000019a0 	cmpeqi	zero,zero,102
    1798:	0000200c 	andi	zero,zero,128
    179c:	00002000 	call	200 <alt_instruction_exception_entry+0x3c>
    17a0:	000017ec 	andhi	zero,zero,95
    17a4:	00001fa8 	cmpgeui	zero,zero,126
    17a8:	000017ec 	andhi	zero,zero,95
    17ac:	00001978 	rdprs	zero,zero,101
    17b0:	000017ec 	andhi	zero,zero,95
    17b4:	000017ec 	andhi	zero,zero,95
    17b8:	00001f60 	cmpeqi	zero,zero,125
    17bc:	0021883a 	mov	r16,zero
    17c0:	e0bff404 	addi	r2,fp,-48
    17c4:	bf000007 	ldb	fp,0(r23)
    17c8:	840002a4 	muli	r16,r16,10
    17cc:	bdc00044 	addi	r23,r23,1
    17d0:	1421883a 	add	r16,r2,r16
    17d4:	e0bff404 	addi	r2,fp,-48
    17d8:	10c002b0 	cmpltui	r3,r2,10
    17dc:	183ff91e 	bne	r3,zero,17c4 <___svfprintf_internal_r+0x28c>
    17e0:	e0bff804 	addi	r2,fp,-32
    17e4:	10c01668 	cmpgeui	r3,r2,89
    17e8:	183f9626 	beq	r3,zero,1644 <___svfprintf_internal_r+0x10c>
    17ec:	21003fcc 	andi	r4,r4,255
    17f0:	20065b1e 	bne	r4,zero,3160 <___svfprintf_internal_r+0x1c28>
    17f4:	e0004d26 	beq	fp,zero,192c <___svfprintf_internal_r+0x3f4>
    17f8:	df001d05 	stb	fp,116(sp)
    17fc:	d8001345 	stb	zero,77(sp)
    1800:	05000044 	movi	r20,1
    1804:	05400044 	movi	r21,1
    1808:	dc401d04 	addi	r17,sp,116
    180c:	db000415 	stw	r12,16(sp)
    1810:	0011883a 	mov	r8,zero
    1814:	d8000715 	stw	zero,28(sp)
    1818:	d8800417 	ldw	r2,16(sp)
    181c:	1380008c 	andi	r14,r2,2
    1820:	70000126 	beq	r14,zero,1828 <___svfprintf_internal_r+0x2f0>
    1824:	a5000084 	addi	r20,r20,2
    1828:	d8800417 	ldw	r2,16(sp)
    182c:	d8c01c17 	ldw	r3,112(sp)
    1830:	1340210c 	andi	r13,r2,132
    1834:	6800021e 	bne	r13,zero,1840 <___svfprintf_internal_r+0x308>
    1838:	850fc83a 	sub	r7,r16,r20
    183c:	01c34e16 	blt	zero,r7,2578 <___svfprintf_internal_r+0x1040>
    1840:	d8801347 	ldb	r2,77(sp)
    1844:	10000c26 	beq	r2,zero,1878 <___svfprintf_internal_r+0x340>
    1848:	d8801b17 	ldw	r2,108(sp)
    184c:	d9001344 	addi	r4,sp,77
    1850:	18c00044 	addi	r3,r3,1
    1854:	10800044 	addi	r2,r2,1
    1858:	b1000015 	stw	r4,0(r22)
    185c:	01000044 	movi	r4,1
    1860:	d8801b15 	stw	r2,108(sp)
    1864:	b1000115 	stw	r4,4(r22)
    1868:	d8c01c15 	stw	r3,112(sp)
    186c:	10800208 	cmpgei	r2,r2,8
    1870:	1003821e 	bne	r2,zero,267c <___svfprintf_internal_r+0x1144>
    1874:	b5800204 	addi	r22,r22,8
    1878:	70000c26 	beq	r14,zero,18ac <___svfprintf_internal_r+0x374>
    187c:	d8801b17 	ldw	r2,108(sp)
    1880:	d9001384 	addi	r4,sp,78
    1884:	18c00084 	addi	r3,r3,2
    1888:	10800044 	addi	r2,r2,1
    188c:	b1000015 	stw	r4,0(r22)
    1890:	01000084 	movi	r4,2
    1894:	d8801b15 	stw	r2,108(sp)
    1898:	b1000115 	stw	r4,4(r22)
    189c:	d8c01c15 	stw	r3,112(sp)
    18a0:	10800208 	cmpgei	r2,r2,8
    18a4:	1003831e 	bne	r2,zero,26b4 <___svfprintf_internal_r+0x117c>
    18a8:	b5800204 	addi	r22,r22,8
    18ac:	6b402018 	cmpnei	r13,r13,128
    18b0:	68023f26 	beq	r13,zero,21b0 <___svfprintf_internal_r+0xc78>
    18b4:	4551c83a 	sub	r8,r8,r21
    18b8:	02027716 	blt	zero,r8,2298 <___svfprintf_internal_r+0xd60>
    18bc:	d8800417 	ldw	r2,16(sp)
    18c0:	1080400c 	andi	r2,r2,256
    18c4:	1001f11e 	bne	r2,zero,208c <___svfprintf_internal_r+0xb54>
    18c8:	d8801b17 	ldw	r2,108(sp)
    18cc:	1d47883a 	add	r3,r3,r21
    18d0:	b4400015 	stw	r17,0(r22)
    18d4:	10800044 	addi	r2,r2,1
    18d8:	b5400115 	stw	r21,4(r22)
    18dc:	d8801b15 	stw	r2,108(sp)
    18e0:	d8c01c15 	stw	r3,112(sp)
    18e4:	10800208 	cmpgei	r2,r2,8
    18e8:	1002e01e 	bne	r2,zero,246c <___svfprintf_internal_r+0xf34>
    18ec:	b5800204 	addi	r22,r22,8
    18f0:	d8800417 	ldw	r2,16(sp)
    18f4:	1440010c 	andi	r17,r2,4
    18f8:	88000226 	beq	r17,zero,1904 <___svfprintf_internal_r+0x3cc>
    18fc:	8523c83a 	sub	r17,r16,r20
    1900:	0440ac16 	blt	zero,r17,1bb4 <___svfprintf_internal_r+0x67c>
    1904:	8500010e 	bge	r16,r20,190c <___svfprintf_internal_r+0x3d4>
    1908:	a021883a 	mov	r16,r20
    190c:	d8800517 	ldw	r2,20(sp)
    1910:	1405883a 	add	r2,r2,r16
    1914:	d8800515 	stw	r2,20(sp)
    1918:	1802a61e 	bne	r3,zero,23b4 <___svfprintf_internal_r+0xe7c>
    191c:	b8800007 	ldb	r2,0(r23)
    1920:	d8001b15 	stw	zero,108(sp)
    1924:	dd802704 	addi	r22,sp,156
    1928:	103f2b1e 	bne	r2,zero,15d8 <___svfprintf_internal_r+0xa0>
    192c:	d8801c17 	ldw	r2,112(sp)
    1930:	10060d1e 	bne	r2,zero,3168 <___svfprintf_internal_r+0x1c30>
    1934:	9080030b 	ldhu	r2,12(r18)
    1938:	1080100c 	andi	r2,r2,64
    193c:	1006ad1e 	bne	r2,zero,33f4 <___svfprintf_internal_r+0x1ebc>
    1940:	d8800517 	ldw	r2,20(sp)
    1944:	dfc04017 	ldw	ra,256(sp)
    1948:	df003f17 	ldw	fp,252(sp)
    194c:	ddc03e17 	ldw	r23,248(sp)
    1950:	dd803d17 	ldw	r22,244(sp)
    1954:	dd403c17 	ldw	r21,240(sp)
    1958:	dd003b17 	ldw	r20,236(sp)
    195c:	dcc03a17 	ldw	r19,232(sp)
    1960:	dc803917 	ldw	r18,228(sp)
    1964:	dc403817 	ldw	r17,224(sp)
    1968:	dc003717 	ldw	r16,220(sp)
    196c:	dec04104 	addi	sp,sp,260
    1970:	f800283a 	ret
    1974:	63000414 	ori	r12,r12,16
    1978:	6080080c 	andi	r2,r12,32
    197c:	10008126 	beq	r2,zero,1b84 <___svfprintf_internal_r+0x64c>
    1980:	d8c00617 	ldw	r3,24(sp)
    1984:	00800044 	movi	r2,1
    1988:	1d000017 	ldw	r20,0(r3)
    198c:	1d400117 	ldw	r21,4(r3)
    1990:	18c00204 	addi	r3,r3,8
    1994:	d8c00615 	stw	r3,24(sp)
    1998:	00000906 	br	19c0 <___svfprintf_internal_r+0x488>
    199c:	63000414 	ori	r12,r12,16
    19a0:	6080080c 	andi	r2,r12,32
    19a4:	10006b26 	beq	r2,zero,1b54 <___svfprintf_internal_r+0x61c>
    19a8:	d8c00617 	ldw	r3,24(sp)
    19ac:	0005883a 	mov	r2,zero
    19b0:	1d000017 	ldw	r20,0(r3)
    19b4:	1d400117 	ldw	r21,4(r3)
    19b8:	18c00204 	addi	r3,r3,8
    19bc:	d8c00615 	stw	r3,24(sp)
    19c0:	001b883a 	mov	r13,zero
    19c4:	db401345 	stb	r13,77(sp)
    19c8:	40ffffe0 	cmpeqi	r3,r8,-1
    19cc:	1800fe1e 	bne	r3,zero,1dc8 <___svfprintf_internal_r+0x890>
    19d0:	047fdfc4 	movi	r17,-129
    19d4:	6448703a 	and	r4,r12,r17
    19d8:	a546b03a 	or	r3,r20,r21
    19dc:	d9000415 	stw	r4,16(sp)
    19e0:	1802e31e 	bne	r3,zero,2570 <___svfprintf_internal_r+0x1038>
    19e4:	40025d1e 	bne	r8,zero,235c <___svfprintf_internal_r+0xe24>
    19e8:	1003981e 	bne	r2,zero,284c <___svfprintf_internal_r+0x1314>
    19ec:	6540004c 	andi	r21,r12,1
    19f0:	a803f126 	beq	r21,zero,29b8 <___svfprintf_internal_r+0x1480>
    19f4:	00800c04 	movi	r2,48
    19f8:	d88026c5 	stb	r2,155(sp)
    19fc:	dc4026c4 	addi	r17,sp,155
    1a00:	00010f06 	br	1e40 <___svfprintf_internal_r+0x908>
    1a04:	85e3c83a 	sub	r17,r16,r23
    1a08:	85ffc826 	beq	r16,r23,192c <___svfprintf_internal_r+0x3f4>
    1a0c:	d8c01c17 	ldw	r3,112(sp)
    1a10:	d8801b17 	ldw	r2,108(sp)
    1a14:	b5c00015 	stw	r23,0(r22)
    1a18:	1c47883a 	add	r3,r3,r17
    1a1c:	10800044 	addi	r2,r2,1
    1a20:	d8801b15 	stw	r2,108(sp)
    1a24:	b4400115 	stw	r17,4(r22)
    1a28:	d8c01c15 	stw	r3,112(sp)
    1a2c:	10800208 	cmpgei	r2,r2,8
    1a30:	1000061e 	bne	r2,zero,1a4c <___svfprintf_internal_r+0x514>
    1a34:	b5800204 	addi	r22,r22,8
    1a38:	d8c00517 	ldw	r3,20(sp)
    1a3c:	80800003 	ldbu	r2,0(r16)
    1a40:	1c47883a 	add	r3,r3,r17
    1a44:	d8c00515 	stw	r3,20(sp)
    1a48:	003eed06 	br	1600 <___svfprintf_internal_r+0xc8>
    1a4c:	d9801a04 	addi	r6,sp,104
    1a50:	900b883a 	mov	r5,r18
    1a54:	9809883a 	mov	r4,r19
    1a58:	0009c440 	call	9c44 <__ssprint_r>
    1a5c:	103fb51e 	bne	r2,zero,1934 <___svfprintf_internal_r+0x3fc>
    1a60:	dd802704 	addi	r22,sp,156
    1a64:	003ff406 	br	1a38 <___svfprintf_internal_r+0x500>
    1a68:	21003fcc 	andi	r4,r4,255
    1a6c:	20061f1e 	bne	r4,zero,32ec <___svfprintf_internal_r+0x1db4>
    1a70:	d8c00617 	ldw	r3,24(sp)
    1a74:	6080020c 	andi	r2,r12,8
    1a78:	19000204 	addi	r4,r3,8
    1a7c:	d9000e15 	stw	r4,56(sp)
    1a80:	1003cf1e 	bne	r2,zero,29c0 <___svfprintf_internal_r+0x1488>
    1a84:	d8800617 	ldw	r2,24(sp)
    1a88:	10c00017 	ldw	r3,0(r2)
    1a8c:	10800117 	ldw	r2,4(r2)
    1a90:	d8c00915 	stw	r3,36(sp)
    1a94:	d8800a15 	stw	r2,40(sp)
    1a98:	dd400a17 	ldw	r21,40(sp)
    1a9c:	dd000917 	ldw	r20,36(sp)
    1aa0:	00a00034 	movhi	r2,32768
    1aa4:	10bfffc4 	addi	r2,r2,-1
    1aa8:	a8a2703a 	and	r17,r21,r2
    1aac:	01dffc34 	movhi	r7,32752
    1ab0:	01bfffc4 	movi	r6,-1
    1ab4:	39ffffc4 	addi	r7,r7,-1
    1ab8:	a009883a 	mov	r4,r20
    1abc:	880b883a 	mov	r5,r17
    1ac0:	da000615 	stw	r8,24(sp)
    1ac4:	db000415 	stw	r12,16(sp)
    1ac8:	0010d1c0 	call	10d1c <__unorddf2>
    1acc:	db000417 	ldw	r12,16(sp)
    1ad0:	da000617 	ldw	r8,24(sp)
    1ad4:	1004481e 	bne	r2,zero,2bf8 <___svfprintf_internal_r+0x16c0>
    1ad8:	01dffc34 	movhi	r7,32752
    1adc:	01bfffc4 	movi	r6,-1
    1ae0:	39ffffc4 	addi	r7,r7,-1
    1ae4:	a009883a 	mov	r4,r20
    1ae8:	880b883a 	mov	r5,r17
    1aec:	000fc4c0 	call	fc4c <__ledf2>
    1af0:	db000417 	ldw	r12,16(sp)
    1af4:	da000617 	ldw	r8,24(sp)
    1af8:	00843f0e 	bge	zero,r2,2bf8 <___svfprintf_internal_r+0x16c0>
    1afc:	000d883a 	mov	r6,zero
    1b00:	000f883a 	mov	r7,zero
    1b04:	a009883a 	mov	r4,r20
    1b08:	a80b883a 	mov	r5,r21
    1b0c:	000fc4c0 	call	fc4c <__ledf2>
    1b10:	db000417 	ldw	r12,16(sp)
    1b14:	10057416 	blt	r2,zero,30e8 <___svfprintf_internal_r+0x1bb0>
    1b18:	db401343 	ldbu	r13,77(sp)
    1b1c:	e0801210 	cmplti	r2,fp,72
    1b20:	1004e21e 	bne	r2,zero,2eac <___svfprintf_internal_r+0x1974>
    1b24:	044000b4 	movhi	r17,2
    1b28:	8c704d04 	addi	r17,r17,-16076
    1b2c:	00bfdfc4 	movi	r2,-129
    1b30:	6084703a 	and	r2,r12,r2
    1b34:	d8800415 	stw	r2,16(sp)
    1b38:	d8800e17 	ldw	r2,56(sp)
    1b3c:	050000c4 	movi	r20,3
    1b40:	054000c4 	movi	r21,3
    1b44:	d8800615 	stw	r2,24(sp)
    1b48:	0011883a 	mov	r8,zero
    1b4c:	d8000715 	stw	zero,28(sp)
    1b50:	0000bf06 	br	1e50 <___svfprintf_internal_r+0x918>
    1b54:	d8c00617 	ldw	r3,24(sp)
    1b58:	6080040c 	andi	r2,r12,16
    1b5c:	1d000017 	ldw	r20,0(r3)
    1b60:	18c00104 	addi	r3,r3,4
    1b64:	1000031e 	bne	r2,zero,1b74 <___svfprintf_internal_r+0x63c>
    1b68:	6080100c 	andi	r2,r12,64
    1b6c:	10000126 	beq	r2,zero,1b74 <___svfprintf_internal_r+0x63c>
    1b70:	a53fffcc 	andi	r20,r20,65535
    1b74:	002b883a 	mov	r21,zero
    1b78:	d8c00615 	stw	r3,24(sp)
    1b7c:	0005883a 	mov	r2,zero
    1b80:	003f8f06 	br	19c0 <___svfprintf_internal_r+0x488>
    1b84:	d8c00617 	ldw	r3,24(sp)
    1b88:	6080040c 	andi	r2,r12,16
    1b8c:	1d000017 	ldw	r20,0(r3)
    1b90:	18c00104 	addi	r3,r3,4
    1b94:	1000031e 	bne	r2,zero,1ba4 <___svfprintf_internal_r+0x66c>
    1b98:	6080100c 	andi	r2,r12,64
    1b9c:	10000126 	beq	r2,zero,1ba4 <___svfprintf_internal_r+0x66c>
    1ba0:	a53fffcc 	andi	r20,r20,65535
    1ba4:	002b883a 	mov	r21,zero
    1ba8:	d8c00615 	stw	r3,24(sp)
    1bac:	00800044 	movi	r2,1
    1bb0:	003f8306 	br	19c0 <___svfprintf_internal_r+0x488>
    1bb4:	030000b4 	movhi	r12,2
    1bb8:	89000450 	cmplti	r4,r17,17
    1bbc:	d8801b17 	ldw	r2,108(sp)
    1bc0:	63306104 	addi	r12,r12,-15996
    1bc4:	20001b1e 	bne	r4,zero,1c34 <___svfprintf_internal_r+0x6fc>
    1bc8:	05400404 	movi	r21,16
    1bcc:	6039883a 	mov	fp,r12
    1bd0:	00000406 	br	1be4 <___svfprintf_internal_r+0x6ac>
    1bd4:	8c7ffc04 	addi	r17,r17,-16
    1bd8:	89000448 	cmpgei	r4,r17,17
    1bdc:	b5800204 	addi	r22,r22,8
    1be0:	20001326 	beq	r4,zero,1c30 <___svfprintf_internal_r+0x6f8>
    1be4:	10800044 	addi	r2,r2,1
    1be8:	18c00404 	addi	r3,r3,16
    1bec:	b7000015 	stw	fp,0(r22)
    1bf0:	b5400115 	stw	r21,4(r22)
    1bf4:	d8c01c15 	stw	r3,112(sp)
    1bf8:	d8801b15 	stw	r2,108(sp)
    1bfc:	11000208 	cmpgei	r4,r2,8
    1c00:	203ff426 	beq	r4,zero,1bd4 <___svfprintf_internal_r+0x69c>
    1c04:	d9801a04 	addi	r6,sp,104
    1c08:	900b883a 	mov	r5,r18
    1c0c:	9809883a 	mov	r4,r19
    1c10:	0009c440 	call	9c44 <__ssprint_r>
    1c14:	103f471e 	bne	r2,zero,1934 <___svfprintf_internal_r+0x3fc>
    1c18:	8c7ffc04 	addi	r17,r17,-16
    1c1c:	89000448 	cmpgei	r4,r17,17
    1c20:	d8c01c17 	ldw	r3,112(sp)
    1c24:	d8801b17 	ldw	r2,108(sp)
    1c28:	dd802704 	addi	r22,sp,156
    1c2c:	203fed1e 	bne	r4,zero,1be4 <___svfprintf_internal_r+0x6ac>
    1c30:	e019883a 	mov	r12,fp
    1c34:	10800044 	addi	r2,r2,1
    1c38:	1c47883a 	add	r3,r3,r17
    1c3c:	d8801b15 	stw	r2,108(sp)
    1c40:	b3000015 	stw	r12,0(r22)
    1c44:	b4400115 	stw	r17,4(r22)
    1c48:	d8c01c15 	stw	r3,112(sp)
    1c4c:	10800210 	cmplti	r2,r2,8
    1c50:	103f2c1e 	bne	r2,zero,1904 <___svfprintf_internal_r+0x3cc>
    1c54:	d9801a04 	addi	r6,sp,104
    1c58:	900b883a 	mov	r5,r18
    1c5c:	9809883a 	mov	r4,r19
    1c60:	0009c440 	call	9c44 <__ssprint_r>
    1c64:	103f331e 	bne	r2,zero,1934 <___svfprintf_internal_r+0x3fc>
    1c68:	d8c01c17 	ldw	r3,112(sp)
    1c6c:	003f2506 	br	1904 <___svfprintf_internal_r+0x3cc>
    1c70:	21003fcc 	andi	r4,r4,255
    1c74:	20059f1e 	bne	r4,zero,32f4 <___svfprintf_internal_r+0x1dbc>
    1c78:	6080080c 	andi	r2,r12,32
    1c7c:	10003b26 	beq	r2,zero,1d6c <___svfprintf_internal_r+0x834>
    1c80:	d8c00617 	ldw	r3,24(sp)
    1c84:	18800117 	ldw	r2,4(r3)
    1c88:	1d000017 	ldw	r20,0(r3)
    1c8c:	18c00204 	addi	r3,r3,8
    1c90:	d8c00615 	stw	r3,24(sp)
    1c94:	102b883a 	mov	r21,r2
    1c98:	10004216 	blt	r2,zero,1da4 <___svfprintf_internal_r+0x86c>
    1c9c:	40bfffd8 	cmpnei	r2,r8,-1
    1ca0:	db401343 	ldbu	r13,77(sp)
    1ca4:	10000626 	beq	r2,zero,1cc0 <___svfprintf_internal_r+0x788>
    1ca8:	047fdfc4 	movi	r17,-129
    1cac:	6446703a 	and	r3,r12,r17
    1cb0:	a544b03a 	or	r2,r20,r21
    1cb4:	d8c00415 	stw	r3,16(sp)
    1cb8:	1002e326 	beq	r2,zero,2848 <___svfprintf_internal_r+0x1310>
    1cbc:	db000417 	ldw	r12,16(sp)
    1cc0:	a8038f1e 	bne	r21,zero,2b00 <___svfprintf_internal_r+0x15c8>
    1cc4:	a08002a8 	cmpgeui	r2,r20,10
    1cc8:	10038d1e 	bne	r2,zero,2b00 <___svfprintf_internal_r+0x15c8>
    1ccc:	a5000c04 	addi	r20,r20,48
    1cd0:	dd0026c5 	stb	r20,155(sp)
    1cd4:	db000415 	stw	r12,16(sp)
    1cd8:	05400044 	movi	r21,1
    1cdc:	dc4026c4 	addi	r17,sp,155
    1ce0:	00005706 	br	1e40 <___svfprintf_internal_r+0x908>
    1ce4:	d8800617 	ldw	r2,24(sp)
    1ce8:	14000017 	ldw	r16,0(r2)
    1cec:	10800104 	addi	r2,r2,4
    1cf0:	80032e0e 	bge	r16,zero,29ac <___svfprintf_internal_r+0x1474>
    1cf4:	0421c83a 	sub	r16,zero,r16
    1cf8:	d8800615 	stw	r2,24(sp)
    1cfc:	bac00007 	ldb	r11,0(r23)
    1d00:	63000114 	ori	r12,r12,4
    1d04:	003e4a06 	br	1630 <___svfprintf_internal_r+0xf8>
    1d08:	bac00007 	ldb	r11,0(r23)
    1d0c:	63000214 	ori	r12,r12,8
    1d10:	003e4706 	br	1630 <___svfprintf_internal_r+0xf8>
    1d14:	bf000007 	ldb	fp,0(r23)
    1d18:	b8c00044 	addi	r3,r23,1
    1d1c:	e0800aa0 	cmpeqi	r2,fp,42
    1d20:	1005d71e 	bne	r2,zero,3480 <___svfprintf_internal_r+0x1f48>
    1d24:	e0bff404 	addi	r2,fp,-48
    1d28:	118002b0 	cmpltui	r6,r2,10
    1d2c:	182f883a 	mov	r23,r3
    1d30:	0011883a 	mov	r8,zero
    1d34:	303e4026 	beq	r6,zero,1638 <___svfprintf_internal_r+0x100>
    1d38:	bf000007 	ldb	fp,0(r23)
    1d3c:	420002a4 	muli	r8,r8,10
    1d40:	bdc00044 	addi	r23,r23,1
    1d44:	4091883a 	add	r8,r8,r2
    1d48:	e0bff404 	addi	r2,fp,-48
    1d4c:	10c002b0 	cmpltui	r3,r2,10
    1d50:	183ff91e 	bne	r3,zero,1d38 <___svfprintf_internal_r+0x800>
    1d54:	003e3806 	br	1638 <___svfprintf_internal_r+0x100>
    1d58:	21003fcc 	andi	r4,r4,255
    1d5c:	20055b1e 	bne	r4,zero,32cc <___svfprintf_internal_r+0x1d94>
    1d60:	63000414 	ori	r12,r12,16
    1d64:	6080080c 	andi	r2,r12,32
    1d68:	103fc51e 	bne	r2,zero,1c80 <___svfprintf_internal_r+0x748>
    1d6c:	d8c00617 	ldw	r3,24(sp)
    1d70:	6080040c 	andi	r2,r12,16
    1d74:	1d000017 	ldw	r20,0(r3)
    1d78:	18c00104 	addi	r3,r3,4
    1d7c:	1002f31e 	bne	r2,zero,294c <___svfprintf_internal_r+0x1414>
    1d80:	6080100c 	andi	r2,r12,64
    1d84:	1002f126 	beq	r2,zero,294c <___svfprintf_internal_r+0x1414>
    1d88:	a53fffcc 	andi	r20,r20,65535
    1d8c:	a520001c 	xori	r20,r20,32768
    1d90:	a5200004 	addi	r20,r20,-32768
    1d94:	a02bd7fa 	srai	r21,r20,31
    1d98:	d8c00615 	stw	r3,24(sp)
    1d9c:	a805883a 	mov	r2,r21
    1da0:	103fbe0e 	bge	r2,zero,1c9c <___svfprintf_internal_r+0x764>
    1da4:	03400b44 	movi	r13,45
    1da8:	a004c03a 	cmpne	r2,r20,zero
    1dac:	056bc83a 	sub	r21,zero,r21
    1db0:	db401345 	stb	r13,77(sp)
    1db4:	40ffffe0 	cmpeqi	r3,r8,-1
    1db8:	a8abc83a 	sub	r21,r21,r2
    1dbc:	0529c83a 	sub	r20,zero,r20
    1dc0:	00800044 	movi	r2,1
    1dc4:	183f0226 	beq	r3,zero,19d0 <___svfprintf_internal_r+0x498>
    1dc8:	10c00060 	cmpeqi	r3,r2,1
    1dcc:	183fbc1e 	bne	r3,zero,1cc0 <___svfprintf_internal_r+0x788>
    1dd0:	108000a0 	cmpeqi	r2,r2,2
    1dd4:	1001661e 	bne	r2,zero,2370 <___svfprintf_internal_r+0xe38>
    1dd8:	dc402704 	addi	r17,sp,156
    1ddc:	a006d0fa 	srli	r3,r20,3
    1de0:	a808977a 	slli	r4,r21,29
    1de4:	a82ad0fa 	srli	r21,r21,3
    1de8:	a50001cc 	andi	r20,r20,7
    1dec:	a0800c04 	addi	r2,r20,48
    1df0:	20e8b03a 	or	r20,r4,r3
    1df4:	88bfffc5 	stb	r2,-1(r17)
    1df8:	a546b03a 	or	r3,r20,r21
    1dfc:	880b883a 	mov	r5,r17
    1e00:	8c7fffc4 	addi	r17,r17,-1
    1e04:	183ff51e 	bne	r3,zero,1ddc <___svfprintf_internal_r+0x8a4>
    1e08:	60c0004c 	andi	r3,r12,1
    1e0c:	18016526 	beq	r3,zero,23a4 <___svfprintf_internal_r+0xe6c>
    1e10:	10803fcc 	andi	r2,r2,255
    1e14:	1080201c 	xori	r2,r2,128
    1e18:	10bfe004 	addi	r2,r2,-128
    1e1c:	10800c18 	cmpnei	r2,r2,48
    1e20:	10016026 	beq	r2,zero,23a4 <___svfprintf_internal_r+0xe6c>
    1e24:	00800c04 	movi	r2,48
    1e28:	297fff84 	addi	r5,r5,-2
    1e2c:	88bfffc5 	stb	r2,-1(r17)
    1e30:	d8802704 	addi	r2,sp,156
    1e34:	116bc83a 	sub	r21,r2,r5
    1e38:	db000415 	stw	r12,16(sp)
    1e3c:	2823883a 	mov	r17,r5
    1e40:	4029883a 	mov	r20,r8
    1e44:	4540010e 	bge	r8,r21,1e4c <___svfprintf_internal_r+0x914>
    1e48:	a829883a 	mov	r20,r21
    1e4c:	d8000715 	stw	zero,28(sp)
    1e50:	6b403fcc 	andi	r13,r13,255
    1e54:	6b40201c 	xori	r13,r13,128
    1e58:	6b7fe004 	addi	r13,r13,-128
    1e5c:	683e6e26 	beq	r13,zero,1818 <___svfprintf_internal_r+0x2e0>
    1e60:	a5000044 	addi	r20,r20,1
    1e64:	003e6c06 	br	1818 <___svfprintf_internal_r+0x2e0>
    1e68:	bac00007 	ldb	r11,0(r23)
    1e6c:	63002014 	ori	r12,r12,128
    1e70:	003def06 	br	1630 <___svfprintf_internal_r+0xf8>
    1e74:	bac00007 	ldb	r11,0(r23)
    1e78:	01000044 	movi	r4,1
    1e7c:	01400ac4 	movi	r5,43
    1e80:	003deb06 	br	1630 <___svfprintf_internal_r+0xf8>
    1e84:	bac00007 	ldb	r11,0(r23)
    1e88:	63000054 	ori	r12,r12,1
    1e8c:	003de806 	br	1630 <___svfprintf_internal_r+0xf8>
    1e90:	28803fcc 	andi	r2,r5,255
    1e94:	1080201c 	xori	r2,r2,128
    1e98:	10bfe004 	addi	r2,r2,-128
    1e9c:	bf000003 	ldbu	fp,0(r23)
    1ea0:	10000c1e 	bne	r2,zero,1ed4 <___svfprintf_internal_r+0x99c>
    1ea4:	e2c03fcc 	andi	r11,fp,255
    1ea8:	5ac0201c 	xori	r11,r11,128
    1eac:	01000044 	movi	r4,1
    1eb0:	01400804 	movi	r5,32
    1eb4:	5affe004 	addi	r11,r11,-128
    1eb8:	003ddd06 	br	1630 <___svfprintf_internal_r+0xf8>
    1ebc:	bac00007 	ldb	r11,0(r23)
    1ec0:	58801b18 	cmpnei	r2,r11,108
    1ec4:	1002b71e 	bne	r2,zero,29a4 <___svfprintf_internal_r+0x146c>
    1ec8:	bf000043 	ldbu	fp,1(r23)
    1ecc:	63000814 	ori	r12,r12,32
    1ed0:	bdc00044 	addi	r23,r23,1
    1ed4:	e2c03fcc 	andi	r11,fp,255
    1ed8:	5ac0201c 	xori	r11,r11,128
    1edc:	5affe004 	addi	r11,r11,-128
    1ee0:	003dd306 	br	1630 <___svfprintf_internal_r+0xf8>
    1ee4:	bac00007 	ldb	r11,0(r23)
    1ee8:	63001014 	ori	r12,r12,64
    1eec:	003dd006 	br	1630 <___svfprintf_internal_r+0xf8>
    1ef0:	d8c00617 	ldw	r3,24(sp)
    1ef4:	d8001345 	stb	zero,77(sp)
    1ef8:	05000044 	movi	r20,1
    1efc:	18800017 	ldw	r2,0(r3)
    1f00:	18c00104 	addi	r3,r3,4
    1f04:	d8c00615 	stw	r3,24(sp)
    1f08:	d8801d05 	stb	r2,116(sp)
    1f0c:	05400044 	movi	r21,1
    1f10:	dc401d04 	addi	r17,sp,116
    1f14:	003e3d06 	br	180c <___svfprintf_internal_r+0x2d4>
    1f18:	21003fcc 	andi	r4,r4,255
    1f1c:	2004ed1e 	bne	r4,zero,32d4 <___svfprintf_internal_r+0x1d9c>
    1f20:	008000b4 	movhi	r2,2
    1f24:	10b05004 	addi	r2,r2,-16064
    1f28:	d8800b15 	stw	r2,44(sp)
    1f2c:	6080080c 	andi	r2,r12,32
    1f30:	10001226 	beq	r2,zero,1f7c <___svfprintf_internal_r+0xa44>
    1f34:	d8800617 	ldw	r2,24(sp)
    1f38:	15000017 	ldw	r20,0(r2)
    1f3c:	15400117 	ldw	r21,4(r2)
    1f40:	10800204 	addi	r2,r2,8
    1f44:	d8800615 	stw	r2,24(sp)
    1f48:	6080004c 	andi	r2,r12,1
    1f4c:	10000226 	beq	r2,zero,1f58 <___svfprintf_internal_r+0xa20>
    1f50:	a544b03a 	or	r2,r20,r21
    1f54:	1002a61e 	bne	r2,zero,29f0 <___svfprintf_internal_r+0x14b8>
    1f58:	00800084 	movi	r2,2
    1f5c:	003e9806 	br	19c0 <___svfprintf_internal_r+0x488>
    1f60:	21003fcc 	andi	r4,r4,255
    1f64:	2004df1e 	bne	r4,zero,32e4 <___svfprintf_internal_r+0x1dac>
    1f68:	008000b4 	movhi	r2,2
    1f6c:	10b05504 	addi	r2,r2,-16044
    1f70:	d8800b15 	stw	r2,44(sp)
    1f74:	6080080c 	andi	r2,r12,32
    1f78:	103fee1e 	bne	r2,zero,1f34 <___svfprintf_internal_r+0x9fc>
    1f7c:	d8c00617 	ldw	r3,24(sp)
    1f80:	6080040c 	andi	r2,r12,16
    1f84:	1d000017 	ldw	r20,0(r3)
    1f88:	18c00104 	addi	r3,r3,4
    1f8c:	10026c1e 	bne	r2,zero,2940 <___svfprintf_internal_r+0x1408>
    1f90:	6080100c 	andi	r2,r12,64
    1f94:	10026a26 	beq	r2,zero,2940 <___svfprintf_internal_r+0x1408>
    1f98:	a53fffcc 	andi	r20,r20,65535
    1f9c:	002b883a 	mov	r21,zero
    1fa0:	d8c00615 	stw	r3,24(sp)
    1fa4:	003fe806 	br	1f48 <___svfprintf_internal_r+0xa10>
    1fa8:	d8800617 	ldw	r2,24(sp)
    1fac:	d8001345 	stb	zero,77(sp)
    1fb0:	14400017 	ldw	r17,0(r2)
    1fb4:	10c00104 	addi	r3,r2,4
    1fb8:	88038226 	beq	r17,zero,2dc4 <___svfprintf_internal_r+0x188c>
    1fbc:	40bfffe0 	cmpeqi	r2,r8,-1
    1fc0:	1002a91e 	bne	r2,zero,2a68 <___svfprintf_internal_r+0x1530>
    1fc4:	400d883a 	mov	r6,r8
    1fc8:	000b883a 	mov	r5,zero
    1fcc:	8809883a 	mov	r4,r17
    1fd0:	d8c00715 	stw	r3,28(sp)
    1fd4:	db000615 	stw	r12,24(sp)
    1fd8:	da000415 	stw	r8,16(sp)
    1fdc:	00086a40 	call	86a4 <memchr>
    1fe0:	da000417 	ldw	r8,16(sp)
    1fe4:	db000617 	ldw	r12,24(sp)
    1fe8:	d8c00717 	ldw	r3,28(sp)
    1fec:	1004b326 	beq	r2,zero,32bc <___svfprintf_internal_r+0x1d84>
    1ff0:	146bc83a 	sub	r21,r2,r17
    1ff4:	a829883a 	mov	r20,r21
    1ff8:	d8c00615 	stw	r3,24(sp)
    1ffc:	003e0306 	br	180c <___svfprintf_internal_r+0x2d4>
    2000:	bac00007 	ldb	r11,0(r23)
    2004:	63000814 	ori	r12,r12,32
    2008:	003d8906 	br	1630 <___svfprintf_internal_r+0xf8>
    200c:	d8c00617 	ldw	r3,24(sp)
    2010:	00800c04 	movi	r2,48
    2014:	d8801385 	stb	r2,78(sp)
    2018:	00801e04 	movi	r2,120
    201c:	010000b4 	movhi	r4,2
    2020:	d88013c5 	stb	r2,79(sp)
    2024:	18800104 	addi	r2,r3,4
    2028:	d8800615 	stw	r2,24(sp)
    202c:	20b05504 	addi	r2,r4,-16044
    2030:	d8800b15 	stw	r2,44(sp)
    2034:	1d000017 	ldw	r20,0(r3)
    2038:	002b883a 	mov	r21,zero
    203c:	63000094 	ori	r12,r12,2
    2040:	00800084 	movi	r2,2
    2044:	07001e04 	movi	fp,120
    2048:	003e5d06 	br	19c0 <___svfprintf_internal_r+0x488>
    204c:	21003fcc 	andi	r4,r4,255
    2050:	2004a21e 	bne	r4,zero,32dc <___svfprintf_internal_r+0x1da4>
    2054:	d9000617 	ldw	r4,24(sp)
    2058:	6080080c 	andi	r2,r12,32
    205c:	20c00104 	addi	r3,r4,4
    2060:	10025c1e 	bne	r2,zero,29d4 <___svfprintf_internal_r+0x149c>
    2064:	6080040c 	andi	r2,r12,16
    2068:	1002cd1e 	bne	r2,zero,2ba0 <___svfprintf_internal_r+0x1668>
    206c:	6300100c 	andi	r12,r12,64
    2070:	6002cb26 	beq	r12,zero,2ba0 <___svfprintf_internal_r+0x1668>
    2074:	d8800617 	ldw	r2,24(sp)
    2078:	d8c00615 	stw	r3,24(sp)
    207c:	d8c00517 	ldw	r3,20(sp)
    2080:	10800017 	ldw	r2,0(r2)
    2084:	10c0000d 	sth	r3,0(r2)
    2088:	003d5106 	br	15d0 <___svfprintf_internal_r+0x98>
    208c:	e2c01990 	cmplti	r11,fp,102
    2090:	5800fe1e 	bne	r11,zero,248c <___svfprintf_internal_r+0xf54>
    2094:	d9000917 	ldw	r4,36(sp)
    2098:	d9400a17 	ldw	r5,40(sp)
    209c:	000d883a 	mov	r6,zero
    20a0:	000f883a 	mov	r7,zero
    20a4:	d8c00e15 	stw	r3,56(sp)
    20a8:	000fae40 	call	fae4 <__eqdf2>
    20ac:	d8c00e17 	ldw	r3,56(sp)
    20b0:	10018c1e 	bne	r2,zero,26e4 <___svfprintf_internal_r+0x11ac>
    20b4:	d8801b17 	ldw	r2,108(sp)
    20b8:	010000b4 	movhi	r4,2
    20bc:	21305c04 	addi	r4,r4,-16016
    20c0:	10800044 	addi	r2,r2,1
    20c4:	18c00044 	addi	r3,r3,1
    20c8:	b1000015 	stw	r4,0(r22)
    20cc:	01000044 	movi	r4,1
    20d0:	d8801b15 	stw	r2,108(sp)
    20d4:	b1000115 	stw	r4,4(r22)
    20d8:	d8c01c15 	stw	r3,112(sp)
    20dc:	10800208 	cmpgei	r2,r2,8
    20e0:	10031e1e 	bne	r2,zero,2d5c <___svfprintf_internal_r+0x1824>
    20e4:	b5800204 	addi	r22,r22,8
    20e8:	d8801417 	ldw	r2,80(sp)
    20ec:	d9000817 	ldw	r4,32(sp)
    20f0:	11000316 	blt	r2,r4,2100 <___svfprintf_internal_r+0xbc8>
    20f4:	d8800417 	ldw	r2,16(sp)
    20f8:	1080004c 	andi	r2,r2,1
    20fc:	103dfc26 	beq	r2,zero,18f0 <___svfprintf_internal_r+0x3b8>
    2100:	d8800d17 	ldw	r2,52(sp)
    2104:	d9000c17 	ldw	r4,48(sp)
    2108:	b0800015 	stw	r2,0(r22)
    210c:	d8801b17 	ldw	r2,108(sp)
    2110:	1907883a 	add	r3,r3,r4
    2114:	b1000115 	stw	r4,4(r22)
    2118:	10800044 	addi	r2,r2,1
    211c:	d8801b15 	stw	r2,108(sp)
    2120:	d8c01c15 	stw	r3,112(sp)
    2124:	10800208 	cmpgei	r2,r2,8
    2128:	10031e1e 	bne	r2,zero,2da4 <___svfprintf_internal_r+0x186c>
    212c:	b5800204 	addi	r22,r22,8
    2130:	d8800817 	ldw	r2,32(sp)
    2134:	157fffc4 	addi	r21,r2,-1
    2138:	057ded0e 	bge	zero,r21,18f0 <___svfprintf_internal_r+0x3b8>
    213c:	01c000b4 	movhi	r7,2
    2140:	a9000450 	cmplti	r4,r21,17
    2144:	d8801b17 	ldw	r2,108(sp)
    2148:	39f05d04 	addi	r7,r7,-16012
    214c:	2002ff1e 	bne	r4,zero,2d4c <___svfprintf_internal_r+0x1814>
    2150:	07000404 	movi	fp,16
    2154:	3823883a 	mov	r17,r7
    2158:	00000406 	br	216c <___svfprintf_internal_r+0xc34>
    215c:	b5800204 	addi	r22,r22,8
    2160:	ad7ffc04 	addi	r21,r21,-16
    2164:	a9000448 	cmpgei	r4,r21,17
    2168:	2002f726 	beq	r4,zero,2d48 <___svfprintf_internal_r+0x1810>
    216c:	10800044 	addi	r2,r2,1
    2170:	18c00404 	addi	r3,r3,16
    2174:	b4400015 	stw	r17,0(r22)
    2178:	b7000115 	stw	fp,4(r22)
    217c:	d8c01c15 	stw	r3,112(sp)
    2180:	d8801b15 	stw	r2,108(sp)
    2184:	11000208 	cmpgei	r4,r2,8
    2188:	203ff426 	beq	r4,zero,215c <___svfprintf_internal_r+0xc24>
    218c:	d9801a04 	addi	r6,sp,104
    2190:	900b883a 	mov	r5,r18
    2194:	9809883a 	mov	r4,r19
    2198:	0009c440 	call	9c44 <__ssprint_r>
    219c:	103de51e 	bne	r2,zero,1934 <___svfprintf_internal_r+0x3fc>
    21a0:	d8c01c17 	ldw	r3,112(sp)
    21a4:	d8801b17 	ldw	r2,108(sp)
    21a8:	dd802704 	addi	r22,sp,156
    21ac:	003fec06 	br	2160 <___svfprintf_internal_r+0xc28>
    21b0:	8519c83a 	sub	r12,r16,r20
    21b4:	033dbf0e 	bge	zero,r12,18b4 <___svfprintf_internal_r+0x37c>
    21b8:	01c000b4 	movhi	r7,2
    21bc:	61000450 	cmplti	r4,r12,17
    21c0:	d8801b17 	ldw	r2,108(sp)
    21c4:	39f05d04 	addi	r7,r7,-16012
    21c8:	2000281e 	bne	r4,zero,226c <___svfprintf_internal_r+0xd34>
    21cc:	dc400e15 	stw	r17,56(sp)
    21d0:	dc000f15 	stw	r16,60(sp)
    21d4:	b009883a 	mov	r4,r22
    21d8:	03400404 	movi	r13,16
    21dc:	a02d883a 	mov	r22,r20
    21e0:	6021883a 	mov	r16,r12
    21e4:	4029883a 	mov	r20,r8
    21e8:	3823883a 	mov	r17,r7
    21ec:	00000406 	br	2200 <___svfprintf_internal_r+0xcc8>
    21f0:	843ffc04 	addi	r16,r16,-16
    21f4:	81400448 	cmpgei	r5,r16,17
    21f8:	21000204 	addi	r4,r4,8
    21fc:	28001426 	beq	r5,zero,2250 <___svfprintf_internal_r+0xd18>
    2200:	10800044 	addi	r2,r2,1
    2204:	18c00404 	addi	r3,r3,16
    2208:	24400015 	stw	r17,0(r4)
    220c:	23400115 	stw	r13,4(r4)
    2210:	d8c01c15 	stw	r3,112(sp)
    2214:	d8801b15 	stw	r2,108(sp)
    2218:	11400208 	cmpgei	r5,r2,8
    221c:	283ff426 	beq	r5,zero,21f0 <___svfprintf_internal_r+0xcb8>
    2220:	d9801a04 	addi	r6,sp,104
    2224:	900b883a 	mov	r5,r18
    2228:	9809883a 	mov	r4,r19
    222c:	0009c440 	call	9c44 <__ssprint_r>
    2230:	103dc01e 	bne	r2,zero,1934 <___svfprintf_internal_r+0x3fc>
    2234:	843ffc04 	addi	r16,r16,-16
    2238:	81400448 	cmpgei	r5,r16,17
    223c:	d8c01c17 	ldw	r3,112(sp)
    2240:	d8801b17 	ldw	r2,108(sp)
    2244:	d9002704 	addi	r4,sp,156
    2248:	03400404 	movi	r13,16
    224c:	283fec1e 	bne	r5,zero,2200 <___svfprintf_internal_r+0xcc8>
    2250:	8019883a 	mov	r12,r16
    2254:	880f883a 	mov	r7,r17
    2258:	dc000f17 	ldw	r16,60(sp)
    225c:	dc400e17 	ldw	r17,56(sp)
    2260:	a011883a 	mov	r8,r20
    2264:	b029883a 	mov	r20,r22
    2268:	202d883a 	mov	r22,r4
    226c:	10800044 	addi	r2,r2,1
    2270:	1b07883a 	add	r3,r3,r12
    2274:	d8801b15 	stw	r2,108(sp)
    2278:	b1c00015 	stw	r7,0(r22)
    227c:	b3000115 	stw	r12,4(r22)
    2280:	d8c01c15 	stw	r3,112(sp)
    2284:	10800208 	cmpgei	r2,r2,8
    2288:	1002bc1e 	bne	r2,zero,2d7c <___svfprintf_internal_r+0x1844>
    228c:	4551c83a 	sub	r8,r8,r21
    2290:	b5800204 	addi	r22,r22,8
    2294:	023d890e 	bge	zero,r8,18bc <___svfprintf_internal_r+0x384>
    2298:	01c000b4 	movhi	r7,2
    229c:	41000450 	cmplti	r4,r8,17
    22a0:	d8801b17 	ldw	r2,108(sp)
    22a4:	39f05d04 	addi	r7,r7,-16012
    22a8:	2000221e 	bne	r4,zero,2334 <___svfprintf_internal_r+0xdfc>
    22ac:	dc400e15 	stw	r17,56(sp)
    22b0:	dc000f15 	stw	r16,60(sp)
    22b4:	03000404 	movi	r12,16
    22b8:	4021883a 	mov	r16,r8
    22bc:	3823883a 	mov	r17,r7
    22c0:	00000406 	br	22d4 <___svfprintf_internal_r+0xd9c>
    22c4:	843ffc04 	addi	r16,r16,-16
    22c8:	81000448 	cmpgei	r4,r16,17
    22cc:	b5800204 	addi	r22,r22,8
    22d0:	20001426 	beq	r4,zero,2324 <___svfprintf_internal_r+0xdec>
    22d4:	10800044 	addi	r2,r2,1
    22d8:	18c00404 	addi	r3,r3,16
    22dc:	b4400015 	stw	r17,0(r22)
    22e0:	b3000115 	stw	r12,4(r22)
    22e4:	d8c01c15 	stw	r3,112(sp)
    22e8:	d8801b15 	stw	r2,108(sp)
    22ec:	11000208 	cmpgei	r4,r2,8
    22f0:	203ff426 	beq	r4,zero,22c4 <___svfprintf_internal_r+0xd8c>
    22f4:	d9801a04 	addi	r6,sp,104
    22f8:	900b883a 	mov	r5,r18
    22fc:	9809883a 	mov	r4,r19
    2300:	0009c440 	call	9c44 <__ssprint_r>
    2304:	103d8b1e 	bne	r2,zero,1934 <___svfprintf_internal_r+0x3fc>
    2308:	843ffc04 	addi	r16,r16,-16
    230c:	81000448 	cmpgei	r4,r16,17
    2310:	d8c01c17 	ldw	r3,112(sp)
    2314:	d8801b17 	ldw	r2,108(sp)
    2318:	dd802704 	addi	r22,sp,156
    231c:	03000404 	movi	r12,16
    2320:	203fec1e 	bne	r4,zero,22d4 <___svfprintf_internal_r+0xd9c>
    2324:	8011883a 	mov	r8,r16
    2328:	880f883a 	mov	r7,r17
    232c:	dc000f17 	ldw	r16,60(sp)
    2330:	dc400e17 	ldw	r17,56(sp)
    2334:	10800044 	addi	r2,r2,1
    2338:	1a07883a 	add	r3,r3,r8
    233c:	d8801b15 	stw	r2,108(sp)
    2340:	b1c00015 	stw	r7,0(r22)
    2344:	b2000115 	stw	r8,4(r22)
    2348:	d8c01c15 	stw	r3,112(sp)
    234c:	10800208 	cmpgei	r2,r2,8
    2350:	1001731e 	bne	r2,zero,2920 <___svfprintf_internal_r+0x13e8>
    2354:	b5800204 	addi	r22,r22,8
    2358:	003d5806 	br	18bc <___svfprintf_internal_r+0x384>
    235c:	10c00060 	cmpeqi	r3,r2,1
    2360:	1803a11e 	bne	r3,zero,31e8 <___svfprintf_internal_r+0x1cb0>
    2364:	108000a0 	cmpeqi	r2,r2,2
    2368:	db000417 	ldw	r12,16(sp)
    236c:	103e9a26 	beq	r2,zero,1dd8 <___svfprintf_internal_r+0x8a0>
    2370:	d9000b17 	ldw	r4,44(sp)
    2374:	dc402704 	addi	r17,sp,156
    2378:	a08003cc 	andi	r2,r20,15
    237c:	a806973a 	slli	r3,r21,28
    2380:	a028d13a 	srli	r20,r20,4
    2384:	2085883a 	add	r2,r4,r2
    2388:	10800003 	ldbu	r2,0(r2)
    238c:	a82ad13a 	srli	r21,r21,4
    2390:	1d28b03a 	or	r20,r3,r20
    2394:	88bfffc5 	stb	r2,-1(r17)
    2398:	a544b03a 	or	r2,r20,r21
    239c:	8c7fffc4 	addi	r17,r17,-1
    23a0:	103ff51e 	bne	r2,zero,2378 <___svfprintf_internal_r+0xe40>
    23a4:	d8802704 	addi	r2,sp,156
    23a8:	146bc83a 	sub	r21,r2,r17
    23ac:	db000415 	stw	r12,16(sp)
    23b0:	003ea306 	br	1e40 <___svfprintf_internal_r+0x908>
    23b4:	d9801a04 	addi	r6,sp,104
    23b8:	900b883a 	mov	r5,r18
    23bc:	9809883a 	mov	r4,r19
    23c0:	0009c440 	call	9c44 <__ssprint_r>
    23c4:	103d5526 	beq	r2,zero,191c <___svfprintf_internal_r+0x3e4>
    23c8:	003d5a06 	br	1934 <___svfprintf_internal_r+0x3fc>
    23cc:	d8801b17 	ldw	r2,108(sp)
    23d0:	010000b4 	movhi	r4,2
    23d4:	21305c04 	addi	r4,r4,-16016
    23d8:	10800044 	addi	r2,r2,1
    23dc:	18c00044 	addi	r3,r3,1
    23e0:	b1000015 	stw	r4,0(r22)
    23e4:	01000044 	movi	r4,1
    23e8:	d8801b15 	stw	r2,108(sp)
    23ec:	b1000115 	stw	r4,4(r22)
    23f0:	d8c01c15 	stw	r3,112(sp)
    23f4:	10800208 	cmpgei	r2,r2,8
    23f8:	10033f1e 	bne	r2,zero,30f8 <___svfprintf_internal_r+0x1bc0>
    23fc:	b5800204 	addi	r22,r22,8
    2400:	a802781e 	bne	r21,zero,2de4 <___svfprintf_internal_r+0x18ac>
    2404:	d8800417 	ldw	r2,16(sp)
    2408:	d9000817 	ldw	r4,32(sp)
    240c:	1080004c 	andi	r2,r2,1
    2410:	1104b03a 	or	r2,r2,r4
    2414:	103d3626 	beq	r2,zero,18f0 <___svfprintf_internal_r+0x3b8>
    2418:	d8800d17 	ldw	r2,52(sp)
    241c:	d9000c17 	ldw	r4,48(sp)
    2420:	b0800015 	stw	r2,0(r22)
    2424:	d8801b17 	ldw	r2,108(sp)
    2428:	20c7883a 	add	r3,r4,r3
    242c:	b1000115 	stw	r4,4(r22)
    2430:	10800044 	addi	r2,r2,1
    2434:	d8c01c15 	stw	r3,112(sp)
    2438:	d8801b15 	stw	r2,108(sp)
    243c:	11000208 	cmpgei	r4,r2,8
    2440:	2003561e 	bne	r4,zero,319c <___svfprintf_internal_r+0x1c64>
    2444:	b5800204 	addi	r22,r22,8
    2448:	d9000817 	ldw	r4,32(sp)
    244c:	10800044 	addi	r2,r2,1
    2450:	d8801b15 	stw	r2,108(sp)
    2454:	20c7883a 	add	r3,r4,r3
    2458:	b4400015 	stw	r17,0(r22)
    245c:	b1000115 	stw	r4,4(r22)
    2460:	d8c01c15 	stw	r3,112(sp)
    2464:	10800208 	cmpgei	r2,r2,8
    2468:	103d2026 	beq	r2,zero,18ec <___svfprintf_internal_r+0x3b4>
    246c:	d9801a04 	addi	r6,sp,104
    2470:	900b883a 	mov	r5,r18
    2474:	9809883a 	mov	r4,r19
    2478:	0009c440 	call	9c44 <__ssprint_r>
    247c:	103d2d1e 	bne	r2,zero,1934 <___svfprintf_internal_r+0x3fc>
    2480:	d8c01c17 	ldw	r3,112(sp)
    2484:	dd802704 	addi	r22,sp,156
    2488:	003d1906 	br	18f0 <___svfprintf_internal_r+0x3b8>
    248c:	d8800817 	ldw	r2,32(sp)
    2490:	dd401b17 	ldw	r21,108(sp)
    2494:	18c00044 	addi	r3,r3,1
    2498:	10800088 	cmpgei	r2,r2,2
    249c:	ad400044 	addi	r21,r21,1
    24a0:	b7000204 	addi	fp,r22,8
    24a4:	1000ed26 	beq	r2,zero,285c <___svfprintf_internal_r+0x1324>
    24a8:	00800044 	movi	r2,1
    24ac:	b0800115 	stw	r2,4(r22)
    24b0:	b4400015 	stw	r17,0(r22)
    24b4:	d8c01c15 	stw	r3,112(sp)
    24b8:	dd401b15 	stw	r21,108(sp)
    24bc:	a8800210 	cmplti	r2,r21,8
    24c0:	10012626 	beq	r2,zero,295c <___svfprintf_internal_r+0x1424>
    24c4:	d8800c17 	ldw	r2,48(sp)
    24c8:	d9000d17 	ldw	r4,52(sp)
    24cc:	ad400044 	addi	r21,r21,1
    24d0:	1887883a 	add	r3,r3,r2
    24d4:	e0800115 	stw	r2,4(fp)
    24d8:	e1000015 	stw	r4,0(fp)
    24dc:	d8c01c15 	stw	r3,112(sp)
    24e0:	dd401b15 	stw	r21,108(sp)
    24e4:	a8800208 	cmpgei	r2,r21,8
    24e8:	1001251e 	bne	r2,zero,2980 <___svfprintf_internal_r+0x1448>
    24ec:	e7000204 	addi	fp,fp,8
    24f0:	d9000917 	ldw	r4,36(sp)
    24f4:	d9400a17 	ldw	r5,40(sp)
    24f8:	000d883a 	mov	r6,zero
    24fc:	000f883a 	mov	r7,zero
    2500:	d8c00715 	stw	r3,28(sp)
    2504:	000fae40 	call	fae4 <__eqdf2>
    2508:	d8c00817 	ldw	r3,32(sp)
    250c:	1dbfffc4 	addi	r22,r3,-1
    2510:	d8c00717 	ldw	r3,28(sp)
    2514:	1000e426 	beq	r2,zero,28a8 <___svfprintf_internal_r+0x1370>
    2518:	8a400044 	addi	r9,r17,1
    251c:	ad400044 	addi	r21,r21,1
    2520:	1d87883a 	add	r3,r3,r22
    2524:	e2400015 	stw	r9,0(fp)
    2528:	e5800115 	stw	r22,4(fp)
    252c:	d8c01c15 	stw	r3,112(sp)
    2530:	dd401b15 	stw	r21,108(sp)
    2534:	a8800208 	cmpgei	r2,r21,8
    2538:	1000d21e 	bne	r2,zero,2884 <___svfprintf_internal_r+0x134c>
    253c:	e7000204 	addi	fp,fp,8
    2540:	d9001017 	ldw	r4,64(sp)
    2544:	ad400044 	addi	r21,r21,1
    2548:	d8801644 	addi	r2,sp,89
    254c:	20c7883a 	add	r3,r4,r3
    2550:	dd401b15 	stw	r21,108(sp)
    2554:	e0800015 	stw	r2,0(fp)
    2558:	e1000115 	stw	r4,4(fp)
    255c:	d8c01c15 	stw	r3,112(sp)
    2560:	ad400208 	cmpgei	r21,r21,8
    2564:	a83fc11e 	bne	r21,zero,246c <___svfprintf_internal_r+0xf34>
    2568:	e5800204 	addi	r22,fp,8
    256c:	003ce006 	br	18f0 <___svfprintf_internal_r+0x3b8>
    2570:	db000417 	ldw	r12,16(sp)
    2574:	003e1406 	br	1dc8 <___svfprintf_internal_r+0x890>
    2578:	030000b4 	movhi	r12,2
    257c:	39000450 	cmplti	r4,r7,17
    2580:	d8801b17 	ldw	r2,108(sp)
    2584:	63306104 	addi	r12,r12,-15996
    2588:	2000321e 	bne	r4,zero,2654 <___svfprintf_internal_r+0x111c>
    258c:	dc401115 	stw	r17,68(sp)
    2590:	b009883a 	mov	r4,r22
    2594:	9023883a 	mov	r17,r18
    2598:	a82d883a 	mov	r22,r21
    259c:	ddc01215 	stw	r23,72(sp)
    25a0:	03c00404 	movi	r15,16
    25a4:	a02f883a 	mov	r23,r20
    25a8:	db800e15 	stw	r14,56(sp)
    25ac:	8029883a 	mov	r20,r16
    25b0:	db400f15 	stw	r13,60(sp)
    25b4:	402b883a 	mov	r21,r8
    25b8:	3821883a 	mov	r16,r7
    25bc:	6025883a 	mov	r18,r12
    25c0:	00000406 	br	25d4 <___svfprintf_internal_r+0x109c>
    25c4:	843ffc04 	addi	r16,r16,-16
    25c8:	81800448 	cmpgei	r6,r16,17
    25cc:	21000204 	addi	r4,r4,8
    25d0:	30001426 	beq	r6,zero,2624 <___svfprintf_internal_r+0x10ec>
    25d4:	10800044 	addi	r2,r2,1
    25d8:	18c00404 	addi	r3,r3,16
    25dc:	24800015 	stw	r18,0(r4)
    25e0:	23c00115 	stw	r15,4(r4)
    25e4:	d8c01c15 	stw	r3,112(sp)
    25e8:	d8801b15 	stw	r2,108(sp)
    25ec:	11800208 	cmpgei	r6,r2,8
    25f0:	303ff426 	beq	r6,zero,25c4 <___svfprintf_internal_r+0x108c>
    25f4:	d9801a04 	addi	r6,sp,104
    25f8:	880b883a 	mov	r5,r17
    25fc:	9809883a 	mov	r4,r19
    2600:	0009c440 	call	9c44 <__ssprint_r>
    2604:	10017a1e 	bne	r2,zero,2bf0 <___svfprintf_internal_r+0x16b8>
    2608:	843ffc04 	addi	r16,r16,-16
    260c:	81800448 	cmpgei	r6,r16,17
    2610:	d8c01c17 	ldw	r3,112(sp)
    2614:	d8801b17 	ldw	r2,108(sp)
    2618:	d9002704 	addi	r4,sp,156
    261c:	03c00404 	movi	r15,16
    2620:	303fec1e 	bne	r6,zero,25d4 <___svfprintf_internal_r+0x109c>
    2624:	800f883a 	mov	r7,r16
    2628:	9019883a 	mov	r12,r18
    262c:	a021883a 	mov	r16,r20
    2630:	8825883a 	mov	r18,r17
    2634:	b829883a 	mov	r20,r23
    2638:	db800e17 	ldw	r14,56(sp)
    263c:	db400f17 	ldw	r13,60(sp)
    2640:	ddc01217 	ldw	r23,72(sp)
    2644:	dc401117 	ldw	r17,68(sp)
    2648:	a811883a 	mov	r8,r21
    264c:	b02b883a 	mov	r21,r22
    2650:	202d883a 	mov	r22,r4
    2654:	10800044 	addi	r2,r2,1
    2658:	19c7883a 	add	r3,r3,r7
    265c:	d8801b15 	stw	r2,108(sp)
    2660:	b3000015 	stw	r12,0(r22)
    2664:	b1c00115 	stw	r7,4(r22)
    2668:	d8c01c15 	stw	r3,112(sp)
    266c:	10800208 	cmpgei	r2,r2,8
    2670:	1001511e 	bne	r2,zero,2bb8 <___svfprintf_internal_r+0x1680>
    2674:	b5800204 	addi	r22,r22,8
    2678:	003c7106 	br	1840 <___svfprintf_internal_r+0x308>
    267c:	d9801a04 	addi	r6,sp,104
    2680:	900b883a 	mov	r5,r18
    2684:	9809883a 	mov	r4,r19
    2688:	da001115 	stw	r8,68(sp)
    268c:	db400f15 	stw	r13,60(sp)
    2690:	db800e15 	stw	r14,56(sp)
    2694:	0009c440 	call	9c44 <__ssprint_r>
    2698:	103ca61e 	bne	r2,zero,1934 <___svfprintf_internal_r+0x3fc>
    269c:	d8c01c17 	ldw	r3,112(sp)
    26a0:	da001117 	ldw	r8,68(sp)
    26a4:	db400f17 	ldw	r13,60(sp)
    26a8:	db800e17 	ldw	r14,56(sp)
    26ac:	dd802704 	addi	r22,sp,156
    26b0:	003c7106 	br	1878 <___svfprintf_internal_r+0x340>
    26b4:	d9801a04 	addi	r6,sp,104
    26b8:	900b883a 	mov	r5,r18
    26bc:	9809883a 	mov	r4,r19
    26c0:	da000f15 	stw	r8,60(sp)
    26c4:	db400e15 	stw	r13,56(sp)
    26c8:	0009c440 	call	9c44 <__ssprint_r>
    26cc:	103c991e 	bne	r2,zero,1934 <___svfprintf_internal_r+0x3fc>
    26d0:	d8c01c17 	ldw	r3,112(sp)
    26d4:	da000f17 	ldw	r8,60(sp)
    26d8:	db400e17 	ldw	r13,56(sp)
    26dc:	dd802704 	addi	r22,sp,156
    26e0:	003c7206 	br	18ac <___svfprintf_internal_r+0x374>
    26e4:	dd401417 	ldw	r21,80(sp)
    26e8:	057f380e 	bge	zero,r21,23cc <___svfprintf_internal_r+0xe94>
    26ec:	d8800817 	ldw	r2,32(sp)
    26f0:	d9000717 	ldw	r4,28(sp)
    26f4:	102b883a 	mov	r21,r2
    26f8:	2080c316 	blt	r4,r2,2a08 <___svfprintf_internal_r+0x14d0>
    26fc:	05400a0e 	bge	zero,r21,2728 <___svfprintf_internal_r+0x11f0>
    2700:	d8801b17 	ldw	r2,108(sp)
    2704:	1d47883a 	add	r3,r3,r21
    2708:	b4400015 	stw	r17,0(r22)
    270c:	10800044 	addi	r2,r2,1
    2710:	d8801b15 	stw	r2,108(sp)
    2714:	b5400115 	stw	r21,4(r22)
    2718:	d8c01c15 	stw	r3,112(sp)
    271c:	10800208 	cmpgei	r2,r2,8
    2720:	1002d01e 	bne	r2,zero,3264 <___svfprintf_internal_r+0x1d2c>
    2724:	b5800204 	addi	r22,r22,8
    2728:	a800c416 	blt	r21,zero,2a3c <___svfprintf_internal_r+0x1504>
    272c:	d8800717 	ldw	r2,28(sp)
    2730:	156bc83a 	sub	r21,r2,r21
    2734:	0540d416 	blt	zero,r21,2a88 <___svfprintf_internal_r+0x1550>
    2738:	dd401417 	ldw	r21,80(sp)
    273c:	d8800817 	ldw	r2,32(sp)
    2740:	a880b40e 	bge	r21,r2,2a14 <___svfprintf_internal_r+0x14dc>
    2744:	d8800d17 	ldw	r2,52(sp)
    2748:	d9000c17 	ldw	r4,48(sp)
    274c:	b0800015 	stw	r2,0(r22)
    2750:	d8801b17 	ldw	r2,108(sp)
    2754:	1907883a 	add	r3,r3,r4
    2758:	b1000115 	stw	r4,4(r22)
    275c:	10800044 	addi	r2,r2,1
    2760:	d8801b15 	stw	r2,108(sp)
    2764:	d8c01c15 	stw	r3,112(sp)
    2768:	10800208 	cmpgei	r2,r2,8
    276c:	10026b1e 	bne	r2,zero,311c <___svfprintf_internal_r+0x1be4>
    2770:	b5800204 	addi	r22,r22,8
    2774:	d8800817 	ldw	r2,32(sp)
    2778:	d9000717 	ldw	r4,28(sp)
    277c:	156bc83a 	sub	r21,r2,r21
    2780:	1139c83a 	sub	fp,r2,r4
    2784:	af00010e 	bge	r21,fp,278c <___svfprintf_internal_r+0x1254>
    2788:	a839883a 	mov	fp,r21
    278c:	07000c0e 	bge	zero,fp,27c0 <___svfprintf_internal_r+0x1288>
    2790:	d8800717 	ldw	r2,28(sp)
    2794:	1f07883a 	add	r3,r3,fp
    2798:	b7000115 	stw	fp,4(r22)
    279c:	8893883a 	add	r9,r17,r2
    27a0:	d8801b17 	ldw	r2,108(sp)
    27a4:	b2400015 	stw	r9,0(r22)
    27a8:	d8c01c15 	stw	r3,112(sp)
    27ac:	10800044 	addi	r2,r2,1
    27b0:	d8801b15 	stw	r2,108(sp)
    27b4:	10800208 	cmpgei	r2,r2,8
    27b8:	1002b31e 	bne	r2,zero,3288 <___svfprintf_internal_r+0x1d50>
    27bc:	b5800204 	addi	r22,r22,8
    27c0:	e005883a 	mov	r2,fp
    27c4:	e000010e 	bge	fp,zero,27cc <___svfprintf_internal_r+0x1294>
    27c8:	0005883a 	mov	r2,zero
    27cc:	a8abc83a 	sub	r21,r21,r2
    27d0:	057c470e 	bge	zero,r21,18f0 <___svfprintf_internal_r+0x3b8>
    27d4:	01c000b4 	movhi	r7,2
    27d8:	a9000450 	cmplti	r4,r21,17
    27dc:	d8801b17 	ldw	r2,108(sp)
    27e0:	39f05d04 	addi	r7,r7,-16012
    27e4:	2001591e 	bne	r4,zero,2d4c <___svfprintf_internal_r+0x1814>
    27e8:	07000404 	movi	fp,16
    27ec:	3823883a 	mov	r17,r7
    27f0:	00000406 	br	2804 <___svfprintf_internal_r+0x12cc>
    27f4:	b5800204 	addi	r22,r22,8
    27f8:	ad7ffc04 	addi	r21,r21,-16
    27fc:	a9000448 	cmpgei	r4,r21,17
    2800:	20015126 	beq	r4,zero,2d48 <___svfprintf_internal_r+0x1810>
    2804:	10800044 	addi	r2,r2,1
    2808:	18c00404 	addi	r3,r3,16
    280c:	b4400015 	stw	r17,0(r22)
    2810:	b7000115 	stw	fp,4(r22)
    2814:	d8c01c15 	stw	r3,112(sp)
    2818:	d8801b15 	stw	r2,108(sp)
    281c:	11000208 	cmpgei	r4,r2,8
    2820:	203ff426 	beq	r4,zero,27f4 <___svfprintf_internal_r+0x12bc>
    2824:	d9801a04 	addi	r6,sp,104
    2828:	900b883a 	mov	r5,r18
    282c:	9809883a 	mov	r4,r19
    2830:	0009c440 	call	9c44 <__ssprint_r>
    2834:	103c3f1e 	bne	r2,zero,1934 <___svfprintf_internal_r+0x3fc>
    2838:	d8c01c17 	ldw	r3,112(sp)
    283c:	d8801b17 	ldw	r2,108(sp)
    2840:	dd802704 	addi	r22,sp,156
    2844:	003fec06 	br	27f8 <___svfprintf_internal_r+0x12c0>
    2848:	4002671e 	bne	r8,zero,31e8 <___svfprintf_internal_r+0x1cb0>
    284c:	0011883a 	mov	r8,zero
    2850:	002b883a 	mov	r21,zero
    2854:	dc402704 	addi	r17,sp,156
    2858:	003d7906 	br	1e40 <___svfprintf_internal_r+0x908>
    285c:	d8800417 	ldw	r2,16(sp)
    2860:	1080004c 	andi	r2,r2,1
    2864:	103f101e 	bne	r2,zero,24a8 <___svfprintf_internal_r+0xf70>
    2868:	00800044 	movi	r2,1
    286c:	b0800115 	stw	r2,4(r22)
    2870:	b4400015 	stw	r17,0(r22)
    2874:	d8c01c15 	stw	r3,112(sp)
    2878:	dd401b15 	stw	r21,108(sp)
    287c:	a8800210 	cmplti	r2,r21,8
    2880:	103f2f1e 	bne	r2,zero,2540 <___svfprintf_internal_r+0x1008>
    2884:	d9801a04 	addi	r6,sp,104
    2888:	900b883a 	mov	r5,r18
    288c:	9809883a 	mov	r4,r19
    2890:	0009c440 	call	9c44 <__ssprint_r>
    2894:	103c271e 	bne	r2,zero,1934 <___svfprintf_internal_r+0x3fc>
    2898:	d8c01c17 	ldw	r3,112(sp)
    289c:	dd401b17 	ldw	r21,108(sp)
    28a0:	df002704 	addi	fp,sp,156
    28a4:	003f2606 	br	2540 <___svfprintf_internal_r+0x1008>
    28a8:	05bf250e 	bge	zero,r22,2540 <___svfprintf_internal_r+0x1008>
    28ac:	01c000b4 	movhi	r7,2
    28b0:	b0800450 	cmplti	r2,r22,17
    28b4:	39f05d04 	addi	r7,r7,-16012
    28b8:	1001781e 	bne	r2,zero,2e9c <___svfprintf_internal_r+0x1964>
    28bc:	dc000715 	stw	r16,28(sp)
    28c0:	04400404 	movi	r17,16
    28c4:	3821883a 	mov	r16,r7
    28c8:	00000406 	br	28dc <___svfprintf_internal_r+0x13a4>
    28cc:	e7000204 	addi	fp,fp,8
    28d0:	b5bffc04 	addi	r22,r22,-16
    28d4:	b0800448 	cmpgei	r2,r22,17
    28d8:	10016e26 	beq	r2,zero,2e94 <___svfprintf_internal_r+0x195c>
    28dc:	ad400044 	addi	r21,r21,1
    28e0:	18c00404 	addi	r3,r3,16
    28e4:	e4000015 	stw	r16,0(fp)
    28e8:	e4400115 	stw	r17,4(fp)
    28ec:	d8c01c15 	stw	r3,112(sp)
    28f0:	dd401b15 	stw	r21,108(sp)
    28f4:	a8800208 	cmpgei	r2,r21,8
    28f8:	103ff426 	beq	r2,zero,28cc <___svfprintf_internal_r+0x1394>
    28fc:	d9801a04 	addi	r6,sp,104
    2900:	900b883a 	mov	r5,r18
    2904:	9809883a 	mov	r4,r19
    2908:	0009c440 	call	9c44 <__ssprint_r>
    290c:	103c091e 	bne	r2,zero,1934 <___svfprintf_internal_r+0x3fc>
    2910:	d8c01c17 	ldw	r3,112(sp)
    2914:	dd401b17 	ldw	r21,108(sp)
    2918:	df002704 	addi	fp,sp,156
    291c:	003fec06 	br	28d0 <___svfprintf_internal_r+0x1398>
    2920:	d9801a04 	addi	r6,sp,104
    2924:	900b883a 	mov	r5,r18
    2928:	9809883a 	mov	r4,r19
    292c:	0009c440 	call	9c44 <__ssprint_r>
    2930:	103c001e 	bne	r2,zero,1934 <___svfprintf_internal_r+0x3fc>
    2934:	d8c01c17 	ldw	r3,112(sp)
    2938:	dd802704 	addi	r22,sp,156
    293c:	003bdf06 	br	18bc <___svfprintf_internal_r+0x384>
    2940:	002b883a 	mov	r21,zero
    2944:	d8c00615 	stw	r3,24(sp)
    2948:	003d7f06 	br	1f48 <___svfprintf_internal_r+0xa10>
    294c:	a02bd7fa 	srai	r21,r20,31
    2950:	d8c00615 	stw	r3,24(sp)
    2954:	a805883a 	mov	r2,r21
    2958:	003ccf06 	br	1c98 <___svfprintf_internal_r+0x760>
    295c:	d9801a04 	addi	r6,sp,104
    2960:	900b883a 	mov	r5,r18
    2964:	9809883a 	mov	r4,r19
    2968:	0009c440 	call	9c44 <__ssprint_r>
    296c:	103bf11e 	bne	r2,zero,1934 <___svfprintf_internal_r+0x3fc>
    2970:	d8c01c17 	ldw	r3,112(sp)
    2974:	dd401b17 	ldw	r21,108(sp)
    2978:	df002704 	addi	fp,sp,156
    297c:	003ed106 	br	24c4 <___svfprintf_internal_r+0xf8c>
    2980:	d9801a04 	addi	r6,sp,104
    2984:	900b883a 	mov	r5,r18
    2988:	9809883a 	mov	r4,r19
    298c:	0009c440 	call	9c44 <__ssprint_r>
    2990:	103be81e 	bne	r2,zero,1934 <___svfprintf_internal_r+0x3fc>
    2994:	d8c01c17 	ldw	r3,112(sp)
    2998:	dd401b17 	ldw	r21,108(sp)
    299c:	df002704 	addi	fp,sp,156
    29a0:	003ed306 	br	24f0 <___svfprintf_internal_r+0xfb8>
    29a4:	63000414 	ori	r12,r12,16
    29a8:	003b2106 	br	1630 <___svfprintf_internal_r+0xf8>
    29ac:	bac00007 	ldb	r11,0(r23)
    29b0:	d8800615 	stw	r2,24(sp)
    29b4:	003b1e06 	br	1630 <___svfprintf_internal_r+0xf8>
    29b8:	dc402704 	addi	r17,sp,156
    29bc:	003d2006 	br	1e40 <___svfprintf_internal_r+0x908>
    29c0:	18800017 	ldw	r2,0(r3)
    29c4:	d8800915 	stw	r2,36(sp)
    29c8:	18800117 	ldw	r2,4(r3)
    29cc:	d8800a15 	stw	r2,40(sp)
    29d0:	003c3106 	br	1a98 <___svfprintf_internal_r+0x560>
    29d4:	d9400517 	ldw	r5,20(sp)
    29d8:	20800017 	ldw	r2,0(r4)
    29dc:	d8c00615 	stw	r3,24(sp)
    29e0:	2809d7fa 	srai	r4,r5,31
    29e4:	11400015 	stw	r5,0(r2)
    29e8:	11000115 	stw	r4,4(r2)
    29ec:	003af806 	br	15d0 <___svfprintf_internal_r+0x98>
    29f0:	00800c04 	movi	r2,48
    29f4:	d8801385 	stb	r2,78(sp)
    29f8:	df0013c5 	stb	fp,79(sp)
    29fc:	63000094 	ori	r12,r12,2
    2a00:	00800084 	movi	r2,2
    2a04:	003bee06 	br	19c0 <___svfprintf_internal_r+0x488>
    2a08:	202b883a 	mov	r21,r4
    2a0c:	057f3c16 	blt	zero,r21,2700 <___svfprintf_internal_r+0x11c8>
    2a10:	003f4506 	br	2728 <___svfprintf_internal_r+0x11f0>
    2a14:	d8800417 	ldw	r2,16(sp)
    2a18:	1080004c 	andi	r2,r2,1
    2a1c:	103f491e 	bne	r2,zero,2744 <___svfprintf_internal_r+0x120c>
    2a20:	d8800817 	ldw	r2,32(sp)
    2a24:	d9000717 	ldw	r4,28(sp)
    2a28:	156bc83a 	sub	r21,r2,r21
    2a2c:	1139c83a 	sub	fp,r2,r4
    2a30:	af3f630e 	bge	r21,fp,27c0 <___svfprintf_internal_r+0x1288>
    2a34:	a839883a 	mov	fp,r21
    2a38:	003f6106 	br	27c0 <___svfprintf_internal_r+0x1288>
    2a3c:	002b883a 	mov	r21,zero
    2a40:	003f3a06 	br	272c <___svfprintf_internal_r+0x11f4>
    2a44:	01401004 	movi	r5,64
    2a48:	9809883a 	mov	r4,r19
    2a4c:	0007ec00 	call	7ec0 <_malloc_r>
    2a50:	90800015 	stw	r2,0(r18)
    2a54:	90800415 	stw	r2,16(r18)
    2a58:	10029826 	beq	r2,zero,34bc <___svfprintf_internal_r+0x1f84>
    2a5c:	00801004 	movi	r2,64
    2a60:	90800515 	stw	r2,20(r18)
    2a64:	003ace06 	br	15a0 <___svfprintf_internal_r+0x68>
    2a68:	8809883a 	mov	r4,r17
    2a6c:	db000415 	stw	r12,16(sp)
    2a70:	d8c00615 	stw	r3,24(sp)
    2a74:	00014a00 	call	14a0 <strlen>
    2a78:	db000417 	ldw	r12,16(sp)
    2a7c:	102b883a 	mov	r21,r2
    2a80:	1029883a 	mov	r20,r2
    2a84:	003b6106 	br	180c <___svfprintf_internal_r+0x2d4>
    2a88:	01c000b4 	movhi	r7,2
    2a8c:	a9000450 	cmplti	r4,r21,17
    2a90:	d8801b17 	ldw	r2,108(sp)
    2a94:	39f05d04 	addi	r7,r7,-16012
    2a98:	2001891e 	bne	r4,zero,30c0 <___svfprintf_internal_r+0x1b88>
    2a9c:	dc000e15 	stw	r16,56(sp)
    2aa0:	07000404 	movi	fp,16
    2aa4:	3821883a 	mov	r16,r7
    2aa8:	00000406 	br	2abc <___svfprintf_internal_r+0x1584>
    2aac:	b5800204 	addi	r22,r22,8
    2ab0:	ad7ffc04 	addi	r21,r21,-16
    2ab4:	a9000448 	cmpgei	r4,r21,17
    2ab8:	20017f26 	beq	r4,zero,30b8 <___svfprintf_internal_r+0x1b80>
    2abc:	10800044 	addi	r2,r2,1
    2ac0:	18c00404 	addi	r3,r3,16
    2ac4:	b4000015 	stw	r16,0(r22)
    2ac8:	b7000115 	stw	fp,4(r22)
    2acc:	d8c01c15 	stw	r3,112(sp)
    2ad0:	d8801b15 	stw	r2,108(sp)
    2ad4:	11000208 	cmpgei	r4,r2,8
    2ad8:	203ff426 	beq	r4,zero,2aac <___svfprintf_internal_r+0x1574>
    2adc:	d9801a04 	addi	r6,sp,104
    2ae0:	900b883a 	mov	r5,r18
    2ae4:	9809883a 	mov	r4,r19
    2ae8:	0009c440 	call	9c44 <__ssprint_r>
    2aec:	103b911e 	bne	r2,zero,1934 <___svfprintf_internal_r+0x3fc>
    2af0:	d8c01c17 	ldw	r3,112(sp)
    2af4:	d8801b17 	ldw	r2,108(sp)
    2af8:	dd802704 	addi	r22,sp,156
    2afc:	003fec06 	br	2ab0 <___svfprintf_internal_r+0x1578>
    2b00:	dc402704 	addi	r17,sp,156
    2b04:	a805883a 	mov	r2,r21
    2b08:	dc000715 	stw	r16,28(sp)
    2b0c:	902b883a 	mov	r21,r18
    2b10:	8821883a 	mov	r16,r17
    2b14:	db000415 	stw	r12,16(sp)
    2b18:	a023883a 	mov	r17,r20
    2b1c:	da000e15 	stw	r8,56(sp)
    2b20:	9829883a 	mov	r20,r19
    2b24:	1025883a 	mov	r18,r2
    2b28:	6827883a 	mov	r19,r13
    2b2c:	8809883a 	mov	r4,r17
    2b30:	900b883a 	mov	r5,r18
    2b34:	01800284 	movi	r6,10
    2b38:	000f883a 	mov	r7,zero
    2b3c:	000e47c0 	call	e47c <__umoddi3>
    2b40:	10800c04 	addi	r2,r2,48
    2b44:	8809883a 	mov	r4,r17
    2b48:	900b883a 	mov	r5,r18
    2b4c:	01800284 	movi	r6,10
    2b50:	000f883a 	mov	r7,zero
    2b54:	80bfffc5 	stb	r2,-1(r16)
    2b58:	000df2c0 	call	df2c <__udivdi3>
    2b5c:	900d883a 	mov	r6,r18
    2b60:	880f883a 	mov	r7,r17
    2b64:	843fffc4 	addi	r16,r16,-1
    2b68:	1023883a 	mov	r17,r2
    2b6c:	1825883a 	mov	r18,r3
    2b70:	303fee1e 	bne	r6,zero,2b2c <___svfprintf_internal_r+0x15f4>
    2b74:	39c002a8 	cmpgeui	r7,r7,10
    2b78:	383fec1e 	bne	r7,zero,2b2c <___svfprintf_internal_r+0x15f4>
    2b7c:	8023883a 	mov	r17,r16
    2b80:	d8802704 	addi	r2,sp,156
    2b84:	981b883a 	mov	r13,r19
    2b88:	a825883a 	mov	r18,r21
    2b8c:	dc000717 	ldw	r16,28(sp)
    2b90:	da000e17 	ldw	r8,56(sp)
    2b94:	a027883a 	mov	r19,r20
    2b98:	146bc83a 	sub	r21,r2,r17
    2b9c:	003ca806 	br	1e40 <___svfprintf_internal_r+0x908>
    2ba0:	d8800617 	ldw	r2,24(sp)
    2ba4:	10800017 	ldw	r2,0(r2)
    2ba8:	d8c00615 	stw	r3,24(sp)
    2bac:	d8c00517 	ldw	r3,20(sp)
    2bb0:	10c00015 	stw	r3,0(r2)
    2bb4:	003a8606 	br	15d0 <___svfprintf_internal_r+0x98>
    2bb8:	d9801a04 	addi	r6,sp,104
    2bbc:	900b883a 	mov	r5,r18
    2bc0:	9809883a 	mov	r4,r19
    2bc4:	da001115 	stw	r8,68(sp)
    2bc8:	db400f15 	stw	r13,60(sp)
    2bcc:	db800e15 	stw	r14,56(sp)
    2bd0:	0009c440 	call	9c44 <__ssprint_r>
    2bd4:	103b571e 	bne	r2,zero,1934 <___svfprintf_internal_r+0x3fc>
    2bd8:	d8c01c17 	ldw	r3,112(sp)
    2bdc:	da001117 	ldw	r8,68(sp)
    2be0:	db400f17 	ldw	r13,60(sp)
    2be4:	db800e17 	ldw	r14,56(sp)
    2be8:	dd802704 	addi	r22,sp,156
    2bec:	003b1406 	br	1840 <___svfprintf_internal_r+0x308>
    2bf0:	8825883a 	mov	r18,r17
    2bf4:	003b4f06 	br	1934 <___svfprintf_internal_r+0x3fc>
    2bf8:	d9000917 	ldw	r4,36(sp)
    2bfc:	d9400a17 	ldw	r5,40(sp)
    2c00:	da000615 	stw	r8,24(sp)
    2c04:	200d883a 	mov	r6,r4
    2c08:	280f883a 	mov	r7,r5
    2c0c:	db000415 	stw	r12,16(sp)
    2c10:	0010d1c0 	call	10d1c <__unorddf2>
    2c14:	db000417 	ldw	r12,16(sp)
    2c18:	da000617 	ldw	r8,24(sp)
    2c1c:	1001fe1e 	bne	r2,zero,3418 <___svfprintf_internal_r+0x1ee0>
    2c20:	057ff7c4 	movi	r21,-33
    2c24:	40bfffe0 	cmpeqi	r2,r8,-1
    2c28:	e56a703a 	and	r21,fp,r21
    2c2c:	1001a11e 	bne	r2,zero,32b4 <___svfprintf_internal_r+0x1d7c>
    2c30:	a88011d8 	cmpnei	r2,r21,71
    2c34:	10004126 	beq	r2,zero,2d3c <___svfprintf_internal_r+0x1804>
    2c38:	60804014 	ori	r2,r12,256
    2c3c:	d8800415 	stw	r2,16(sp)
    2c40:	d8800a17 	ldw	r2,40(sp)
    2c44:	10013e16 	blt	r2,zero,3140 <___svfprintf_internal_r+0x1c08>
    2c48:	dd000a17 	ldw	r20,40(sp)
    2c4c:	d8000605 	stb	zero,24(sp)
    2c50:	e08019a0 	cmpeqi	r2,fp,102
    2c54:	d8800f15 	stw	r2,60(sp)
    2c58:	1000971e 	bne	r2,zero,2eb8 <___svfprintf_internal_r+0x1980>
    2c5c:	e08011a0 	cmpeqi	r2,fp,70
    2c60:	1000951e 	bne	r2,zero,2eb8 <___svfprintf_internal_r+0x1980>
    2c64:	a8801158 	cmpnei	r2,r21,69
    2c68:	10016126 	beq	r2,zero,31f0 <___svfprintf_internal_r+0x1cb8>
    2c6c:	d8801804 	addi	r2,sp,96
    2c70:	d8800315 	stw	r2,12(sp)
    2c74:	d9400917 	ldw	r5,36(sp)
    2c78:	d8801504 	addi	r2,sp,84
    2c7c:	d8800215 	stw	r2,8(sp)
    2c80:	d8801404 	addi	r2,sp,80
    2c84:	da000015 	stw	r8,0(sp)
    2c88:	9809883a 	mov	r4,r19
    2c8c:	d8800115 	stw	r2,4(sp)
    2c90:	01c00084 	movi	r7,2
    2c94:	a00d883a 	mov	r6,r20
    2c98:	db000815 	stw	r12,32(sp)
    2c9c:	da000715 	stw	r8,28(sp)
    2ca0:	000591c0 	call	591c <_dtoa_r>
    2ca4:	da000717 	ldw	r8,28(sp)
    2ca8:	e10019d8 	cmpnei	r4,fp,103
    2cac:	db000817 	ldw	r12,32(sp)
    2cb0:	1023883a 	mov	r17,r2
    2cb4:	4007883a 	mov	r3,r8
    2cb8:	2001611e 	bne	r4,zero,3240 <___svfprintf_internal_r+0x1d08>
    2cbc:	6080004c 	andi	r2,r12,1
    2cc0:	1001611e 	bne	r2,zero,3248 <___svfprintf_internal_r+0x1d10>
    2cc4:	d8801417 	ldw	r2,80(sp)
    2cc8:	ad4011e0 	cmpeqi	r21,r21,71
    2ccc:	d8800715 	stw	r2,28(sp)
    2cd0:	d8801817 	ldw	r2,96(sp)
    2cd4:	1445c83a 	sub	r2,r2,r17
    2cd8:	d8800815 	stw	r2,32(sp)
    2cdc:	a800b226 	beq	r21,zero,2fa8 <___svfprintf_internal_r+0x1a70>
    2ce0:	d8c00717 	ldw	r3,28(sp)
    2ce4:	18bfff50 	cmplti	r2,r3,-3
    2ce8:	1000ae1e 	bne	r2,zero,2fa4 <___svfprintf_internal_r+0x1a6c>
    2cec:	40c0ad16 	blt	r8,r3,2fa4 <___svfprintf_internal_r+0x1a6c>
    2cf0:	d8800717 	ldw	r2,28(sp)
    2cf4:	d8c00817 	ldw	r3,32(sp)
    2cf8:	10c19b16 	blt	r2,r3,3368 <___svfprintf_internal_r+0x1e30>
    2cfc:	6300004c 	andi	r12,r12,1
    2d00:	d8800717 	ldw	r2,28(sp)
    2d04:	6001be1e 	bne	r12,zero,3400 <___svfprintf_internal_r+0x1ec8>
    2d08:	1029883a 	mov	r20,r2
    2d0c:	1000010e 	bge	r2,zero,2d14 <___svfprintf_internal_r+0x17dc>
    2d10:	0029883a 	mov	r20,zero
    2d14:	dd400717 	ldw	r21,28(sp)
    2d18:	070019c4 	movi	fp,103
    2d1c:	d8800607 	ldb	r2,24(sp)
    2d20:	10014b26 	beq	r2,zero,3250 <___svfprintf_internal_r+0x1d18>
    2d24:	00800b44 	movi	r2,45
    2d28:	d8801345 	stb	r2,77(sp)
    2d2c:	d8800e17 	ldw	r2,56(sp)
    2d30:	0011883a 	mov	r8,zero
    2d34:	d8800615 	stw	r2,24(sp)
    2d38:	003c4906 	br	1e60 <___svfprintf_internal_r+0x928>
    2d3c:	403fbe1e 	bne	r8,zero,2c38 <___svfprintf_internal_r+0x1700>
    2d40:	02000044 	movi	r8,1
    2d44:	003fbc06 	br	2c38 <___svfprintf_internal_r+0x1700>
    2d48:	880f883a 	mov	r7,r17
    2d4c:	10800044 	addi	r2,r2,1
    2d50:	1d47883a 	add	r3,r3,r21
    2d54:	b1c00015 	stw	r7,0(r22)
    2d58:	003adf06 	br	18d8 <___svfprintf_internal_r+0x3a0>
    2d5c:	d9801a04 	addi	r6,sp,104
    2d60:	900b883a 	mov	r5,r18
    2d64:	9809883a 	mov	r4,r19
    2d68:	0009c440 	call	9c44 <__ssprint_r>
    2d6c:	103af11e 	bne	r2,zero,1934 <___svfprintf_internal_r+0x3fc>
    2d70:	d8c01c17 	ldw	r3,112(sp)
    2d74:	dd802704 	addi	r22,sp,156
    2d78:	003cdb06 	br	20e8 <___svfprintf_internal_r+0xbb0>
    2d7c:	d9801a04 	addi	r6,sp,104
    2d80:	900b883a 	mov	r5,r18
    2d84:	9809883a 	mov	r4,r19
    2d88:	da000e15 	stw	r8,56(sp)
    2d8c:	0009c440 	call	9c44 <__ssprint_r>
    2d90:	103ae81e 	bne	r2,zero,1934 <___svfprintf_internal_r+0x3fc>
    2d94:	d8c01c17 	ldw	r3,112(sp)
    2d98:	da000e17 	ldw	r8,56(sp)
    2d9c:	dd802704 	addi	r22,sp,156
    2da0:	003ac406 	br	18b4 <___svfprintf_internal_r+0x37c>
    2da4:	d9801a04 	addi	r6,sp,104
    2da8:	900b883a 	mov	r5,r18
    2dac:	9809883a 	mov	r4,r19
    2db0:	0009c440 	call	9c44 <__ssprint_r>
    2db4:	103adf1e 	bne	r2,zero,1934 <___svfprintf_internal_r+0x3fc>
    2db8:	d8c01c17 	ldw	r3,112(sp)
    2dbc:	dd802704 	addi	r22,sp,156
    2dc0:	003cdb06 	br	2130 <___svfprintf_internal_r+0xbf8>
    2dc4:	408001f0 	cmpltui	r2,r8,7
    2dc8:	402b883a 	mov	r21,r8
    2dcc:	1000e226 	beq	r2,zero,3158 <___svfprintf_internal_r+0x1c20>
    2dd0:	044000b4 	movhi	r17,2
    2dd4:	a829883a 	mov	r20,r21
    2dd8:	d8c00615 	stw	r3,24(sp)
    2ddc:	8c705a04 	addi	r17,r17,-16024
    2de0:	003a8a06 	br	180c <___svfprintf_internal_r+0x2d4>
    2de4:	d8800d17 	ldw	r2,52(sp)
    2de8:	d9000c17 	ldw	r4,48(sp)
    2dec:	b0800015 	stw	r2,0(r22)
    2df0:	d8801b17 	ldw	r2,108(sp)
    2df4:	20c7883a 	add	r3,r4,r3
    2df8:	b1000115 	stw	r4,4(r22)
    2dfc:	10800044 	addi	r2,r2,1
    2e00:	d8c01c15 	stw	r3,112(sp)
    2e04:	d8801b15 	stw	r2,108(sp)
    2e08:	11000208 	cmpgei	r4,r2,8
    2e0c:	2000e31e 	bne	r4,zero,319c <___svfprintf_internal_r+0x1c64>
    2e10:	b5800204 	addi	r22,r22,8
    2e14:	a83d8c0e 	bge	r21,zero,2448 <___svfprintf_internal_r+0xf10>
    2e18:	01c000b4 	movhi	r7,2
    2e1c:	a93ffc08 	cmpgei	r4,r21,-16
    2e20:	39f05d04 	addi	r7,r7,-16012
    2e24:	056bc83a 	sub	r21,zero,r21
    2e28:	20013e1e 	bne	r4,zero,3324 <___svfprintf_internal_r+0x1dec>
    2e2c:	dc000715 	stw	r16,28(sp)
    2e30:	07000404 	movi	fp,16
    2e34:	9021883a 	mov	r16,r18
    2e38:	3825883a 	mov	r18,r7
    2e3c:	00000406 	br	2e50 <___svfprintf_internal_r+0x1918>
    2e40:	b5800204 	addi	r22,r22,8
    2e44:	ad7ffc04 	addi	r21,r21,-16
    2e48:	a9800448 	cmpgei	r6,r21,17
    2e4c:	30013226 	beq	r6,zero,3318 <___svfprintf_internal_r+0x1de0>
    2e50:	10800044 	addi	r2,r2,1
    2e54:	18c00404 	addi	r3,r3,16
    2e58:	b4800015 	stw	r18,0(r22)
    2e5c:	b7000115 	stw	fp,4(r22)
    2e60:	d8c01c15 	stw	r3,112(sp)
    2e64:	d8801b15 	stw	r2,108(sp)
    2e68:	11800208 	cmpgei	r6,r2,8
    2e6c:	303ff426 	beq	r6,zero,2e40 <___svfprintf_internal_r+0x1908>
    2e70:	d9801a04 	addi	r6,sp,104
    2e74:	800b883a 	mov	r5,r16
    2e78:	9809883a 	mov	r4,r19
    2e7c:	0009c440 	call	9c44 <__ssprint_r>
    2e80:	1001761e 	bne	r2,zero,345c <___svfprintf_internal_r+0x1f24>
    2e84:	d8c01c17 	ldw	r3,112(sp)
    2e88:	d8801b17 	ldw	r2,108(sp)
    2e8c:	dd802704 	addi	r22,sp,156
    2e90:	003fec06 	br	2e44 <___svfprintf_internal_r+0x190c>
    2e94:	800f883a 	mov	r7,r16
    2e98:	dc000717 	ldw	r16,28(sp)
    2e9c:	ad400044 	addi	r21,r21,1
    2ea0:	1d87883a 	add	r3,r3,r22
    2ea4:	e1c00015 	stw	r7,0(fp)
    2ea8:	003d9f06 	br	2528 <___svfprintf_internal_r+0xff0>
    2eac:	044000b4 	movhi	r17,2
    2eb0:	8c704c04 	addi	r17,r17,-16080
    2eb4:	003b1d06 	br	1b2c <___svfprintf_internal_r+0x5f4>
    2eb8:	d8801804 	addi	r2,sp,96
    2ebc:	d8800315 	stw	r2,12(sp)
    2ec0:	d9400917 	ldw	r5,36(sp)
    2ec4:	d8801504 	addi	r2,sp,84
    2ec8:	d8800215 	stw	r2,8(sp)
    2ecc:	d8801404 	addi	r2,sp,80
    2ed0:	da000015 	stw	r8,0(sp)
    2ed4:	d8800115 	stw	r2,4(sp)
    2ed8:	01c000c4 	movi	r7,3
    2edc:	a00d883a 	mov	r6,r20
    2ee0:	9809883a 	mov	r4,r19
    2ee4:	db000815 	stw	r12,32(sp)
    2ee8:	da000715 	stw	r8,28(sp)
    2eec:	000591c0 	call	591c <_dtoa_r>
    2ef0:	da000717 	ldw	r8,28(sp)
    2ef4:	1023883a 	mov	r17,r2
    2ef8:	db000817 	ldw	r12,32(sp)
    2efc:	1207883a 	add	r3,r2,r8
    2f00:	88800007 	ldb	r2,0(r17)
    2f04:	10800c20 	cmpeqi	r2,r2,48
    2f08:	10012a1e 	bne	r2,zero,33b4 <___svfprintf_internal_r+0x1e7c>
    2f0c:	d8801417 	ldw	r2,80(sp)
    2f10:	1893883a 	add	r9,r3,r2
    2f14:	d9000917 	ldw	r4,36(sp)
    2f18:	000d883a 	mov	r6,zero
    2f1c:	000f883a 	mov	r7,zero
    2f20:	a00b883a 	mov	r5,r20
    2f24:	da401115 	stw	r9,68(sp)
    2f28:	da000815 	stw	r8,32(sp)
    2f2c:	db000715 	stw	r12,28(sp)
    2f30:	000fae40 	call	fae4 <__eqdf2>
    2f34:	db000717 	ldw	r12,28(sp)
    2f38:	da000817 	ldw	r8,32(sp)
    2f3c:	da401117 	ldw	r9,68(sp)
    2f40:	10008326 	beq	r2,zero,3150 <___svfprintf_internal_r+0x1c18>
    2f44:	d8801817 	ldw	r2,96(sp)
    2f48:	1240062e 	bgeu	r2,r9,2f64 <___svfprintf_internal_r+0x1a2c>
    2f4c:	01000c04 	movi	r4,48
    2f50:	10c00044 	addi	r3,r2,1
    2f54:	d8c01815 	stw	r3,96(sp)
    2f58:	11000005 	stb	r4,0(r2)
    2f5c:	d8801817 	ldw	r2,96(sp)
    2f60:	127ffb36 	bltu	r2,r9,2f50 <___svfprintf_internal_r+0x1a18>
    2f64:	d8c01417 	ldw	r3,80(sp)
    2f68:	1445c83a 	sub	r2,r2,r17
    2f6c:	ad4011d8 	cmpnei	r21,r21,71
    2f70:	d8c00715 	stw	r3,28(sp)
    2f74:	d8800815 	stw	r2,32(sp)
    2f78:	a83f5926 	beq	r21,zero,2ce0 <___svfprintf_internal_r+0x17a8>
    2f7c:	d8800f17 	ldw	r2,60(sp)
    2f80:	10000926 	beq	r2,zero,2fa8 <___svfprintf_internal_r+0x1a70>
    2f84:	d8c00717 	ldw	r3,28(sp)
    2f88:	6080004c 	andi	r2,r12,1
    2f8c:	1204b03a 	or	r2,r2,r8
    2f90:	00c07e0e 	bge	zero,r3,318c <___svfprintf_internal_r+0x1c54>
    2f94:	1001281e 	bne	r2,zero,3438 <___svfprintf_internal_r+0x1f00>
    2f98:	dd400717 	ldw	r21,28(sp)
    2f9c:	a829883a 	mov	r20,r21
    2fa0:	003f5e06 	br	2d1c <___svfprintf_internal_r+0x17e4>
    2fa4:	e73fff84 	addi	fp,fp,-2
    2fa8:	d8c00717 	ldw	r3,28(sp)
    2fac:	e009883a 	mov	r4,fp
    2fb0:	18bfffc4 	addi	r2,r3,-1
    2fb4:	10007116 	blt	r2,zero,317c <___svfprintf_internal_r+0x1c44>
    2fb8:	102b883a 	mov	r21,r2
    2fbc:	00c00ac4 	movi	r3,43
    2fc0:	d8801415 	stw	r2,80(sp)
    2fc4:	d9001645 	stb	r4,89(sp)
    2fc8:	d8c01685 	stb	r3,90(sp)
    2fcc:	a8800290 	cmplti	r2,r21,10
    2fd0:	1000ca1e 	bne	r2,zero,32fc <___svfprintf_internal_r+0x1dc4>
    2fd4:	d98019c4 	addi	r6,sp,103
    2fd8:	9029883a 	mov	r20,r18
    2fdc:	dc400715 	stw	r17,28(sp)
    2fe0:	8025883a 	mov	r18,r16
    2fe4:	db000f15 	stw	r12,60(sp)
    2fe8:	3021883a 	mov	r16,r6
    2fec:	a809883a 	mov	r4,r21
    2ff0:	01400284 	movi	r5,10
    2ff4:	00011d80 	call	11d8 <__modsi3>
    2ff8:	10800c04 	addi	r2,r2,48
    2ffc:	a809883a 	mov	r4,r21
    3000:	80bfffc5 	stb	r2,-1(r16)
    3004:	01400284 	movi	r5,10
    3008:	00011580 	call	1158 <__divsi3>
    300c:	a9001908 	cmpgei	r4,r21,100
    3010:	8023883a 	mov	r17,r16
    3014:	102b883a 	mov	r21,r2
    3018:	843fffc4 	addi	r16,r16,-1
    301c:	203ff31e 	bne	r4,zero,2fec <___svfprintf_internal_r+0x1ab4>
    3020:	800d883a 	mov	r6,r16
    3024:	11000c04 	addi	r4,r2,48
    3028:	9021883a 	mov	r16,r18
    302c:	a025883a 	mov	r18,r20
    3030:	8829883a 	mov	r20,r17
    3034:	a0bfff84 	addi	r2,r20,-2
    3038:	313fffc5 	stb	r4,-1(r6)
    303c:	d8c019c4 	addi	r3,sp,103
    3040:	db000f17 	ldw	r12,60(sp)
    3044:	dc400717 	ldw	r17,28(sp)
    3048:	10c1192e 	bgeu	r2,r3,34b0 <___svfprintf_internal_r+0x1f78>
    304c:	d8c016c4 	addi	r3,sp,91
    3050:	00000106 	br	3058 <___svfprintf_internal_r+0x1b20>
    3054:	11000003 	ldbu	r4,0(r2)
    3058:	19000005 	stb	r4,0(r3)
    305c:	10800044 	addi	r2,r2,1
    3060:	d90019c4 	addi	r4,sp,103
    3064:	18c00044 	addi	r3,r3,1
    3068:	113ffa1e 	bne	r2,r4,3054 <___svfprintf_internal_r+0x1b1c>
    306c:	d8801a44 	addi	r2,sp,105
    3070:	d8c016c4 	addi	r3,sp,91
    3074:	1505c83a 	sub	r2,r2,r20
    3078:	1885883a 	add	r2,r3,r2
    307c:	d8c01644 	addi	r3,sp,89
    3080:	10c5c83a 	sub	r2,r2,r3
    3084:	d8801015 	stw	r2,64(sp)
    3088:	d8c00817 	ldw	r3,32(sp)
    308c:	d9001017 	ldw	r4,64(sp)
    3090:	18800088 	cmpgei	r2,r3,2
    3094:	192b883a 	add	r21,r3,r4
    3098:	1000bf26 	beq	r2,zero,3398 <___svfprintf_internal_r+0x1e60>
    309c:	d8800c17 	ldw	r2,48(sp)
    30a0:	a8ab883a 	add	r21,r21,r2
    30a4:	a829883a 	mov	r20,r21
    30a8:	a800010e 	bge	r21,zero,30b0 <___svfprintf_internal_r+0x1b78>
    30ac:	0029883a 	mov	r20,zero
    30b0:	d8000715 	stw	zero,28(sp)
    30b4:	003f1906 	br	2d1c <___svfprintf_internal_r+0x17e4>
    30b8:	800f883a 	mov	r7,r16
    30bc:	dc000e17 	ldw	r16,56(sp)
    30c0:	10800044 	addi	r2,r2,1
    30c4:	1d47883a 	add	r3,r3,r21
    30c8:	d8801b15 	stw	r2,108(sp)
    30cc:	b1c00015 	stw	r7,0(r22)
    30d0:	b5400115 	stw	r21,4(r22)
    30d4:	d8c01c15 	stw	r3,112(sp)
    30d8:	10800208 	cmpgei	r2,r2,8
    30dc:	10003a1e 	bne	r2,zero,31c8 <___svfprintf_internal_r+0x1c90>
    30e0:	b5800204 	addi	r22,r22,8
    30e4:	003d9406 	br	2738 <___svfprintf_internal_r+0x1200>
    30e8:	00800b44 	movi	r2,45
    30ec:	d8801345 	stb	r2,77(sp)
    30f0:	03400b44 	movi	r13,45
    30f4:	003a8906 	br	1b1c <___svfprintf_internal_r+0x5e4>
    30f8:	d9801a04 	addi	r6,sp,104
    30fc:	900b883a 	mov	r5,r18
    3100:	9809883a 	mov	r4,r19
    3104:	0009c440 	call	9c44 <__ssprint_r>
    3108:	103a0a1e 	bne	r2,zero,1934 <___svfprintf_internal_r+0x3fc>
    310c:	dd401417 	ldw	r21,80(sp)
    3110:	d8c01c17 	ldw	r3,112(sp)
    3114:	dd802704 	addi	r22,sp,156
    3118:	003cb906 	br	2400 <___svfprintf_internal_r+0xec8>
    311c:	d9801a04 	addi	r6,sp,104
    3120:	900b883a 	mov	r5,r18
    3124:	9809883a 	mov	r4,r19
    3128:	0009c440 	call	9c44 <__ssprint_r>
    312c:	103a011e 	bne	r2,zero,1934 <___svfprintf_internal_r+0x3fc>
    3130:	dd401417 	ldw	r21,80(sp)
    3134:	d8c01c17 	ldw	r3,112(sp)
    3138:	dd802704 	addi	r22,sp,156
    313c:	003d8d06 	br	2774 <___svfprintf_internal_r+0x123c>
    3140:	1520003c 	xorhi	r20,r2,32768
    3144:	00800b44 	movi	r2,45
    3148:	d8800605 	stb	r2,24(sp)
    314c:	003ec006 	br	2c50 <___svfprintf_internal_r+0x1718>
    3150:	4805883a 	mov	r2,r9
    3154:	003f8306 	br	2f64 <___svfprintf_internal_r+0x1a2c>
    3158:	05400184 	movi	r21,6
    315c:	003f1c06 	br	2dd0 <___svfprintf_internal_r+0x1898>
    3160:	d9401345 	stb	r5,77(sp)
    3164:	0039a306 	br	17f4 <___svfprintf_internal_r+0x2bc>
    3168:	d9801a04 	addi	r6,sp,104
    316c:	900b883a 	mov	r5,r18
    3170:	9809883a 	mov	r4,r19
    3174:	0009c440 	call	9c44 <__ssprint_r>
    3178:	0039ee06 	br	1934 <___svfprintf_internal_r+0x3fc>
    317c:	05400044 	movi	r21,1
    3180:	a8ebc83a 	sub	r21,r21,r3
    3184:	00c00b44 	movi	r3,45
    3188:	003f8d06 	br	2fc0 <___svfprintf_internal_r+0x1a88>
    318c:	1000af1e 	bne	r2,zero,344c <___svfprintf_internal_r+0x1f14>
    3190:	05000044 	movi	r20,1
    3194:	05400044 	movi	r21,1
    3198:	003ee006 	br	2d1c <___svfprintf_internal_r+0x17e4>
    319c:	d9801a04 	addi	r6,sp,104
    31a0:	900b883a 	mov	r5,r18
    31a4:	9809883a 	mov	r4,r19
    31a8:	0009c440 	call	9c44 <__ssprint_r>
    31ac:	1039e11e 	bne	r2,zero,1934 <___svfprintf_internal_r+0x3fc>
    31b0:	dd401417 	ldw	r21,80(sp)
    31b4:	d8c01c17 	ldw	r3,112(sp)
    31b8:	d8801b17 	ldw	r2,108(sp)
    31bc:	dd802704 	addi	r22,sp,156
    31c0:	a83ca10e 	bge	r21,zero,2448 <___svfprintf_internal_r+0xf10>
    31c4:	003f1406 	br	2e18 <___svfprintf_internal_r+0x18e0>
    31c8:	d9801a04 	addi	r6,sp,104
    31cc:	900b883a 	mov	r5,r18
    31d0:	9809883a 	mov	r4,r19
    31d4:	0009c440 	call	9c44 <__ssprint_r>
    31d8:	1039d61e 	bne	r2,zero,1934 <___svfprintf_internal_r+0x3fc>
    31dc:	d8c01c17 	ldw	r3,112(sp)
    31e0:	dd802704 	addi	r22,sp,156
    31e4:	003d5406 	br	2738 <___svfprintf_internal_r+0x1200>
    31e8:	db000417 	ldw	r12,16(sp)
    31ec:	003ab706 	br	1ccc <___svfprintf_internal_r+0x794>
    31f0:	d8801804 	addi	r2,sp,96
    31f4:	d8800315 	stw	r2,12(sp)
    31f8:	d9400917 	ldw	r5,36(sp)
    31fc:	d8801504 	addi	r2,sp,84
    3200:	40c00044 	addi	r3,r8,1
    3204:	d8800215 	stw	r2,8(sp)
    3208:	d8801404 	addi	r2,sp,80
    320c:	d8c00015 	stw	r3,0(sp)
    3210:	d8800115 	stw	r2,4(sp)
    3214:	01c00084 	movi	r7,2
    3218:	a00d883a 	mov	r6,r20
    321c:	9809883a 	mov	r4,r19
    3220:	db001115 	stw	r12,68(sp)
    3224:	da000815 	stw	r8,32(sp)
    3228:	d8c00715 	stw	r3,28(sp)
    322c:	000591c0 	call	591c <_dtoa_r>
    3230:	d8c00717 	ldw	r3,28(sp)
    3234:	da000817 	ldw	r8,32(sp)
    3238:	db001117 	ldw	r12,68(sp)
    323c:	1023883a 	mov	r17,r2
    3240:	e08011d8 	cmpnei	r2,fp,71
    3244:	103e9d26 	beq	r2,zero,2cbc <___svfprintf_internal_r+0x1784>
    3248:	88d3883a 	add	r9,r17,r3
    324c:	003f3106 	br	2f14 <___svfprintf_internal_r+0x19dc>
    3250:	d8800e17 	ldw	r2,56(sp)
    3254:	db401343 	ldbu	r13,77(sp)
    3258:	0011883a 	mov	r8,zero
    325c:	d8800615 	stw	r2,24(sp)
    3260:	003afb06 	br	1e50 <___svfprintf_internal_r+0x918>
    3264:	d9801a04 	addi	r6,sp,104
    3268:	900b883a 	mov	r5,r18
    326c:	9809883a 	mov	r4,r19
    3270:	0009c440 	call	9c44 <__ssprint_r>
    3274:	1039af1e 	bne	r2,zero,1934 <___svfprintf_internal_r+0x3fc>
    3278:	d8c01c17 	ldw	r3,112(sp)
    327c:	dd802704 	addi	r22,sp,156
    3280:	a83d2a0e 	bge	r21,zero,272c <___svfprintf_internal_r+0x11f4>
    3284:	003ded06 	br	2a3c <___svfprintf_internal_r+0x1504>
    3288:	d9801a04 	addi	r6,sp,104
    328c:	900b883a 	mov	r5,r18
    3290:	9809883a 	mov	r4,r19
    3294:	0009c440 	call	9c44 <__ssprint_r>
    3298:	1039a61e 	bne	r2,zero,1934 <___svfprintf_internal_r+0x3fc>
    329c:	dd401417 	ldw	r21,80(sp)
    32a0:	d8800817 	ldw	r2,32(sp)
    32a4:	d8c01c17 	ldw	r3,112(sp)
    32a8:	dd802704 	addi	r22,sp,156
    32ac:	156bc83a 	sub	r21,r2,r21
    32b0:	003d4306 	br	27c0 <___svfprintf_internal_r+0x1288>
    32b4:	02000184 	movi	r8,6
    32b8:	003e5f06 	br	2c38 <___svfprintf_internal_r+0x1700>
    32bc:	4029883a 	mov	r20,r8
    32c0:	d8c00615 	stw	r3,24(sp)
    32c4:	402b883a 	mov	r21,r8
    32c8:	00395006 	br	180c <___svfprintf_internal_r+0x2d4>
    32cc:	d9401345 	stb	r5,77(sp)
    32d0:	003aa306 	br	1d60 <___svfprintf_internal_r+0x828>
    32d4:	d9401345 	stb	r5,77(sp)
    32d8:	003b1106 	br	1f20 <___svfprintf_internal_r+0x9e8>
    32dc:	d9401345 	stb	r5,77(sp)
    32e0:	003b5c06 	br	2054 <___svfprintf_internal_r+0xb1c>
    32e4:	d9401345 	stb	r5,77(sp)
    32e8:	003b1f06 	br	1f68 <___svfprintf_internal_r+0xa30>
    32ec:	d9401345 	stb	r5,77(sp)
    32f0:	0039df06 	br	1a70 <___svfprintf_internal_r+0x538>
    32f4:	d9401345 	stb	r5,77(sp)
    32f8:	003a5f06 	br	1c78 <___svfprintf_internal_r+0x740>
    32fc:	00800c04 	movi	r2,48
    3300:	ad400c04 	addi	r21,r21,48
    3304:	d88016c5 	stb	r2,91(sp)
    3308:	00800104 	movi	r2,4
    330c:	dd401705 	stb	r21,92(sp)
    3310:	d8801015 	stw	r2,64(sp)
    3314:	003f5c06 	br	3088 <___svfprintf_internal_r+0x1b50>
    3318:	900f883a 	mov	r7,r18
    331c:	8025883a 	mov	r18,r16
    3320:	dc000717 	ldw	r16,28(sp)
    3324:	10800044 	addi	r2,r2,1
    3328:	1d47883a 	add	r3,r3,r21
    332c:	b1c00015 	stw	r7,0(r22)
    3330:	b5400115 	stw	r21,4(r22)
    3334:	d8c01c15 	stw	r3,112(sp)
    3338:	d8801b15 	stw	r2,108(sp)
    333c:	11000208 	cmpgei	r4,r2,8
    3340:	203c4026 	beq	r4,zero,2444 <___svfprintf_internal_r+0xf0c>
    3344:	d9801a04 	addi	r6,sp,104
    3348:	900b883a 	mov	r5,r18
    334c:	9809883a 	mov	r4,r19
    3350:	0009c440 	call	9c44 <__ssprint_r>
    3354:	1039771e 	bne	r2,zero,1934 <___svfprintf_internal_r+0x3fc>
    3358:	d8c01c17 	ldw	r3,112(sp)
    335c:	d8801b17 	ldw	r2,108(sp)
    3360:	dd802704 	addi	r22,sp,156
    3364:	003c3806 	br	2448 <___svfprintf_internal_r+0xf10>
    3368:	d8800817 	ldw	r2,32(sp)
    336c:	d8c00c17 	ldw	r3,48(sp)
    3370:	10eb883a 	add	r21,r2,r3
    3374:	d8800717 	ldw	r2,28(sp)
    3378:	00800316 	blt	zero,r2,3388 <___svfprintf_internal_r+0x1e50>
    337c:	d8800717 	ldw	r2,28(sp)
    3380:	a8abc83a 	sub	r21,r21,r2
    3384:	ad400044 	addi	r21,r21,1
    3388:	a829883a 	mov	r20,r21
    338c:	a8002016 	blt	r21,zero,3410 <___svfprintf_internal_r+0x1ed8>
    3390:	070019c4 	movi	fp,103
    3394:	003e6106 	br	2d1c <___svfprintf_internal_r+0x17e4>
    3398:	6080004c 	andi	r2,r12,1
    339c:	d8800715 	stw	r2,28(sp)
    33a0:	103f3e1e 	bne	r2,zero,309c <___svfprintf_internal_r+0x1b64>
    33a4:	a829883a 	mov	r20,r21
    33a8:	a83e5c0e 	bge	r21,zero,2d1c <___svfprintf_internal_r+0x17e4>
    33ac:	0029883a 	mov	r20,zero
    33b0:	003e5a06 	br	2d1c <___svfprintf_internal_r+0x17e4>
    33b4:	d9000917 	ldw	r4,36(sp)
    33b8:	000d883a 	mov	r6,zero
    33bc:	000f883a 	mov	r7,zero
    33c0:	a00b883a 	mov	r5,r20
    33c4:	d8c01115 	stw	r3,68(sp)
    33c8:	da000815 	stw	r8,32(sp)
    33cc:	db000715 	stw	r12,28(sp)
    33d0:	000fae40 	call	fae4 <__eqdf2>
    33d4:	db000717 	ldw	r12,28(sp)
    33d8:	da000817 	ldw	r8,32(sp)
    33dc:	d8c01117 	ldw	r3,68(sp)
    33e0:	103eca26 	beq	r2,zero,2f0c <___svfprintf_internal_r+0x19d4>
    33e4:	00800044 	movi	r2,1
    33e8:	1205c83a 	sub	r2,r2,r8
    33ec:	d8801415 	stw	r2,80(sp)
    33f0:	003ec706 	br	2f10 <___svfprintf_internal_r+0x19d8>
    33f4:	00bfffc4 	movi	r2,-1
    33f8:	d8800515 	stw	r2,20(sp)
    33fc:	00395006 	br	1940 <___svfprintf_internal_r+0x408>
    3400:	d8c00c17 	ldw	r3,48(sp)
    3404:	10eb883a 	add	r21,r2,r3
    3408:	a829883a 	mov	r20,r21
    340c:	a83fe00e 	bge	r21,zero,3390 <___svfprintf_internal_r+0x1e58>
    3410:	0029883a 	mov	r20,zero
    3414:	003fde06 	br	3390 <___svfprintf_internal_r+0x1e58>
    3418:	d8800a17 	ldw	r2,40(sp)
    341c:	10001416 	blt	r2,zero,3470 <___svfprintf_internal_r+0x1f38>
    3420:	db401343 	ldbu	r13,77(sp)
    3424:	e0801210 	cmplti	r2,fp,72
    3428:	10000e1e 	bne	r2,zero,3464 <___svfprintf_internal_r+0x1f2c>
    342c:	044000b4 	movhi	r17,2
    3430:	8c704f04 	addi	r17,r17,-16068
    3434:	0039bd06 	br	1b2c <___svfprintf_internal_r+0x5f4>
    3438:	d8800717 	ldw	r2,28(sp)
    343c:	d8c00c17 	ldw	r3,48(sp)
    3440:	10eb883a 	add	r21,r2,r3
    3444:	aa2b883a 	add	r21,r21,r8
    3448:	003fd606 	br	33a4 <___svfprintf_internal_r+0x1e6c>
    344c:	d8800c17 	ldw	r2,48(sp)
    3450:	15400044 	addi	r21,r2,1
    3454:	aa2b883a 	add	r21,r21,r8
    3458:	003fd206 	br	33a4 <___svfprintf_internal_r+0x1e6c>
    345c:	8025883a 	mov	r18,r16
    3460:	00393406 	br	1934 <___svfprintf_internal_r+0x3fc>
    3464:	044000b4 	movhi	r17,2
    3468:	8c704e04 	addi	r17,r17,-16072
    346c:	0039af06 	br	1b2c <___svfprintf_internal_r+0x5f4>
    3470:	00800b44 	movi	r2,45
    3474:	d8801345 	stb	r2,77(sp)
    3478:	03400b44 	movi	r13,45
    347c:	003fe906 	br	3424 <___svfprintf_internal_r+0x1eec>
    3480:	d8800617 	ldw	r2,24(sp)
    3484:	12000017 	ldw	r8,0(r2)
    3488:	10800104 	addi	r2,r2,4
    348c:	4000010e 	bge	r8,zero,3494 <___svfprintf_internal_r+0x1f5c>
    3490:	023fffc4 	movi	r8,-1
    3494:	bf000043 	ldbu	fp,1(r23)
    3498:	d8800615 	stw	r2,24(sp)
    349c:	182f883a 	mov	r23,r3
    34a0:	e2c03fcc 	andi	r11,fp,255
    34a4:	5ac0201c 	xori	r11,r11,128
    34a8:	5affe004 	addi	r11,r11,-128
    34ac:	00386006 	br	1630 <___svfprintf_internal_r+0xf8>
    34b0:	00800084 	movi	r2,2
    34b4:	d8801015 	stw	r2,64(sp)
    34b8:	003ef306 	br	3088 <___svfprintf_internal_r+0x1b50>
    34bc:	00800304 	movi	r2,12
    34c0:	98800015 	stw	r2,0(r19)
    34c4:	00bfffc4 	movi	r2,-1
    34c8:	d8800515 	stw	r2,20(sp)
    34cc:	00391c06 	br	1940 <___svfprintf_internal_r+0x408>

000034d0 <___vfprintf_internal_r>:
    34d0:	deffbf04 	addi	sp,sp,-260
    34d4:	dfc04015 	stw	ra,256(sp)
    34d8:	dd803d15 	stw	r22,244(sp)
    34dc:	dcc03a15 	stw	r19,232(sp)
    34e0:	dc803915 	stw	r18,228(sp)
    34e4:	2027883a 	mov	r19,r4
    34e8:	2825883a 	mov	r18,r5
    34ec:	302d883a 	mov	r22,r6
    34f0:	d9c00615 	stw	r7,24(sp)
    34f4:	df003f15 	stw	fp,252(sp)
    34f8:	ddc03e15 	stw	r23,248(sp)
    34fc:	dd403c15 	stw	r21,240(sp)
    3500:	dd003b15 	stw	r20,236(sp)
    3504:	dc403815 	stw	r17,224(sp)
    3508:	dc003715 	stw	r16,220(sp)
    350c:	0007c680 	call	7c68 <_localeconv_r>
    3510:	10800017 	ldw	r2,0(r2)
    3514:	1009883a 	mov	r4,r2
    3518:	d8800d15 	stw	r2,52(sp)
    351c:	00014a00 	call	14a0 <strlen>
    3520:	d8800b15 	stw	r2,44(sp)
    3524:	98000226 	beq	r19,zero,3530 <___vfprintf_internal_r+0x60>
    3528:	98800e17 	ldw	r2,56(r19)
    352c:	1001de26 	beq	r2,zero,3ca8 <___vfprintf_internal_r+0x7d8>
    3530:	9080030b 	ldhu	r2,12(r18)
    3534:	10c8000c 	andi	r3,r2,8192
    3538:	1800061e 	bne	r3,zero,3554 <___vfprintf_internal_r+0x84>
    353c:	90c01917 	ldw	r3,100(r18)
    3540:	0137ffc4 	movi	r4,-8193
    3544:	10880014 	ori	r2,r2,8192
    3548:	1906703a 	and	r3,r3,r4
    354c:	9080030d 	sth	r2,12(r18)
    3550:	90c01915 	stw	r3,100(r18)
    3554:	10c0020c 	andi	r3,r2,8
    3558:	1800fa26 	beq	r3,zero,3944 <___vfprintf_internal_r+0x474>
    355c:	90c00417 	ldw	r3,16(r18)
    3560:	1800f826 	beq	r3,zero,3944 <___vfprintf_internal_r+0x474>
    3564:	1080068c 	andi	r2,r2,26
    3568:	10800298 	cmpnei	r2,r2,10
    356c:	1000fd26 	beq	r2,zero,3964 <___vfprintf_internal_r+0x494>
    3570:	d8802704 	addi	r2,sp,156
    3574:	b02f883a 	mov	r23,r22
    3578:	d8801a15 	stw	r2,104(sp)
    357c:	d8001c15 	stw	zero,112(sp)
    3580:	d8001b15 	stw	zero,108(sp)
    3584:	d8000815 	stw	zero,32(sp)
    3588:	d8000915 	stw	zero,36(sp)
    358c:	d8000a15 	stw	zero,40(sp)
    3590:	d8000c15 	stw	zero,48(sp)
    3594:	d8001015 	stw	zero,64(sp)
    3598:	d8000515 	stw	zero,20(sp)
    359c:	102d883a 	mov	r22,r2
    35a0:	b8800007 	ldb	r2,0(r23)
    35a4:	1000d526 	beq	r2,zero,38fc <___vfprintf_internal_r+0x42c>
    35a8:	b821883a 	mov	r16,r23
    35ac:	00000306 	br	35bc <___vfprintf_internal_r+0xec>
    35b0:	80800047 	ldb	r2,1(r16)
    35b4:	84000044 	addi	r16,r16,1
    35b8:	10012026 	beq	r2,zero,3a3c <___vfprintf_internal_r+0x56c>
    35bc:	10800958 	cmpnei	r2,r2,37
    35c0:	103ffb1e 	bne	r2,zero,35b0 <___vfprintf_internal_r+0xe0>
    35c4:	85e3c83a 	sub	r17,r16,r23
    35c8:	85c11e1e 	bne	r16,r23,3a44 <___vfprintf_internal_r+0x574>
    35cc:	80800003 	ldbu	r2,0(r16)
    35d0:	10803fcc 	andi	r2,r2,255
    35d4:	1080201c 	xori	r2,r2,128
    35d8:	10bfe004 	addi	r2,r2,-128
    35dc:	1000c726 	beq	r2,zero,38fc <___vfprintf_internal_r+0x42c>
    35e0:	82c00047 	ldb	r11,1(r16)
    35e4:	85c00044 	addi	r23,r16,1
    35e8:	d8001345 	stb	zero,77(sp)
    35ec:	0009883a 	mov	r4,zero
    35f0:	000b883a 	mov	r5,zero
    35f4:	023fffc4 	movi	r8,-1
    35f8:	0021883a 	mov	r16,zero
    35fc:	0019883a 	mov	r12,zero
    3600:	bdc00044 	addi	r23,r23,1
    3604:	5839883a 	mov	fp,r11
    3608:	e0bff804 	addi	r2,fp,-32
    360c:	10c01668 	cmpgeui	r3,r2,89
    3610:	18006a1e 	bne	r3,zero,37bc <___vfprintf_internal_r+0x2ec>
    3614:	100490ba 	slli	r2,r2,2
    3618:	00c00034 	movhi	r3,0
    361c:	10c7883a 	add	r3,r2,r3
    3620:	188d8a17 	ldw	r2,13864(r3)
    3624:	1000683a 	jmp	r2
    3628:	00003ec8 	cmpgei	zero,zero,251
    362c:	000037bc 	xorhi	zero,zero,222
    3630:	000037bc 	xorhi	zero,zero,222
    3634:	00003ebc 	xorhi	zero,zero,250
    3638:	000037bc 	xorhi	zero,zero,222
    363c:	000037bc 	xorhi	zero,zero,222
    3640:	000037bc 	xorhi	zero,zero,222
    3644:	000037bc 	xorhi	zero,zero,222
    3648:	000037bc 	xorhi	zero,zero,222
    364c:	000037bc 	xorhi	zero,zero,222
    3650:	00003d4c 	andi	zero,zero,245
    3654:	00003eac 	andhi	zero,zero,250
    3658:	000037bc 	xorhi	zero,zero,222
    365c:	00003d64 	muli	zero,zero,245
    3660:	00003d70 	cmpltui	zero,zero,245
    3664:	000037bc 	xorhi	zero,zero,222
    3668:	00003ea0 	cmpeqi	zero,zero,250
    366c:	0000378c 	andi	zero,zero,222
    3670:	0000378c 	andi	zero,zero,222
    3674:	0000378c 	andi	zero,zero,222
    3678:	0000378c 	andi	zero,zero,222
    367c:	0000378c 	andi	zero,zero,222
    3680:	0000378c 	andi	zero,zero,222
    3684:	0000378c 	andi	zero,zero,222
    3688:	0000378c 	andi	zero,zero,222
    368c:	0000378c 	andi	zero,zero,222
    3690:	000037bc 	xorhi	zero,zero,222
    3694:	000037bc 	xorhi	zero,zero,222
    3698:	000037bc 	xorhi	zero,zero,222
    369c:	000037bc 	xorhi	zero,zero,222
    36a0:	000037bc 	xorhi	zero,zero,222
    36a4:	000037bc 	xorhi	zero,zero,222
    36a8:	000037bc 	xorhi	zero,zero,222
    36ac:	000037bc 	xorhi	zero,zero,222
    36b0:	000037bc 	xorhi	zero,zero,222
    36b4:	000037bc 	xorhi	zero,zero,222
    36b8:	00003db4 	movhi	zero,246
    36bc:	00003aa0 	cmpeqi	zero,zero,234
    36c0:	000037bc 	xorhi	zero,zero,222
    36c4:	00003aa0 	cmpeqi	zero,zero,234
    36c8:	000037bc 	xorhi	zero,zero,222
    36cc:	000037bc 	xorhi	zero,zero,222
    36d0:	000037bc 	xorhi	zero,zero,222
    36d4:	000037bc 	xorhi	zero,zero,222
    36d8:	00004048 	cmpgei	zero,zero,257
    36dc:	000037bc 	xorhi	zero,zero,222
    36e0:	000037bc 	xorhi	zero,zero,222
    36e4:	000039d4 	movui	zero,231
    36e8:	000037bc 	xorhi	zero,zero,222
    36ec:	000037bc 	xorhi	zero,zero,222
    36f0:	000037bc 	xorhi	zero,zero,222
    36f4:	000037bc 	xorhi	zero,zero,222
    36f8:	000037bc 	xorhi	zero,zero,222
    36fc:	000039ac 	andhi	zero,zero,230
    3700:	000037bc 	xorhi	zero,zero,222
    3704:	000037bc 	xorhi	zero,zero,222
    3708:	00004088 	cmpgei	zero,zero,258
    370c:	000037bc 	xorhi	zero,zero,222
    3710:	000037bc 	xorhi	zero,zero,222
    3714:	000037bc 	xorhi	zero,zero,222
    3718:	000037bc 	xorhi	zero,zero,222
    371c:	000037bc 	xorhi	zero,zero,222
    3720:	000037bc 	xorhi	zero,zero,222
    3724:	000037bc 	xorhi	zero,zero,222
    3728:	000037bc 	xorhi	zero,zero,222
    372c:	000037bc 	xorhi	zero,zero,222
    3730:	000037bc 	xorhi	zero,zero,222
    3734:	00004060 	cmpeqi	zero,zero,257
    3738:	00003cb4 	movhi	zero,242
    373c:	00003aa0 	cmpeqi	zero,zero,234
    3740:	00003aa0 	cmpeqi	zero,zero,234
    3744:	00003aa0 	cmpeqi	zero,zero,234
    3748:	00004054 	movui	zero,257
    374c:	00003cb4 	movhi	zero,242
    3750:	000037bc 	xorhi	zero,zero,222
    3754:	000037bc 	xorhi	zero,zero,222
    3758:	00003ef4 	movhi	zero,251
    375c:	000037bc 	xorhi	zero,zero,222
    3760:	00004008 	cmpgei	zero,zero,256
    3764:	000039d8 	cmpnei	zero,zero,231
    3768:	00003fc8 	cmpgei	zero,zero,255
    376c:	00003fbc 	xorhi	zero,zero,254
    3770:	000037bc 	xorhi	zero,zero,222
    3774:	00003f64 	muli	zero,zero,253
    3778:	000037bc 	xorhi	zero,zero,222
    377c:	000039b0 	cmpltui	zero,zero,230
    3780:	000037bc 	xorhi	zero,zero,222
    3784:	000037bc 	xorhi	zero,zero,222
    3788:	00003f1c 	xori	zero,zero,252
    378c:	0021883a 	mov	r16,zero
    3790:	e0bff404 	addi	r2,fp,-48
    3794:	bf000007 	ldb	fp,0(r23)
    3798:	840002a4 	muli	r16,r16,10
    379c:	bdc00044 	addi	r23,r23,1
    37a0:	1421883a 	add	r16,r2,r16
    37a4:	e0bff404 	addi	r2,fp,-48
    37a8:	10c002b0 	cmpltui	r3,r2,10
    37ac:	183ff91e 	bne	r3,zero,3794 <___vfprintf_internal_r+0x2c4>
    37b0:	e0bff804 	addi	r2,fp,-32
    37b4:	10c01668 	cmpgeui	r3,r2,89
    37b8:	183f9626 	beq	r3,zero,3614 <___vfprintf_internal_r+0x144>
    37bc:	21003fcc 	andi	r4,r4,255
    37c0:	2006541e 	bne	r4,zero,5114 <___vfprintf_internal_r+0x1c44>
    37c4:	e0004d26 	beq	fp,zero,38fc <___vfprintf_internal_r+0x42c>
    37c8:	df001d05 	stb	fp,116(sp)
    37cc:	d8001345 	stb	zero,77(sp)
    37d0:	05000044 	movi	r20,1
    37d4:	05400044 	movi	r21,1
    37d8:	dc401d04 	addi	r17,sp,116
    37dc:	db000415 	stw	r12,16(sp)
    37e0:	0011883a 	mov	r8,zero
    37e4:	d8000715 	stw	zero,28(sp)
    37e8:	d8800417 	ldw	r2,16(sp)
    37ec:	1380008c 	andi	r14,r2,2
    37f0:	70000126 	beq	r14,zero,37f8 <___vfprintf_internal_r+0x328>
    37f4:	a5000084 	addi	r20,r20,2
    37f8:	d8800417 	ldw	r2,16(sp)
    37fc:	d8c01c17 	ldw	r3,112(sp)
    3800:	1340210c 	andi	r13,r2,132
    3804:	6800021e 	bne	r13,zero,3810 <___vfprintf_internal_r+0x340>
    3808:	850fc83a 	sub	r7,r16,r20
    380c:	01c36816 	blt	zero,r7,45b0 <___vfprintf_internal_r+0x10e0>
    3810:	d8801347 	ldb	r2,77(sp)
    3814:	10000c26 	beq	r2,zero,3848 <___vfprintf_internal_r+0x378>
    3818:	d8801b17 	ldw	r2,108(sp)
    381c:	d9001344 	addi	r4,sp,77
    3820:	18c00044 	addi	r3,r3,1
    3824:	10800044 	addi	r2,r2,1
    3828:	b1000015 	stw	r4,0(r22)
    382c:	01000044 	movi	r4,1
    3830:	d8801b15 	stw	r2,108(sp)
    3834:	b1000115 	stw	r4,4(r22)
    3838:	d8c01c15 	stw	r3,112(sp)
    383c:	10800208 	cmpgei	r2,r2,8
    3840:	10039c1e 	bne	r2,zero,46b4 <___vfprintf_internal_r+0x11e4>
    3844:	b5800204 	addi	r22,r22,8
    3848:	70000c26 	beq	r14,zero,387c <___vfprintf_internal_r+0x3ac>
    384c:	d8801b17 	ldw	r2,108(sp)
    3850:	d9001384 	addi	r4,sp,78
    3854:	18c00084 	addi	r3,r3,2
    3858:	10800044 	addi	r2,r2,1
    385c:	b1000015 	stw	r4,0(r22)
    3860:	01000084 	movi	r4,2
    3864:	d8801b15 	stw	r2,108(sp)
    3868:	b1000115 	stw	r4,4(r22)
    386c:	d8c01c15 	stw	r3,112(sp)
    3870:	10800208 	cmpgei	r2,r2,8
    3874:	10039d1e 	bne	r2,zero,46ec <___vfprintf_internal_r+0x121c>
    3878:	b5800204 	addi	r22,r22,8
    387c:	6b402018 	cmpnei	r13,r13,128
    3880:	68025926 	beq	r13,zero,41e8 <___vfprintf_internal_r+0xd18>
    3884:	4551c83a 	sub	r8,r8,r21
    3888:	02029116 	blt	zero,r8,42d0 <___vfprintf_internal_r+0xe00>
    388c:	d8800417 	ldw	r2,16(sp)
    3890:	1080400c 	andi	r2,r2,256
    3894:	10020e1e 	bne	r2,zero,40d0 <___vfprintf_internal_r+0xc00>
    3898:	d8801b17 	ldw	r2,108(sp)
    389c:	1d47883a 	add	r3,r3,r21
    38a0:	b4400015 	stw	r17,0(r22)
    38a4:	10800044 	addi	r2,r2,1
    38a8:	b5400115 	stw	r21,4(r22)
    38ac:	d8801b15 	stw	r2,108(sp)
    38b0:	d8c01c15 	stw	r3,112(sp)
    38b4:	10800208 	cmpgei	r2,r2,8
    38b8:	1002fa1e 	bne	r2,zero,44a4 <___vfprintf_internal_r+0xfd4>
    38bc:	b5800204 	addi	r22,r22,8
    38c0:	d8800417 	ldw	r2,16(sp)
    38c4:	1440010c 	andi	r17,r2,4
    38c8:	88000226 	beq	r17,zero,38d4 <___vfprintf_internal_r+0x404>
    38cc:	8523c83a 	sub	r17,r16,r20
    38d0:	0440c616 	blt	zero,r17,3bec <___vfprintf_internal_r+0x71c>
    38d4:	8500010e 	bge	r16,r20,38dc <___vfprintf_internal_r+0x40c>
    38d8:	a021883a 	mov	r16,r20
    38dc:	d8800517 	ldw	r2,20(sp)
    38e0:	1405883a 	add	r2,r2,r16
    38e4:	d8800515 	stw	r2,20(sp)
    38e8:	1802c01e 	bne	r3,zero,43ec <___vfprintf_internal_r+0xf1c>
    38ec:	b8800007 	ldb	r2,0(r23)
    38f0:	d8001b15 	stw	zero,108(sp)
    38f4:	dd802704 	addi	r22,sp,156
    38f8:	103f2b1e 	bne	r2,zero,35a8 <___vfprintf_internal_r+0xd8>
    38fc:	d8801c17 	ldw	r2,112(sp)
    3900:	1005ff1e 	bne	r2,zero,5100 <___vfprintf_internal_r+0x1c30>
    3904:	9080030b 	ldhu	r2,12(r18)
    3908:	1080100c 	andi	r2,r2,64
    390c:	1006971e 	bne	r2,zero,536c <___vfprintf_internal_r+0x1e9c>
    3910:	d8800517 	ldw	r2,20(sp)
    3914:	dfc04017 	ldw	ra,256(sp)
    3918:	df003f17 	ldw	fp,252(sp)
    391c:	ddc03e17 	ldw	r23,248(sp)
    3920:	dd803d17 	ldw	r22,244(sp)
    3924:	dd403c17 	ldw	r21,240(sp)
    3928:	dd003b17 	ldw	r20,236(sp)
    392c:	dcc03a17 	ldw	r19,232(sp)
    3930:	dc803917 	ldw	r18,228(sp)
    3934:	dc403817 	ldw	r17,224(sp)
    3938:	dc003717 	ldw	r16,220(sp)
    393c:	dec04104 	addi	sp,sp,260
    3940:	f800283a 	ret
    3944:	900b883a 	mov	r5,r18
    3948:	9809883a 	mov	r4,r19
    394c:	00055bc0 	call	55bc <__swsetup_r>
    3950:	1006861e 	bne	r2,zero,536c <___vfprintf_internal_r+0x1e9c>
    3954:	9080030b 	ldhu	r2,12(r18)
    3958:	1080068c 	andi	r2,r2,26
    395c:	10800298 	cmpnei	r2,r2,10
    3960:	103f031e 	bne	r2,zero,3570 <___vfprintf_internal_r+0xa0>
    3964:	9080038f 	ldh	r2,14(r18)
    3968:	103f0116 	blt	r2,zero,3570 <___vfprintf_internal_r+0xa0>
    396c:	d9c00617 	ldw	r7,24(sp)
    3970:	b00d883a 	mov	r6,r22
    3974:	900b883a 	mov	r5,r18
    3978:	9809883a 	mov	r4,r19
    397c:	dfc04017 	ldw	ra,256(sp)
    3980:	df003f17 	ldw	fp,252(sp)
    3984:	ddc03e17 	ldw	r23,248(sp)
    3988:	dd803d17 	ldw	r22,244(sp)
    398c:	dd403c17 	ldw	r21,240(sp)
    3990:	dd003b17 	ldw	r20,236(sp)
    3994:	dcc03a17 	ldw	r19,232(sp)
    3998:	dc803917 	ldw	r18,228(sp)
    399c:	dc403817 	ldw	r17,224(sp)
    39a0:	dc003717 	ldw	r16,220(sp)
    39a4:	dec04104 	addi	sp,sp,260
    39a8:	00054fc1 	jmpi	54fc <__sbprintf>
    39ac:	63000414 	ori	r12,r12,16
    39b0:	6080080c 	andi	r2,r12,32
    39b4:	10008126 	beq	r2,zero,3bbc <___vfprintf_internal_r+0x6ec>
    39b8:	d8c00617 	ldw	r3,24(sp)
    39bc:	00800044 	movi	r2,1
    39c0:	1d000017 	ldw	r20,0(r3)
    39c4:	1d400117 	ldw	r21,4(r3)
    39c8:	18c00204 	addi	r3,r3,8
    39cc:	d8c00615 	stw	r3,24(sp)
    39d0:	00000906 	br	39f8 <___vfprintf_internal_r+0x528>
    39d4:	63000414 	ori	r12,r12,16
    39d8:	6080080c 	andi	r2,r12,32
    39dc:	10006b26 	beq	r2,zero,3b8c <___vfprintf_internal_r+0x6bc>
    39e0:	d8c00617 	ldw	r3,24(sp)
    39e4:	0005883a 	mov	r2,zero
    39e8:	1d000017 	ldw	r20,0(r3)
    39ec:	1d400117 	ldw	r21,4(r3)
    39f0:	18c00204 	addi	r3,r3,8
    39f4:	d8c00615 	stw	r3,24(sp)
    39f8:	001b883a 	mov	r13,zero
    39fc:	db401345 	stb	r13,77(sp)
    3a00:	40ffffe0 	cmpeqi	r3,r8,-1
    3a04:	1801071e 	bne	r3,zero,3e24 <___vfprintf_internal_r+0x954>
    3a08:	047fdfc4 	movi	r17,-129
    3a0c:	6448703a 	and	r4,r12,r17
    3a10:	a546b03a 	or	r3,r20,r21
    3a14:	d9000415 	stw	r4,16(sp)
    3a18:	1802e31e 	bne	r3,zero,45a8 <___vfprintf_internal_r+0x10d8>
    3a1c:	40025d1e 	bne	r8,zero,4394 <___vfprintf_internal_r+0xec4>
    3a20:	1003ab1e 	bne	r2,zero,48d0 <___vfprintf_internal_r+0x1400>
    3a24:	6540004c 	andi	r21,r12,1
    3a28:	a803e326 	beq	r21,zero,49b8 <___vfprintf_internal_r+0x14e8>
    3a2c:	00800c04 	movi	r2,48
    3a30:	d88026c5 	stb	r2,155(sp)
    3a34:	dc4026c4 	addi	r17,sp,155
    3a38:	0000ba06 	br	3d24 <___vfprintf_internal_r+0x854>
    3a3c:	85e3c83a 	sub	r17,r16,r23
    3a40:	85ffae26 	beq	r16,r23,38fc <___vfprintf_internal_r+0x42c>
    3a44:	d8c01c17 	ldw	r3,112(sp)
    3a48:	d8801b17 	ldw	r2,108(sp)
    3a4c:	b5c00015 	stw	r23,0(r22)
    3a50:	1c47883a 	add	r3,r3,r17
    3a54:	10800044 	addi	r2,r2,1
    3a58:	d8801b15 	stw	r2,108(sp)
    3a5c:	b4400115 	stw	r17,4(r22)
    3a60:	d8c01c15 	stw	r3,112(sp)
    3a64:	10800208 	cmpgei	r2,r2,8
    3a68:	1000061e 	bne	r2,zero,3a84 <___vfprintf_internal_r+0x5b4>
    3a6c:	b5800204 	addi	r22,r22,8
    3a70:	d8c00517 	ldw	r3,20(sp)
    3a74:	80800003 	ldbu	r2,0(r16)
    3a78:	1c47883a 	add	r3,r3,r17
    3a7c:	d8c00515 	stw	r3,20(sp)
    3a80:	003ed306 	br	35d0 <___vfprintf_internal_r+0x100>
    3a84:	d9801a04 	addi	r6,sp,104
    3a88:	900b883a 	mov	r5,r18
    3a8c:	9809883a 	mov	r4,r19
    3a90:	000aef00 	call	aef0 <__sprint_r>
    3a94:	103f9b1e 	bne	r2,zero,3904 <___vfprintf_internal_r+0x434>
    3a98:	dd802704 	addi	r22,sp,156
    3a9c:	003ff406 	br	3a70 <___vfprintf_internal_r+0x5a0>
    3aa0:	21003fcc 	andi	r4,r4,255
    3aa4:	2006201e 	bne	r4,zero,5328 <___vfprintf_internal_r+0x1e58>
    3aa8:	d8c00617 	ldw	r3,24(sp)
    3aac:	6080020c 	andi	r2,r12,8
    3ab0:	19000204 	addi	r4,r3,8
    3ab4:	d9000e15 	stw	r4,56(sp)
    3ab8:	1003c11e 	bne	r2,zero,49c0 <___vfprintf_internal_r+0x14f0>
    3abc:	d8800617 	ldw	r2,24(sp)
    3ac0:	10c00017 	ldw	r3,0(r2)
    3ac4:	10800117 	ldw	r2,4(r2)
    3ac8:	d8c00915 	stw	r3,36(sp)
    3acc:	d8800a15 	stw	r2,40(sp)
    3ad0:	dd400a17 	ldw	r21,40(sp)
    3ad4:	dd000917 	ldw	r20,36(sp)
    3ad8:	00a00034 	movhi	r2,32768
    3adc:	10bfffc4 	addi	r2,r2,-1
    3ae0:	a8a2703a 	and	r17,r21,r2
    3ae4:	01dffc34 	movhi	r7,32752
    3ae8:	01bfffc4 	movi	r6,-1
    3aec:	39ffffc4 	addi	r7,r7,-1
    3af0:	a009883a 	mov	r4,r20
    3af4:	880b883a 	mov	r5,r17
    3af8:	da000615 	stw	r8,24(sp)
    3afc:	db000415 	stw	r12,16(sp)
    3b00:	0010d1c0 	call	10d1c <__unorddf2>
    3b04:	db000417 	ldw	r12,16(sp)
    3b08:	da000617 	ldw	r8,24(sp)
    3b0c:	10044b1e 	bne	r2,zero,4c3c <___vfprintf_internal_r+0x176c>
    3b10:	01dffc34 	movhi	r7,32752
    3b14:	01bfffc4 	movi	r6,-1
    3b18:	39ffffc4 	addi	r7,r7,-1
    3b1c:	a009883a 	mov	r4,r20
    3b20:	880b883a 	mov	r5,r17
    3b24:	000fc4c0 	call	fc4c <__ledf2>
    3b28:	db000417 	ldw	r12,16(sp)
    3b2c:	da000617 	ldw	r8,24(sp)
    3b30:	0084420e 	bge	zero,r2,4c3c <___vfprintf_internal_r+0x176c>
    3b34:	000d883a 	mov	r6,zero
    3b38:	000f883a 	mov	r7,zero
    3b3c:	a009883a 	mov	r4,r20
    3b40:	a80b883a 	mov	r5,r21
    3b44:	000fc4c0 	call	fc4c <__ledf2>
    3b48:	db000417 	ldw	r12,16(sp)
    3b4c:	10055916 	blt	r2,zero,50b4 <___vfprintf_internal_r+0x1be4>
    3b50:	db401343 	ldbu	r13,77(sp)
    3b54:	e0801210 	cmplti	r2,fp,72
    3b58:	1005471e 	bne	r2,zero,5078 <___vfprintf_internal_r+0x1ba8>
    3b5c:	044000b4 	movhi	r17,2
    3b60:	8c704d04 	addi	r17,r17,-16076
    3b64:	00bfdfc4 	movi	r2,-129
    3b68:	6084703a 	and	r2,r12,r2
    3b6c:	d8800415 	stw	r2,16(sp)
    3b70:	d8800e17 	ldw	r2,56(sp)
    3b74:	050000c4 	movi	r20,3
    3b78:	054000c4 	movi	r21,3
    3b7c:	d8800615 	stw	r2,24(sp)
    3b80:	0011883a 	mov	r8,zero
    3b84:	d8000715 	stw	zero,28(sp)
    3b88:	00006a06 	br	3d34 <___vfprintf_internal_r+0x864>
    3b8c:	d8c00617 	ldw	r3,24(sp)
    3b90:	6080040c 	andi	r2,r12,16
    3b94:	1d000017 	ldw	r20,0(r3)
    3b98:	18c00104 	addi	r3,r3,4
    3b9c:	1000031e 	bne	r2,zero,3bac <___vfprintf_internal_r+0x6dc>
    3ba0:	6080100c 	andi	r2,r12,64
    3ba4:	10000126 	beq	r2,zero,3bac <___vfprintf_internal_r+0x6dc>
    3ba8:	a53fffcc 	andi	r20,r20,65535
    3bac:	002b883a 	mov	r21,zero
    3bb0:	d8c00615 	stw	r3,24(sp)
    3bb4:	0005883a 	mov	r2,zero
    3bb8:	003f8f06 	br	39f8 <___vfprintf_internal_r+0x528>
    3bbc:	d8c00617 	ldw	r3,24(sp)
    3bc0:	6080040c 	andi	r2,r12,16
    3bc4:	1d000017 	ldw	r20,0(r3)
    3bc8:	18c00104 	addi	r3,r3,4
    3bcc:	1000031e 	bne	r2,zero,3bdc <___vfprintf_internal_r+0x70c>
    3bd0:	6080100c 	andi	r2,r12,64
    3bd4:	10000126 	beq	r2,zero,3bdc <___vfprintf_internal_r+0x70c>
    3bd8:	a53fffcc 	andi	r20,r20,65535
    3bdc:	002b883a 	mov	r21,zero
    3be0:	d8c00615 	stw	r3,24(sp)
    3be4:	00800044 	movi	r2,1
    3be8:	003f8306 	br	39f8 <___vfprintf_internal_r+0x528>
    3bec:	030000b4 	movhi	r12,2
    3bf0:	89000450 	cmplti	r4,r17,17
    3bf4:	d8801b17 	ldw	r2,108(sp)
    3bf8:	63306904 	addi	r12,r12,-15964
    3bfc:	20001b1e 	bne	r4,zero,3c6c <___vfprintf_internal_r+0x79c>
    3c00:	05400404 	movi	r21,16
    3c04:	6039883a 	mov	fp,r12
    3c08:	00000406 	br	3c1c <___vfprintf_internal_r+0x74c>
    3c0c:	8c7ffc04 	addi	r17,r17,-16
    3c10:	89000448 	cmpgei	r4,r17,17
    3c14:	b5800204 	addi	r22,r22,8
    3c18:	20001326 	beq	r4,zero,3c68 <___vfprintf_internal_r+0x798>
    3c1c:	10800044 	addi	r2,r2,1
    3c20:	18c00404 	addi	r3,r3,16
    3c24:	b7000015 	stw	fp,0(r22)
    3c28:	b5400115 	stw	r21,4(r22)
    3c2c:	d8c01c15 	stw	r3,112(sp)
    3c30:	d8801b15 	stw	r2,108(sp)
    3c34:	11000208 	cmpgei	r4,r2,8
    3c38:	203ff426 	beq	r4,zero,3c0c <___vfprintf_internal_r+0x73c>
    3c3c:	d9801a04 	addi	r6,sp,104
    3c40:	900b883a 	mov	r5,r18
    3c44:	9809883a 	mov	r4,r19
    3c48:	000aef00 	call	aef0 <__sprint_r>
    3c4c:	103f2d1e 	bne	r2,zero,3904 <___vfprintf_internal_r+0x434>
    3c50:	8c7ffc04 	addi	r17,r17,-16
    3c54:	89000448 	cmpgei	r4,r17,17
    3c58:	d8c01c17 	ldw	r3,112(sp)
    3c5c:	d8801b17 	ldw	r2,108(sp)
    3c60:	dd802704 	addi	r22,sp,156
    3c64:	203fed1e 	bne	r4,zero,3c1c <___vfprintf_internal_r+0x74c>
    3c68:	e019883a 	mov	r12,fp
    3c6c:	10800044 	addi	r2,r2,1
    3c70:	1c47883a 	add	r3,r3,r17
    3c74:	d8801b15 	stw	r2,108(sp)
    3c78:	b3000015 	stw	r12,0(r22)
    3c7c:	b4400115 	stw	r17,4(r22)
    3c80:	d8c01c15 	stw	r3,112(sp)
    3c84:	10800210 	cmplti	r2,r2,8
    3c88:	103f121e 	bne	r2,zero,38d4 <___vfprintf_internal_r+0x404>
    3c8c:	d9801a04 	addi	r6,sp,104
    3c90:	900b883a 	mov	r5,r18
    3c94:	9809883a 	mov	r4,r19
    3c98:	000aef00 	call	aef0 <__sprint_r>
    3c9c:	103f191e 	bne	r2,zero,3904 <___vfprintf_internal_r+0x434>
    3ca0:	d8c01c17 	ldw	r3,112(sp)
    3ca4:	003f0b06 	br	38d4 <___vfprintf_internal_r+0x404>
    3ca8:	9809883a 	mov	r4,r19
    3cac:	00076c00 	call	76c0 <__sinit>
    3cb0:	003e1f06 	br	3530 <___vfprintf_internal_r+0x60>
    3cb4:	21003fcc 	andi	r4,r4,255
    3cb8:	20059d1e 	bne	r4,zero,5330 <___vfprintf_internal_r+0x1e60>
    3cbc:	6080080c 	andi	r2,r12,32
    3cc0:	10004126 	beq	r2,zero,3dc8 <___vfprintf_internal_r+0x8f8>
    3cc4:	d8c00617 	ldw	r3,24(sp)
    3cc8:	18800117 	ldw	r2,4(r3)
    3ccc:	1d000017 	ldw	r20,0(r3)
    3cd0:	18c00204 	addi	r3,r3,8
    3cd4:	d8c00615 	stw	r3,24(sp)
    3cd8:	102b883a 	mov	r21,r2
    3cdc:	10004816 	blt	r2,zero,3e00 <___vfprintf_internal_r+0x930>
    3ce0:	40bfffd8 	cmpnei	r2,r8,-1
    3ce4:	db401343 	ldbu	r13,77(sp)
    3ce8:	10000626 	beq	r2,zero,3d04 <___vfprintf_internal_r+0x834>
    3cec:	047fdfc4 	movi	r17,-129
    3cf0:	6446703a 	and	r3,r12,r17
    3cf4:	a544b03a 	or	r2,r20,r21
    3cf8:	d8c00415 	stw	r3,16(sp)
    3cfc:	1002f326 	beq	r2,zero,48cc <___vfprintf_internal_r+0x13fc>
    3d00:	db000417 	ldw	r12,16(sp)
    3d04:	a8037d1e 	bne	r21,zero,4afc <___vfprintf_internal_r+0x162c>
    3d08:	a08002a8 	cmpgeui	r2,r20,10
    3d0c:	10037b1e 	bne	r2,zero,4afc <___vfprintf_internal_r+0x162c>
    3d10:	a5000c04 	addi	r20,r20,48
    3d14:	dd0026c5 	stb	r20,155(sp)
    3d18:	db000415 	stw	r12,16(sp)
    3d1c:	05400044 	movi	r21,1
    3d20:	dc4026c4 	addi	r17,sp,155
    3d24:	a829883a 	mov	r20,r21
    3d28:	aa00010e 	bge	r21,r8,3d30 <___vfprintf_internal_r+0x860>
    3d2c:	4029883a 	mov	r20,r8
    3d30:	d8000715 	stw	zero,28(sp)
    3d34:	6b403fcc 	andi	r13,r13,255
    3d38:	6b40201c 	xori	r13,r13,128
    3d3c:	6b7fe004 	addi	r13,r13,-128
    3d40:	683ea926 	beq	r13,zero,37e8 <___vfprintf_internal_r+0x318>
    3d44:	a5000044 	addi	r20,r20,1
    3d48:	003ea706 	br	37e8 <___vfprintf_internal_r+0x318>
    3d4c:	d8800617 	ldw	r2,24(sp)
    3d50:	14000017 	ldw	r16,0(r2)
    3d54:	10800104 	addi	r2,r2,4
    3d58:	8003140e 	bge	r16,zero,49ac <___vfprintf_internal_r+0x14dc>
    3d5c:	0421c83a 	sub	r16,zero,r16
    3d60:	d8800615 	stw	r2,24(sp)
    3d64:	bac00007 	ldb	r11,0(r23)
    3d68:	63000114 	ori	r12,r12,4
    3d6c:	003e2406 	br	3600 <___vfprintf_internal_r+0x130>
    3d70:	bf000007 	ldb	fp,0(r23)
    3d74:	b8c00044 	addi	r3,r23,1
    3d78:	e0800aa0 	cmpeqi	r2,fp,42
    3d7c:	1005c91e 	bne	r2,zero,54a4 <___vfprintf_internal_r+0x1fd4>
    3d80:	e0bff404 	addi	r2,fp,-48
    3d84:	118002b0 	cmpltui	r6,r2,10
    3d88:	182f883a 	mov	r23,r3
    3d8c:	0011883a 	mov	r8,zero
    3d90:	303e1d26 	beq	r6,zero,3608 <___vfprintf_internal_r+0x138>
    3d94:	bf000007 	ldb	fp,0(r23)
    3d98:	420002a4 	muli	r8,r8,10
    3d9c:	bdc00044 	addi	r23,r23,1
    3da0:	4091883a 	add	r8,r8,r2
    3da4:	e0bff404 	addi	r2,fp,-48
    3da8:	10c002b0 	cmpltui	r3,r2,10
    3dac:	183ff91e 	bne	r3,zero,3d94 <___vfprintf_internal_r+0x8c4>
    3db0:	003e1506 	br	3608 <___vfprintf_internal_r+0x138>
    3db4:	21003fcc 	andi	r4,r4,255
    3db8:	2005551e 	bne	r4,zero,5310 <___vfprintf_internal_r+0x1e40>
    3dbc:	63000414 	ori	r12,r12,16
    3dc0:	6080080c 	andi	r2,r12,32
    3dc4:	103fbf1e 	bne	r2,zero,3cc4 <___vfprintf_internal_r+0x7f4>
    3dc8:	d8c00617 	ldw	r3,24(sp)
    3dcc:	6080040c 	andi	r2,r12,16
    3dd0:	1d000017 	ldw	r20,0(r3)
    3dd4:	18c00104 	addi	r3,r3,4
    3dd8:	1002ea1e 	bne	r2,zero,4984 <___vfprintf_internal_r+0x14b4>
    3ddc:	6080100c 	andi	r2,r12,64
    3de0:	1002e826 	beq	r2,zero,4984 <___vfprintf_internal_r+0x14b4>
    3de4:	a53fffcc 	andi	r20,r20,65535
    3de8:	a520001c 	xori	r20,r20,32768
    3dec:	a5200004 	addi	r20,r20,-32768
    3df0:	a02bd7fa 	srai	r21,r20,31
    3df4:	d8c00615 	stw	r3,24(sp)
    3df8:	a805883a 	mov	r2,r21
    3dfc:	103fb80e 	bge	r2,zero,3ce0 <___vfprintf_internal_r+0x810>
    3e00:	03400b44 	movi	r13,45
    3e04:	a004c03a 	cmpne	r2,r20,zero
    3e08:	056bc83a 	sub	r21,zero,r21
    3e0c:	db401345 	stb	r13,77(sp)
    3e10:	40ffffe0 	cmpeqi	r3,r8,-1
    3e14:	a8abc83a 	sub	r21,r21,r2
    3e18:	0529c83a 	sub	r20,zero,r20
    3e1c:	00800044 	movi	r2,1
    3e20:	183ef926 	beq	r3,zero,3a08 <___vfprintf_internal_r+0x538>
    3e24:	10c00060 	cmpeqi	r3,r2,1
    3e28:	183fb61e 	bne	r3,zero,3d04 <___vfprintf_internal_r+0x834>
    3e2c:	108000a0 	cmpeqi	r2,r2,2
    3e30:	10015d1e 	bne	r2,zero,43a8 <___vfprintf_internal_r+0xed8>
    3e34:	dc402704 	addi	r17,sp,156
    3e38:	a006d0fa 	srli	r3,r20,3
    3e3c:	a808977a 	slli	r4,r21,29
    3e40:	a82ad0fa 	srli	r21,r21,3
    3e44:	a50001cc 	andi	r20,r20,7
    3e48:	a0800c04 	addi	r2,r20,48
    3e4c:	20e8b03a 	or	r20,r4,r3
    3e50:	88bfffc5 	stb	r2,-1(r17)
    3e54:	a546b03a 	or	r3,r20,r21
    3e58:	880b883a 	mov	r5,r17
    3e5c:	8c7fffc4 	addi	r17,r17,-1
    3e60:	183ff51e 	bne	r3,zero,3e38 <___vfprintf_internal_r+0x968>
    3e64:	60c0004c 	andi	r3,r12,1
    3e68:	18015c26 	beq	r3,zero,43dc <___vfprintf_internal_r+0xf0c>
    3e6c:	10803fcc 	andi	r2,r2,255
    3e70:	1080201c 	xori	r2,r2,128
    3e74:	10bfe004 	addi	r2,r2,-128
    3e78:	10800c18 	cmpnei	r2,r2,48
    3e7c:	10015726 	beq	r2,zero,43dc <___vfprintf_internal_r+0xf0c>
    3e80:	00800c04 	movi	r2,48
    3e84:	297fff84 	addi	r5,r5,-2
    3e88:	88bfffc5 	stb	r2,-1(r17)
    3e8c:	d8802704 	addi	r2,sp,156
    3e90:	116bc83a 	sub	r21,r2,r5
    3e94:	db000415 	stw	r12,16(sp)
    3e98:	2823883a 	mov	r17,r5
    3e9c:	003fa106 	br	3d24 <___vfprintf_internal_r+0x854>
    3ea0:	bac00007 	ldb	r11,0(r23)
    3ea4:	63002014 	ori	r12,r12,128
    3ea8:	003dd506 	br	3600 <___vfprintf_internal_r+0x130>
    3eac:	bac00007 	ldb	r11,0(r23)
    3eb0:	01000044 	movi	r4,1
    3eb4:	01400ac4 	movi	r5,43
    3eb8:	003dd106 	br	3600 <___vfprintf_internal_r+0x130>
    3ebc:	bac00007 	ldb	r11,0(r23)
    3ec0:	63000054 	ori	r12,r12,1
    3ec4:	003dce06 	br	3600 <___vfprintf_internal_r+0x130>
    3ec8:	28803fcc 	andi	r2,r5,255
    3ecc:	1080201c 	xori	r2,r2,128
    3ed0:	10bfe004 	addi	r2,r2,-128
    3ed4:	bf000003 	ldbu	fp,0(r23)
    3ed8:	10000c1e 	bne	r2,zero,3f0c <___vfprintf_internal_r+0xa3c>
    3edc:	e2c03fcc 	andi	r11,fp,255
    3ee0:	5ac0201c 	xori	r11,r11,128
    3ee4:	01000044 	movi	r4,1
    3ee8:	01400804 	movi	r5,32
    3eec:	5affe004 	addi	r11,r11,-128
    3ef0:	003dc306 	br	3600 <___vfprintf_internal_r+0x130>
    3ef4:	bac00007 	ldb	r11,0(r23)
    3ef8:	58801b18 	cmpnei	r2,r11,108
    3efc:	1002a91e 	bne	r2,zero,49a4 <___vfprintf_internal_r+0x14d4>
    3f00:	bf000043 	ldbu	fp,1(r23)
    3f04:	63000814 	ori	r12,r12,32
    3f08:	bdc00044 	addi	r23,r23,1
    3f0c:	e2c03fcc 	andi	r11,fp,255
    3f10:	5ac0201c 	xori	r11,r11,128
    3f14:	5affe004 	addi	r11,r11,-128
    3f18:	003db906 	br	3600 <___vfprintf_internal_r+0x130>
    3f1c:	21003fcc 	andi	r4,r4,255
    3f20:	2005051e 	bne	r4,zero,5338 <___vfprintf_internal_r+0x1e68>
    3f24:	008000b4 	movhi	r2,2
    3f28:	10b05504 	addi	r2,r2,-16044
    3f2c:	d8800c15 	stw	r2,48(sp)
    3f30:	6080080c 	andi	r2,r12,32
    3f34:	10005b26 	beq	r2,zero,40a4 <___vfprintf_internal_r+0xbd4>
    3f38:	d8800617 	ldw	r2,24(sp)
    3f3c:	15000017 	ldw	r20,0(r2)
    3f40:	15400117 	ldw	r21,4(r2)
    3f44:	10800204 	addi	r2,r2,8
    3f48:	d8800615 	stw	r2,24(sp)
    3f4c:	6080004c 	andi	r2,r12,1
    3f50:	10000226 	beq	r2,zero,3f5c <___vfprintf_internal_r+0xa8c>
    3f54:	a544b03a 	or	r2,r20,r21
    3f58:	10029e1e 	bne	r2,zero,49d4 <___vfprintf_internal_r+0x1504>
    3f5c:	00800084 	movi	r2,2
    3f60:	003ea506 	br	39f8 <___vfprintf_internal_r+0x528>
    3f64:	d8800617 	ldw	r2,24(sp)
    3f68:	d8001345 	stb	zero,77(sp)
    3f6c:	14400017 	ldw	r17,0(r2)
    3f70:	10c00104 	addi	r3,r2,4
    3f74:	8802bb26 	beq	r17,zero,4a64 <___vfprintf_internal_r+0x1594>
    3f78:	40bfffe0 	cmpeqi	r2,r8,-1
    3f7c:	1003c91e 	bne	r2,zero,4ea4 <___vfprintf_internal_r+0x19d4>
    3f80:	400d883a 	mov	r6,r8
    3f84:	000b883a 	mov	r5,zero
    3f88:	8809883a 	mov	r4,r17
    3f8c:	d8c00715 	stw	r3,28(sp)
    3f90:	db000615 	stw	r12,24(sp)
    3f94:	da000415 	stw	r8,16(sp)
    3f98:	00086a40 	call	86a4 <memchr>
    3f9c:	da000417 	ldw	r8,16(sp)
    3fa0:	db000617 	ldw	r12,24(sp)
    3fa4:	d8c00717 	ldw	r3,28(sp)
    3fa8:	1004d526 	beq	r2,zero,5300 <___vfprintf_internal_r+0x1e30>
    3fac:	146bc83a 	sub	r21,r2,r17
    3fb0:	a829883a 	mov	r20,r21
    3fb4:	d8c00615 	stw	r3,24(sp)
    3fb8:	003e0806 	br	37dc <___vfprintf_internal_r+0x30c>
    3fbc:	bac00007 	ldb	r11,0(r23)
    3fc0:	63000814 	ori	r12,r12,32
    3fc4:	003d8e06 	br	3600 <___vfprintf_internal_r+0x130>
    3fc8:	d8c00617 	ldw	r3,24(sp)
    3fcc:	00800c04 	movi	r2,48
    3fd0:	d8801385 	stb	r2,78(sp)
    3fd4:	00801e04 	movi	r2,120
    3fd8:	010000b4 	movhi	r4,2
    3fdc:	d88013c5 	stb	r2,79(sp)
    3fe0:	18800104 	addi	r2,r3,4
    3fe4:	d8800615 	stw	r2,24(sp)
    3fe8:	20b05504 	addi	r2,r4,-16044
    3fec:	d8800c15 	stw	r2,48(sp)
    3ff0:	1d000017 	ldw	r20,0(r3)
    3ff4:	002b883a 	mov	r21,zero
    3ff8:	63000094 	ori	r12,r12,2
    3ffc:	00800084 	movi	r2,2
    4000:	07001e04 	movi	fp,120
    4004:	003e7c06 	br	39f8 <___vfprintf_internal_r+0x528>
    4008:	21003fcc 	andi	r4,r4,255
    400c:	2004c41e 	bne	r4,zero,5320 <___vfprintf_internal_r+0x1e50>
    4010:	d9000617 	ldw	r4,24(sp)
    4014:	6080080c 	andi	r2,r12,32
    4018:	20c00104 	addi	r3,r4,4
    401c:	1002731e 	bne	r2,zero,49ec <___vfprintf_internal_r+0x151c>
    4020:	6080040c 	andi	r2,r12,16
    4024:	1002dd1e 	bne	r2,zero,4b9c <___vfprintf_internal_r+0x16cc>
    4028:	6300100c 	andi	r12,r12,64
    402c:	6002db26 	beq	r12,zero,4b9c <___vfprintf_internal_r+0x16cc>
    4030:	d8800617 	ldw	r2,24(sp)
    4034:	d8c00615 	stw	r3,24(sp)
    4038:	d8c00517 	ldw	r3,20(sp)
    403c:	10800017 	ldw	r2,0(r2)
    4040:	10c0000d 	sth	r3,0(r2)
    4044:	003d5606 	br	35a0 <___vfprintf_internal_r+0xd0>
    4048:	bac00007 	ldb	r11,0(r23)
    404c:	63000214 	ori	r12,r12,8
    4050:	003d6b06 	br	3600 <___vfprintf_internal_r+0x130>
    4054:	bac00007 	ldb	r11,0(r23)
    4058:	63001014 	ori	r12,r12,64
    405c:	003d6806 	br	3600 <___vfprintf_internal_r+0x130>
    4060:	d8c00617 	ldw	r3,24(sp)
    4064:	d8001345 	stb	zero,77(sp)
    4068:	05000044 	movi	r20,1
    406c:	18800017 	ldw	r2,0(r3)
    4070:	18c00104 	addi	r3,r3,4
    4074:	d8c00615 	stw	r3,24(sp)
    4078:	d8801d05 	stb	r2,116(sp)
    407c:	05400044 	movi	r21,1
    4080:	dc401d04 	addi	r17,sp,116
    4084:	003dd506 	br	37dc <___vfprintf_internal_r+0x30c>
    4088:	21003fcc 	andi	r4,r4,255
    408c:	2004a21e 	bne	r4,zero,5318 <___vfprintf_internal_r+0x1e48>
    4090:	008000b4 	movhi	r2,2
    4094:	10b05004 	addi	r2,r2,-16064
    4098:	d8800c15 	stw	r2,48(sp)
    409c:	6080080c 	andi	r2,r12,32
    40a0:	103fa51e 	bne	r2,zero,3f38 <___vfprintf_internal_r+0xa68>
    40a4:	d8c00617 	ldw	r3,24(sp)
    40a8:	6080040c 	andi	r2,r12,16
    40ac:	1d000017 	ldw	r20,0(r3)
    40b0:	18c00104 	addi	r3,r3,4
    40b4:	1002301e 	bne	r2,zero,4978 <___vfprintf_internal_r+0x14a8>
    40b8:	6080100c 	andi	r2,r12,64
    40bc:	10022e26 	beq	r2,zero,4978 <___vfprintf_internal_r+0x14a8>
    40c0:	a53fffcc 	andi	r20,r20,65535
    40c4:	002b883a 	mov	r21,zero
    40c8:	d8c00615 	stw	r3,24(sp)
    40cc:	003f9f06 	br	3f4c <___vfprintf_internal_r+0xa7c>
    40d0:	e2c01990 	cmplti	r11,fp,102
    40d4:	5800fb1e 	bne	r11,zero,44c4 <___vfprintf_internal_r+0xff4>
    40d8:	d9000917 	ldw	r4,36(sp)
    40dc:	d9400a17 	ldw	r5,40(sp)
    40e0:	000d883a 	mov	r6,zero
    40e4:	000f883a 	mov	r7,zero
    40e8:	d8c00e15 	stw	r3,56(sp)
    40ec:	000fae40 	call	fae4 <__eqdf2>
    40f0:	d8c00e17 	ldw	r3,56(sp)
    40f4:	1001891e 	bne	r2,zero,471c <___vfprintf_internal_r+0x124c>
    40f8:	d8801b17 	ldw	r2,108(sp)
    40fc:	010000b4 	movhi	r4,2
    4100:	21305c04 	addi	r4,r4,-16016
    4104:	10800044 	addi	r2,r2,1
    4108:	18c00044 	addi	r3,r3,1
    410c:	b1000015 	stw	r4,0(r22)
    4110:	01000044 	movi	r4,1
    4114:	d8801b15 	stw	r2,108(sp)
    4118:	b1000115 	stw	r4,4(r22)
    411c:	d8c01c15 	stw	r3,112(sp)
    4120:	10800208 	cmpgei	r2,r2,8
    4124:	10034d1e 	bne	r2,zero,4e5c <___vfprintf_internal_r+0x198c>
    4128:	b5800204 	addi	r22,r22,8
    412c:	d8801417 	ldw	r2,80(sp)
    4130:	d9000817 	ldw	r4,32(sp)
    4134:	1102170e 	bge	r2,r4,4994 <___vfprintf_internal_r+0x14c4>
    4138:	d8800d17 	ldw	r2,52(sp)
    413c:	d9000b17 	ldw	r4,44(sp)
    4140:	b0800015 	stw	r2,0(r22)
    4144:	d8801b17 	ldw	r2,108(sp)
    4148:	1907883a 	add	r3,r3,r4
    414c:	b1000115 	stw	r4,4(r22)
    4150:	10800044 	addi	r2,r2,1
    4154:	d8801b15 	stw	r2,108(sp)
    4158:	d8c01c15 	stw	r3,112(sp)
    415c:	10800208 	cmpgei	r2,r2,8
    4160:	1002381e 	bne	r2,zero,4a44 <___vfprintf_internal_r+0x1574>
    4164:	b5800204 	addi	r22,r22,8
    4168:	d8800817 	ldw	r2,32(sp)
    416c:	157fffc4 	addi	r21,r2,-1
    4170:	057dd30e 	bge	zero,r21,38c0 <___vfprintf_internal_r+0x3f0>
    4174:	01c000b4 	movhi	r7,2
    4178:	a9000450 	cmplti	r4,r21,17
    417c:	d8801b17 	ldw	r2,108(sp)
    4180:	39f06504 	addi	r7,r7,-15980
    4184:	2003311e 	bne	r4,zero,4e4c <___vfprintf_internal_r+0x197c>
    4188:	07000404 	movi	fp,16
    418c:	3823883a 	mov	r17,r7
    4190:	00000406 	br	41a4 <___vfprintf_internal_r+0xcd4>
    4194:	b5800204 	addi	r22,r22,8
    4198:	ad7ffc04 	addi	r21,r21,-16
    419c:	a9000448 	cmpgei	r4,r21,17
    41a0:	20032926 	beq	r4,zero,4e48 <___vfprintf_internal_r+0x1978>
    41a4:	10800044 	addi	r2,r2,1
    41a8:	18c00404 	addi	r3,r3,16
    41ac:	b4400015 	stw	r17,0(r22)
    41b0:	b7000115 	stw	fp,4(r22)
    41b4:	d8c01c15 	stw	r3,112(sp)
    41b8:	d8801b15 	stw	r2,108(sp)
    41bc:	11000208 	cmpgei	r4,r2,8
    41c0:	203ff426 	beq	r4,zero,4194 <___vfprintf_internal_r+0xcc4>
    41c4:	d9801a04 	addi	r6,sp,104
    41c8:	900b883a 	mov	r5,r18
    41cc:	9809883a 	mov	r4,r19
    41d0:	000aef00 	call	aef0 <__sprint_r>
    41d4:	103dcb1e 	bne	r2,zero,3904 <___vfprintf_internal_r+0x434>
    41d8:	d8c01c17 	ldw	r3,112(sp)
    41dc:	d8801b17 	ldw	r2,108(sp)
    41e0:	dd802704 	addi	r22,sp,156
    41e4:	003fec06 	br	4198 <___vfprintf_internal_r+0xcc8>
    41e8:	8519c83a 	sub	r12,r16,r20
    41ec:	033da50e 	bge	zero,r12,3884 <___vfprintf_internal_r+0x3b4>
    41f0:	01c000b4 	movhi	r7,2
    41f4:	61000450 	cmplti	r4,r12,17
    41f8:	d8801b17 	ldw	r2,108(sp)
    41fc:	39f06504 	addi	r7,r7,-15980
    4200:	2000281e 	bne	r4,zero,42a4 <___vfprintf_internal_r+0xdd4>
    4204:	dc400e15 	stw	r17,56(sp)
    4208:	dc000f15 	stw	r16,60(sp)
    420c:	b009883a 	mov	r4,r22
    4210:	03400404 	movi	r13,16
    4214:	a02d883a 	mov	r22,r20
    4218:	6021883a 	mov	r16,r12
    421c:	4029883a 	mov	r20,r8
    4220:	3823883a 	mov	r17,r7
    4224:	00000406 	br	4238 <___vfprintf_internal_r+0xd68>
    4228:	843ffc04 	addi	r16,r16,-16
    422c:	81400448 	cmpgei	r5,r16,17
    4230:	21000204 	addi	r4,r4,8
    4234:	28001426 	beq	r5,zero,4288 <___vfprintf_internal_r+0xdb8>
    4238:	10800044 	addi	r2,r2,1
    423c:	18c00404 	addi	r3,r3,16
    4240:	24400015 	stw	r17,0(r4)
    4244:	23400115 	stw	r13,4(r4)
    4248:	d8c01c15 	stw	r3,112(sp)
    424c:	d8801b15 	stw	r2,108(sp)
    4250:	11400208 	cmpgei	r5,r2,8
    4254:	283ff426 	beq	r5,zero,4228 <___vfprintf_internal_r+0xd58>
    4258:	d9801a04 	addi	r6,sp,104
    425c:	900b883a 	mov	r5,r18
    4260:	9809883a 	mov	r4,r19
    4264:	000aef00 	call	aef0 <__sprint_r>
    4268:	103da61e 	bne	r2,zero,3904 <___vfprintf_internal_r+0x434>
    426c:	843ffc04 	addi	r16,r16,-16
    4270:	81400448 	cmpgei	r5,r16,17
    4274:	d8c01c17 	ldw	r3,112(sp)
    4278:	d8801b17 	ldw	r2,108(sp)
    427c:	d9002704 	addi	r4,sp,156
    4280:	03400404 	movi	r13,16
    4284:	283fec1e 	bne	r5,zero,4238 <___vfprintf_internal_r+0xd68>
    4288:	8019883a 	mov	r12,r16
    428c:	880f883a 	mov	r7,r17
    4290:	dc000f17 	ldw	r16,60(sp)
    4294:	dc400e17 	ldw	r17,56(sp)
    4298:	a011883a 	mov	r8,r20
    429c:	b029883a 	mov	r20,r22
    42a0:	202d883a 	mov	r22,r4
    42a4:	10800044 	addi	r2,r2,1
    42a8:	1b07883a 	add	r3,r3,r12
    42ac:	d8801b15 	stw	r2,108(sp)
    42b0:	b1c00015 	stw	r7,0(r22)
    42b4:	b3000115 	stw	r12,4(r22)
    42b8:	d8c01c15 	stw	r3,112(sp)
    42bc:	10800208 	cmpgei	r2,r2,8
    42c0:	1002ee1e 	bne	r2,zero,4e7c <___vfprintf_internal_r+0x19ac>
    42c4:	4551c83a 	sub	r8,r8,r21
    42c8:	b5800204 	addi	r22,r22,8
    42cc:	023d6f0e 	bge	zero,r8,388c <___vfprintf_internal_r+0x3bc>
    42d0:	01c000b4 	movhi	r7,2
    42d4:	41000450 	cmplti	r4,r8,17
    42d8:	d8801b17 	ldw	r2,108(sp)
    42dc:	39f06504 	addi	r7,r7,-15980
    42e0:	2000221e 	bne	r4,zero,436c <___vfprintf_internal_r+0xe9c>
    42e4:	dc400e15 	stw	r17,56(sp)
    42e8:	dc000f15 	stw	r16,60(sp)
    42ec:	03000404 	movi	r12,16
    42f0:	4021883a 	mov	r16,r8
    42f4:	3823883a 	mov	r17,r7
    42f8:	00000406 	br	430c <___vfprintf_internal_r+0xe3c>
    42fc:	843ffc04 	addi	r16,r16,-16
    4300:	81000448 	cmpgei	r4,r16,17
    4304:	b5800204 	addi	r22,r22,8
    4308:	20001426 	beq	r4,zero,435c <___vfprintf_internal_r+0xe8c>
    430c:	10800044 	addi	r2,r2,1
    4310:	18c00404 	addi	r3,r3,16
    4314:	b4400015 	stw	r17,0(r22)
    4318:	b3000115 	stw	r12,4(r22)
    431c:	d8c01c15 	stw	r3,112(sp)
    4320:	d8801b15 	stw	r2,108(sp)
    4324:	11000208 	cmpgei	r4,r2,8
    4328:	203ff426 	beq	r4,zero,42fc <___vfprintf_internal_r+0xe2c>
    432c:	d9801a04 	addi	r6,sp,104
    4330:	900b883a 	mov	r5,r18
    4334:	9809883a 	mov	r4,r19
    4338:	000aef00 	call	aef0 <__sprint_r>
    433c:	103d711e 	bne	r2,zero,3904 <___vfprintf_internal_r+0x434>
    4340:	843ffc04 	addi	r16,r16,-16
    4344:	81000448 	cmpgei	r4,r16,17
    4348:	d8c01c17 	ldw	r3,112(sp)
    434c:	d8801b17 	ldw	r2,108(sp)
    4350:	dd802704 	addi	r22,sp,156
    4354:	03000404 	movi	r12,16
    4358:	203fec1e 	bne	r4,zero,430c <___vfprintf_internal_r+0xe3c>
    435c:	8011883a 	mov	r8,r16
    4360:	880f883a 	mov	r7,r17
    4364:	dc000f17 	ldw	r16,60(sp)
    4368:	dc400e17 	ldw	r17,56(sp)
    436c:	10800044 	addi	r2,r2,1
    4370:	1a07883a 	add	r3,r3,r8
    4374:	d8801b15 	stw	r2,108(sp)
    4378:	b1c00015 	stw	r7,0(r22)
    437c:	b2000115 	stw	r8,4(r22)
    4380:	d8c01c15 	stw	r3,112(sp)
    4384:	10800208 	cmpgei	r2,r2,8
    4388:	1001731e 	bne	r2,zero,4958 <___vfprintf_internal_r+0x1488>
    438c:	b5800204 	addi	r22,r22,8
    4390:	003d3e06 	br	388c <___vfprintf_internal_r+0x3bc>
    4394:	10c00060 	cmpeqi	r3,r2,1
    4398:	1803861e 	bne	r3,zero,51b4 <___vfprintf_internal_r+0x1ce4>
    439c:	108000a0 	cmpeqi	r2,r2,2
    43a0:	db000417 	ldw	r12,16(sp)
    43a4:	103ea326 	beq	r2,zero,3e34 <___vfprintf_internal_r+0x964>
    43a8:	d9000c17 	ldw	r4,48(sp)
    43ac:	dc402704 	addi	r17,sp,156
    43b0:	a08003cc 	andi	r2,r20,15
    43b4:	a806973a 	slli	r3,r21,28
    43b8:	a028d13a 	srli	r20,r20,4
    43bc:	2085883a 	add	r2,r4,r2
    43c0:	10800003 	ldbu	r2,0(r2)
    43c4:	a82ad13a 	srli	r21,r21,4
    43c8:	1d28b03a 	or	r20,r3,r20
    43cc:	88bfffc5 	stb	r2,-1(r17)
    43d0:	a544b03a 	or	r2,r20,r21
    43d4:	8c7fffc4 	addi	r17,r17,-1
    43d8:	103ff51e 	bne	r2,zero,43b0 <___vfprintf_internal_r+0xee0>
    43dc:	d8802704 	addi	r2,sp,156
    43e0:	146bc83a 	sub	r21,r2,r17
    43e4:	db000415 	stw	r12,16(sp)
    43e8:	003e4e06 	br	3d24 <___vfprintf_internal_r+0x854>
    43ec:	d9801a04 	addi	r6,sp,104
    43f0:	900b883a 	mov	r5,r18
    43f4:	9809883a 	mov	r4,r19
    43f8:	000aef00 	call	aef0 <__sprint_r>
    43fc:	103d3b26 	beq	r2,zero,38ec <___vfprintf_internal_r+0x41c>
    4400:	003d4006 	br	3904 <___vfprintf_internal_r+0x434>
    4404:	d8801b17 	ldw	r2,108(sp)
    4408:	010000b4 	movhi	r4,2
    440c:	21305c04 	addi	r4,r4,-16016
    4410:	10800044 	addi	r2,r2,1
    4414:	18c00044 	addi	r3,r3,1
    4418:	b1000015 	stw	r4,0(r22)
    441c:	01000044 	movi	r4,1
    4420:	d8801b15 	stw	r2,108(sp)
    4424:	b1000115 	stw	r4,4(r22)
    4428:	d8c01c15 	stw	r3,112(sp)
    442c:	10800208 	cmpgei	r2,r2,8
    4430:	1003241e 	bne	r2,zero,50c4 <___vfprintf_internal_r+0x1bf4>
    4434:	b5800204 	addi	r22,r22,8
    4438:	a802a81e 	bne	r21,zero,4edc <___vfprintf_internal_r+0x1a0c>
    443c:	d8800417 	ldw	r2,16(sp)
    4440:	d9000817 	ldw	r4,32(sp)
    4444:	1080004c 	andi	r2,r2,1
    4448:	1104b03a 	or	r2,r2,r4
    444c:	103d1c26 	beq	r2,zero,38c0 <___vfprintf_internal_r+0x3f0>
    4450:	d8800d17 	ldw	r2,52(sp)
    4454:	d9000b17 	ldw	r4,44(sp)
    4458:	b0800015 	stw	r2,0(r22)
    445c:	d8801b17 	ldw	r2,108(sp)
    4460:	20c7883a 	add	r3,r4,r3
    4464:	b1000115 	stw	r4,4(r22)
    4468:	10800044 	addi	r2,r2,1
    446c:	d8c01c15 	stw	r3,112(sp)
    4470:	d8801b15 	stw	r2,108(sp)
    4474:	11000208 	cmpgei	r4,r2,8
    4478:	20033b1e 	bne	r4,zero,5168 <___vfprintf_internal_r+0x1c98>
    447c:	b5800204 	addi	r22,r22,8
    4480:	d9000817 	ldw	r4,32(sp)
    4484:	10800044 	addi	r2,r2,1
    4488:	d8801b15 	stw	r2,108(sp)
    448c:	20c7883a 	add	r3,r4,r3
    4490:	b4400015 	stw	r17,0(r22)
    4494:	b1000115 	stw	r4,4(r22)
    4498:	d8c01c15 	stw	r3,112(sp)
    449c:	10800208 	cmpgei	r2,r2,8
    44a0:	103d0626 	beq	r2,zero,38bc <___vfprintf_internal_r+0x3ec>
    44a4:	d9801a04 	addi	r6,sp,104
    44a8:	900b883a 	mov	r5,r18
    44ac:	9809883a 	mov	r4,r19
    44b0:	000aef00 	call	aef0 <__sprint_r>
    44b4:	103d131e 	bne	r2,zero,3904 <___vfprintf_internal_r+0x434>
    44b8:	d8c01c17 	ldw	r3,112(sp)
    44bc:	dd802704 	addi	r22,sp,156
    44c0:	003cff06 	br	38c0 <___vfprintf_internal_r+0x3f0>
    44c4:	d8800817 	ldw	r2,32(sp)
    44c8:	dd401b17 	ldw	r21,108(sp)
    44cc:	18c00044 	addi	r3,r3,1
    44d0:	10800088 	cmpgei	r2,r2,2
    44d4:	ad400044 	addi	r21,r21,1
    44d8:	b7000204 	addi	fp,r22,8
    44dc:	1000e826 	beq	r2,zero,4880 <___vfprintf_internal_r+0x13b0>
    44e0:	00800044 	movi	r2,1
    44e4:	b0800115 	stw	r2,4(r22)
    44e8:	b4400015 	stw	r17,0(r22)
    44ec:	d8c01c15 	stw	r3,112(sp)
    44f0:	dd401b15 	stw	r21,108(sp)
    44f4:	a8800210 	cmplti	r2,r21,8
    44f8:	1001ae26 	beq	r2,zero,4bb4 <___vfprintf_internal_r+0x16e4>
    44fc:	d8800b17 	ldw	r2,44(sp)
    4500:	d9000d17 	ldw	r4,52(sp)
    4504:	ad400044 	addi	r21,r21,1
    4508:	1887883a 	add	r3,r3,r2
    450c:	e0800115 	stw	r2,4(fp)
    4510:	e1000015 	stw	r4,0(fp)
    4514:	d8c01c15 	stw	r3,112(sp)
    4518:	dd401b15 	stw	r21,108(sp)
    451c:	a8800208 	cmpgei	r2,r21,8
    4520:	1001ad1e 	bne	r2,zero,4bd8 <___vfprintf_internal_r+0x1708>
    4524:	e7000204 	addi	fp,fp,8
    4528:	d9000917 	ldw	r4,36(sp)
    452c:	d9400a17 	ldw	r5,40(sp)
    4530:	000d883a 	mov	r6,zero
    4534:	000f883a 	mov	r7,zero
    4538:	d8c00715 	stw	r3,28(sp)
    453c:	000fae40 	call	fae4 <__eqdf2>
    4540:	d8c00817 	ldw	r3,32(sp)
    4544:	1dbfffc4 	addi	r22,r3,-1
    4548:	d8c00717 	ldw	r3,28(sp)
    454c:	1000e426 	beq	r2,zero,48e0 <___vfprintf_internal_r+0x1410>
    4550:	8a400044 	addi	r9,r17,1
    4554:	ad400044 	addi	r21,r21,1
    4558:	1d87883a 	add	r3,r3,r22
    455c:	e2400015 	stw	r9,0(fp)
    4560:	e5800115 	stw	r22,4(fp)
    4564:	d8c01c15 	stw	r3,112(sp)
    4568:	dd401b15 	stw	r21,108(sp)
    456c:	a8800208 	cmpgei	r2,r21,8
    4570:	1000cd1e 	bne	r2,zero,48a8 <___vfprintf_internal_r+0x13d8>
    4574:	e7000204 	addi	fp,fp,8
    4578:	d9001017 	ldw	r4,64(sp)
    457c:	ad400044 	addi	r21,r21,1
    4580:	d8801644 	addi	r2,sp,89
    4584:	20c7883a 	add	r3,r4,r3
    4588:	dd401b15 	stw	r21,108(sp)
    458c:	e0800015 	stw	r2,0(fp)
    4590:	e1000115 	stw	r4,4(fp)
    4594:	d8c01c15 	stw	r3,112(sp)
    4598:	ad400208 	cmpgei	r21,r21,8
    459c:	a83fc11e 	bne	r21,zero,44a4 <___vfprintf_internal_r+0xfd4>
    45a0:	e5800204 	addi	r22,fp,8
    45a4:	003cc606 	br	38c0 <___vfprintf_internal_r+0x3f0>
    45a8:	db000417 	ldw	r12,16(sp)
    45ac:	003e1d06 	br	3e24 <___vfprintf_internal_r+0x954>
    45b0:	030000b4 	movhi	r12,2
    45b4:	39000450 	cmplti	r4,r7,17
    45b8:	d8801b17 	ldw	r2,108(sp)
    45bc:	63306904 	addi	r12,r12,-15964
    45c0:	2000321e 	bne	r4,zero,468c <___vfprintf_internal_r+0x11bc>
    45c4:	dc401115 	stw	r17,68(sp)
    45c8:	b009883a 	mov	r4,r22
    45cc:	9023883a 	mov	r17,r18
    45d0:	a82d883a 	mov	r22,r21
    45d4:	ddc01215 	stw	r23,72(sp)
    45d8:	03c00404 	movi	r15,16
    45dc:	a02f883a 	mov	r23,r20
    45e0:	db800e15 	stw	r14,56(sp)
    45e4:	8029883a 	mov	r20,r16
    45e8:	db400f15 	stw	r13,60(sp)
    45ec:	402b883a 	mov	r21,r8
    45f0:	3821883a 	mov	r16,r7
    45f4:	6025883a 	mov	r18,r12
    45f8:	00000406 	br	460c <___vfprintf_internal_r+0x113c>
    45fc:	843ffc04 	addi	r16,r16,-16
    4600:	81800448 	cmpgei	r6,r16,17
    4604:	21000204 	addi	r4,r4,8
    4608:	30001426 	beq	r6,zero,465c <___vfprintf_internal_r+0x118c>
    460c:	10800044 	addi	r2,r2,1
    4610:	18c00404 	addi	r3,r3,16
    4614:	24800015 	stw	r18,0(r4)
    4618:	23c00115 	stw	r15,4(r4)
    461c:	d8c01c15 	stw	r3,112(sp)
    4620:	d8801b15 	stw	r2,108(sp)
    4624:	11800208 	cmpgei	r6,r2,8
    4628:	303ff426 	beq	r6,zero,45fc <___vfprintf_internal_r+0x112c>
    462c:	d9801a04 	addi	r6,sp,104
    4630:	880b883a 	mov	r5,r17
    4634:	9809883a 	mov	r4,r19
    4638:	000aef00 	call	aef0 <__sprint_r>
    463c:	10017d1e 	bne	r2,zero,4c34 <___vfprintf_internal_r+0x1764>
    4640:	843ffc04 	addi	r16,r16,-16
    4644:	81800448 	cmpgei	r6,r16,17
    4648:	d8c01c17 	ldw	r3,112(sp)
    464c:	d8801b17 	ldw	r2,108(sp)
    4650:	d9002704 	addi	r4,sp,156
    4654:	03c00404 	movi	r15,16
    4658:	303fec1e 	bne	r6,zero,460c <___vfprintf_internal_r+0x113c>
    465c:	800f883a 	mov	r7,r16
    4660:	9019883a 	mov	r12,r18
    4664:	a021883a 	mov	r16,r20
    4668:	8825883a 	mov	r18,r17
    466c:	b829883a 	mov	r20,r23
    4670:	db800e17 	ldw	r14,56(sp)
    4674:	db400f17 	ldw	r13,60(sp)
    4678:	ddc01217 	ldw	r23,72(sp)
    467c:	dc401117 	ldw	r17,68(sp)
    4680:	a811883a 	mov	r8,r21
    4684:	b02b883a 	mov	r21,r22
    4688:	202d883a 	mov	r22,r4
    468c:	10800044 	addi	r2,r2,1
    4690:	19c7883a 	add	r3,r3,r7
    4694:	d8801b15 	stw	r2,108(sp)
    4698:	b3000015 	stw	r12,0(r22)
    469c:	b1c00115 	stw	r7,4(r22)
    46a0:	d8c01c15 	stw	r3,112(sp)
    46a4:	10800208 	cmpgei	r2,r2,8
    46a8:	1001541e 	bne	r2,zero,4bfc <___vfprintf_internal_r+0x172c>
    46ac:	b5800204 	addi	r22,r22,8
    46b0:	003c5706 	br	3810 <___vfprintf_internal_r+0x340>
    46b4:	d9801a04 	addi	r6,sp,104
    46b8:	900b883a 	mov	r5,r18
    46bc:	9809883a 	mov	r4,r19
    46c0:	da001115 	stw	r8,68(sp)
    46c4:	db400f15 	stw	r13,60(sp)
    46c8:	db800e15 	stw	r14,56(sp)
    46cc:	000aef00 	call	aef0 <__sprint_r>
    46d0:	103c8c1e 	bne	r2,zero,3904 <___vfprintf_internal_r+0x434>
    46d4:	d8c01c17 	ldw	r3,112(sp)
    46d8:	da001117 	ldw	r8,68(sp)
    46dc:	db400f17 	ldw	r13,60(sp)
    46e0:	db800e17 	ldw	r14,56(sp)
    46e4:	dd802704 	addi	r22,sp,156
    46e8:	003c5706 	br	3848 <___vfprintf_internal_r+0x378>
    46ec:	d9801a04 	addi	r6,sp,104
    46f0:	900b883a 	mov	r5,r18
    46f4:	9809883a 	mov	r4,r19
    46f8:	da000f15 	stw	r8,60(sp)
    46fc:	db400e15 	stw	r13,56(sp)
    4700:	000aef00 	call	aef0 <__sprint_r>
    4704:	103c7f1e 	bne	r2,zero,3904 <___vfprintf_internal_r+0x434>
    4708:	d8c01c17 	ldw	r3,112(sp)
    470c:	da000f17 	ldw	r8,60(sp)
    4710:	db400e17 	ldw	r13,56(sp)
    4714:	dd802704 	addi	r22,sp,156
    4718:	003c5806 	br	387c <___vfprintf_internal_r+0x3ac>
    471c:	dd401417 	ldw	r21,80(sp)
    4720:	057f380e 	bge	zero,r21,4404 <___vfprintf_internal_r+0xf34>
    4724:	d8800817 	ldw	r2,32(sp)
    4728:	d9000717 	ldw	r4,28(sp)
    472c:	102b883a 	mov	r21,r2
    4730:	2080b516 	blt	r4,r2,4a08 <___vfprintf_internal_r+0x1538>
    4734:	05400a0e 	bge	zero,r21,4760 <___vfprintf_internal_r+0x1290>
    4738:	d8801b17 	ldw	r2,108(sp)
    473c:	1d47883a 	add	r3,r3,r21
    4740:	b4400015 	stw	r17,0(r22)
    4744:	10800044 	addi	r2,r2,1
    4748:	d8801b15 	stw	r2,108(sp)
    474c:	b5400115 	stw	r21,4(r22)
    4750:	d8c01c15 	stw	r3,112(sp)
    4754:	10800208 	cmpgei	r2,r2,8
    4758:	1002d31e 	bne	r2,zero,52a8 <___vfprintf_internal_r+0x1dd8>
    475c:	b5800204 	addi	r22,r22,8
    4760:	a800b616 	blt	r21,zero,4a3c <___vfprintf_internal_r+0x156c>
    4764:	d8800717 	ldw	r2,28(sp)
    4768:	156bc83a 	sub	r21,r2,r21
    476c:	0540c516 	blt	zero,r21,4a84 <___vfprintf_internal_r+0x15b4>
    4770:	dd401417 	ldw	r21,80(sp)
    4774:	d8800817 	ldw	r2,32(sp)
    4778:	a880a60e 	bge	r21,r2,4a14 <___vfprintf_internal_r+0x1544>
    477c:	d8800d17 	ldw	r2,52(sp)
    4780:	d9000b17 	ldw	r4,44(sp)
    4784:	b0800015 	stw	r2,0(r22)
    4788:	d8801b17 	ldw	r2,108(sp)
    478c:	1907883a 	add	r3,r3,r4
    4790:	b1000115 	stw	r4,4(r22)
    4794:	10800044 	addi	r2,r2,1
    4798:	d8801b15 	stw	r2,108(sp)
    479c:	d8c01c15 	stw	r3,112(sp)
    47a0:	10800208 	cmpgei	r2,r2,8
    47a4:	1002ab1e 	bne	r2,zero,5254 <___vfprintf_internal_r+0x1d84>
    47a8:	b5800204 	addi	r22,r22,8
    47ac:	d8800817 	ldw	r2,32(sp)
    47b0:	d9000717 	ldw	r4,28(sp)
    47b4:	156bc83a 	sub	r21,r2,r21
    47b8:	1139c83a 	sub	fp,r2,r4
    47bc:	af00010e 	bge	r21,fp,47c4 <___vfprintf_internal_r+0x12f4>
    47c0:	a839883a 	mov	fp,r21
    47c4:	07000c0e 	bge	zero,fp,47f8 <___vfprintf_internal_r+0x1328>
    47c8:	d8800717 	ldw	r2,28(sp)
    47cc:	1f07883a 	add	r3,r3,fp
    47d0:	b7000115 	stw	fp,4(r22)
    47d4:	8893883a 	add	r9,r17,r2
    47d8:	d8801b17 	ldw	r2,108(sp)
    47dc:	b2400015 	stw	r9,0(r22)
    47e0:	d8c01c15 	stw	r3,112(sp)
    47e4:	10800044 	addi	r2,r2,1
    47e8:	d8801b15 	stw	r2,108(sp)
    47ec:	10800208 	cmpgei	r2,r2,8
    47f0:	1002b81e 	bne	r2,zero,52d4 <___vfprintf_internal_r+0x1e04>
    47f4:	b5800204 	addi	r22,r22,8
    47f8:	e005883a 	mov	r2,fp
    47fc:	e000010e 	bge	fp,zero,4804 <___vfprintf_internal_r+0x1334>
    4800:	0005883a 	mov	r2,zero
    4804:	a8abc83a 	sub	r21,r21,r2
    4808:	057c2d0e 	bge	zero,r21,38c0 <___vfprintf_internal_r+0x3f0>
    480c:	01c000b4 	movhi	r7,2
    4810:	a9000450 	cmplti	r4,r21,17
    4814:	d8801b17 	ldw	r2,108(sp)
    4818:	39f06504 	addi	r7,r7,-15980
    481c:	20018b1e 	bne	r4,zero,4e4c <___vfprintf_internal_r+0x197c>
    4820:	07000404 	movi	fp,16
    4824:	3823883a 	mov	r17,r7
    4828:	00000406 	br	483c <___vfprintf_internal_r+0x136c>
    482c:	b5800204 	addi	r22,r22,8
    4830:	ad7ffc04 	addi	r21,r21,-16
    4834:	a9000448 	cmpgei	r4,r21,17
    4838:	20018326 	beq	r4,zero,4e48 <___vfprintf_internal_r+0x1978>
    483c:	10800044 	addi	r2,r2,1
    4840:	18c00404 	addi	r3,r3,16
    4844:	b4400015 	stw	r17,0(r22)
    4848:	b7000115 	stw	fp,4(r22)
    484c:	d8c01c15 	stw	r3,112(sp)
    4850:	d8801b15 	stw	r2,108(sp)
    4854:	11000208 	cmpgei	r4,r2,8
    4858:	203ff426 	beq	r4,zero,482c <___vfprintf_internal_r+0x135c>
    485c:	d9801a04 	addi	r6,sp,104
    4860:	900b883a 	mov	r5,r18
    4864:	9809883a 	mov	r4,r19
    4868:	000aef00 	call	aef0 <__sprint_r>
    486c:	103c251e 	bne	r2,zero,3904 <___vfprintf_internal_r+0x434>
    4870:	d8c01c17 	ldw	r3,112(sp)
    4874:	d8801b17 	ldw	r2,108(sp)
    4878:	dd802704 	addi	r22,sp,156
    487c:	003fec06 	br	4830 <___vfprintf_internal_r+0x1360>
    4880:	d8800417 	ldw	r2,16(sp)
    4884:	1080004c 	andi	r2,r2,1
    4888:	103f151e 	bne	r2,zero,44e0 <___vfprintf_internal_r+0x1010>
    488c:	00800044 	movi	r2,1
    4890:	b0800115 	stw	r2,4(r22)
    4894:	b4400015 	stw	r17,0(r22)
    4898:	d8c01c15 	stw	r3,112(sp)
    489c:	dd401b15 	stw	r21,108(sp)
    48a0:	a8800210 	cmplti	r2,r21,8
    48a4:	103f341e 	bne	r2,zero,4578 <___vfprintf_internal_r+0x10a8>
    48a8:	d9801a04 	addi	r6,sp,104
    48ac:	900b883a 	mov	r5,r18
    48b0:	9809883a 	mov	r4,r19
    48b4:	000aef00 	call	aef0 <__sprint_r>
    48b8:	103c121e 	bne	r2,zero,3904 <___vfprintf_internal_r+0x434>
    48bc:	d8c01c17 	ldw	r3,112(sp)
    48c0:	dd401b17 	ldw	r21,108(sp)
    48c4:	df002704 	addi	fp,sp,156
    48c8:	003f2b06 	br	4578 <___vfprintf_internal_r+0x10a8>
    48cc:	4002391e 	bne	r8,zero,51b4 <___vfprintf_internal_r+0x1ce4>
    48d0:	0011883a 	mov	r8,zero
    48d4:	002b883a 	mov	r21,zero
    48d8:	dc402704 	addi	r17,sp,156
    48dc:	003d1106 	br	3d24 <___vfprintf_internal_r+0x854>
    48e0:	05bf250e 	bge	zero,r22,4578 <___vfprintf_internal_r+0x10a8>
    48e4:	01c000b4 	movhi	r7,2
    48e8:	b0800450 	cmplti	r2,r22,17
    48ec:	39f06504 	addi	r7,r7,-15980
    48f0:	1001761e 	bne	r2,zero,4ecc <___vfprintf_internal_r+0x19fc>
    48f4:	dc000715 	stw	r16,28(sp)
    48f8:	04400404 	movi	r17,16
    48fc:	3821883a 	mov	r16,r7
    4900:	00000406 	br	4914 <___vfprintf_internal_r+0x1444>
    4904:	e7000204 	addi	fp,fp,8
    4908:	b5bffc04 	addi	r22,r22,-16
    490c:	b0800448 	cmpgei	r2,r22,17
    4910:	10016c26 	beq	r2,zero,4ec4 <___vfprintf_internal_r+0x19f4>
    4914:	ad400044 	addi	r21,r21,1
    4918:	18c00404 	addi	r3,r3,16
    491c:	e4000015 	stw	r16,0(fp)
    4920:	e4400115 	stw	r17,4(fp)
    4924:	d8c01c15 	stw	r3,112(sp)
    4928:	dd401b15 	stw	r21,108(sp)
    492c:	a8800208 	cmpgei	r2,r21,8
    4930:	103ff426 	beq	r2,zero,4904 <___vfprintf_internal_r+0x1434>
    4934:	d9801a04 	addi	r6,sp,104
    4938:	900b883a 	mov	r5,r18
    493c:	9809883a 	mov	r4,r19
    4940:	000aef00 	call	aef0 <__sprint_r>
    4944:	103bef1e 	bne	r2,zero,3904 <___vfprintf_internal_r+0x434>
    4948:	d8c01c17 	ldw	r3,112(sp)
    494c:	dd401b17 	ldw	r21,108(sp)
    4950:	df002704 	addi	fp,sp,156
    4954:	003fec06 	br	4908 <___vfprintf_internal_r+0x1438>
    4958:	d9801a04 	addi	r6,sp,104
    495c:	900b883a 	mov	r5,r18
    4960:	9809883a 	mov	r4,r19
    4964:	000aef00 	call	aef0 <__sprint_r>
    4968:	103be61e 	bne	r2,zero,3904 <___vfprintf_internal_r+0x434>
    496c:	d8c01c17 	ldw	r3,112(sp)
    4970:	dd802704 	addi	r22,sp,156
    4974:	003bc506 	br	388c <___vfprintf_internal_r+0x3bc>
    4978:	002b883a 	mov	r21,zero
    497c:	d8c00615 	stw	r3,24(sp)
    4980:	003d7206 	br	3f4c <___vfprintf_internal_r+0xa7c>
    4984:	a02bd7fa 	srai	r21,r20,31
    4988:	d8c00615 	stw	r3,24(sp)
    498c:	a805883a 	mov	r2,r21
    4990:	003cd206 	br	3cdc <___vfprintf_internal_r+0x80c>
    4994:	d8800417 	ldw	r2,16(sp)
    4998:	1080004c 	andi	r2,r2,1
    499c:	103bc826 	beq	r2,zero,38c0 <___vfprintf_internal_r+0x3f0>
    49a0:	003de506 	br	4138 <___vfprintf_internal_r+0xc68>
    49a4:	63000414 	ori	r12,r12,16
    49a8:	003b1506 	br	3600 <___vfprintf_internal_r+0x130>
    49ac:	bac00007 	ldb	r11,0(r23)
    49b0:	d8800615 	stw	r2,24(sp)
    49b4:	003b1206 	br	3600 <___vfprintf_internal_r+0x130>
    49b8:	dc402704 	addi	r17,sp,156
    49bc:	003cd906 	br	3d24 <___vfprintf_internal_r+0x854>
    49c0:	18800017 	ldw	r2,0(r3)
    49c4:	d8800915 	stw	r2,36(sp)
    49c8:	18800117 	ldw	r2,4(r3)
    49cc:	d8800a15 	stw	r2,40(sp)
    49d0:	003c3f06 	br	3ad0 <___vfprintf_internal_r+0x600>
    49d4:	00800c04 	movi	r2,48
    49d8:	d8801385 	stb	r2,78(sp)
    49dc:	df0013c5 	stb	fp,79(sp)
    49e0:	63000094 	ori	r12,r12,2
    49e4:	00800084 	movi	r2,2
    49e8:	003c0306 	br	39f8 <___vfprintf_internal_r+0x528>
    49ec:	d9400517 	ldw	r5,20(sp)
    49f0:	20800017 	ldw	r2,0(r4)
    49f4:	d8c00615 	stw	r3,24(sp)
    49f8:	2809d7fa 	srai	r4,r5,31
    49fc:	11400015 	stw	r5,0(r2)
    4a00:	11000115 	stw	r4,4(r2)
    4a04:	003ae606 	br	35a0 <___vfprintf_internal_r+0xd0>
    4a08:	202b883a 	mov	r21,r4
    4a0c:	057f4a16 	blt	zero,r21,4738 <___vfprintf_internal_r+0x1268>
    4a10:	003f5306 	br	4760 <___vfprintf_internal_r+0x1290>
    4a14:	d8800417 	ldw	r2,16(sp)
    4a18:	1080004c 	andi	r2,r2,1
    4a1c:	103f571e 	bne	r2,zero,477c <___vfprintf_internal_r+0x12ac>
    4a20:	d8800817 	ldw	r2,32(sp)
    4a24:	d9000717 	ldw	r4,28(sp)
    4a28:	156bc83a 	sub	r21,r2,r21
    4a2c:	1139c83a 	sub	fp,r2,r4
    4a30:	af3f710e 	bge	r21,fp,47f8 <___vfprintf_internal_r+0x1328>
    4a34:	a839883a 	mov	fp,r21
    4a38:	003f6f06 	br	47f8 <___vfprintf_internal_r+0x1328>
    4a3c:	002b883a 	mov	r21,zero
    4a40:	003f4806 	br	4764 <___vfprintf_internal_r+0x1294>
    4a44:	d9801a04 	addi	r6,sp,104
    4a48:	900b883a 	mov	r5,r18
    4a4c:	9809883a 	mov	r4,r19
    4a50:	000aef00 	call	aef0 <__sprint_r>
    4a54:	103bab1e 	bne	r2,zero,3904 <___vfprintf_internal_r+0x434>
    4a58:	d8c01c17 	ldw	r3,112(sp)
    4a5c:	dd802704 	addi	r22,sp,156
    4a60:	003dc106 	br	4168 <___vfprintf_internal_r+0xc98>
    4a64:	408001f0 	cmpltui	r2,r8,7
    4a68:	402b883a 	mov	r21,r8
    4a6c:	1001a226 	beq	r2,zero,50f8 <___vfprintf_internal_r+0x1c28>
    4a70:	044000b4 	movhi	r17,2
    4a74:	a829883a 	mov	r20,r21
    4a78:	d8c00615 	stw	r3,24(sp)
    4a7c:	8c705a04 	addi	r17,r17,-16024
    4a80:	003b5606 	br	37dc <___vfprintf_internal_r+0x30c>
    4a84:	01c000b4 	movhi	r7,2
    4a88:	a9000450 	cmplti	r4,r21,17
    4a8c:	d8801b17 	ldw	r2,108(sp)
    4a90:	39f06504 	addi	r7,r7,-15980
    4a94:	20017d1e 	bne	r4,zero,508c <___vfprintf_internal_r+0x1bbc>
    4a98:	dc000e15 	stw	r16,56(sp)
    4a9c:	07000404 	movi	fp,16
    4aa0:	3821883a 	mov	r16,r7
    4aa4:	00000406 	br	4ab8 <___vfprintf_internal_r+0x15e8>
    4aa8:	b5800204 	addi	r22,r22,8
    4aac:	ad7ffc04 	addi	r21,r21,-16
    4ab0:	a9000448 	cmpgei	r4,r21,17
    4ab4:	20017326 	beq	r4,zero,5084 <___vfprintf_internal_r+0x1bb4>
    4ab8:	10800044 	addi	r2,r2,1
    4abc:	18c00404 	addi	r3,r3,16
    4ac0:	b4000015 	stw	r16,0(r22)
    4ac4:	b7000115 	stw	fp,4(r22)
    4ac8:	d8c01c15 	stw	r3,112(sp)
    4acc:	d8801b15 	stw	r2,108(sp)
    4ad0:	11000208 	cmpgei	r4,r2,8
    4ad4:	203ff426 	beq	r4,zero,4aa8 <___vfprintf_internal_r+0x15d8>
    4ad8:	d9801a04 	addi	r6,sp,104
    4adc:	900b883a 	mov	r5,r18
    4ae0:	9809883a 	mov	r4,r19
    4ae4:	000aef00 	call	aef0 <__sprint_r>
    4ae8:	103b861e 	bne	r2,zero,3904 <___vfprintf_internal_r+0x434>
    4aec:	d8c01c17 	ldw	r3,112(sp)
    4af0:	d8801b17 	ldw	r2,108(sp)
    4af4:	dd802704 	addi	r22,sp,156
    4af8:	003fec06 	br	4aac <___vfprintf_internal_r+0x15dc>
    4afc:	dc402704 	addi	r17,sp,156
    4b00:	a805883a 	mov	r2,r21
    4b04:	dc000715 	stw	r16,28(sp)
    4b08:	902b883a 	mov	r21,r18
    4b0c:	8821883a 	mov	r16,r17
    4b10:	db000415 	stw	r12,16(sp)
    4b14:	a023883a 	mov	r17,r20
    4b18:	da000e15 	stw	r8,56(sp)
    4b1c:	9829883a 	mov	r20,r19
    4b20:	1025883a 	mov	r18,r2
    4b24:	6827883a 	mov	r19,r13
    4b28:	8809883a 	mov	r4,r17
    4b2c:	900b883a 	mov	r5,r18
    4b30:	01800284 	movi	r6,10
    4b34:	000f883a 	mov	r7,zero
    4b38:	000e47c0 	call	e47c <__umoddi3>
    4b3c:	10800c04 	addi	r2,r2,48
    4b40:	8809883a 	mov	r4,r17
    4b44:	900b883a 	mov	r5,r18
    4b48:	01800284 	movi	r6,10
    4b4c:	000f883a 	mov	r7,zero
    4b50:	80bfffc5 	stb	r2,-1(r16)
    4b54:	000df2c0 	call	df2c <__udivdi3>
    4b58:	900d883a 	mov	r6,r18
    4b5c:	880f883a 	mov	r7,r17
    4b60:	843fffc4 	addi	r16,r16,-1
    4b64:	1023883a 	mov	r17,r2
    4b68:	1825883a 	mov	r18,r3
    4b6c:	303fee1e 	bne	r6,zero,4b28 <___vfprintf_internal_r+0x1658>
    4b70:	39c002a8 	cmpgeui	r7,r7,10
    4b74:	383fec1e 	bne	r7,zero,4b28 <___vfprintf_internal_r+0x1658>
    4b78:	8023883a 	mov	r17,r16
    4b7c:	d8802704 	addi	r2,sp,156
    4b80:	981b883a 	mov	r13,r19
    4b84:	a825883a 	mov	r18,r21
    4b88:	dc000717 	ldw	r16,28(sp)
    4b8c:	da000e17 	ldw	r8,56(sp)
    4b90:	a027883a 	mov	r19,r20
    4b94:	146bc83a 	sub	r21,r2,r17
    4b98:	003c6206 	br	3d24 <___vfprintf_internal_r+0x854>
    4b9c:	d8800617 	ldw	r2,24(sp)
    4ba0:	10800017 	ldw	r2,0(r2)
    4ba4:	d8c00615 	stw	r3,24(sp)
    4ba8:	d8c00517 	ldw	r3,20(sp)
    4bac:	10c00015 	stw	r3,0(r2)
    4bb0:	003a7b06 	br	35a0 <___vfprintf_internal_r+0xd0>
    4bb4:	d9801a04 	addi	r6,sp,104
    4bb8:	900b883a 	mov	r5,r18
    4bbc:	9809883a 	mov	r4,r19
    4bc0:	000aef00 	call	aef0 <__sprint_r>
    4bc4:	103b4f1e 	bne	r2,zero,3904 <___vfprintf_internal_r+0x434>
    4bc8:	d8c01c17 	ldw	r3,112(sp)
    4bcc:	dd401b17 	ldw	r21,108(sp)
    4bd0:	df002704 	addi	fp,sp,156
    4bd4:	003e4906 	br	44fc <___vfprintf_internal_r+0x102c>
    4bd8:	d9801a04 	addi	r6,sp,104
    4bdc:	900b883a 	mov	r5,r18
    4be0:	9809883a 	mov	r4,r19
    4be4:	000aef00 	call	aef0 <__sprint_r>
    4be8:	103b461e 	bne	r2,zero,3904 <___vfprintf_internal_r+0x434>
    4bec:	d8c01c17 	ldw	r3,112(sp)
    4bf0:	dd401b17 	ldw	r21,108(sp)
    4bf4:	df002704 	addi	fp,sp,156
    4bf8:	003e4b06 	br	4528 <___vfprintf_internal_r+0x1058>
    4bfc:	d9801a04 	addi	r6,sp,104
    4c00:	900b883a 	mov	r5,r18
    4c04:	9809883a 	mov	r4,r19
    4c08:	da001115 	stw	r8,68(sp)
    4c0c:	db400f15 	stw	r13,60(sp)
    4c10:	db800e15 	stw	r14,56(sp)
    4c14:	000aef00 	call	aef0 <__sprint_r>
    4c18:	103b3a1e 	bne	r2,zero,3904 <___vfprintf_internal_r+0x434>
    4c1c:	d8c01c17 	ldw	r3,112(sp)
    4c20:	da001117 	ldw	r8,68(sp)
    4c24:	db400f17 	ldw	r13,60(sp)
    4c28:	db800e17 	ldw	r14,56(sp)
    4c2c:	dd802704 	addi	r22,sp,156
    4c30:	003af706 	br	3810 <___vfprintf_internal_r+0x340>
    4c34:	8825883a 	mov	r18,r17
    4c38:	003b3206 	br	3904 <___vfprintf_internal_r+0x434>
    4c3c:	d9000917 	ldw	r4,36(sp)
    4c40:	d9400a17 	ldw	r5,40(sp)
    4c44:	da000615 	stw	r8,24(sp)
    4c48:	200d883a 	mov	r6,r4
    4c4c:	280f883a 	mov	r7,r5
    4c50:	db000415 	stw	r12,16(sp)
    4c54:	0010d1c0 	call	10d1c <__unorddf2>
    4c58:	db000417 	ldw	r12,16(sp)
    4c5c:	da000617 	ldw	r8,24(sp)
    4c60:	1001ec1e 	bne	r2,zero,5414 <___vfprintf_internal_r+0x1f44>
    4c64:	057ff7c4 	movi	r21,-33
    4c68:	40bfffe0 	cmpeqi	r2,r8,-1
    4c6c:	e56a703a 	and	r21,fp,r21
    4c70:	1001961e 	bne	r2,zero,52cc <___vfprintf_internal_r+0x1dfc>
    4c74:	a88011d8 	cmpnei	r2,r21,71
    4c78:	10013826 	beq	r2,zero,515c <___vfprintf_internal_r+0x1c8c>
    4c7c:	60804014 	ori	r2,r12,256
    4c80:	d8800415 	stw	r2,16(sp)
    4c84:	d8800a17 	ldw	r2,40(sp)
    4c88:	10011716 	blt	r2,zero,50e8 <___vfprintf_internal_r+0x1c18>
    4c8c:	dd000a17 	ldw	r20,40(sp)
    4c90:	d8000605 	stb	zero,24(sp)
    4c94:	e08019a0 	cmpeqi	r2,fp,102
    4c98:	d8800f15 	stw	r2,60(sp)
    4c9c:	1000bb1e 	bne	r2,zero,4f8c <___vfprintf_internal_r+0x1abc>
    4ca0:	e08011a0 	cmpeqi	r2,fp,70
    4ca4:	1000b91e 	bne	r2,zero,4f8c <___vfprintf_internal_r+0x1abc>
    4ca8:	a8801158 	cmpnei	r2,r21,69
    4cac:	10014326 	beq	r2,zero,51bc <___vfprintf_internal_r+0x1cec>
    4cb0:	d8801804 	addi	r2,sp,96
    4cb4:	d8800315 	stw	r2,12(sp)
    4cb8:	d9400917 	ldw	r5,36(sp)
    4cbc:	d8801504 	addi	r2,sp,84
    4cc0:	d8800215 	stw	r2,8(sp)
    4cc4:	d8801404 	addi	r2,sp,80
    4cc8:	da000015 	stw	r8,0(sp)
    4ccc:	9809883a 	mov	r4,r19
    4cd0:	d8800115 	stw	r2,4(sp)
    4cd4:	01c00084 	movi	r7,2
    4cd8:	a00d883a 	mov	r6,r20
    4cdc:	db000815 	stw	r12,32(sp)
    4ce0:	da000715 	stw	r8,28(sp)
    4ce4:	000591c0 	call	591c <_dtoa_r>
    4ce8:	da000717 	ldw	r8,28(sp)
    4cec:	e10019d8 	cmpnei	r4,fp,103
    4cf0:	db000817 	ldw	r12,32(sp)
    4cf4:	1023883a 	mov	r17,r2
    4cf8:	4007883a 	mov	r3,r8
    4cfc:	2001431e 	bne	r4,zero,520c <___vfprintf_internal_r+0x1d3c>
    4d00:	6080004c 	andi	r2,r12,1
    4d04:	1001431e 	bne	r2,zero,5214 <___vfprintf_internal_r+0x1d44>
    4d08:	d8801417 	ldw	r2,80(sp)
    4d0c:	ad4011e0 	cmpeqi	r21,r21,71
    4d10:	d8800715 	stw	r2,28(sp)
    4d14:	d8801817 	ldw	r2,96(sp)
    4d18:	1445c83a 	sub	r2,r2,r17
    4d1c:	d8800815 	stw	r2,32(sp)
    4d20:	a8000526 	beq	r21,zero,4d38 <___vfprintf_internal_r+0x1868>
    4d24:	d8c00717 	ldw	r3,28(sp)
    4d28:	18bfff50 	cmplti	r2,r3,-3
    4d2c:	1000011e 	bne	r2,zero,4d34 <___vfprintf_internal_r+0x1864>
    4d30:	40c1510e 	bge	r8,r3,5278 <___vfprintf_internal_r+0x1da8>
    4d34:	e73fff84 	addi	fp,fp,-2
    4d38:	d8c00717 	ldw	r3,28(sp)
    4d3c:	e009883a 	mov	r4,fp
    4d40:	18bfffc4 	addi	r2,r3,-1
    4d44:	10018516 	blt	r2,zero,535c <___vfprintf_internal_r+0x1e8c>
    4d48:	102b883a 	mov	r21,r2
    4d4c:	00c00ac4 	movi	r3,43
    4d50:	d8801415 	stw	r2,80(sp)
    4d54:	d9001645 	stb	r4,89(sp)
    4d58:	d8c01685 	stb	r3,90(sp)
    4d5c:	a8800290 	cmplti	r2,r21,10
    4d60:	1001771e 	bne	r2,zero,5340 <___vfprintf_internal_r+0x1e70>
    4d64:	d98019c4 	addi	r6,sp,103
    4d68:	9029883a 	mov	r20,r18
    4d6c:	dc400715 	stw	r17,28(sp)
    4d70:	8025883a 	mov	r18,r16
    4d74:	db000f15 	stw	r12,60(sp)
    4d78:	3021883a 	mov	r16,r6
    4d7c:	a809883a 	mov	r4,r21
    4d80:	01400284 	movi	r5,10
    4d84:	00011d80 	call	11d8 <__modsi3>
    4d88:	10800c04 	addi	r2,r2,48
    4d8c:	a809883a 	mov	r4,r21
    4d90:	80bfffc5 	stb	r2,-1(r16)
    4d94:	01400284 	movi	r5,10
    4d98:	00011580 	call	1158 <__divsi3>
    4d9c:	a9001908 	cmpgei	r4,r21,100
    4da0:	8023883a 	mov	r17,r16
    4da4:	102b883a 	mov	r21,r2
    4da8:	843fffc4 	addi	r16,r16,-1
    4dac:	203ff31e 	bne	r4,zero,4d7c <___vfprintf_internal_r+0x18ac>
    4db0:	800d883a 	mov	r6,r16
    4db4:	11000c04 	addi	r4,r2,48
    4db8:	9021883a 	mov	r16,r18
    4dbc:	a025883a 	mov	r18,r20
    4dc0:	8829883a 	mov	r20,r17
    4dc4:	a0bfff84 	addi	r2,r20,-2
    4dc8:	313fffc5 	stb	r4,-1(r6)
    4dcc:	d8c019c4 	addi	r3,sp,103
    4dd0:	db000f17 	ldw	r12,60(sp)
    4dd4:	dc400717 	ldw	r17,28(sp)
    4dd8:	10c1be2e 	bgeu	r2,r3,54d4 <___vfprintf_internal_r+0x2004>
    4ddc:	d8c016c4 	addi	r3,sp,91
    4de0:	00000106 	br	4de8 <___vfprintf_internal_r+0x1918>
    4de4:	11000003 	ldbu	r4,0(r2)
    4de8:	19000005 	stb	r4,0(r3)
    4dec:	10800044 	addi	r2,r2,1
    4df0:	d90019c4 	addi	r4,sp,103
    4df4:	18c00044 	addi	r3,r3,1
    4df8:	113ffa1e 	bne	r2,r4,4de4 <___vfprintf_internal_r+0x1914>
    4dfc:	d8801a44 	addi	r2,sp,105
    4e00:	d8c016c4 	addi	r3,sp,91
    4e04:	1505c83a 	sub	r2,r2,r20
    4e08:	1885883a 	add	r2,r3,r2
    4e0c:	d8c01644 	addi	r3,sp,89
    4e10:	10c5c83a 	sub	r2,r2,r3
    4e14:	d8801015 	stw	r2,64(sp)
    4e18:	d8c00817 	ldw	r3,32(sp)
    4e1c:	d9001017 	ldw	r4,64(sp)
    4e20:	18800088 	cmpgei	r2,r3,2
    4e24:	192b883a 	add	r21,r3,r4
    4e28:	10015326 	beq	r2,zero,5378 <___vfprintf_internal_r+0x1ea8>
    4e2c:	d8800b17 	ldw	r2,44(sp)
    4e30:	a8ab883a 	add	r21,r21,r2
    4e34:	a829883a 	mov	r20,r21
    4e38:	a800010e 	bge	r21,zero,4e40 <___vfprintf_internal_r+0x1970>
    4e3c:	0029883a 	mov	r20,zero
    4e40:	d8000715 	stw	zero,28(sp)
    4e44:	00008406 	br	5058 <___vfprintf_internal_r+0x1b88>
    4e48:	880f883a 	mov	r7,r17
    4e4c:	10800044 	addi	r2,r2,1
    4e50:	1d47883a 	add	r3,r3,r21
    4e54:	b1c00015 	stw	r7,0(r22)
    4e58:	003a9306 	br	38a8 <___vfprintf_internal_r+0x3d8>
    4e5c:	d9801a04 	addi	r6,sp,104
    4e60:	900b883a 	mov	r5,r18
    4e64:	9809883a 	mov	r4,r19
    4e68:	000aef00 	call	aef0 <__sprint_r>
    4e6c:	103aa51e 	bne	r2,zero,3904 <___vfprintf_internal_r+0x434>
    4e70:	d8c01c17 	ldw	r3,112(sp)
    4e74:	dd802704 	addi	r22,sp,156
    4e78:	003cac06 	br	412c <___vfprintf_internal_r+0xc5c>
    4e7c:	d9801a04 	addi	r6,sp,104
    4e80:	900b883a 	mov	r5,r18
    4e84:	9809883a 	mov	r4,r19
    4e88:	da000e15 	stw	r8,56(sp)
    4e8c:	000aef00 	call	aef0 <__sprint_r>
    4e90:	103a9c1e 	bne	r2,zero,3904 <___vfprintf_internal_r+0x434>
    4e94:	d8c01c17 	ldw	r3,112(sp)
    4e98:	da000e17 	ldw	r8,56(sp)
    4e9c:	dd802704 	addi	r22,sp,156
    4ea0:	003a7806 	br	3884 <___vfprintf_internal_r+0x3b4>
    4ea4:	8809883a 	mov	r4,r17
    4ea8:	db000415 	stw	r12,16(sp)
    4eac:	d8c00615 	stw	r3,24(sp)
    4eb0:	00014a00 	call	14a0 <strlen>
    4eb4:	db000417 	ldw	r12,16(sp)
    4eb8:	102b883a 	mov	r21,r2
    4ebc:	1029883a 	mov	r20,r2
    4ec0:	003a4606 	br	37dc <___vfprintf_internal_r+0x30c>
    4ec4:	800f883a 	mov	r7,r16
    4ec8:	dc000717 	ldw	r16,28(sp)
    4ecc:	ad400044 	addi	r21,r21,1
    4ed0:	1d87883a 	add	r3,r3,r22
    4ed4:	e1c00015 	stw	r7,0(fp)
    4ed8:	003da106 	br	4560 <___vfprintf_internal_r+0x1090>
    4edc:	d8800d17 	ldw	r2,52(sp)
    4ee0:	d9000b17 	ldw	r4,44(sp)
    4ee4:	b0800015 	stw	r2,0(r22)
    4ee8:	d8801b17 	ldw	r2,108(sp)
    4eec:	20c7883a 	add	r3,r4,r3
    4ef0:	b1000115 	stw	r4,4(r22)
    4ef4:	10800044 	addi	r2,r2,1
    4ef8:	d8c01c15 	stw	r3,112(sp)
    4efc:	d8801b15 	stw	r2,108(sp)
    4f00:	11000208 	cmpgei	r4,r2,8
    4f04:	2000981e 	bne	r4,zero,5168 <___vfprintf_internal_r+0x1c98>
    4f08:	b5800204 	addi	r22,r22,8
    4f0c:	a83d5c0e 	bge	r21,zero,4480 <___vfprintf_internal_r+0xfb0>
    4f10:	01c000b4 	movhi	r7,2
    4f14:	a93ffc08 	cmpgei	r4,r21,-16
