
fonte.elf:     file format elf32-littlenios2
fonte.elf
architecture: nios2:r1, flags 0x00000112:
EXEC_P, HAS_SYMS, D_PAGED
start address 0x00000238

Program Header:
    LOAD off    0x00001000 vaddr 0x00000000 paddr 0x00000000 align 2**12
         filesz 0x00000020 memsz 0x00000020 flags r-x
    LOAD off    0x00001020 vaddr 0x00000020 paddr 0x00000020 align 2**12
         filesz 0x0000b9c8 memsz 0x0000b9c8 flags r-x
    LOAD off    0x0000c9e8 vaddr 0x0000b9e8 paddr 0x0000e1d8 align 2**12
         filesz 0x000027f0 memsz 0x000027f0 flags rw-
    LOAD off    0x000009c8 vaddr 0x000109c8 paddr 0x000109c8 align 2**12
         filesz 0x00000000 memsz 0x00004974 flags rw-

Sections:
Idx Name          Size      VMA       LMA       File off  Algn
  0 .entry        00000020  00000000  00000000  00001000  2**5
                  CONTENTS, ALLOC, LOAD, READONLY, CODE
  1 .exceptions   00000218  00000020  00000020  00001020  2**2
                  CONTENTS, ALLOC, LOAD, READONLY, CODE
  2 .text         0000b5c4  00000238  00000238  00001238  2**2
                  CONTENTS, ALLOC, LOAD, READONLY, CODE
  3 .rodata       000001ec  0000b7fc  0000b7fc  0000c7fc  2**2
                  CONTENTS, ALLOC, LOAD, READONLY, DATA
  4 .rwdata       000027f0  0000b9e8  0000e1d8  0000c9e8  2**2
                  CONTENTS, ALLOC, LOAD, DATA, SMALL_DATA
  5 .bss          00004974  000109c8  000109c8  0000f9c8  2**2
                  ALLOC, SMALL_DATA
  6 .sdram        00000000  0001533c  0001533c  0000f1d8  2**0
                  CONTENTS
  7 .onchip_sram  00000000  08000000  08000000  0000f1d8  2**0
                  CONTENTS
  8 .VGA_Char_Buf_Subsystem_Onchip_SRAM 00000000  09000000  09000000  0000f1d8  2**0
                  CONTENTS
  9 .comment      0000002d  00000000  00000000  0000f1d8  2**0
                  CONTENTS, READONLY
 10 .debug_aranges 000007e8  00000000  00000000  0000f208  2**3
                  CONTENTS, READONLY, DEBUGGING, OCTETS
 11 .debug_info   00012320  00000000  00000000  0000f9f0  2**0
                  CONTENTS, READONLY, DEBUGGING, OCTETS
 12 .debug_abbrev 00005682  00000000  00000000  00021d10  2**0
                  CONTENTS, READONLY, DEBUGGING, OCTETS
 13 .debug_line   00006038  00000000  00000000  00027392  2**0
                  CONTENTS, READONLY, DEBUGGING, OCTETS
 14 .debug_frame  00001eec  00000000  00000000  0002d3cc  2**2
                  CONTENTS, READONLY, DEBUGGING, OCTETS
 15 .debug_str    0000282c  00000000  00000000  0002f2b8  2**0
                  CONTENTS, READONLY, DEBUGGING, OCTETS
 16 .debug_alt_sim_info 00000030  00000000  00000000  00031ae4  2**2
                  CONTENTS, READONLY, DEBUGGING, OCTETS
 17 .debug_ranges 00000070  00000000  00000000  00031b18  2**3
                  CONTENTS, READONLY, DEBUGGING, OCTETS
 18 .debug_line_str 00001000  00000000  00000000  00031b88  2**0
                  CONTENTS, READONLY, DEBUGGING, OCTETS
 19 .debug_rnglists 00000179  00000000  00000000  00032b88  2**0
                  CONTENTS, READONLY, DEBUGGING, OCTETS
 20 .debug_loclists 00000a16  00000000  00000000  00032d01  2**0
                  CONTENTS, READONLY, DEBUGGING, OCTETS
 21 .thread_model 00000006  00000000  00000000  0003703e  2**0
                  CONTENTS, READONLY
 22 .cpu          00000005  00000000  00000000  00037044  2**0
                  CONTENTS, READONLY
 23 .qsys         00000001  00000000  00000000  00037049  2**0
                  CONTENTS, READONLY
 24 .simulation_enabled 00000001  00000000  00000000  0003704a  2**0
                  CONTENTS, READONLY
 25 .stderr_dev   00000009  00000000  00000000  0003704b  2**0
                  CONTENTS, READONLY
 26 .stdin_dev    00000009  00000000  00000000  00037054  2**0
                  CONTENTS, READONLY
 27 .stdout_dev   00000009  00000000  00000000  0003705d  2**0
                  CONTENTS, READONLY
 28 .sopc_system_name 00000005  00000000  00000000  00037066  2**0
                  CONTENTS, READONLY
 29 .quartus_project_dir 0000001a  00000000  00000000  0003706b  2**0
                  CONTENTS, READONLY
 30 .jdi          00004480  00000000  00000000  00037085  2**0
                  CONTENTS, READONLY
 31 .sopcinfo     000c2337  00000000  00000000  0003b505  2**0
                  CONTENTS, READONLY
SYMBOL TABLE:
00000000 l    d  .entry	00000000 .entry
00000020 l    d  .exceptions	00000000 .exceptions
00000238 l    d  .text	00000000 .text
0000b7fc l    d  .rodata	00000000 .rodata
0000b9e8 l    d  .rwdata	00000000 .rwdata
000109c8 l    d  .bss	00000000 .bss
0001533c l    d  .sdram	00000000 .sdram
08000000 l    d  .onchip_sram	00000000 .onchip_sram
09000000 l    d  .VGA_Char_Buf_Subsystem_Onchip_SRAM	00000000 .VGA_Char_Buf_Subsystem_Onchip_SRAM
00000000 l    d  .comment	00000000 .comment
00000000 l    d  .debug_aranges	00000000 .debug_aranges
00000000 l    d  .debug_info	00000000 .debug_info
00000000 l    d  .debug_abbrev	00000000 .debug_abbrev
00000000 l    d  .debug_line	00000000 .debug_line
00000000 l    d  .debug_frame	00000000 .debug_frame
00000000 l    d  .debug_str	00000000 .debug_str
00000000 l    d  .debug_alt_sim_info	00000000 .debug_alt_sim_info
00000000 l    d  .debug_ranges	00000000 .debug_ranges
00000000 l    d  .debug_line_str	00000000 .debug_line_str
00000000 l    d  .debug_rnglists	00000000 .debug_rnglists
00000000 l    d  .debug_loclists	00000000 .debug_loclists
00000000 l    df *ABS*	00000000 crt0.o
00000280 l       .text	00000000 alt_after_alt_main
00000000 l    df *ABS*	00000000 alt_irq_handler.c
00000000 l    df *ABS*	00000000 alt_instruction_exception_entry.c
00000000 l    df *ABS*	00000000 bsp.c
0000b9e8 l     O .rwdata	00000010 szMap
00000000 l    df *ABS*	00000000 hello_ucosii.c
00000000 l    df *ABS*	00000000 rom8x8.c
00000000 l    df *ABS*	00000000 vgalib.c
000109c8 l     O .bss	00000004 video_buffer
000109cc l     O .bss	00000004 cur_x
000109d0 l     O .bss	00000004 cur_y
00000000 l    df *ABS*	00000000 alt_load.c
000009a0 l     F .text	00000068 alt_load_section
00000000 l    df *ABS*	00000000 alt_main.c
00000000 l    df *ABS*	00000000 alt_env_lock.c
0000e12c l     O .rwdata	00000004 lockid
000109e4 l     O .bss	00000004 locks
00000000 l    df *ABS*	00000000 alt_malloc_lock.c
0000e130 l     O .rwdata	00000004 lockid
000109ec l     O .bss	00000004 locks
00000000 l    df *ABS*	00000000 os_core.c
00002424 l     F .text	0000004c OS_InitMisc
00002470 l     F .text	00000064 OS_InitRdyList
000025dc l     F .text	00000100 OS_InitTCBList
00002328 l     F .text	000000fc OS_InitEventList
000024d4 l     F .text	00000084 OS_InitTaskIdle
00002558 l     F .text	00000084 OS_InitTaskStat
0000286c l     F .text	0000006c OS_SchedNew
00000000 l    df *ABS*	00000000 os_dbg_r.c
00000000 l    df *ABS*	00000000 os_flag.c
00004620 l     F .text	00000104 OS_FlagTaskRdy
000043c8 l     F .text	0000015c OS_FlagBlock
00000000 l    df *ABS*	00000000 os_mem.c
00000000 l    df *ABS*	00000000 os_q.c
00000000 l    df *ABS*	00000000 os_sem.c
00000000 l    df *ABS*	00000000 os_task.c
00000000 l    df *ABS*	00000000 os_time.c
00000000 l    df *ABS*	00000000 alt_sys_init.c
00008918 l     F .text	00000034 alt_dev_reg
0000c9f8 l     O .rwdata	0000106c jtag_uart
0000da64 l     O .rwdata	0000005c VGA_Char_Buf_Subsystem_Char_Buf_DMA
0000dac0 l     O .rwdata	0000005c VGA_VGA_Pixel_DMA
0000db1c l     O .rwdata	00000044 VGA_VGA_Pixel_RGB_Resampler
00000000 l    df *ABS*	00000000 altera_avalon_jtag_uart_fd.c
00000000 l    df *ABS*	00000000 altera_avalon_jtag_uart_init.c
0000916c l     F .text	000002ac altera_avalon_jtag_uart_irq
00009418 l     F .text	0000010c altera_avalon_jtag_uart_timeout
00000000 l    df *ABS*	00000000 altera_avalon_jtag_uart_ioctl.c
00000000 l    df *ABS*	00000000 altera_avalon_jtag_uart_read.c
00000000 l    df *ABS*	00000000 altera_avalon_jtag_uart_write.c
00000000 l    df *ABS*	00000000 altera_avalon_timer_sc.c
00009c18 l     F .text	0000007c alt_avalon_timer_sc_irq
00000000 l    df *ABS*	00000000 alt_alarm_start.c
00000000 l    df *ABS*	00000000 alt_close.c
00009e78 l     F .text	0000003c alt_get_errno
00000000 l    df *ABS*	00000000 alt_dcache_flush_all.c
00000000 l    df *ABS*	00000000 alt_dev.c
00009fd0 l     F .text	0000002c alt_dev_null_write
00000000 l    df *ABS*	00000000 alt_dev_llist_insert.c
00009ffc l     F .text	0000003c alt_get_errno
00000000 l    df *ABS*	00000000 alt_do_ctors.c
00000000 l    df *ABS*	00000000 alt_do_dtors.c
00000000 l    df *ABS*	00000000 alt_errno.c
00000000 l    df *ABS*	00000000 alt_icache_flush_all.c
00000000 l    df *ABS*	00000000 alt_iic.c
00000000 l    df *ABS*	00000000 alt_iic_isr_register.c
00000000 l    df *ABS*	00000000 alt_io_redirect.c
0000a474 l     F .text	000000b0 alt_open_fd
00000000 l    df *ABS*	00000000 alt_irq_vars.c
00000000 l    df *ABS*	00000000 alt_open.c
0000a5a0 l     F .text	0000003c alt_get_errno
0000a5dc l     F .text	000000b8 alt_file_locked
00000000 l    df *ABS*	00000000 alt_release_fd.c
00000000 l    df *ABS*	00000000 alt_tick.c
00000000 l    df *ABS*	00000000 altera_nios2_gen2_irq.c
00000000 l    df *ABS*	00000000 os_cpu_a.o
00000040 l       *ABS*	00000000 OSCtxSw_SWITCH_PC
00000000 l    df *ABS*	00000000 os_cpu_c.c
00000014 l       *ABS*	00000000 OSTCBNext_OFFSET
0000003a l       *ABS*	00000000 OSTCBPrio_OFFSET
00000000 l       *ABS*	00000000 OSTCBStkPtr_OFFSET
00000000 l    df *ABS*	00000000 alt_find_dev.c
00000000 l    df *ABS*	00000000 alt_find_file.c
00000000 l    df *ABS*	00000000 alt_get_fd.c
00000000 l    df *ABS*	00000000 alt_icache_flush.c
00000000 l    df *ABS*	00000000 atexit.c
00000000 l    df *ABS*	00000000 exit.c
00000000 l    df *ABS*	00000000 impure.c
0000dd08 l     O .rwdata	00000424 impure_data
00000000 l    df *ABS*	00000000 int_errno.c
00000000 l    df *ABS*	00000000 memcmp.c
00000000 l    df *ABS*	00000000 memcpy.c
00000000 l    df *ABS*	00000000 memset.c
00000000 l    df *ABS*	00000000 strlen.c
00000000 l    df *ABS*	00000000 __atexit.c
00000000 l    df *ABS*	00000000 __call_atexit.c
00000000 l    df *ABS*	00000000 lib2-divmod.c
00000000 l    df *ABS*	00000000 alt_exit.c
00010a50 g     O .bss	00000004 alt_instruction_exception_handler
00000a8c g     F .text	000000c0 alt_main
0001523c g     O .bss	00000100 alt_irq
00004df4 g     F .text	000000dc OS_MemInit
0000e1d8 g       *ABS*	00000000 __flash_rwdata_start
000088b4 g     F .text	00000064 OSTimeSet
00001074 g     F .text	00000640 OSEventPendMulti
0000ac50 g     F .text	00000024 OSTaskCreateHook
00010a58 g     O .bss	00002000 task1_stk
0000e156 g     O .rwdata	00000002 OSMboxEn
0000170c g     F .text	0000004c OSIntEnter
000081d4 g     F .text	000000b0 OSTaskRegGetID
0000e166 g     O .rwdata	00000002 OSQEn
000002cc g     F .text	00000028 BSP_clrLED
0000e152 g     O .rwdata	00000002 OSFlagNameEn
00000d94 g     F .text	000000d4 __malloc_unlock
0000acb8 g     F .text	00000020 OSTaskStatHook
00010a0a g     O .bss	00000001 OSLockNesting
00010a34 g     O .bss	00000001 OSTaskRegNextAvailID
0000e1a8 g     O .rwdata	00000002 OSDataSize
00010a11 g     O .bss	00000001 OSRunning
0000acf8 g     F .text	00000020 OSInitHookBegin
0000e1a0 g     O .rwdata	00000002 OSTmrSize
00010a14 g     O .bss	00000004 OSIdleCtr
0000aa10 g     F .text	00000024 altera_nios2_gen2_irq_init
0000aae0 g       .text	00000000 OSStartTsk
00002bd8 g     F .text	00000350 OS_TCBInit
00000000 g     F .entry	0000001c __reset
0000838c g     F .text	0000003c OS_TaskReturn
0000e1a6 g     O .rwdata	00000002 OSTmrWheelTblSize
00000020 g       *ABS*	00000000 __flash_exceptions_start
0000e142 g     O .rwdata	00000002 OSEventSize
00010a0c g     O .bss	00000001 OSPrioHighRdy
0000ac74 g     F .text	00000024 OSTaskDelHook
00010a54 g     O .bss	00000004 errno
0000aac0 g       .text	00000000 OSStartHighRdy
000070b8 g     F .text	000001dc OSTaskCreateExt
00003f04 g     F .text	00000064 OSFlagPendGetFlagsRdy
0000e182 g     O .rwdata	00000002 OSTaskStatStkSize
000030b8 g     F .text	0000030c OSFlagAccept
00005428 g     F .text	000000bc OSQFlush
00004ed0 g     F .text	00000134 OSQAccept
000109d8 g     O .bss	00000004 alt_argv
0001612c g       *ABS*	00000000 _gp
00006f14 g     F .text	000001a4 OSTaskCreate
00006a60 g     F .text	000004b4 OSTaskChangePrio
000109e8 g     O .bss	00000004 alt_heapsem
00002f28 g     F .text	00000190 OSDebugInit
00007294 g     F .text	00000340 OSTaskDel
0000db88 g     O .rwdata	00000180 alt_fd_list
00012f08 g     O .bss	00000140 OSFlagTbl
00002124 g     F .text	000000b0 OS_EventTaskRemove
0000ada0 g     F .text	00000090 alt_find_dev
0000b1d4 g     F .text	00000100 memcpy
0000e16c g     O .rwdata	00000002 OSRdyTblSize
0000a524 g     F .text	0000007c alt_io_redirect
0000b7fc g       *ABS*	00000000 __DTOR_END__
0000b0a0 g     F .text	00000074 alt_exception_cause_generated_bad_addr
00000e68 g     F .text	00000120 OSEventNameGet
0000e150 g     O .rwdata	00000002 OSFlagMax
00000794 g     F .text	0000008c VgaWriteScreen
00001758 g     F .text	000000f4 OSIntExit
0000e18c g     O .rwdata	00000002 OSTCBSize
00010a0b g     O .bss	00000001 OSPrioCur
00009680 g     F .text	000002c8 altera_avalon_jtag_uart_read
0000b704 g     F .text	00000064 .hidden __udivsi3
0000e170 g     O .rwdata	00000002 OSStkWidth
0000e164 g     O .rwdata	00000002 OSPtrSize
0000e144 g     O .rwdata	00000002 OSEventTblSize
0000aa34 g       .text	00000000 OSCtxSw
0000b010 g     F .text	00000090 alt_icache_flush
00010a24 g     O .bss	00000004 OSTCBList
00008284 g     F .text	00000108 OSTaskRegSet
00010a3c g     O .bss	00000004 alt_fd_list_lock
00014abc g     O .bss	000005a0 OSMemTbl
00010a28 g     O .bss	00000001 OSTickStepState
0000e15c g     O .rwdata	00000002 OSMemNameEn
09000000 g       *ABS*	00000000 __alt_mem_VGA_Char_Buf_Subsystem_Onchip_SRAM
0000e168 g     O .rwdata	00000002 OSQMax
00013048 g     O .bss	00000800 OSTaskStatStk
00004a78 g     F .text	000000f0 OSMemNameGet
0000e148 g     O .rwdata	00000002 OSFlagEn
0000e190 g     O .rwdata	00000002 OSTimeTickHookEn
000058d4 g     F .text	00000174 OSQPost
00004724 g     F .text	000000a4 OS_FlagUnlink
0000e1bc g     O .rwdata	00000004 alt_max_fd
00002734 g     F .text	0000006c OS_MemCopy
000027a0 g     F .text	000000cc OS_Sched
00004990 g     F .text	000000e8 OSMemGet
000078c4 g     F .text	00000160 OSTaskNameSet
000109f0 g     O .bss	00000004 OSCtxSwCtr
0000acd8 g     F .text	00000020 OSTimeTickHook
000021d4 g     F .text	000000f4 OS_EventTaskRemoveMulti
00001fdc g     F .text	00000148 OS_EventTaskWaitMulti
0000e16a g     O .rwdata	00000002 OSQSize
000063cc g     F .text	0000020c OSSemPend
0000e140 g     O .rwdata	00000002 OSEventNameEn
0000e1d0 g     O .rwdata	00000004 _global_impure_ptr
0000e154 g     O .rwdata	00000002 OSLowestPrio
0001533c g       *ABS*	00000000 __bss_end
0000a38c g     F .text	000000e8 alt_iic_isr_register
0000ad7c g     F .text	00000024 OSTCBInitHook
0000e19e g     O .rwdata	00000002 OSTmrCfgTicksPerSec
0000a8e4 g     F .text	0000012c alt_tick
000003d4 g     F .text	000000e8 task_fonte
0000e13c g     O .rwdata	00000002 OSEventEn
0000a340 g     F .text	0000004c alt_ic_irq_enabled
00004524 g     F .text	000000fc OS_FlagInit
08000000 g       *ABS*	00000000 __alt_mem_onchip_sram
0000a840 g     F .text	000000a4 alt_alarm_stop
0000e17e g     O .rwdata	00000002 OSTaskNameEn
00000820 g     F .text	00000048 VgaPrintAt
0000e178 g     O .rwdata	00000002 OSTaskIdleStkSize
00010a40 g     O .bss	00000004 alt_irq_active
00006008 g     F .text	000000b4 OSSemAccept
00004c28 g     F .text	000000e0 OSMemPut
000047c8 g     F .text	000001c8 OSMemCreate
00010a00 g     O .bss	00000004 OSIdleCtrMax
000000fc g     F .exceptions	000000c8 alt_irq_handler
0000db60 g     O .rwdata	00000028 alt_dev_null
0000e18e g     O .rwdata	00000002 OSTicksPerSec
0000ad58 g     F .text	00000024 OSTaskReturnHook
0000aa34 g       .text	00000000 OSIntCtxSw
00009f84 g     F .text	0000004c alt_dcache_flush_all
000080c4 g     F .text	00000110 OSTaskRegGet
0000e194 g     O .rwdata	00000002 OS_TLS_TblSize
00010a1c g     O .bss	00000004 OSTCBFreeList
0000e1d8 g       *ABS*	00000000 __ram_rwdata_end
000065d8 g     F .text	00000164 OSSemPendAbort
0000e1b4 g     O .rwdata	00000008 alt_dev_list
0000e192 g     O .rwdata	00000002 OSVersionNbr
0000b9e8 g       *ABS*	00000000 __ram_rodata_end
0000e138 g     O .rwdata	00000004 OSEndiannessTest
0000b768 g     F .text	0000005c .hidden __umodsi3
000002f4 g     F .text	00000020 BSP_readSW
0000e14a g     O .rwdata	00000002 OSFlagGrpSize
0000b9f8 g     O .rwdata	00001000 rom8x8_bits
0001533c g       *ABS*	00000000 end
0000901c g     F .text	00000150 altera_avalon_jtag_uart_init
0000299c g     F .text	00000178 OS_TaskStat
000001c4 g     F .exceptions	00000074 alt_instruction_exception_entry
0000b7fc g       *ABS*	00000000 __CTOR_LIST__
04000000 g       *ABS*	00000000 __alt_stack_pointer
00009c94 g     F .text	00000084 alt_avalon_timer_sc_init
00009948 g     F .text	000002d0 altera_avalon_jtag_uart_write
00000284 g     F .text	00000020 BSP_init
000026dc g     F .text	00000058 OS_MemClr
0000ab04 g     F .text	0000014c OSTaskStkInit
00001d48 g     F .text	0000018c OS_EventTaskRdy
0000b4f0 g     F .text	00000120 __call_exitprocs
000109fc g     O .bss	00000001 OSCPUUsage
00000238 g     F .text	0000004c _start
00010a44 g     O .bss	00000004 _alt_tick_rate
000054e4 g     F .text	0000028c OSQPend
00008438 g     F .text	00000118 OSTimeDly
00000568 g     F .text	000000a4 VgaClearScreen
00010a48 g     O .bss	00000008 _alt_nticks
00008988 g     F .text	00000530 alt_sys_init
0000b460 g     F .text	00000090 __register_exitproc
00010a12 g     O .bss	00000001 OSTaskCtr
00008550 g     F .text	00000128 OSTimeDlyHMSM
00009524 g     F .text	00000068 altera_avalon_jtag_uart_close
0000e19a g     O .rwdata	00000002 OSTmrCfgNameEn
0000b9e8 g       *ABS*	00000000 __ram_rwdata_start
0000b7fc g       *ABS*	00000000 __ram_rodata_start
0000e13e g     O .rwdata	00000002 OSEventMax
0000673c g     F .text	0000011c OSSemPost
000018dc g     F .text	000000e4 OSSchedUnlock
00008eb8 g     F .text	00000060 altera_avalon_jtag_uart_read_fd
0000af38 g     F .text	000000d8 alt_get_fd
00010a2c g     O .bss	00000004 OSMemFreeList
00001a28 g     F .text	000000b8 OSStatInit
00004310 g     F .text	000000b8 OSFlagQuery
00000534 g     F .text	00000034 VgaInit
0000e174 g     O .rwdata	00000002 OSTaskCreateExtEn
0000b15c g     F .text	00000078 memcmp
00001d28 g     F .text	00000020 OS_Dummy
00008f78 g     F .text	00000050 altera_avalon_jtag_uart_close_fd
0001533c g       *ABS*	00000000 __alt_stack_base
00008fc8 g     F .text	00000054 altera_avalon_jtag_uart_ioctl_fd
0001505c g     O .bss	000001e0 OSQTbl
00000314 g     F .text	00000028 BSP_readBP
00010a20 g     O .bss	00000004 OSTCBHighRdy
00010a30 g     O .bss	00000004 OSQFreeList
0000ae30 g     F .text	00000108 alt_find_file
0000037c g     F .text	00000024 SEG7_Decimal
0000a038 g     F .text	000000a8 alt_dev_llist_insert
00000c6c g     F .text	00000128 __malloc_lock
00000f88 g     F .text	000000ec OSEventNameSet
00010a0d g     O .bss	00000001 OSRdyGrp
0000068c g     F .text	00000108 VgaWriteCharacter
000109c8 g       *ABS*	00000000 __bss_start
0000b2d4 g     F .text	000000f4 memset
000004bc g     F .text	00000078 main
000109dc g     O .bss	00000004 alt_envp
00008f18 g     F .text	00000060 altera_avalon_jtag_uart_write_fd
0000b82c g     O .rodata	00000100 OSUnMapTbl
0000e16e g     O .rwdata	00000002 OSSemEn
00003f68 g     F .text	000003a8 OSFlagPost
00001ed4 g     F .text	00000108 OS_EventTaskWait
00002b14 g     F .text	000000c4 OS_TaskStatStkChk
000075d4 g     F .text	00000158 OSTaskDelReq
0000e1c0 g     O .rwdata	00000004 alt_errno
000019c0 g     F .text	00000068 OSStart
00000c0c g     F .text	00000060 __env_unlock
00007a24 g     F .text	000001e0 OSTaskResume
00004d08 g     F .text	000000ec OSMemQuery
0000e180 g     O .rwdata	00000002 OSTaskStatEn
0000e15a g     O .rwdata	00000002 OSMemMax
00005a48 g     F .text	0000017c OSQPostFront
0000b610 g     F .text	00000080 .hidden __divsi3
00010a0e g     O .bss	00000003 OSRdyTbl
0000e134 g     O .rwdata	00000002 OSDebugEn
0000b7fc g       *ABS*	00000000 __CTOR_END__
0000e14c g     O .rwdata	00000002 OSFlagNodeSize
0000e198 g     O .rwdata	00000002 OSTmrCfgMax
00005004 g     F .text	000001ac OSQCreate
0000772c g     F .text	00000198 OSTaskNameGet
0000b7fc g       *ABS*	00000000 __flash_rodata_start
00005bc4 g     F .text	00000218 OSQPostOpt
00001ae0 g     F .text	00000228 OSTimeTick
0000e17c g     O .rwdata	00000002 OSTaskMax
0000b7fc g       *ABS*	00000000 __DTOR_LIST__
000060bc g     F .text	000000d8 OSSemCreate
0000e1a4 g     O .rwdata	00000002 OSTmrWheelSize
000003a0 g     F .text	00000034 min
0000e176 g     O .rwdata	00000002 OSTaskDelEn
00006858 g     F .text	00000114 OSSemQuery
000051b0 g     F .text	00000278 OSQDel
00005770 g     F .text	00000164 OSQPendAbort
0000894c g     F .text	0000003c alt_irq_init
0000a7e8 g     F .text	00000058 alt_release_fd
0000033c g     F .text	00000020 SEG7_on
0000b114 g     F .text	00000014 atexit
0000035c g     F .text	00000020 SEG7_off
0000184c g     F .text	00000090 OSSchedLock
000033c4 g     F .text	000000fc OSFlagCreate
0000e1d4 g     O .rwdata	00000004 _impure_ptr
000109d4 g     O .bss	00000004 alt_argc
0000a144 g     F .text	00000064 _do_dtors
0000e146 g     O .rwdata	00000002 OSEventMultiEn
000034c0 g     F .text	00000244 OSFlagDel
000109f4 g     O .bss	00000004 OSEventFreeList
00000020 g       .exceptions	00000000 alt_irq_entry
0000392c g     F .text	000005d8 OSFlagPend
0000e196 g     O .rwdata	00000002 OSTmrEn
0000e1ac g     O .rwdata	00000008 alt_fs_list
0000ad18 g     F .text	00000020 OSInitHookEnd
00000020 g       *ABS*	00000000 __ram_exceptions_start
0000e18a g     O .rwdata	00000002 OSTCBPrioTblMax
0000e184 g     O .rwdata	00000002 OSTaskStatStkChkEn
0000a1dc g     F .text	00000050 alt_ic_isr_register
0000e158 g     O .rwdata	00000002 OSMemEn
0000e162 g     O .rwdata	00000002 OSMutexEn
0000060c g     F .text	00000080 VgaSetCursor
0000e1d8 g       *ABS*	00000000 _edata
0001533c g       *ABS*	00000000 _end
00010a09 g     O .bss	00000001 OSIntNesting
00000238 g       *ABS*	00000000 __ram_exceptions_end
0000958c g     F .text	000000f4 altera_avalon_jtag_uart_ioctl
00008678 g     F .text	000001dc OSTimeDlyResume
00003830 g     F .text	000000fc OSFlagNameSet
0000e188 g     O .rwdata	00000002 OSTaskRegTblSize
00007c04 g     F .text	000001b0 OSTaskStkChk
0000a2b4 g     F .text	0000008c alt_ic_irq_disable
0000e15e g     O .rwdata	00000002 OSMemSize
00010a18 g     O .bss	00000004 OSTCBCur
0000b128 g     F .text	00000034 exit
0000e160 g     O .rwdata	00000002 OSMemTblSize
0000b690 g     F .text	00000074 .hidden __modsi3
04000000 g       *ABS*	00000000 __alt_data_end
00000020 g     F .exceptions	00000000 alt_exception
000016b4 g     F .text	00000058 OSInit
00000000 g       *ABS*	00000000 __alt_mem_sdram
00007f9c g     F .text	00000128 OSTaskQuery
00005f3c g     F .text	000000cc OS_QInit
000028d8 g     F .text	00000064 OS_StrLen
00004b68 g     F .text	000000c0 OSMemNameSet
0000e17a g     O .rwdata	00000002 OSTaskProfileEn
00010a38 g     O .bss	00000004 OSTime
00013848 g     O .bss	00000800 OSTaskIdleStk
0000b7c4 g     F .text	00000038 _exit
00009d18 g     F .text	00000160 alt_alarm_start
00003704 g     F .text	0000012c OSFlagNameGet
00008854 g     F .text	00000060 OSTimeGet
0000b3c8 g     F .text	00000098 strlen
0000ac98 g     F .text	00000020 OSTaskSwHook
0000a694 g     F .text	00000154 open
00012a58 g     O .bss	000004b0 OSEventTbl
0001409c g     O .bss	00000a20 OSTCBTbl
0000696c g     F .text	000000f4 OSSemSet
0000a1a8 g     F .text	00000034 alt_icache_flush_all
0000e1c4 g     O .rwdata	00000004 alt_priority_mask
00006194 g     F .text	00000238 OSSemDel
000109f8 g     O .bss	00000004 OSFlagFreeList
0000a22c g     F .text	00000088 alt_ic_irq_enable
00010a08 g     O .bss	00000001 OSStatRdy
00014048 g     O .bss	00000054 OSTCBPrioTbl
00000b4c g     F .text	000000c0 __env_lock
0000e186 g     O .rwdata	00000002 OSTaskSwHookEn
0000e1c8 g     O .rwdata	00000008 alt_alarm_list
0000e14e g     O .rwdata	00000002 OSFlagWidth
0000a0e0 g     F .text	00000064 _do_ctors
00009eb4 g     F .text	000000d0 close
000002a4 g     F .text	00000028 BSP_setLED
000109e0 g     O .bss	00000004 alt_envsem
00010a04 g     O .bss	00000004 OSIdleCtrRun
00001d08 g     F .text	00000020 OSVersion
0000e19c g     O .rwdata	00000002 OSTmrCfgWheelSize
00000a08 g     F .text	00000084 alt_load
000083c8 g     F .text	00000070 OS_TaskStkClr
0000e172 g     O .rwdata	00000002 OSTaskCreateEn
000022c8 g     F .text	00000060 OS_EventWaitListInit
00000868 g     F .text	00000138 VgaDrawBox
0000ad38 g     F .text	00000020 OSTaskIdleHook
00007db4 g     F .text	000001e8 OSTaskSuspend
0000293c g     F .text	00000060 OS_TaskIdle
0000e1a2 g     O .rwdata	00000002 OSTmrTblSize
00005ddc g     F .text	00000160 OSQQuery



Disassembly of section .entry:

00000000 <__reset>:
#if NIOS2_ICACHE_SIZE > 0 && defined(ALT_ALLOW_CODE_AT_RESET) && (!defined(ALT_SIM_OPTIMIZE) || defined(NIOS2_ECC_PRESENT))
    /* Assume the instruction cache size is always a power of two. */
#if NIOS2_ICACHE_SIZE > 0x8000
    movhi r2, %hi(NIOS2_ICACHE_SIZE)
#else
    movui r2, NIOS2_ICACHE_SIZE
   0:	00840014 	movui	r2,4096
#endif

0:
    initi r2
   4:	1001483a 	initi	r2
    addi r2, r2, -NIOS2_ICACHE_LINE_SIZE
   8:	10bff804 	addi	r2,r2,-32
    bgt r2, zero, 0b
   c:	00bffd16 	blt	zero,r2,4 <__reset+0x4>
 * Jump to the _start entry point in the .text section if reset code
 * is allowed or if optimizing for RTL simulation.
 */
#if defined(ALT_ALLOW_CODE_AT_RESET) || defined(ALT_SIM_OPTIMIZE)
    /* Jump to the _start entry point in the .text section. */
    movhi r1, %hi(_start)
  10:	00400034 	movhi	at,0
    ori r1, r1, %lo(_start)
  14:	08408e14 	ori	at,at,568
    jmp r1
  18:	0800683a 	jmp	at
  1c:	00000000 	call	0 <__reset>

Disassembly of section .exceptions:

00000020 <alt_exception>:

#else /* ALT_EXCEPTION_STACK disabled */
        /* 
         * Reserve space on normal stack for registers about to be pushed.
         */
        addi  sp, sp, -76
  20:	deffed04 	addi	sp,sp,-76
         * documentation for details).
         *
         * Leave a gap in the stack frame at 4(sp) for the muldiv handler to
         * store zero into.
         */
        stw   ra,  0(sp)
  24:	dfc00015 	stw	ra,0(sp)
        stw   r1,   8(sp)
  28:	d8400215 	stw	at,8(sp)
        stw   r2,  12(sp)
  2c:	d8800315 	stw	r2,12(sp)
        stw   r3,  16(sp)
  30:	d8c00415 	stw	r3,16(sp)
        stw   r4,  20(sp)
  34:	d9000515 	stw	r4,20(sp)
        stw   r5,  24(sp)
  38:	d9400615 	stw	r5,24(sp)
        stw   r6,  28(sp)
  3c:	d9800715 	stw	r6,28(sp)
        stw   r7,  32(sp)
  40:	d9c00815 	stw	r7,32(sp)
        rdctl r5, estatus   /* Read early to avoid usage stall */
  44:	000b307a 	rdctl	r5,estatus
        stw   r8,  36(sp)
  48:	da000915 	stw	r8,36(sp)
        stw   r9,  40(sp)
  4c:	da400a15 	stw	r9,40(sp)
        stw   r10, 44(sp)
  50:	da800b15 	stw	r10,44(sp)
        stw   r11, 48(sp)
  54:	dac00c15 	stw	r11,48(sp)
        stw   r12, 52(sp)
  58:	db000d15 	stw	r12,52(sp)
        stw   r13, 56(sp)
  5c:	db400e15 	stw	r13,56(sp)
        stw   r14, 60(sp)
  60:	db800f15 	stw	r14,60(sp)
        stw   r15, 64(sp)
  64:	dbc01015 	stw	r15,64(sp)
        /*
         * ea-4 contains the address of the instruction being executed
         * when the exception occured. For interrupt exceptions, we will
         * will be re-issue the isntruction. Store it in 72(sp)
         */
        stw   r5,  68(sp)  /* estatus */
  68:	d9401115 	stw	r5,68(sp)
        addi  r15, ea, -4  /* instruction that caused exception */
  6c:	ebffff04 	addi	r15,ea,-4
        stw   r15,  72(sp)
  70:	dbc01215 	stw	r15,72(sp)
#else
        /*
         * Test to see if the exception was a software exception or caused 
         * by an external interrupt, and vector accordingly.
         */
        rdctl r4, ipending
  74:	0009313a 	rdctl	r4,ipending
        andi  r2, r5, 1
  78:	2880004c 	andi	r2,r5,1
        beq   r2, zero, .Lnot_irq
  7c:	10000326 	beq	r2,zero,8c <OSCtxSw_SWITCH_PC+0x4c>
        beq   r4, zero, .Lnot_irq
  80:	20000226 	beq	r4,zero,8c <OSCtxSw_SWITCH_PC+0x4c>
        /*
         * Now that all necessary registers have been preserved, call 
         * alt_irq_handler() to process the interrupts.
         */

        call alt_irq_handler
  84:	00000fc0 	call	fc <alt_irq_handler>

        .section .exceptions.irqreturn, "xa"

        br    .Lexception_exit
  88:	00000706 	br	a8 <OSCtxSw_SWITCH_PC+0x68>
         * upon completion, so we write ea (address of instruction *after*
         * the one where the exception occured) into 72(sp). The actual
         * instruction that caused the exception is written in r2, which these
         * handlers will utilize.
         */
        stw ea, 72(sp) /* EA is PC+4 so will skip over instruction causing exception */
  8c:	df401215 	stw	ea,72(sp)
.Lunknown_16bit:
        addi.n r4, r4, 2 /* Need PC+2 to skip over instruction causing exception */
        stw r4, 72(sp)

#else /* CDX is not Enabled and all instructions are 32bits */
        ldw r2, -4(ea) /* Instruction value that caused exception */
  90:	e8bfff17 	ldw	r2,-4(ea)
  94:	e93fff04 	addi	r4,ea,-4
  98:	00001c40 	call	1c4 <alt_instruction_exception_entry>
  9c:	1000021e 	bne	r2,zero,a8 <OSCtxSw_SWITCH_PC+0x68>
  a0:	ebffff04 	addi	r15,ea,-4
  a4:	dbc01215 	stw	r15,72(sp)
        /* 
         * Restore the saved registers, so that all general purpose registers 
         * have been restored to their state at the time the interrupt occured.
         */

        ldw   r5,  68(sp)
  a8:	d9401117 	ldw	r5,68(sp)
        ldw   ea,  72(sp)  /* This becomes the PC once eret is executed */
  ac:	df401217 	ldw	ea,72(sp)
        ldw   ra,   0(sp)
  b0:	dfc00017 	ldw	ra,0(sp)

        wrctl estatus, r5
  b4:	2801707a 	wrctl	estatus,r5

        ldw   r1,   8(sp)
  b8:	d8400217 	ldw	at,8(sp)
        ldw   r2,  12(sp)
  bc:	d8800317 	ldw	r2,12(sp)
        ldw   r3,  16(sp)
  c0:	d8c00417 	ldw	r3,16(sp)
        ldw   r4,  20(sp)
  c4:	d9000517 	ldw	r4,20(sp)
        ldw   r5,  24(sp)
  c8:	d9400617 	ldw	r5,24(sp)
        ldw   r6,  28(sp)
  cc:	d9800717 	ldw	r6,28(sp)
        ldw   r7,  32(sp)
  d0:	d9c00817 	ldw	r7,32(sp)

#if defined(ALT_EXCEPTION_STACK) && defined(ALT_STACK_CHECK)
        ldw   et, %gprel(alt_exception_old_stack_limit)(gp)
#endif

        ldw   r8,  36(sp)
  d4:	da000917 	ldw	r8,36(sp)
        ldw   r9,  40(sp)
  d8:	da400a17 	ldw	r9,40(sp)
        ldw   r10, 44(sp)
  dc:	da800b17 	ldw	r10,44(sp)
        ldw   r11, 48(sp)
  e0:	dac00c17 	ldw	r11,48(sp)
        ldw   r12, 52(sp)
  e4:	db000d17 	ldw	r12,52(sp)
        ldw   r13, 56(sp)
  e8:	db400e17 	ldw	r13,56(sp)
        ldw   r14, 60(sp)
  ec:	db800f17 	ldw	r14,60(sp)
        ldw   r15, 64(sp)
  f0:	dbc01017 	ldw	r15,64(sp)
        stw   et, %gprel(alt_stack_limit_value)(gp)
        stw   zero, %gprel(alt_exception_old_stack_limit)(gp)
#endif /* ALT_STACK_CHECK */
        ldw   sp,  76(sp)
#else /* ALT_EXCEPTION_STACK disabled */
        addi  sp, sp, 76
  f4:	dec01304 	addi	sp,sp,76

        /*
         * Return to the interrupted instruction.
         */

        eret
  f8:	ef80083a 	eret

000000fc <alt_irq_handler>:
 * instruction is present if the macro ALT_CI_INTERRUPT_VECTOR defined.
 */

void alt_irq_handler (void) __attribute__ ((section (".exceptions")));
void alt_irq_handler (void)
{
  fc:	defff904 	addi	sp,sp,-28
 100:	dfc00615 	stw	ra,24(sp)
 104:	df000515 	stw	fp,20(sp)
 108:	df000504 	addi	fp,sp,20
  
  /*
   * Notify the operating system that we are at interrupt level.
   */ 
  
  ALT_OS_INT_ENTER();
 10c:	000170c0 	call	170c <OSIntEnter>
#ifndef NIOS2_EIC_PRESENT
static ALT_INLINE alt_u32 ALT_ALWAYS_INLINE alt_irq_pending (void)
{
  alt_u32 active;

  NIOS2_READ_IPENDING (active);
 110:	0005313a 	rdctl	r2,ipending
 114:	e0bffc15 	stw	r2,-16(fp)

  return active;
 118:	e0bffc17 	ldw	r2,-16(fp)
   * Consider the case where the high priority interupt is asserted during
   * the interrupt entry sequence for a lower priority interrupt to see why
   * this is the case.
   */

  active = alt_irq_pending ();
 11c:	e0bfff15 	stw	r2,-4(fp)

  do
  {
    i = 0;
 120:	e03ffd15 	stw	zero,-12(fp)
    mask = 1;
 124:	00800044 	movi	r2,1
 128:	e0bffe15 	stw	r2,-8(fp)
     * called to clear the interrupt condition.
     */

    do
    {
      if (active & mask)
 12c:	e0ffff17 	ldw	r3,-4(fp)
 130:	e0bffe17 	ldw	r2,-8(fp)
 134:	1884703a 	and	r2,r3,r2
 138:	10001126 	beq	r2,zero,180 <alt_irq_handler+0x84>
      { 
#ifdef ALT_ENHANCED_INTERRUPT_API_PRESENT
        alt_irq[i].handler(alt_irq[i].context); 
 13c:	e0bffd17 	ldw	r2,-12(fp)
 140:	100690fa 	slli	r3,r2,3
 144:	00800074 	movhi	r2,1
 148:	1885883a 	add	r2,r3,r2
 14c:	10d48f17 	ldw	r3,21052(r2)
 150:	e0bffd17 	ldw	r2,-12(fp)
 154:	100890fa 	slli	r4,r2,3
 158:	00800074 	movhi	r2,1
 15c:	2085883a 	add	r2,r4,r2
 160:	10949017 	ldw	r2,21056(r2)
 164:	1009883a 	mov	r4,r2
 168:	183ee83a 	callr	r3
#else
        alt_irq[i].handler(alt_irq[i].context, i); 
#endif
        break;
 16c:	0001883a 	nop
  NIOS2_READ_IPENDING (active);
 170:	0005313a 	rdctl	r2,ipending
 174:	e0bffb15 	stw	r2,-20(fp)
  return active;
 178:	e0bffb17 	ldw	r2,-20(fp)
 17c:	00000706 	br	19c <alt_irq_handler+0xa0>
      }
      mask <<= 1;
 180:	e0bffe17 	ldw	r2,-8(fp)
 184:	1085883a 	add	r2,r2,r2
 188:	e0bffe15 	stw	r2,-8(fp)
      i++;
 18c:	e0bffd17 	ldw	r2,-12(fp)
 190:	10800044 	addi	r2,r2,1
 194:	e0bffd15 	stw	r2,-12(fp)
      if (active & mask)
 198:	003fe406 	br	12c <alt_irq_handler+0x30>

    } while (1);

    active = alt_irq_pending ();
 19c:	e0bfff15 	stw	r2,-4(fp)
    
  } while (active);
 1a0:	e0bfff17 	ldw	r2,-4(fp)
 1a4:	103fde1e 	bne	r2,zero,120 <alt_irq_handler+0x24>

  /*
   * Notify the operating system that interrupt processing is complete.
   */ 

  ALT_OS_INT_EXIT();
 1a8:	00017580 	call	1758 <OSIntExit>
}
 1ac:	0001883a 	nop
 1b0:	e037883a 	mov	sp,fp
 1b4:	dfc00117 	ldw	ra,4(sp)
 1b8:	df000017 	ldw	fp,0(sp)
 1bc:	dec00204 	addi	sp,sp,8
 1c0:	f800283a 	ret

000001c4 <alt_instruction_exception_entry>:
 * that handler if it has been registered. Absent a handler, it will
 * break break or hang as discussed below.
 */
int 
alt_instruction_exception_entry (alt_u32 exception_pc)
{
 1c4:	defffb04 	addi	sp,sp,-20
 1c8:	dfc00415 	stw	ra,16(sp)
 1cc:	df000315 	stw	fp,12(sp)
 1d0:	df000304 	addi	fp,sp,12
 1d4:	e13ffd15 	stw	r4,-12(fp)
 * NIOS2_EXCEPTION_CAUSE_NOT_PRESENT. Your handling routine should
 * check the validity of the cause argument before proceeding.
 */
#ifdef NIOS2_HAS_EXTRA_EXCEPTION_INFO
  /* Get exception cause & "badaddr" */
  NIOS2_READ_EXCEPTION(cause);
 1d8:	000531fa 	rdctl	r2,exception
 1dc:	e0bfff15 	stw	r2,-4(fp)
  cause = ( (cause & NIOS2_EXCEPTION_REG_CAUSE_MASK) >>
 1e0:	e0bfff17 	ldw	r2,-4(fp)
 1e4:	1004d0ba 	srli	r2,r2,2
 1e8:	108007cc 	andi	r2,r2,31
 1ec:	e0bfff15 	stw	r2,-4(fp)
              NIOS2_EXCEPTION_REG_CAUSE_OFST );

  NIOS2_READ_BADADDR(badaddr);
 1f0:	0005333a 	rdctl	r2,badaddr
 1f4:	e0bffe15 	stw	r2,-8(fp)
#else
  cause = NIOS2_EXCEPTION_CAUSE_NOT_PRESENT;
  badaddr = 0;
#endif /* NIOS2_HAS_EXTRA_EXCEPTION_INFO */

  if(alt_instruction_exception_handler) {
 1f8:	d0aa4917 	ldw	r2,-22236(gp)
 1fc:	10000726 	beq	r2,zero,21c <alt_instruction_exception_entry+0x58>
     * Call handler. Its return value indicates whether the exception-causing
     * instruction should be re-issued. The code that called us,
     * alt_eceptions_entry.S, will look at this value and adjust the ea
     * register as necessary
     */
    return alt_instruction_exception_handler(cause, exception_pc, badaddr);
 200:	d0aa4917 	ldw	r2,-22236(gp)
 204:	e0ffff17 	ldw	r3,-4(fp)
 208:	e1bffe17 	ldw	r6,-8(fp)
 20c:	e17ffd17 	ldw	r5,-12(fp)
 210:	1809883a 	mov	r4,r3
 214:	103ee83a 	callr	r2
 218:	00000206 	br	224 <alt_instruction_exception_entry+0x60>
   *    (a peripheral which negates its interrupt output before its
   *    interrupt handler has been executed will cause spurious interrupts)
   */
  else {
#ifdef NIOS2_HAS_DEBUG_STUB
    NIOS2_BREAK();
 21c:	003da03a 	break	0
      ;
#endif /* NIOS2_HAS_DEBUG_STUB */
  }

  /* We should not get here. Remove compiler warning. */
  return NIOS2_EXCEPTION_RETURN_REISSUE_INST;
 220:	0005883a 	mov	r2,zero
}
 224:	e037883a 	mov	sp,fp
 228:	dfc00117 	ldw	ra,4(sp)
 22c:	df000017 	ldw	fp,0(sp)
 230:	dec00204 	addi	sp,sp,8
 234:	f800283a 	ret

Disassembly of section .text:

00000238 <_start>:

    /* Assume the data cache size is always a power of two. */
#if NIOS2_DCACHE_SIZE > 0x8000
    movhi r2, %hi(NIOS2_DCACHE_SIZE)
#else
    movui r2, NIOS2_DCACHE_SIZE
     238:	00820014 	movui	r2,2048
#endif

0:
    initd 0(r2)
     23c:	10000033 	initd	0(r2)
#ifdef NIOS2_ECC_PRESENT
    addi r2, r2, -4
#else
    addi r2, r2, -NIOS2_DCACHE_LINE_SIZE
     240:	10bff804 	addi	r2,r2,-32
#endif
    bgt r2, zero, 0b
     244:	00bffd16 	blt	zero,r2,23c <_start+0x4>

    /*
     * Now that the caches are initialized, set up the stack pointer and global pointer.
     * The values provided by the linker are assumed to be correctly aligned.
     */
    movhi sp, %hi(__alt_stack_pointer)
     248:	06c10034 	movhi	sp,1024
    ori sp, sp, %lo(__alt_stack_pointer)
     24c:	dec00014 	ori	sp,sp,0
    movhi gp, %hi(_gp)
     250:	06800074 	movhi	gp,1
    ori gp, gp, %lo(_gp)
     254:	d6984b14 	ori	gp,gp,24876
 */
#ifndef ALT_SIM_OPTIMIZE
    /* Log that the BSS is about to be cleared. */
    ALT_LOG_PUTS(alt_log_msg_bss)

    movhi r2, %hi(__bss_start)
     258:	00800074 	movhi	r2,1
    ori r2, r2, %lo(__bss_start)
     25c:	10827214 	ori	r2,r2,2504

    movhi r3, %hi(__bss_end)
     260:	00c00074 	movhi	r3,1
    ori r3, r3, %lo(__bss_end)
     264:	18d4cf14 	ori	r3,r3,21308

    beq r2, r3, 1f
     268:	10c00326 	beq	r2,r3,278 <_start+0x40>

0:
    stw zero, (r2)
     26c:	10000015 	stw	zero,0(r2)
    addi r2, r2, 4
     270:	10800104 	addi	r2,r2,4
    bltu r2, r3, 0b
     274:	10fffd36 	bltu	r2,r3,26c <_start+0x34>
     * section aren't defined until alt_load() has been called).
     */
    mov   et, zero
#endif

    call alt_load
     278:	0000a080 	call	a08 <alt_load>

    /* Log that alt_main is about to be called. */
    ALT_LOG_PUTS(alt_log_msg_alt_main)

    /* Call the C entry point. It should never return. */
    call alt_main
     27c:	0000a8c0 	call	a8c <alt_main>

00000280 <alt_after_alt_main>:

    /* Wait in infinite loop in case alt_main does return. */
alt_after_alt_main:
    br alt_after_alt_main
     280:	003fff06 	br	280 <alt_after_alt_main>

00000284 <BSP_init>:
static unsigned char szMap[] = {
        63, 6, 91, 79, 102, 109, 125, 7, 127, 111, 119, 124, 57, 94, 121, 113};
      // 0, 1,  2,  3,   4,   5,   6, 7,   8,   9,   a,   b,  c,  d,   e,   f


void BSP_init(void){
     284:	deffff04 	addi	sp,sp,-4
     288:	df000015 	stw	fp,0(sp)
     28c:	d839883a 	mov	fp,sp
}
     290:	0001883a 	nop
     294:	e037883a 	mov	sp,fp
     298:	df000017 	ldw	fp,0(sp)
     29c:	dec00104 	addi	sp,sp,4
     2a0:	f800283a 	ret

000002a4 <BSP_setLED>:

void BSP_setLED(unsigned char lite){
     2a4:	defffe04 	addi	sp,sp,-8
     2a8:	df000115 	stw	fp,4(sp)
     2ac:	df000104 	addi	fp,sp,4
     2b0:	2005883a 	mov	r2,r4
     2b4:	e0bfff05 	stb	r2,-4(fp)
}
     2b8:	0001883a 	nop
     2bc:	e037883a 	mov	sp,fp
     2c0:	df000017 	ldw	fp,0(sp)
     2c4:	dec00104 	addi	sp,sp,4
     2c8:	f800283a 	ret

000002cc <BSP_clrLED>:

void BSP_clrLED(unsigned char lite){
     2cc:	defffe04 	addi	sp,sp,-8
     2d0:	df000115 	stw	fp,4(sp)
     2d4:	df000104 	addi	fp,sp,4
     2d8:	2005883a 	mov	r2,r4
     2dc:	e0bfff05 	stb	r2,-4(fp)
}
     2e0:	0001883a 	nop
     2e4:	e037883a 	mov	sp,fp
     2e8:	df000017 	ldw	fp,0(sp)
     2ec:	dec00104 	addi	sp,sp,4
     2f0:	f800283a 	ret

000002f4 <BSP_readSW>:

unsigned int BSP_readSW(){
     2f4:	deffff04 	addi	sp,sp,-4
     2f8:	df000015 	stw	fp,0(sp)
     2fc:	d839883a 	mov	fp,sp
}
     300:	0001883a 	nop
     304:	e037883a 	mov	sp,fp
     308:	df000017 	ldw	fp,0(sp)
     30c:	dec00104 	addi	sp,sp,4
     310:	f800283a 	ret

00000314 <BSP_readBP>:

unsigned int BSP_readBP(unsigned char nbr){
     314:	defffe04 	addi	sp,sp,-8
     318:	df000115 	stw	fp,4(sp)
     31c:	df000104 	addi	fp,sp,4
     320:	2005883a 	mov	r2,r4
     324:	e0bfff05 	stb	r2,-4(fp)
}
     328:	0001883a 	nop
     32c:	e037883a 	mov	sp,fp
     330:	df000017 	ldw	fp,0(sp)
     334:	dec00104 	addi	sp,sp,4
     338:	f800283a 	ret

0000033c <SEG7_on>:

void SEG7_on(void){
     33c:	deffff04 	addi	sp,sp,-4
     340:	df000015 	stw	fp,0(sp)
     344:	d839883a 	mov	fp,sp
}
     348:	0001883a 	nop
     34c:	e037883a 	mov	sp,fp
     350:	df000017 	ldw	fp,0(sp)
     354:	dec00104 	addi	sp,sp,4
     358:	f800283a 	ret

0000035c <SEG7_off>:

void SEG7_off(void){
     35c:	deffff04 	addi	sp,sp,-4
     360:	df000015 	stw	fp,0(sp)
     364:	d839883a 	mov	fp,sp
}
     368:	0001883a 	nop
     36c:	e037883a 	mov	sp,fp
     370:	df000017 	ldw	fp,0(sp)
     374:	dec00104 	addi	sp,sp,4
     378:	f800283a 	ret

0000037c <SEG7_Decimal>:

void SEG7_Decimal(unsigned int value){
     37c:	defffe04 	addi	sp,sp,-8
     380:	df000115 	stw	fp,4(sp)
     384:	df000104 	addi	fp,sp,4
     388:	e13fff15 	stw	r4,-4(fp)
}
     38c:	0001883a 	nop
     390:	e037883a 	mov	sp,fp
     394:	df000017 	ldw	fp,0(sp)
     398:	dec00104 	addi	sp,sp,4
     39c:	f800283a 	ret

000003a0 <min>:
OS_STK    task1_stk[TASK_STACKSIZE];

/* Definition of Task Priorities */
#define TASK1_PRIORITY      1

int min(int a, int b){
     3a0:	defffd04 	addi	sp,sp,-12
     3a4:	df000215 	stw	fp,8(sp)
     3a8:	df000204 	addi	fp,sp,8
     3ac:	e13fff15 	stw	r4,-4(fp)
     3b0:	e17ffe15 	stw	r5,-8(fp)
	return a < b ? a : b;
     3b4:	e0ffff17 	ldw	r3,-4(fp)
     3b8:	e0bffe17 	ldw	r2,-8(fp)
     3bc:	1880010e 	bge	r3,r2,3c4 <min+0x24>
     3c0:	1805883a 	mov	r2,r3
}
     3c4:	e037883a 	mov	sp,fp
     3c8:	df000017 	ldw	fp,0(sp)
     3cc:	dec00104 	addi	sp,sp,4
     3d0:	f800283a 	ret

000003d4 <task_fonte>:
void task_fonte(void* pdata){
     3d4:	defff904 	addi	sp,sp,-28
     3d8:	dfc00615 	stw	ra,24(sp)
     3dc:	df000515 	stw	fp,20(sp)
     3e0:	df000504 	addi	fp,sp,20
     3e4:	e13ffc15 	stw	r4,-16(fp)
	int col;
	int row;
	int num_carac;
	num_carac = 0;
     3e8:	e03ffd15 	stw	zero,-12(fp)
	row = 12;
     3ec:	00800304 	movi	r2,12
     3f0:	e0bffe15 	stw	r2,-8(fp)

	VgaDrawBox(0, 0, 319, 239, 63 << 11);
     3f4:	00be0004 	movi	r2,-2048
     3f8:	d8800015 	stw	r2,0(sp)
     3fc:	01c03bc4 	movi	r7,239
     400:	01804fc4 	movi	r6,319
     404:	000b883a 	mov	r5,zero
     408:	0009883a 	mov	r4,zero
     40c:	00008680 	call	868 <VgaDrawBox>
	VgaSetCursor(5,5);
     410:	01400144 	movi	r5,5
     414:	01000144 	movi	r4,5
     418:	000060c0 	call	60c <VgaSetCursor>
	VgaWriteScreen("AFFICHAGE VGA NIOS II - ENSEIRB");
     41c:	01000074 	movhi	r4,1
     420:	212dff04 	addi	r4,r4,-18436
     424:	00007940 	call	794 <VgaWriteScreen>

	while(num_carac < 255){
     428:	00001a06 	br	494 <task_fonte+0xc0>
		for(col = 0; col < 40; col++){
     42c:	e03fff15 	stw	zero,-4(fp)
     430:	00001006 	br	474 <task_fonte+0xa0>
			VgaSetCursor(col, row);
     434:	e17ffe17 	ldw	r5,-8(fp)
     438:	e13fff17 	ldw	r4,-4(fp)
     43c:	000060c0 	call	60c <VgaSetCursor>
			VgaWriteCharacter(num_carac);
     440:	e0bffd17 	ldw	r2,-12(fp)
     444:	10803fcc 	andi	r2,r2,255
     448:	1009883a 	mov	r4,r2
     44c:	000068c0 	call	68c <VgaWriteCharacter>
			num_carac++;
     450:	e0bffd17 	ldw	r2,-12(fp)
     454:	10800044 	addi	r2,r2,1
     458:	e0bffd15 	stw	r2,-12(fp)
			if(num_carac > 254)
     45c:	e0bffd17 	ldw	r2,-12(fp)
     460:	10803fd0 	cmplti	r2,r2,255
     464:	10000726 	beq	r2,zero,484 <task_fonte+0xb0>
		for(col = 0; col < 40; col++){
     468:	e0bfff17 	ldw	r2,-4(fp)
     46c:	10800044 	addi	r2,r2,1
     470:	e0bfff15 	stw	r2,-4(fp)
     474:	e0bfff17 	ldw	r2,-4(fp)
     478:	10800a10 	cmplti	r2,r2,40
     47c:	103fed1e 	bne	r2,zero,434 <task_fonte+0x60>
     480:	00000106 	br	488 <task_fonte+0xb4>
				break;
     484:	0001883a 	nop
		}
		row++;
     488:	e0bffe17 	ldw	r2,-8(fp)
     48c:	10800044 	addi	r2,r2,1
     490:	e0bffe15 	stw	r2,-8(fp)
	while(num_carac < 255){
     494:	e0bffd17 	ldw	r2,-12(fp)
     498:	10803fd0 	cmplti	r2,r2,255
     49c:	103fe31e 	bne	r2,zero,42c <task_fonte+0x58>
	}
}
     4a0:	0001883a 	nop
     4a4:	0001883a 	nop
     4a8:	e037883a 	mov	sp,fp
     4ac:	dfc00117 	ldw	ra,4(sp)
     4b0:	df000017 	ldw	fp,0(sp)
     4b4:	dec00204 	addi	sp,sp,8
     4b8:	f800283a 	ret

000004bc <main>:

int main(void){
     4bc:	defff904 	addi	sp,sp,-28
     4c0:	dfc00615 	stw	ra,24(sp)
     4c4:	df000515 	stw	fp,20(sp)
     4c8:	df000504 	addi	fp,sp,20

  BSP_init();
     4cc:	00002840 	call	284 <BSP_init>

  VgaClearScreen();
     4d0:	00005680 	call	568 <VgaClearScreen>
  VgaInit();
     4d4:	00005340 	call	534 <VgaInit>

  OSTaskCreateExt(task_fonte,
     4d8:	d8000415 	stw	zero,16(sp)
     4dc:	d8000315 	stw	zero,12(sp)
     4e0:	00820004 	movi	r2,2048
     4e4:	d8800215 	stw	r2,8(sp)
     4e8:	00800074 	movhi	r2,1
     4ec:	10829604 	addi	r2,r2,2648
     4f0:	d8800115 	stw	r2,4(sp)
     4f4:	00800044 	movi	r2,1
     4f8:	d8800015 	stw	r2,0(sp)
     4fc:	01c00044 	movi	r7,1
     500:	01800074 	movhi	r6,1
     504:	318a9504 	addi	r6,r6,10836
     508:	000b883a 	mov	r5,zero
     50c:	01000034 	movhi	r4,0
     510:	2100f504 	addi	r4,r4,980
     514:	00070b80 	call	70b8 <OSTaskCreateExt>
                  task1_stk,
                  TASK_STACKSIZE,
                  NULL,
                  0);

  OSStart();
     518:	00019c00 	call	19c0 <OSStart>
  return 0;
     51c:	0005883a 	mov	r2,zero
}
     520:	e037883a 	mov	sp,fp
     524:	dfc00117 	ldw	ra,4(sp)
     528:	df000017 	ldw	fp,0(sp)
     52c:	dec00204 	addi	sp,sp,8
     530:	f800283a 	ret

00000534 <VgaInit>:

static int cur_x; // En pixel
static int cur_y; // En pixel


void VgaInit() {
     534:	deffff04 	addi	sp,sp,-4
     538:	df000015 	stw	fp,0(sp)
     53c:	d839883a 	mov	fp,sp
  video_buffer = (int *)VGA_VGA_PIXEL_DMA_BASE;
     540:	0083c034 	movhi	r2,3840
     544:	10800404 	addi	r2,r2,16
     548:	d0aa2715 	stw	r2,-22372(gp)
  cur_y = 0;
     54c:	d02a2915 	stw	zero,-22364(gp)
  cur_x = 0;
     550:	d02a2815 	stw	zero,-22368(gp)
}
     554:	0001883a 	nop
     558:	e037883a 	mov	sp,fp
     55c:	df000017 	ldw	fp,0(sp)
     560:	dec00104 	addi	sp,sp,4
     564:	f800283a 	ret

00000568 <VgaClearScreen>:

void VgaClearScreen(void) {
     568:	defffd04 	addi	sp,sp,-12
     56c:	df000215 	stw	fp,8(sp)
     570:	df000204 	addi	fp,sp,8
  int i;
  int  *ptr;

  // Memoire video pixels
  ptr = (int *)*(int *)VGA_VGA_PIXEL_DMA_BASE;
     574:	0083c034 	movhi	r2,3840
     578:	10800404 	addi	r2,r2,16
     57c:	10800017 	ldw	r2,0(r2)
     580:	e0bffe15 	stw	r2,-8(fp)
  for(i= 0; i<(0x40000/4); i++)
     584:	e03fff15 	stw	zero,-4(fp)
     588:	00000806 	br	5ac <VgaClearScreen+0x44>
    *(ptr+i)= 0;
     58c:	e0bfff17 	ldw	r2,-4(fp)
     590:	100490ba 	slli	r2,r2,2
     594:	e0fffe17 	ldw	r3,-8(fp)
     598:	1885883a 	add	r2,r3,r2
     59c:	10000015 	stw	zero,0(r2)
  for(i= 0; i<(0x40000/4); i++)
     5a0:	e0bfff17 	ldw	r2,-4(fp)
     5a4:	10800044 	addi	r2,r2,1
     5a8:	e0bfff15 	stw	r2,-4(fp)
     5ac:	e0bfff17 	ldw	r2,-4(fp)
     5b0:	00ffffd4 	movui	r3,65535
     5b4:	18bff50e 	bge	r3,r2,58c <VgaClearScreen+0x24>

  // Memoire video caracteres
  ptr = (int *)VGA_CHAR_BUF_SUBSYSTEM_ONCHIP_SRAM_BASE;
     5b8:	00824034 	movhi	r2,2304
     5bc:	e0bffe15 	stw	r2,-8(fp)
  for(i= 0; i<(0x2000/4); i++)
     5c0:	e03fff15 	stw	zero,-4(fp)
     5c4:	00000806 	br	5e8 <VgaClearScreen+0x80>
    *(ptr+i)= 0;
     5c8:	e0bfff17 	ldw	r2,-4(fp)
     5cc:	100490ba 	slli	r2,r2,2
     5d0:	e0fffe17 	ldw	r3,-8(fp)
     5d4:	1885883a 	add	r2,r3,r2
     5d8:	10000015 	stw	zero,0(r2)
  for(i= 0; i<(0x2000/4); i++)
     5dc:	e0bfff17 	ldw	r2,-4(fp)
     5e0:	10800044 	addi	r2,r2,1
     5e4:	e0bfff15 	stw	r2,-4(fp)
     5e8:	e0bfff17 	ldw	r2,-4(fp)
     5ec:	10820010 	cmplti	r2,r2,2048
     5f0:	103ff51e 	bne	r2,zero,5c8 <VgaClearScreen+0x60>
}
     5f4:	0001883a 	nop
     5f8:	0001883a 	nop
     5fc:	e037883a 	mov	sp,fp
     600:	df000017 	ldw	fp,0(sp)
     604:	dec00104 	addi	sp,sp,4
     608:	f800283a 	ret

0000060c <VgaSetCursor>:

void VgaSetCursor(int col, int row) {
     60c:	defffd04 	addi	sp,sp,-12
     610:	df000215 	stw	fp,8(sp)
     614:	df000204 	addi	fp,sp,8
     618:	e13fff15 	stw	r4,-4(fp)
     61c:	e17ffe15 	stw	r5,-8(fp)
  if(row > CHAR_ROW - 1) row = CHAR_ROW - 1;
     620:	e0bffe17 	ldw	r2,-8(fp)
     624:	10800790 	cmplti	r2,r2,30
     628:	1000021e 	bne	r2,zero,634 <VgaSetCursor+0x28>
     62c:	00800744 	movi	r2,29
     630:	e0bffe15 	stw	r2,-8(fp)
  if(col > CHAR_COL - 1) col = CHAR_COL - 1;
     634:	e0bfff17 	ldw	r2,-4(fp)
     638:	10800a10 	cmplti	r2,r2,40
     63c:	1000021e 	bne	r2,zero,648 <VgaSetCursor+0x3c>
     640:	008009c4 	movi	r2,39
     644:	e0bfff15 	stw	r2,-4(fp)
  if(row < 0) row = 0;
     648:	e0bffe17 	ldw	r2,-8(fp)
     64c:	1000010e 	bge	r2,zero,654 <VgaSetCursor+0x48>
     650:	e03ffe15 	stw	zero,-8(fp)
  if(col < 0) col = 0;
     654:	e0bfff17 	ldw	r2,-4(fp)
     658:	1000010e 	bge	r2,zero,660 <VgaSetCursor+0x54>
     65c:	e03fff15 	stw	zero,-4(fp)
  cur_y = row*8;
     660:	e0bffe17 	ldw	r2,-8(fp)
     664:	100490fa 	slli	r2,r2,3
     668:	d0aa2915 	stw	r2,-22364(gp)
  cur_x = col*8;
     66c:	e0bfff17 	ldw	r2,-4(fp)
     670:	100490fa 	slli	r2,r2,3
     674:	d0aa2815 	stw	r2,-22368(gp)
}
     678:	0001883a 	nop
     67c:	e037883a 	mov	sp,fp
     680:	df000017 	ldw	fp,0(sp)
     684:	dec00104 	addi	sp,sp,4
     688:	f800283a 	ret

0000068c <VgaWriteCharacter>:

void VgaWriteCharacter(unsigned char c) {
     68c:	defff904 	addi	sp,sp,-28
     690:	df000615 	stw	fp,24(sp)
     694:	df000604 	addi	fp,sp,24
     698:	2005883a 	mov	r2,r4
     69c:	e0bffa05 	stb	r2,-24(fp)
  int pixel_buf_ptr;
  int pixel_ptr, row, col;

  // cur_x * 2 car les pixels sont sur 16 bits
  // cur_y * 1024 car lignes sont alignees sur 1024 bits
  pixel_buf_ptr = *(int *)video_buffer + cur_x * 2 + (cur_y * 1024);
     6a0:	d0aa2717 	ldw	r2,-22372(gp)
     6a4:	10c00017 	ldw	r3,0(r2)
     6a8:	d0aa2817 	ldw	r2,-22368(gp)
     6ac:	1085883a 	add	r2,r2,r2
     6b0:	1887883a 	add	r3,r3,r2
     6b4:	d0aa2917 	ldw	r2,-22364(gp)
     6b8:	100492ba 	slli	r2,r2,10
     6bc:	1885883a 	add	r2,r3,r2
     6c0:	e0bffd15 	stw	r2,-12(fp)

  for (row = 0; row < 8; row++) {
     6c4:	e03fff15 	stw	zero,-4(fp)
     6c8:	00002906 	br	770 <VgaWriteCharacter+0xe4>
    short row_color = rom8x8_bits[(c * 8) + row];
     6cc:	e0bffa03 	ldbu	r2,-24(fp)
     6d0:	100690fa 	slli	r3,r2,3
     6d4:	e0bfff17 	ldw	r2,-4(fp)
     6d8:	1885883a 	add	r2,r3,r2
     6dc:	1087883a 	add	r3,r2,r2
     6e0:	00800074 	movhi	r2,1
     6e4:	1885883a 	add	r2,r3,r2
     6e8:	10ae7e0b 	ldhu	r2,-17928(r2)
     6ec:	e0bffc8d 	sth	r2,-14(fp)
    for (col = 0; col < 8; col++) {
     6f0:	e03ffe15 	stw	zero,-8(fp)
     6f4:	00001806 	br	758 <VgaWriteCharacter+0xcc>
      pixel_ptr = pixel_buf_ptr + (row * 1024) + (col << 1);
     6f8:	e0bfff17 	ldw	r2,-4(fp)
     6fc:	100692ba 	slli	r3,r2,10
     700:	e0bffd17 	ldw	r2,-12(fp)
     704:	1887883a 	add	r3,r3,r2
     708:	e0bffe17 	ldw	r2,-8(fp)
     70c:	1085883a 	add	r2,r2,r2
     710:	1885883a 	add	r2,r3,r2
     714:	e0bffb15 	stw	r2,-20(fp)
      if ((row_color >> (15 - col)) & 1) {
     718:	e0fffc8f 	ldh	r3,-14(fp)
     71c:	010003c4 	movi	r4,15
     720:	e0bffe17 	ldw	r2,-8(fp)
     724:	2085c83a 	sub	r2,r4,r2
     728:	1885d83a 	sra	r2,r3,r2
     72c:	1080004c 	andi	r2,r2,1
     730:	10000426 	beq	r2,zero,744 <VgaWriteCharacter+0xb8>
	*(short *)pixel_ptr = 0xFFFF;
     734:	e0bffb17 	ldw	r2,-20(fp)
     738:	00ffffc4 	movi	r3,-1
     73c:	10c0000d 	sth	r3,0(r2)
     740:	00000206 	br	74c <VgaWriteCharacter+0xc0>
      }
      else {
	*(short *)pixel_ptr = 0;
     744:	e0bffb17 	ldw	r2,-20(fp)
     748:	1000000d 	sth	zero,0(r2)
    for (col = 0; col < 8; col++) {
     74c:	e0bffe17 	ldw	r2,-8(fp)
     750:	10800044 	addi	r2,r2,1
     754:	e0bffe15 	stw	r2,-8(fp)
     758:	e0bffe17 	ldw	r2,-8(fp)
     75c:	10800210 	cmplti	r2,r2,8
     760:	103fe51e 	bne	r2,zero,6f8 <VgaWriteCharacter+0x6c>
  for (row = 0; row < 8; row++) {
     764:	e0bfff17 	ldw	r2,-4(fp)
     768:	10800044 	addi	r2,r2,1
     76c:	e0bfff15 	stw	r2,-4(fp)
     770:	e0bfff17 	ldw	r2,-4(fp)
     774:	10800210 	cmplti	r2,r2,8
     778:	103fd41e 	bne	r2,zero,6cc <VgaWriteCharacter+0x40>
      }
    }
  }
}
     77c:	0001883a 	nop
     780:	0001883a 	nop
     784:	e037883a 	mov	sp,fp
     788:	df000017 	ldw	fp,0(sp)
     78c:	dec00104 	addi	sp,sp,4
     790:	f800283a 	ret

00000794 <VgaWriteScreen>:

void VgaWriteScreen(char *string) {
     794:	defffc04 	addi	sp,sp,-16
     798:	dfc00315 	stw	ra,12(sp)
     79c:	df000215 	stw	fp,8(sp)
     7a0:	df000204 	addi	fp,sp,8
     7a4:	e13ffe15 	stw	r4,-8(fp)
  int count;

  count = 0;
     7a8:	e03fff15 	stw	zero,-4(fp)

  while(string[count] != '\0') {
     7ac:	00000d06 	br	7e4 <VgaWriteScreen+0x50>
    VgaWriteCharacter(string[count]);
     7b0:	e0bfff17 	ldw	r2,-4(fp)
     7b4:	e0fffe17 	ldw	r3,-8(fp)
     7b8:	1885883a 	add	r2,r3,r2
     7bc:	10800003 	ldbu	r2,0(r2)
     7c0:	10803fcc 	andi	r2,r2,255
     7c4:	1009883a 	mov	r4,r2
     7c8:	000068c0 	call	68c <VgaWriteCharacter>
    cur_x += 8;
     7cc:	d0aa2817 	ldw	r2,-22368(gp)
     7d0:	10800204 	addi	r2,r2,8
     7d4:	d0aa2815 	stw	r2,-22368(gp)
    count++;
     7d8:	e0bfff17 	ldw	r2,-4(fp)
     7dc:	10800044 	addi	r2,r2,1
     7e0:	e0bfff15 	stw	r2,-4(fp)
  while(string[count] != '\0') {
     7e4:	e0bfff17 	ldw	r2,-4(fp)
     7e8:	e0fffe17 	ldw	r3,-8(fp)
     7ec:	1885883a 	add	r2,r3,r2
     7f0:	10800003 	ldbu	r2,0(r2)
     7f4:	10803fcc 	andi	r2,r2,255
     7f8:	1080201c 	xori	r2,r2,128
     7fc:	10bfe004 	addi	r2,r2,-128
     800:	103feb1e 	bne	r2,zero,7b0 <VgaWriteScreen+0x1c>
  }
  //VgaWriteCharacter(' ');
}
     804:	0001883a 	nop
     808:	0001883a 	nop
     80c:	e037883a 	mov	sp,fp
     810:	dfc00117 	ldw	ra,4(sp)
     814:	df000017 	ldw	fp,0(sp)
     818:	dec00204 	addi	sp,sp,8
     81c:	f800283a 	ret

00000820 <VgaPrintAt>:

void VgaPrintAt(int col, int row, char *string) {
     820:	defffb04 	addi	sp,sp,-20
     824:	dfc00415 	stw	ra,16(sp)
     828:	df000315 	stw	fp,12(sp)
     82c:	df000304 	addi	fp,sp,12
     830:	e13fff15 	stw	r4,-4(fp)
     834:	e17ffe15 	stw	r5,-8(fp)
     838:	e1bffd15 	stw	r6,-12(fp)
  VgaSetCursor(col, row);
     83c:	e17ffe17 	ldw	r5,-8(fp)
     840:	e13fff17 	ldw	r4,-4(fp)
     844:	000060c0 	call	60c <VgaSetCursor>
  VgaWriteScreen(string);
     848:	e13ffd17 	ldw	r4,-12(fp)
     84c:	00007940 	call	794 <VgaWriteScreen>
}
     850:	0001883a 	nop
     854:	e037883a 	mov	sp,fp
     858:	dfc00117 	ldw	ra,4(sp)
     85c:	df000017 	ldw	fp,0(sp)
     860:	dec00204 	addi	sp,sp,8
     864:	f800283a 	ret

00000868 <VgaDrawBox>:

int VgaDrawBox(int x1, int y1, int x2, int y2, short pixel_color) {
     868:	defff604 	addi	sp,sp,-40
     86c:	df000915 	stw	fp,36(sp)
     870:	df000904 	addi	fp,sp,36
     874:	e13ffb15 	stw	r4,-20(fp)
     878:	e17ffa15 	stw	r5,-24(fp)
     87c:	e1bff915 	stw	r6,-28(fp)
     880:	e1fff815 	stw	r7,-32(fp)
     884:	e0800117 	ldw	r2,4(fp)
     888:	e0bff70d 	sth	r2,-36(fp)
  int pixel_buf_ptr = *(int *)video_buffer;
     88c:	d0aa2717 	ldw	r2,-22372(gp)
     890:	10800017 	ldw	r2,0(r2)
     894:	e0bffd15 	stw	r2,-12(fp)
  int pixel_ptr, row, col;

  if((x1 < 0) || (x2 < 0) || (y1 < 0) || (y2 <0)) return(-1);
     898:	e0bffb17 	ldw	r2,-20(fp)
     89c:	10000616 	blt	r2,zero,8b8 <VgaDrawBox+0x50>
     8a0:	e0bff917 	ldw	r2,-28(fp)
     8a4:	10000416 	blt	r2,zero,8b8 <VgaDrawBox+0x50>
     8a8:	e0bffa17 	ldw	r2,-24(fp)
     8ac:	10000216 	blt	r2,zero,8b8 <VgaDrawBox+0x50>
     8b0:	e0bff817 	ldw	r2,-32(fp)
     8b4:	1000020e 	bge	r2,zero,8c0 <VgaDrawBox+0x58>
     8b8:	00bfffc4 	movi	r2,-1
     8bc:	00003406 	br	990 <VgaDrawBox+0x128>
  if((x1 > SIZE_X - 1) || (x2 > SIZE_X - 1) || (y1 > SIZE_Y - 1) || (y2 > SIZE_Y - 1)) return(-1);
     8c0:	e0bffb17 	ldw	r2,-20(fp)
     8c4:	10805008 	cmpgei	r2,r2,320
     8c8:	1000091e 	bne	r2,zero,8f0 <VgaDrawBox+0x88>
     8cc:	e0bff917 	ldw	r2,-28(fp)
     8d0:	10805008 	cmpgei	r2,r2,320
     8d4:	1000061e 	bne	r2,zero,8f0 <VgaDrawBox+0x88>
     8d8:	e0bffa17 	ldw	r2,-24(fp)
     8dc:	10803c08 	cmpgei	r2,r2,240
     8e0:	1000031e 	bne	r2,zero,8f0 <VgaDrawBox+0x88>
     8e4:	e0bff817 	ldw	r2,-32(fp)
     8e8:	10803c10 	cmplti	r2,r2,240
     8ec:	1000021e 	bne	r2,zero,8f8 <VgaDrawBox+0x90>
     8f0:	00bfffc4 	movi	r2,-1
     8f4:	00002606 	br	990 <VgaDrawBox+0x128>
  if((x2 < x1) ||(y2 < y1)) return(-1);
     8f8:	e0fff917 	ldw	r3,-28(fp)
     8fc:	e0bffb17 	ldw	r2,-20(fp)
     900:	18800316 	blt	r3,r2,910 <VgaDrawBox+0xa8>
     904:	e0fff817 	ldw	r3,-32(fp)
     908:	e0bffa17 	ldw	r2,-24(fp)
     90c:	1880020e 	bge	r3,r2,918 <VgaDrawBox+0xb0>
     910:	00bfffc4 	movi	r2,-1
     914:	00001e06 	br	990 <VgaDrawBox+0x128>

  for (row = y1; row <= y2; row++) {
     918:	e0bffa17 	ldw	r2,-24(fp)
     91c:	e0bfff15 	stw	r2,-4(fp)
     920:	00001706 	br	980 <VgaDrawBox+0x118>
    for (col = x1; col <= x2; col++) {
     924:	e0bffb17 	ldw	r2,-20(fp)
     928:	e0bffe15 	stw	r2,-8(fp)
     92c:	00000e06 	br	968 <VgaDrawBox+0x100>
      pixel_ptr = pixel_buf_ptr + (row * 1024) + (col << 1);
     930:	e0bfff17 	ldw	r2,-4(fp)
     934:	100692ba 	slli	r3,r2,10
     938:	e0bffd17 	ldw	r2,-12(fp)
     93c:	1887883a 	add	r3,r3,r2
     940:	e0bffe17 	ldw	r2,-8(fp)
     944:	1085883a 	add	r2,r2,r2
     948:	1885883a 	add	r2,r3,r2
     94c:	e0bffc15 	stw	r2,-16(fp)
      *(short *)pixel_ptr = pixel_color;
     950:	e0bffc17 	ldw	r2,-16(fp)
     954:	e0fff70b 	ldhu	r3,-36(fp)
     958:	10c0000d 	sth	r3,0(r2)
    for (col = x1; col <= x2; col++) {
     95c:	e0bffe17 	ldw	r2,-8(fp)
     960:	10800044 	addi	r2,r2,1
     964:	e0bffe15 	stw	r2,-8(fp)
     968:	e0bffe17 	ldw	r2,-8(fp)
     96c:	e0fff917 	ldw	r3,-28(fp)
     970:	18bfef0e 	bge	r3,r2,930 <VgaDrawBox+0xc8>
  for (row = y1; row <= y2; row++) {
     974:	e0bfff17 	ldw	r2,-4(fp)
     978:	10800044 	addi	r2,r2,1
     97c:	e0bfff15 	stw	r2,-4(fp)
     980:	e0bfff17 	ldw	r2,-4(fp)
     984:	e0fff817 	ldw	r3,-32(fp)
     988:	18bfe60e 	bge	r3,r2,924 <VgaDrawBox+0xbc>
    }
  }
  return(0);
     98c:	0005883a 	mov	r2,zero
}
     990:	e037883a 	mov	sp,fp
     994:	df000017 	ldw	fp,0(sp)
     998:	dec00104 	addi	sp,sp,4
     99c:	f800283a 	ret

000009a0 <alt_load_section>:
 */

static void ALT_INLINE alt_load_section (alt_u32* from, 
                                         alt_u32* to, 
                                         alt_u32* end)
{
     9a0:	defffc04 	addi	sp,sp,-16
     9a4:	df000315 	stw	fp,12(sp)
     9a8:	df000304 	addi	fp,sp,12
     9ac:	e13fff15 	stw	r4,-4(fp)
     9b0:	e17ffe15 	stw	r5,-8(fp)
     9b4:	e1bffd15 	stw	r6,-12(fp)
  if (to != from)
     9b8:	e0fffe17 	ldw	r3,-8(fp)
     9bc:	e0bfff17 	ldw	r2,-4(fp)
     9c0:	18800c26 	beq	r3,r2,9f4 <alt_load_section+0x54>
  {
    while( to != end )
     9c4:	00000806 	br	9e8 <alt_load_section+0x48>
    {
      *to++ = *from++;
     9c8:	e0ffff17 	ldw	r3,-4(fp)
     9cc:	18800104 	addi	r2,r3,4
     9d0:	e0bfff15 	stw	r2,-4(fp)
     9d4:	e0bffe17 	ldw	r2,-8(fp)
     9d8:	11000104 	addi	r4,r2,4
     9dc:	e13ffe15 	stw	r4,-8(fp)
     9e0:	18c00017 	ldw	r3,0(r3)
     9e4:	10c00015 	stw	r3,0(r2)
    while( to != end )
     9e8:	e0fffe17 	ldw	r3,-8(fp)
     9ec:	e0bffd17 	ldw	r2,-12(fp)
     9f0:	18bff51e 	bne	r3,r2,9c8 <alt_load_section+0x28>
    }
  }
}
     9f4:	0001883a 	nop
     9f8:	e037883a 	mov	sp,fp
     9fc:	df000017 	ldw	fp,0(sp)
     a00:	dec00104 	addi	sp,sp,4
     a04:	f800283a 	ret

00000a08 <alt_load>:
 * there is no bootloader, so this application is responsible for loading to
 * RAM any sections that are required.
 */  

void alt_load (void)
{
     a08:	defffe04 	addi	sp,sp,-8
     a0c:	dfc00115 	stw	ra,4(sp)
     a10:	df000015 	stw	fp,0(sp)
     a14:	d839883a 	mov	fp,sp
  /* 
   * Copy the .rwdata section. 
   */

  alt_load_section (&__flash_rwdata_start, 
     a18:	01800074 	movhi	r6,1
     a1c:	31b87604 	addi	r6,r6,-7720
     a20:	01400074 	movhi	r5,1
     a24:	296e7a04 	addi	r5,r5,-17944
     a28:	01000074 	movhi	r4,1
     a2c:	21387604 	addi	r4,r4,-7720
     a30:	00009a00 	call	9a0 <alt_load_section>

  /*
   * Copy the exception handler.
   */

  alt_load_section (&__flash_exceptions_start, 
     a34:	01800034 	movhi	r6,0
     a38:	31808e04 	addi	r6,r6,568
     a3c:	01400034 	movhi	r5,0
     a40:	29400804 	addi	r5,r5,32
     a44:	01000034 	movhi	r4,0
     a48:	21000804 	addi	r4,r4,32
     a4c:	00009a00 	call	9a0 <alt_load_section>

  /*
   * Copy the .rodata section.
   */

  alt_load_section (&__flash_rodata_start, 
     a50:	01800074 	movhi	r6,1
     a54:	31ae7a04 	addi	r6,r6,-17944
     a58:	01400074 	movhi	r5,1
     a5c:	296dff04 	addi	r5,r5,-18436
     a60:	01000074 	movhi	r4,1
     a64:	212dff04 	addi	r4,r4,-18436
     a68:	00009a00 	call	9a0 <alt_load_section>
  
  /*
   * Now ensure that the caches are in synch.
   */
  
  alt_dcache_flush_all();
     a6c:	0009f840 	call	9f84 <alt_dcache_flush_all>
  alt_icache_flush_all();
     a70:	000a1a80 	call	a1a8 <alt_icache_flush_all>
}
     a74:	0001883a 	nop
     a78:	e037883a 	mov	sp,fp
     a7c:	dfc00117 	ldw	ra,4(sp)
     a80:	df000017 	ldw	fp,0(sp)
     a84:	dec00204 	addi	sp,sp,8
     a88:	f800283a 	ret

00000a8c <alt_main>:
 * devices/filesystems/components in the system; and call the entry point for
 * the users application, i.e. main().
 */

void alt_main (void)
{
     a8c:	defffb04 	addi	sp,sp,-20
     a90:	dfc00415 	stw	ra,16(sp)
     a94:	df000315 	stw	fp,12(sp)
     a98:	df000304 	addi	fp,sp,12
#endif

  /* ALT LOG - please see HAL/sys/alt_log_printf.h for details */
  ALT_LOG_PRINT_BOOT("[alt_main.c] Entering alt_main, calling alt_irq_init.\r\n");
  /* Initialize the interrupt controller. */
  alt_irq_init (NULL);
     a9c:	0009883a 	mov	r4,zero
     aa0:	000894c0 	call	894c <alt_irq_init>

  /* Initialize the operating system */
  ALT_LOG_PRINT_BOOT("[alt_main.c] Done alt_irq_init, calling alt_os_init.\r\n");
  ALT_OS_INIT();
     aa4:	00016b40 	call	16b4 <OSInit>
     aa8:	01000044 	movi	r4,1
     aac:	00060bc0 	call	60bc <OSSemCreate>
     ab0:	d0aa2d15 	stw	r2,-22348(gp)
     ab4:	01000044 	movi	r4,1
     ab8:	00060bc0 	call	60bc <OSSemCreate>
     abc:	d0aa2f15 	stw	r2,-22340(gp)
     ac0:	d0aa4404 	addi	r2,gp,-22256
     ac4:	e0bffe15 	stw	r2,-8(fp)
     ac8:	00800044 	movi	r2,1
     acc:	e0bffd8d 	sth	r2,-10(fp)
 */

static ALT_INLINE int ALT_ALWAYS_INLINE alt_sem_create (OS_EVENT** sem, 
              INT16U value)
{
  *sem = OSSemCreate (value);
     ad0:	e0bffd8b 	ldhu	r2,-10(fp)
     ad4:	1009883a 	mov	r4,r2
     ad8:	00060bc0 	call	60bc <OSSemCreate>
     adc:	1007883a 	mov	r3,r2
     ae0:	e0bffe17 	ldw	r2,-8(fp)
     ae4:	10c00015 	stw	r3,0(r2)
  return *sem ? 0 : -1;
     ae8:	0001883a 	nop
  ALT_LOG_PRINT_BOOT("[alt_main.c] Done OS Init, calling alt_sem_create.\r\n");
  ALT_SEM_CREATE (&alt_fd_list_lock, 1);

  /* Initialize the device drivers/software components. */
  ALT_LOG_PRINT_BOOT("[alt_main.c] Calling alt_sys_init.\r\n");
  alt_sys_init();
     aec:	00089880 	call	8988 <alt_sys_init>
   * devices be present (not equal to /dev/null) and if direct drivers
   * aren't being used.
   */

    ALT_LOG_PRINT_BOOT("[alt_main.c] Redirecting IO.\r\n");
    alt_io_redirect(ALT_STDOUT, ALT_STDIN, ALT_STDERR);
     af0:	01800074 	movhi	r6,1
     af4:	31ae0704 	addi	r6,r6,-18404
     af8:	01400074 	movhi	r5,1
     afc:	296e0704 	addi	r5,r5,-18404
     b00:	01000074 	movhi	r4,1
     b04:	212e0704 	addi	r4,r4,-18404
     b08:	000a5240 	call	a524 <alt_io_redirect>
  /* 
   * Call the C++ constructors 
   */

  ALT_LOG_PRINT_BOOT("[alt_main.c] Calling C++ constructors.\r\n");
  _do_ctors ();
     b0c:	000a0e00 	call	a0e0 <_do_ctors>
   * redefined as _exit()). This is in the interest of reducing code footprint,
   * in that the atexit() overhead is removed when it's not needed.
   */

  ALT_LOG_PRINT_BOOT("[alt_main.c] Calling atexit.\r\n");
  atexit (_do_dtors);
     b10:	01000074 	movhi	r4,1
     b14:	21285104 	addi	r4,r4,-24252
     b18:	000b1140 	call	b114 <atexit>
  ALT_LOG_PRINT_BOOT("[alt_main.c] Calling main.\r\n");

#ifdef ALT_NO_EXIT
  main (alt_argc, alt_argv, alt_envp);
#else
  result = main (alt_argc, alt_argv, alt_envp);
     b1c:	d0aa2a17 	ldw	r2,-22360(gp)
     b20:	d0ea2b17 	ldw	r3,-22356(gp)
     b24:	d12a2c17 	ldw	r4,-22352(gp)
     b28:	200d883a 	mov	r6,r4
     b2c:	180b883a 	mov	r5,r3
     b30:	1009883a 	mov	r4,r2
     b34:	00004bc0 	call	4bc <main>
     b38:	e0bfff15 	stw	r2,-4(fp)
  close(STDOUT_FILENO);
     b3c:	01000044 	movi	r4,1
     b40:	0009eb40 	call	9eb4 <close>
  exit (result);
     b44:	e13fff17 	ldw	r4,-4(fp)
     b48:	000b1280 	call	b128 <exit>

00000b4c <__env_lock>:
/*
 *
 */

void __env_lock ( struct _reent *_r )
{
     b4c:	deffc404 	addi	sp,sp,-240
     b50:	dfc03b15 	stw	ra,236(sp)
     b54:	df003a15 	stw	fp,232(sp)
     b58:	df003a04 	addi	fp,sp,232
     b5c:	e13fc615 	stw	r4,-232(fp)
  INT8U err;
  int id;

  /* use our priority as a task id */

  err = OSTaskQuery( OS_PRIO_SELF, &tcb );
     b60:	e0bfc904 	addi	r2,fp,-220
     b64:	100b883a 	mov	r5,r2
     b68:	01003fc4 	movi	r4,255
     b6c:	0007f9c0 	call	7f9c <OSTaskQuery>
     b70:	e0bfc745 	stb	r2,-227(fp)
  if (err != OS_ERR_NONE)
     b74:	e0bfc743 	ldbu	r2,-227(fp)
     b78:	10803fcc 	andi	r2,r2,255
     b7c:	10001d1e 	bne	r2,zero,bf4 <__env_lock+0xa8>
    return;

  id = tcb.OSTCBPrio;
     b80:	e0bfd783 	ldbu	r2,-162(fp)
     b84:	10803fcc 	andi	r2,r2,255
     b88:	e0bfff15 	stw	r2,-4(fp)
   
  /* see if we own the environment already */

  OSSemQuery( alt_envsem, &semdata );
     b8c:	d0aa2d17 	ldw	r2,-22348(gp)
     b90:	e0ffc784 	addi	r3,fp,-226
     b94:	180b883a 	mov	r5,r3
     b98:	1009883a 	mov	r4,r2
     b9c:	00068580 	call	6858 <OSSemQuery>
  if( semdata.OSEventGrp && id == lockid ) 
     ba0:	e0bfc8c3 	ldbu	r2,-221(fp)
     ba4:	10803fcc 	andi	r2,r2,255
     ba8:	10000726 	beq	r2,zero,bc8 <__env_lock+0x7c>
     bac:	d0a00017 	ldw	r2,-32768(gp)
     bb0:	e0ffff17 	ldw	r3,-4(fp)
     bb4:	1880041e 	bne	r3,r2,bc8 <__env_lock+0x7c>
  {
    /* we do; just count the recursion */

    locks++;
     bb8:	d0aa2e17 	ldw	r2,-22344(gp)
     bbc:	10800044 	addi	r2,r2,1
     bc0:	d0aa2e15 	stw	r2,-22344(gp)
    locks  = 1;
    lockid = id;
  }

#endif /* OS_THREAD_SAFE_NEWLIB */
  return;
     bc4:	00000c06 	br	bf8 <__env_lock+0xac>
    OSSemPend( alt_envsem, 0, &err );
     bc8:	d0aa2d17 	ldw	r2,-22348(gp)
     bcc:	e0ffc744 	addi	r3,fp,-227
     bd0:	180d883a 	mov	r6,r3
     bd4:	000b883a 	mov	r5,zero
     bd8:	1009883a 	mov	r4,r2
     bdc:	00063cc0 	call	63cc <OSSemPend>
    locks  = 1;
     be0:	00800044 	movi	r2,1
     be4:	d0aa2e15 	stw	r2,-22344(gp)
    lockid = id;
     be8:	e0bfff17 	ldw	r2,-4(fp)
     bec:	d0a00015 	stw	r2,-32768(gp)
  return;
     bf0:	00000106 	br	bf8 <__env_lock+0xac>
    return;
     bf4:	0001883a 	nop
}
     bf8:	e037883a 	mov	sp,fp
     bfc:	dfc00117 	ldw	ra,4(sp)
     c00:	df000017 	ldw	fp,0(sp)
     c04:	dec00204 	addi	sp,sp,8
     c08:	f800283a 	ret

00000c0c <__env_unlock>:
/*
 *
 */

void __env_unlock ( struct _reent *_r )
{
     c0c:	defffd04 	addi	sp,sp,-12
     c10:	dfc00215 	stw	ra,8(sp)
     c14:	df000115 	stw	fp,4(sp)
     c18:	df000104 	addi	fp,sp,4
     c1c:	e13fff15 	stw	r4,-4(fp)
#if OS_THREAD_SAFE_NEWLIB
  if (locks == 0)
     c20:	d0aa2e17 	ldw	r2,-22344(gp)
     c24:	10000b26 	beq	r2,zero,c54 <__env_unlock+0x48>
   /* 
    * release the environment once the number of locks == the number 
    * of unlocks 
    */

  if( (--locks) == 0 ) 
     c28:	d0aa2e17 	ldw	r2,-22344(gp)
     c2c:	10bfffc4 	addi	r2,r2,-1
     c30:	d0aa2e15 	stw	r2,-22344(gp)
     c34:	d0aa2e17 	ldw	r2,-22344(gp)
     c38:	1000071e 	bne	r2,zero,c58 <__env_unlock+0x4c>
  {
    lockid = -1;
     c3c:	00bfffc4 	movi	r2,-1
     c40:	d0a00015 	stw	r2,-32768(gp)
    OSSemPost( alt_envsem );
     c44:	d0aa2d17 	ldw	r2,-22348(gp)
     c48:	1009883a 	mov	r4,r2
     c4c:	000673c0 	call	673c <OSSemPost>
     c50:	00000106 	br	c58 <__env_unlock+0x4c>
    return;
     c54:	0001883a 	nop
  }
#endif /* OS_THREAD_SAFE_NEWLIB */
}
     c58:	e037883a 	mov	sp,fp
     c5c:	dfc00117 	ldw	ra,4(sp)
     c60:	df000017 	ldw	fp,0(sp)
     c64:	dec00204 	addi	sp,sp,8
     c68:	f800283a 	ret

00000c6c <__malloc_lock>:
/*
 *
 */

void __malloc_lock ( struct _reent *_r )
{
     c6c:	deffc004 	addi	sp,sp,-256
     c70:	dfc03f15 	stw	ra,252(sp)
     c74:	df003e15 	stw	fp,248(sp)
     c78:	df003e04 	addi	fp,sp,248
     c7c:	e13fc215 	stw	r4,-248(fp)
  OS_TCB tcb;
  OS_SEM_DATA semdata;
  INT8U err;
  int id;
#if OS_CRITICAL_METHOD == 3                      /* Allocate storage for CPU status register           */
    OS_CPU_SR  cpu_sr = 0;
     c80:	e03fff15 	stw	zero,-4(fp)
#endif  
  
  if (OSRunning != OS_TRUE)
     c84:	d0aa3943 	ldbu	r2,-22299(gp)
     c88:	10803fcc 	andi	r2,r2,255
     c8c:	10800060 	cmpeqi	r2,r2,1
     c90:	10003826 	beq	r2,zero,d74 <__malloc_lock+0x108>
      return;

  /* use our priority as a task id */

  err = OSTaskQuery( OS_PRIO_SELF, &tcb );
     c94:	e0bfc504 	addi	r2,fp,-236
     c98:	100b883a 	mov	r5,r2
     c9c:	01003fc4 	movi	r4,255
     ca0:	0007f9c0 	call	7f9c <OSTaskQuery>
     ca4:	e0bfc345 	stb	r2,-243(fp)
  if (err != OS_ERR_NONE)
     ca8:	e0bfc343 	ldbu	r2,-243(fp)
     cac:	10803fcc 	andi	r2,r2,255
     cb0:	1000321e 	bne	r2,zero,d7c <__malloc_lock+0x110>
    return;

  id = tcb.OSTCBPrio;
     cb4:	e0bfd383 	ldbu	r2,-178(fp)
     cb8:	10803fcc 	andi	r2,r2,255
     cbc:	e0bffe15 	stw	r2,-8(fp)
   
  /* see if we own the heap already */

  OSSemQuery( alt_heapsem, &semdata );
     cc0:	d0aa2f17 	ldw	r2,-22340(gp)
     cc4:	e0ffc384 	addi	r3,fp,-242
     cc8:	180b883a 	mov	r5,r3
     ccc:	1009883a 	mov	r4,r2
     cd0:	00068580 	call	6858 <OSSemQuery>
  NIOS2_READ_STATUS (context);
     cd4:	0005303a 	rdctl	r2,status
     cd8:	e0bffd15 	stw	r2,-12(fp)
  NIOS2_WRITE_STATUS (context & ~NIOS2_STATUS_PIE_MSK);
     cdc:	e0fffd17 	ldw	r3,-12(fp)
     ce0:	00bfff84 	movi	r2,-2
     ce4:	1884703a 	and	r2,r3,r2
     ce8:	1001703a 	wrctl	status,r2
  return context;
     cec:	e0bffd17 	ldw	r2,-12(fp)
  
  OS_ENTER_CRITICAL();
     cf0:	e0bfff15 	stw	r2,-4(fp)

  if( !semdata.OSCnt && id == lockid ) 
     cf4:	e0bfc38b 	ldhu	r2,-242(fp)
     cf8:	10bfffcc 	andi	r2,r2,65535
     cfc:	10000d1e 	bne	r2,zero,d34 <__malloc_lock+0xc8>
     d00:	d0a00117 	ldw	r2,-32764(gp)
     d04:	e0fffe17 	ldw	r3,-8(fp)
     d08:	18800a1e 	bne	r3,r2,d34 <__malloc_lock+0xc8>
  {
    /* we do; just count the recursion */
    locks++;
     d0c:	d0aa3017 	ldw	r2,-22336(gp)
     d10:	10800044 	addi	r2,r2,1
     d14:	d0aa3015 	stw	r2,-22336(gp)
     d18:	e0bfff17 	ldw	r2,-4(fp)
     d1c:	e0bffc15 	stw	r2,-16(fp)
  NIOS2_WRITE_STATUS (context);
     d20:	e0bffc17 	ldw	r2,-16(fp)
     d24:	1001703a 	wrctl	status,r2
}
     d28:	0001883a 	nop
    OS_EXIT_CRITICAL();
     d2c:	0001883a 	nop
    locks  = 1;
    lockid = id;
  }

#endif /* OS_THREAD_SAFE_NEWLIB */
  return;
     d30:	00001306 	br	d80 <__malloc_lock+0x114>
     d34:	e0bfff17 	ldw	r2,-4(fp)
     d38:	e0bffb15 	stw	r2,-20(fp)
  NIOS2_WRITE_STATUS (context);
     d3c:	e0bffb17 	ldw	r2,-20(fp)
     d40:	1001703a 	wrctl	status,r2
}
     d44:	0001883a 	nop
    OSSemPend( alt_heapsem, 0, &err );
     d48:	d0aa2f17 	ldw	r2,-22340(gp)
     d4c:	e0ffc344 	addi	r3,fp,-243
     d50:	180d883a 	mov	r6,r3
     d54:	000b883a 	mov	r5,zero
     d58:	1009883a 	mov	r4,r2
     d5c:	00063cc0 	call	63cc <OSSemPend>
    locks  = 1;
     d60:	00800044 	movi	r2,1
     d64:	d0aa3015 	stw	r2,-22336(gp)
    lockid = id;
     d68:	e0bffe17 	ldw	r2,-8(fp)
     d6c:	d0a00115 	stw	r2,-32764(gp)
  return;
     d70:	00000306 	br	d80 <__malloc_lock+0x114>
      return;
     d74:	0001883a 	nop
     d78:	00000106 	br	d80 <__malloc_lock+0x114>
    return;
     d7c:	0001883a 	nop
}
     d80:	e037883a 	mov	sp,fp
     d84:	dfc00117 	ldw	ra,4(sp)
     d88:	df000017 	ldw	fp,0(sp)
     d8c:	dec00204 	addi	sp,sp,8
     d90:	f800283a 	ret

00000d94 <__malloc_unlock>:
/*
 *
 */

void __malloc_unlock ( struct _reent *_r )
{
     d94:	defff804 	addi	sp,sp,-32
     d98:	dfc00715 	stw	ra,28(sp)
     d9c:	df000615 	stw	fp,24(sp)
     da0:	df000604 	addi	fp,sp,24
     da4:	e13ffa15 	stw	r4,-24(fp)
#if OS_THREAD_SAFE_NEWLIB

#if OS_CRITICAL_METHOD == 3                      /* Allocate storage for CPU status register           */
    OS_CPU_SR  cpu_sr = 0;
     da8:	e03fff15 	stw	zero,-4(fp)
#endif 

  if (OSRunning != OS_TRUE)
     dac:	d0aa3943 	ldbu	r2,-22299(gp)
     db0:	10803fcc 	andi	r2,r2,255
     db4:	10800060 	cmpeqi	r2,r2,1
     db8:	10002526 	beq	r2,zero,e50 <__malloc_unlock+0xbc>
  NIOS2_READ_STATUS (context);
     dbc:	0005303a 	rdctl	r2,status
     dc0:	e0bffe15 	stw	r2,-8(fp)
  NIOS2_WRITE_STATUS (context & ~NIOS2_STATUS_PIE_MSK);
     dc4:	e0fffe17 	ldw	r3,-8(fp)
     dc8:	00bfff84 	movi	r2,-2
     dcc:	1884703a 	and	r2,r3,r2
     dd0:	1001703a 	wrctl	status,r2
  return context;
     dd4:	e0bffe17 	ldw	r2,-8(fp)
      return;

  OS_ENTER_CRITICAL();
     dd8:	e0bfff15 	stw	r2,-4(fp)
  if (locks == 0)
     ddc:	d0aa3017 	ldw	r2,-22336(gp)
     de0:	1000061e 	bne	r2,zero,dfc <__malloc_unlock+0x68>
     de4:	e0bfff17 	ldw	r2,-4(fp)
     de8:	e0bffd15 	stw	r2,-12(fp)
  NIOS2_WRITE_STATUS (context);
     dec:	e0bffd17 	ldw	r2,-12(fp)
     df0:	1001703a 	wrctl	status,r2
}
     df4:	0001883a 	nop
  {
      OS_EXIT_CRITICAL();
      return;
     df8:	00001606 	br	e54 <__malloc_unlock+0xc0>
  }

  /* release the heap once the number of locks == the number of unlocks */
  if( (--locks) == 0 ) 
     dfc:	d0aa3017 	ldw	r2,-22336(gp)
     e00:	10bfffc4 	addi	r2,r2,-1
     e04:	d0aa3015 	stw	r2,-22336(gp)
     e08:	d0aa3017 	ldw	r2,-22336(gp)
     e0c:	10000b1e 	bne	r2,zero,e3c <__malloc_unlock+0xa8>
  {
    lockid = -1;
     e10:	00bfffc4 	movi	r2,-1
     e14:	d0a00115 	stw	r2,-32764(gp)
     e18:	e0bfff17 	ldw	r2,-4(fp)
     e1c:	e0bffc15 	stw	r2,-16(fp)
  NIOS2_WRITE_STATUS (context);
     e20:	e0bffc17 	ldw	r2,-16(fp)
     e24:	1001703a 	wrctl	status,r2
}
     e28:	0001883a 	nop
    OS_EXIT_CRITICAL();
    OSSemPost( alt_heapsem );
     e2c:	d0aa2f17 	ldw	r2,-22340(gp)
     e30:	1009883a 	mov	r4,r2
     e34:	000673c0 	call	673c <OSSemPost>
     e38:	00000606 	br	e54 <__malloc_unlock+0xc0>
     e3c:	e0bfff17 	ldw	r2,-4(fp)
     e40:	e0bffb15 	stw	r2,-20(fp)
  NIOS2_WRITE_STATUS (context);
     e44:	e0bffb17 	ldw	r2,-20(fp)
     e48:	1001703a 	wrctl	status,r2
}
     e4c:	00000106 	br	e54 <__malloc_unlock+0xc0>
      return;
     e50:	0001883a 	nop
  {
      OS_EXIT_CRITICAL();
  }
  
#endif /* OS_THREAD_SAFE_NEWLIB */
}
     e54:	e037883a 	mov	sp,fp
     e58:	dfc00117 	ldw	ra,4(sp)
     e5c:	df000017 	ldw	fp,0(sp)
     e60:	dec00204 	addi	sp,sp,8
     e64:	f800283a 	ret

00000e68 <OSEventNameGet>:

#if (OS_EVENT_EN) && (OS_EVENT_NAME_EN > 0u)
INT8U  OSEventNameGet (OS_EVENT   *pevent,
                       INT8U     **pname,
                       INT8U      *perr)
{
     e68:	defff704 	addi	sp,sp,-36
     e6c:	dfc00815 	stw	ra,32(sp)
     e70:	df000715 	stw	fp,28(sp)
     e74:	df000704 	addi	fp,sp,28
     e78:	e13ffb15 	stw	r4,-20(fp)
     e7c:	e17ffa15 	stw	r5,-24(fp)
     e80:	e1bff915 	stw	r6,-28(fp)
    INT8U      len;
#if OS_CRITICAL_METHOD == 3u                     /* Allocate storage for CPU status register           */
    OS_CPU_SR  cpu_sr = 0u;
     e84:	e03fff15 	stw	zero,-4(fp)
        return (0u);
    }
#endif

#if OS_ARG_CHK_EN > 0u
    if (pevent == (OS_EVENT *)0) {               /* Is 'pevent' a NULL pointer?                        */
     e88:	e0bffb17 	ldw	r2,-20(fp)
     e8c:	1000051e 	bne	r2,zero,ea4 <OSEventNameGet+0x3c>
        *perr = OS_ERR_PEVENT_NULL;
     e90:	e0bff917 	ldw	r2,-28(fp)
     e94:	00c00104 	movi	r3,4
     e98:	10c00005 	stb	r3,0(r2)
        return (0u);
     e9c:	0005883a 	mov	r2,zero
     ea0:	00003406 	br	f74 <OSEventNameGet+0x10c>
    }
    if (pname == (INT8U **)0) {                   /* Is 'pname' a NULL pointer?                         */
     ea4:	e0bffa17 	ldw	r2,-24(fp)
     ea8:	1000051e 	bne	r2,zero,ec0 <OSEventNameGet+0x58>
        *perr = OS_ERR_PNAME_NULL;
     eac:	e0bff917 	ldw	r2,-28(fp)
     eb0:	00c00304 	movi	r3,12
     eb4:	10c00005 	stb	r3,0(r2)
        return (0u);
     eb8:	0005883a 	mov	r2,zero
     ebc:	00002d06 	br	f74 <OSEventNameGet+0x10c>
    }
#endif
    if (OSIntNesting > 0u) {                     /* See if trying to call from an ISR                  */
     ec0:	d0aa3743 	ldbu	r2,-22307(gp)
     ec4:	10803fcc 	andi	r2,r2,255
     ec8:	10000526 	beq	r2,zero,ee0 <OSEventNameGet+0x78>
        *perr  = OS_ERR_NAME_GET_ISR;
     ecc:	e0bff917 	ldw	r2,-28(fp)
     ed0:	00c00444 	movi	r3,17
     ed4:	10c00005 	stb	r3,0(r2)
        return (0u);
     ed8:	0005883a 	mov	r2,zero
     edc:	00002506 	br	f74 <OSEventNameGet+0x10c>
    }
    switch (pevent->OSEventType) {
     ee0:	e0bffb17 	ldw	r2,-20(fp)
     ee4:	10800003 	ldbu	r2,0(r2)
     ee8:	10803fcc 	andi	r2,r2,255
     eec:	10bfffc4 	addi	r2,r2,-1
     ef0:	10800128 	cmpgeui	r2,r2,4
     ef4:	10000526 	beq	r2,zero,f0c <OSEventNameGet+0xa4>
        case OS_EVENT_TYPE_MBOX:
        case OS_EVENT_TYPE_Q:
             break;

        default:
             *perr = OS_ERR_EVENT_TYPE;
     ef8:	e0bff917 	ldw	r2,-28(fp)
     efc:	00c00044 	movi	r3,1
     f00:	10c00005 	stb	r3,0(r2)
             return (0u);
     f04:	0005883a 	mov	r2,zero
     f08:	00001a06 	br	f74 <OSEventNameGet+0x10c>
             break;
     f0c:	0001883a 	nop
  NIOS2_READ_STATUS (context);
     f10:	0005303a 	rdctl	r2,status
     f14:	e0bffc15 	stw	r2,-16(fp)
  NIOS2_WRITE_STATUS (context & ~NIOS2_STATUS_PIE_MSK);
     f18:	e0fffc17 	ldw	r3,-16(fp)
     f1c:	00bfff84 	movi	r2,-2
     f20:	1884703a 	and	r2,r3,r2
     f24:	1001703a 	wrctl	status,r2
  return context;
     f28:	e0bffc17 	ldw	r2,-16(fp)
    }
    OS_ENTER_CRITICAL();
     f2c:	e0bfff15 	stw	r2,-4(fp)
    *pname = pevent->OSEventName;
     f30:	e0bffb17 	ldw	r2,-20(fp)
     f34:	10c00417 	ldw	r3,16(r2)
     f38:	e0bffa17 	ldw	r2,-24(fp)
     f3c:	10c00015 	stw	r3,0(r2)
    len    = OS_StrLen(*pname);
     f40:	e0bffa17 	ldw	r2,-24(fp)
     f44:	10800017 	ldw	r2,0(r2)
     f48:	1009883a 	mov	r4,r2
     f4c:	00028d80 	call	28d8 <OS_StrLen>
     f50:	e0bffec5 	stb	r2,-5(fp)
     f54:	e0bfff17 	ldw	r2,-4(fp)
     f58:	e0bffd15 	stw	r2,-12(fp)
  NIOS2_WRITE_STATUS (context);
     f5c:	e0bffd17 	ldw	r2,-12(fp)
     f60:	1001703a 	wrctl	status,r2
}
     f64:	0001883a 	nop
    OS_EXIT_CRITICAL();
    *perr  = OS_ERR_NONE;
     f68:	e0bff917 	ldw	r2,-28(fp)
     f6c:	10000005 	stb	zero,0(r2)
    return (len);
     f70:	e0bffec3 	ldbu	r2,-5(fp)
}
     f74:	e037883a 	mov	sp,fp
     f78:	dfc00117 	ldw	ra,4(sp)
     f7c:	df000017 	ldw	fp,0(sp)
     f80:	dec00204 	addi	sp,sp,8
     f84:	f800283a 	ret

00000f88 <OSEventNameSet>:

#if (OS_EVENT_EN) && (OS_EVENT_NAME_EN > 0u)
void  OSEventNameSet (OS_EVENT  *pevent,
                      INT8U     *pname,
                      INT8U     *perr)
{
     f88:	defff904 	addi	sp,sp,-28
     f8c:	df000615 	stw	fp,24(sp)
     f90:	df000604 	addi	fp,sp,24
     f94:	e13ffc15 	stw	r4,-16(fp)
     f98:	e17ffb15 	stw	r5,-20(fp)
     f9c:	e1bffa15 	stw	r6,-24(fp)
#if OS_CRITICAL_METHOD == 3u                     /* Allocate storage for CPU status register           */
    OS_CPU_SR  cpu_sr = 0u;
     fa0:	e03fff15 	stw	zero,-4(fp)
        return;
    }
#endif

#if OS_ARG_CHK_EN > 0u
    if (pevent == (OS_EVENT *)0) {               /* Is 'pevent' a NULL pointer?                        */
     fa4:	e0bffc17 	ldw	r2,-16(fp)
     fa8:	1000041e 	bne	r2,zero,fbc <OSEventNameSet+0x34>
        *perr = OS_ERR_PEVENT_NULL;
     fac:	e0bffa17 	ldw	r2,-24(fp)
     fb0:	00c00104 	movi	r3,4
     fb4:	10c00005 	stb	r3,0(r2)
        return;
     fb8:	00002a06 	br	1064 <OSEventNameSet+0xdc>
    }
    if (pname == (INT8U *)0) {                   /* Is 'pname' a NULL pointer?                         */
     fbc:	e0bffb17 	ldw	r2,-20(fp)
     fc0:	1000041e 	bne	r2,zero,fd4 <OSEventNameSet+0x4c>
        *perr = OS_ERR_PNAME_NULL;
     fc4:	e0bffa17 	ldw	r2,-24(fp)
     fc8:	00c00304 	movi	r3,12
     fcc:	10c00005 	stb	r3,0(r2)
        return;
     fd0:	00002406 	br	1064 <OSEventNameSet+0xdc>
    }
#endif
    if (OSIntNesting > 0u) {                     /* See if trying to call from an ISR                  */
     fd4:	d0aa3743 	ldbu	r2,-22307(gp)
     fd8:	10803fcc 	andi	r2,r2,255
     fdc:	10000426 	beq	r2,zero,ff0 <OSEventNameSet+0x68>
        *perr = OS_ERR_NAME_SET_ISR;
     fe0:	e0bffa17 	ldw	r2,-24(fp)
     fe4:	00c00484 	movi	r3,18
     fe8:	10c00005 	stb	r3,0(r2)
        return;
     fec:	00001d06 	br	1064 <OSEventNameSet+0xdc>
    }
    switch (pevent->OSEventType) {
     ff0:	e0bffc17 	ldw	r2,-16(fp)
     ff4:	10800003 	ldbu	r2,0(r2)
     ff8:	10803fcc 	andi	r2,r2,255
     ffc:	10bfffc4 	addi	r2,r2,-1
    1000:	10800128 	cmpgeui	r2,r2,4
    1004:	10000426 	beq	r2,zero,1018 <OSEventNameSet+0x90>
        case OS_EVENT_TYPE_MBOX:
        case OS_EVENT_TYPE_Q:
             break;

        default:
             *perr = OS_ERR_EVENT_TYPE;
    1008:	e0bffa17 	ldw	r2,-24(fp)
    100c:	00c00044 	movi	r3,1
    1010:	10c00005 	stb	r3,0(r2)
             return;
    1014:	00001306 	br	1064 <OSEventNameSet+0xdc>
             break;
    1018:	0001883a 	nop
  NIOS2_READ_STATUS (context);
    101c:	0005303a 	rdctl	r2,status
    1020:	e0bffd15 	stw	r2,-12(fp)
  NIOS2_WRITE_STATUS (context & ~NIOS2_STATUS_PIE_MSK);
    1024:	e0fffd17 	ldw	r3,-12(fp)
    1028:	00bfff84 	movi	r2,-2
    102c:	1884703a 	and	r2,r3,r2
    1030:	1001703a 	wrctl	status,r2
  return context;
    1034:	e0bffd17 	ldw	r2,-12(fp)
    }
    OS_ENTER_CRITICAL();
    1038:	e0bfff15 	stw	r2,-4(fp)
    pevent->OSEventName = pname;
    103c:	e0bffc17 	ldw	r2,-16(fp)
    1040:	e0fffb17 	ldw	r3,-20(fp)
    1044:	10c00415 	stw	r3,16(r2)
    1048:	e0bfff17 	ldw	r2,-4(fp)
    104c:	e0bffe15 	stw	r2,-8(fp)
  NIOS2_WRITE_STATUS (context);
    1050:	e0bffe17 	ldw	r2,-8(fp)
    1054:	1001703a 	wrctl	status,r2
}
    1058:	0001883a 	nop
    OS_EXIT_CRITICAL();
    OS_TRACE_EVENT_NAME_SET(pevent, pname);
    *perr = OS_ERR_NONE;
    105c:	e0bffa17 	ldw	r2,-24(fp)
    1060:	10000005 	stb	zero,0(r2)
}
    1064:	e037883a 	mov	sp,fp
    1068:	df000017 	ldw	fp,0(sp)
    106c:	dec00104 	addi	sp,sp,4
    1070:	f800283a 	ret

00001074 <OSEventPendMulti>:
INT16U  OSEventPendMulti (OS_EVENT  **pevents_pend,
                          OS_EVENT  **pevents_rdy,
                          void      **pmsgs_rdy,
                          INT32U      timeout,
                          INT8U      *perr)
{
    1074:	deffed04 	addi	sp,sp,-76
    1078:	dfc01215 	stw	ra,72(sp)
    107c:	df001115 	stw	fp,68(sp)
    1080:	df001104 	addi	fp,sp,68
    1084:	e13ff215 	stw	r4,-56(fp)
    1088:	e17ff115 	stw	r5,-60(fp)
    108c:	e1bff015 	stw	r6,-64(fp)
    1090:	e1ffef15 	stw	r7,-68(fp)
#endif
    BOOLEAN     events_rdy;
    INT16U      events_rdy_nbr;
    INT8U       events_stat;
#if (OS_CRITICAL_METHOD == 3u)                          /* Allocate storage for CPU status register    */
    OS_CPU_SR   cpu_sr = 0u;
    1094:	e03ffb15 	stw	zero,-20(fp)
        return (0u);
    }
#endif

#if (OS_ARG_CHK_EN > 0u)
    if (pevents_pend == (OS_EVENT **)0) {               /* Validate 'pevents_pend'                     */
    1098:	e0bff217 	ldw	r2,-56(fp)
    109c:	1000051e 	bne	r2,zero,10b4 <OSEventPendMulti+0x40>
       *perr =  OS_ERR_PEVENT_NULL;
    10a0:	e0800217 	ldw	r2,8(fp)
    10a4:	00c00104 	movi	r3,4
    10a8:	10c00005 	stb	r3,0(r2)
        return (0u);
    10ac:	0005883a 	mov	r2,zero
    10b0:	00017b06 	br	16a0 <OSEventPendMulti+0x62c>
    }
    if (*pevents_pend  == (OS_EVENT *)0) {              /* Validate 'pevents_pend'                     */
    10b4:	e0bff217 	ldw	r2,-56(fp)
    10b8:	10800017 	ldw	r2,0(r2)
    10bc:	1000051e 	bne	r2,zero,10d4 <OSEventPendMulti+0x60>
       *perr =  OS_ERR_PEVENT_NULL;
    10c0:	e0800217 	ldw	r2,8(fp)
    10c4:	00c00104 	movi	r3,4
    10c8:	10c00005 	stb	r3,0(r2)
        return (0u);
    10cc:	0005883a 	mov	r2,zero
    10d0:	00017306 	br	16a0 <OSEventPendMulti+0x62c>
    }
    if (pevents_rdy  == (OS_EVENT **)0) {               /* Validate 'pevents_rdy'                      */
    10d4:	e0bff117 	ldw	r2,-60(fp)
    10d8:	1000051e 	bne	r2,zero,10f0 <OSEventPendMulti+0x7c>
       *perr =  OS_ERR_PEVENT_NULL;
    10dc:	e0800217 	ldw	r2,8(fp)
    10e0:	00c00104 	movi	r3,4
    10e4:	10c00005 	stb	r3,0(r2)
        return (0u);
    10e8:	0005883a 	mov	r2,zero
    10ec:	00016c06 	br	16a0 <OSEventPendMulti+0x62c>
    }
    if (pmsgs_rdy == (void **)0) {                      /* Validate 'pmsgs_rdy'                        */
    10f0:	e0bff017 	ldw	r2,-64(fp)
    10f4:	1000051e 	bne	r2,zero,110c <OSEventPendMulti+0x98>
       *perr =  OS_ERR_PEVENT_NULL;
    10f8:	e0800217 	ldw	r2,8(fp)
    10fc:	00c00104 	movi	r3,4
    1100:	10c00005 	stb	r3,0(r2)
        return (0u);
    1104:	0005883a 	mov	r2,zero
    1108:	00016506 	br	16a0 <OSEventPendMulti+0x62c>
    }
#endif

   *pevents_rdy = (OS_EVENT *)0;                        /* Init array to NULL in case of errors        */
    110c:	e0bff117 	ldw	r2,-60(fp)
    1110:	10000015 	stw	zero,0(r2)

    pevents     =  pevents_pend;
    1114:	e0bff217 	ldw	r2,-56(fp)
    1118:	e0bfff15 	stw	r2,-4(fp)
    pevent      = *pevents;
    111c:	e0bfff17 	ldw	r2,-4(fp)
    1120:	10800017 	ldw	r2,0(r2)
    1124:	e0bffe15 	stw	r2,-8(fp)
    while  (pevent != (OS_EVENT *)0) {
    1128:	00001b06 	br	1198 <OSEventPendMulti+0x124>
        switch (pevent->OSEventType) {                  /* Validate event block types                  */
    112c:	e0bffe17 	ldw	r2,-8(fp)
    1130:	10800003 	ldbu	r2,0(r2)
    1134:	10803fcc 	andi	r2,r2,255
    1138:	10c000e0 	cmpeqi	r3,r2,3
    113c:	18000b1e 	bne	r3,zero,116c <OSEventPendMulti+0xf8>
    1140:	10c00108 	cmpgei	r3,r2,4
    1144:	1800041e 	bne	r3,zero,1158 <OSEventPendMulti+0xe4>
    1148:	10c00060 	cmpeqi	r3,r2,1
    114c:	1800091e 	bne	r3,zero,1174 <OSEventPendMulti+0x100>
    1150:	108000a0 	cmpeqi	r2,r2,2
    1154:	1000091e 	bne	r2,zero,117c <OSEventPendMulti+0x108>
#endif

            case OS_EVENT_TYPE_MUTEX:
            case OS_EVENT_TYPE_FLAG:
            default:
                *perr = OS_ERR_EVENT_TYPE;
    1158:	e0800217 	ldw	r2,8(fp)
    115c:	00c00044 	movi	r3,1
    1160:	10c00005 	stb	r3,0(r2)
                 return (0u);
    1164:	0005883a 	mov	r2,zero
    1168:	00014d06 	br	16a0 <OSEventPendMulti+0x62c>
                 break;
    116c:	0001883a 	nop
    1170:	00000306 	br	1180 <OSEventPendMulti+0x10c>
                 break;
    1174:	0001883a 	nop
    1178:	00000106 	br	1180 <OSEventPendMulti+0x10c>
                 break;
    117c:	0001883a 	nop
        }
        pevents++;
    1180:	e0bfff17 	ldw	r2,-4(fp)
    1184:	10800104 	addi	r2,r2,4
    1188:	e0bfff15 	stw	r2,-4(fp)
        pevent = *pevents;
    118c:	e0bfff17 	ldw	r2,-4(fp)
    1190:	10800017 	ldw	r2,0(r2)
    1194:	e0bffe15 	stw	r2,-8(fp)
    while  (pevent != (OS_EVENT *)0) {
    1198:	e0bffe17 	ldw	r2,-8(fp)
    119c:	103fe31e 	bne	r2,zero,112c <OSEventPendMulti+0xb8>
    }

    if (OSIntNesting  > 0u) {                           /* See if called from ISR ...                  */
    11a0:	d0aa3743 	ldbu	r2,-22307(gp)
    11a4:	10803fcc 	andi	r2,r2,255
    11a8:	10000526 	beq	r2,zero,11c0 <OSEventPendMulti+0x14c>
       *perr =  OS_ERR_PEND_ISR;                        /* ... can't PEND from an ISR                  */
    11ac:	e0800217 	ldw	r2,8(fp)
    11b0:	00c00084 	movi	r3,2
    11b4:	10c00005 	stb	r3,0(r2)
        return (0u);
    11b8:	0005883a 	mov	r2,zero
    11bc:	00013806 	br	16a0 <OSEventPendMulti+0x62c>
    }
    if (OSLockNesting > 0u) {                           /* See if called with scheduler locked ...     */
    11c0:	d0aa3783 	ldbu	r2,-22306(gp)
    11c4:	10803fcc 	andi	r2,r2,255
    11c8:	10000526 	beq	r2,zero,11e0 <OSEventPendMulti+0x16c>
       *perr =  OS_ERR_PEND_LOCKED;                     /* ... can't PEND when locked                  */
    11cc:	e0800217 	ldw	r2,8(fp)
    11d0:	00c00344 	movi	r3,13
    11d4:	10c00005 	stb	r3,0(r2)
        return (0u);
    11d8:	0005883a 	mov	r2,zero
    11dc:	00013006 	br	16a0 <OSEventPendMulti+0x62c>
    }

    events_rdy     =  OS_FALSE;
    11e0:	e03ffdc5 	stb	zero,-9(fp)
    events_rdy_nbr =  0u;
    11e4:	e03ffd0d 	sth	zero,-12(fp)
    events_stat    =  OS_STAT_RDY;
    11e8:	e03ffcc5 	stb	zero,-13(fp)
    pevents        =  pevents_pend;
    11ec:	e0bff217 	ldw	r2,-56(fp)
    11f0:	e0bfff15 	stw	r2,-4(fp)
    pevent         = *pevents;
    11f4:	e0bfff17 	ldw	r2,-4(fp)
    11f8:	10800017 	ldw	r2,0(r2)
    11fc:	e0bffe15 	stw	r2,-8(fp)
  NIOS2_READ_STATUS (context);
    1200:	0005303a 	rdctl	r2,status
    1204:	e0bff915 	stw	r2,-28(fp)
  NIOS2_WRITE_STATUS (context & ~NIOS2_STATUS_PIE_MSK);
    1208:	e0fff917 	ldw	r3,-28(fp)
    120c:	00bfff84 	movi	r2,-2
    1210:	1884703a 	and	r2,r3,r2
    1214:	1001703a 	wrctl	status,r2
  return context;
    1218:	e0bff917 	ldw	r2,-28(fp)
    OS_ENTER_CRITICAL();
    121c:	e0bffb15 	stw	r2,-20(fp)
    while (pevent != (OS_EVENT *)0) {                   /* See if any events already available         */
    1220:	00008406 	br	1434 <OSEventPendMulti+0x3c0>
        switch (pevent->OSEventType) {
    1224:	e0bffe17 	ldw	r2,-8(fp)
    1228:	10800003 	ldbu	r2,0(r2)
    122c:	10803fcc 	andi	r2,r2,255
    1230:	10c000e0 	cmpeqi	r3,r2,3
    1234:	1800071e 	bne	r3,zero,1254 <OSEventPendMulti+0x1e0>
    1238:	10c00108 	cmpgei	r3,r2,4
    123c:	18006b1e 	bne	r3,zero,13ec <OSEventPendMulti+0x378>
    1240:	10c00060 	cmpeqi	r3,r2,1
    1244:	1800201e 	bne	r3,zero,12c8 <OSEventPendMulti+0x254>
    1248:	108000a0 	cmpeqi	r2,r2,2
    124c:	1000381e 	bne	r2,zero,1330 <OSEventPendMulti+0x2bc>
    1250:	00006606 	br	13ec <OSEventPendMulti+0x378>
#if (OS_SEM_EN > 0u)
            case OS_EVENT_TYPE_SEM:
                 if (pevent->OSEventCnt > 0u) {         /* If semaphore count > 0, resource available; */
    1254:	e0bffe17 	ldw	r2,-8(fp)
    1258:	1080020b 	ldhu	r2,8(r2)
    125c:	10bfffcc 	andi	r2,r2,65535
    1260:	10001526 	beq	r2,zero,12b8 <OSEventPendMulti+0x244>
                     pevent->OSEventCnt--;              /* ... decrement semaphore,                ... */
    1264:	e0bffe17 	ldw	r2,-8(fp)
    1268:	1080020b 	ldhu	r2,8(r2)
    126c:	10bfffc4 	addi	r2,r2,-1
    1270:	1007883a 	mov	r3,r2
    1274:	e0bffe17 	ldw	r2,-8(fp)
    1278:	10c0020d 	sth	r3,8(r2)
                    *pevents_rdy++ =  pevent;           /* ... and return available semaphore event    */
    127c:	e0bff117 	ldw	r2,-60(fp)
    1280:	10c00104 	addi	r3,r2,4
    1284:	e0fff115 	stw	r3,-60(fp)
    1288:	e0fffe17 	ldw	r3,-8(fp)
    128c:	10c00015 	stw	r3,0(r2)
                      events_rdy   =  OS_TRUE;
    1290:	00800044 	movi	r2,1
    1294:	e0bffdc5 	stb	r2,-9(fp)
                    *pmsgs_rdy++   = (void *)0;         /* NO message returned  for semaphores         */
    1298:	e0bff017 	ldw	r2,-64(fp)
    129c:	10c00104 	addi	r3,r2,4
    12a0:	e0fff015 	stw	r3,-64(fp)
    12a4:	10000015 	stw	zero,0(r2)
                      events_rdy_nbr++;
    12a8:	e0bffd0b 	ldhu	r2,-12(fp)
    12ac:	10800044 	addi	r2,r2,1
    12b0:	e0bffd0d 	sth	r2,-12(fp)

                 } else {
                      events_stat |=  OS_STAT_SEM;      /* Configure multi-pend for semaphore events   */
                 }
                 break;
    12b4:	00005906 	br	141c <OSEventPendMulti+0x3a8>
                      events_stat |=  OS_STAT_SEM;      /* Configure multi-pend for semaphore events   */
    12b8:	e0bffcc3 	ldbu	r2,-13(fp)
    12bc:	10800054 	ori	r2,r2,1
    12c0:	e0bffcc5 	stb	r2,-13(fp)
                 break;
    12c4:	00005506 	br	141c <OSEventPendMulti+0x3a8>
#endif

#if (OS_MBOX_EN > 0u)
            case OS_EVENT_TYPE_MBOX:
                 if (pevent->OSEventPtr != (void *)0) { /* If mailbox NOT empty;                   ... */
    12c8:	e0bffe17 	ldw	r2,-8(fp)
    12cc:	10800117 	ldw	r2,4(r2)
    12d0:	10001326 	beq	r2,zero,1320 <OSEventPendMulti+0x2ac>
                                                        /* ... return available message,           ... */
                    *pmsgs_rdy++         = (void *)pevent->OSEventPtr;
    12d4:	e0bff017 	ldw	r2,-64(fp)
    12d8:	10c00104 	addi	r3,r2,4
    12dc:	e0fff015 	stw	r3,-64(fp)
    12e0:	e0fffe17 	ldw	r3,-8(fp)
    12e4:	18c00117 	ldw	r3,4(r3)
    12e8:	10c00015 	stw	r3,0(r2)
                     pevent->OSEventPtr  = (void *)0;
    12ec:	e0bffe17 	ldw	r2,-8(fp)
    12f0:	10000115 	stw	zero,4(r2)
                    *pevents_rdy++       =  pevent;     /* ... and return available mailbox event      */
    12f4:	e0bff117 	ldw	r2,-60(fp)
    12f8:	10c00104 	addi	r3,r2,4
    12fc:	e0fff115 	stw	r3,-60(fp)
    1300:	e0fffe17 	ldw	r3,-8(fp)
    1304:	10c00015 	stw	r3,0(r2)
                      events_rdy         =  OS_TRUE;
    1308:	00800044 	movi	r2,1
    130c:	e0bffdc5 	stb	r2,-9(fp)
                      events_rdy_nbr++;
    1310:	e0bffd0b 	ldhu	r2,-12(fp)
    1314:	10800044 	addi	r2,r2,1
    1318:	e0bffd0d 	sth	r2,-12(fp)

                 } else {
                      events_stat |= OS_STAT_MBOX;      /* Configure multi-pend for mailbox events     */
                 }
                 break;
    131c:	00003f06 	br	141c <OSEventPendMulti+0x3a8>
                      events_stat |= OS_STAT_MBOX;      /* Configure multi-pend for mailbox events     */
    1320:	e0bffcc3 	ldbu	r2,-13(fp)
    1324:	10800094 	ori	r2,r2,2
    1328:	e0bffcc5 	stb	r2,-13(fp)
                 break;
    132c:	00003b06 	br	141c <OSEventPendMulti+0x3a8>
#endif

#if ((OS_Q_EN > 0u) && (OS_MAX_QS > 0u))
            case OS_EVENT_TYPE_Q:
                 pq = (OS_Q *)pevent->OSEventPtr;
    1330:	e0bffe17 	ldw	r2,-8(fp)
    1334:	10800117 	ldw	r2,4(r2)
    1338:	e0bffa15 	stw	r2,-24(fp)
                 if (pq->OSQEntries > 0u) {             /* If queue NOT empty;                     ... */
    133c:	e0bffa17 	ldw	r2,-24(fp)
    1340:	1080058b 	ldhu	r2,22(r2)
    1344:	10bfffcc 	andi	r2,r2,65535
    1348:	10002426 	beq	r2,zero,13dc <OSEventPendMulti+0x368>
                                                        /* ... return available message,           ... */
                    *pmsgs_rdy++ = (void *)*pq->OSQOut++;
    134c:	e0bffa17 	ldw	r2,-24(fp)
    1350:	10c00417 	ldw	r3,16(r2)
    1354:	19000104 	addi	r4,r3,4
    1358:	e0bffa17 	ldw	r2,-24(fp)
    135c:	11000415 	stw	r4,16(r2)
    1360:	e0bff017 	ldw	r2,-64(fp)
    1364:	11000104 	addi	r4,r2,4
    1368:	e13ff015 	stw	r4,-64(fp)
    136c:	18c00017 	ldw	r3,0(r3)
    1370:	10c00015 	stw	r3,0(r2)
                     if (pq->OSQOut == pq->OSQEnd) {    /* If OUT ptr at queue end, ...                */
    1374:	e0bffa17 	ldw	r2,-24(fp)
    1378:	10c00417 	ldw	r3,16(r2)
    137c:	e0bffa17 	ldw	r2,-24(fp)
    1380:	10800217 	ldw	r2,8(r2)
    1384:	1880041e 	bne	r3,r2,1398 <OSEventPendMulti+0x324>
                         pq->OSQOut  = pq->OSQStart;    /* ... wrap   to queue start                   */
    1388:	e0bffa17 	ldw	r2,-24(fp)
    138c:	10c00117 	ldw	r3,4(r2)
    1390:	e0bffa17 	ldw	r2,-24(fp)
    1394:	10c00415 	stw	r3,16(r2)
                     }
                     pq->OSQEntries--;                  /* Update number of queue entries              */
    1398:	e0bffa17 	ldw	r2,-24(fp)
    139c:	1080058b 	ldhu	r2,22(r2)
    13a0:	10bfffc4 	addi	r2,r2,-1
    13a4:	1007883a 	mov	r3,r2
    13a8:	e0bffa17 	ldw	r2,-24(fp)
    13ac:	10c0058d 	sth	r3,22(r2)
                    *pevents_rdy++ = pevent;            /* ... and return available queue event        */
    13b0:	e0bff117 	ldw	r2,-60(fp)
    13b4:	10c00104 	addi	r3,r2,4
    13b8:	e0fff115 	stw	r3,-60(fp)
    13bc:	e0fffe17 	ldw	r3,-8(fp)
    13c0:	10c00015 	stw	r3,0(r2)
                      events_rdy   = OS_TRUE;
    13c4:	00800044 	movi	r2,1
    13c8:	e0bffdc5 	stb	r2,-9(fp)
                      events_rdy_nbr++;
    13cc:	e0bffd0b 	ldhu	r2,-12(fp)
    13d0:	10800044 	addi	r2,r2,1
    13d4:	e0bffd0d 	sth	r2,-12(fp)

                 } else {
                      events_stat |= OS_STAT_Q;         /* Configure multi-pend for queue events       */
                 }
                 break;
    13d8:	00001006 	br	141c <OSEventPendMulti+0x3a8>
                      events_stat |= OS_STAT_Q;         /* Configure multi-pend for queue events       */
    13dc:	e0bffcc3 	ldbu	r2,-13(fp)
    13e0:	10800114 	ori	r2,r2,4
    13e4:	e0bffcc5 	stb	r2,-13(fp)
                 break;
    13e8:	00000c06 	br	141c <OSEventPendMulti+0x3a8>
    13ec:	e0bffb17 	ldw	r2,-20(fp)
    13f0:	e0bff815 	stw	r2,-32(fp)
  NIOS2_WRITE_STATUS (context);
    13f4:	e0bff817 	ldw	r2,-32(fp)
    13f8:	1001703a 	wrctl	status,r2
}
    13fc:	0001883a 	nop

            case OS_EVENT_TYPE_MUTEX:
            case OS_EVENT_TYPE_FLAG:
            default:
                 OS_EXIT_CRITICAL();
                *pevents_rdy = (OS_EVENT *)0;           /* NULL terminate return event array           */
    1400:	e0bff117 	ldw	r2,-60(fp)
    1404:	10000015 	stw	zero,0(r2)
                *perr        =  OS_ERR_EVENT_TYPE;
    1408:	e0800217 	ldw	r2,8(fp)
    140c:	00c00044 	movi	r3,1
    1410:	10c00005 	stb	r3,0(r2)
                 return (events_rdy_nbr);
    1414:	e0bffd0b 	ldhu	r2,-12(fp)
    1418:	0000a106 	br	16a0 <OSEventPendMulti+0x62c>
        }
        pevents++;
    141c:	e0bfff17 	ldw	r2,-4(fp)
    1420:	10800104 	addi	r2,r2,4
    1424:	e0bfff15 	stw	r2,-4(fp)
        pevent = *pevents;
    1428:	e0bfff17 	ldw	r2,-4(fp)
    142c:	10800017 	ldw	r2,0(r2)
    1430:	e0bffe15 	stw	r2,-8(fp)
    while (pevent != (OS_EVENT *)0) {                   /* See if any events already available         */
    1434:	e0bffe17 	ldw	r2,-8(fp)
    1438:	103f7a1e 	bne	r2,zero,1224 <OSEventPendMulti+0x1b0>
    }

    if ( events_rdy == OS_TRUE) {                       /* Return any events already available         */
    143c:	e0bffdc3 	ldbu	r2,-9(fp)
    1440:	10800058 	cmpnei	r2,r2,1
    1444:	10000b1e 	bne	r2,zero,1474 <OSEventPendMulti+0x400>
       *pevents_rdy = (OS_EVENT *)0;                    /* NULL terminate return event array           */
    1448:	e0bff117 	ldw	r2,-60(fp)
    144c:	10000015 	stw	zero,0(r2)
    1450:	e0bffb17 	ldw	r2,-20(fp)
    1454:	e0bff715 	stw	r2,-36(fp)
  NIOS2_WRITE_STATUS (context);
    1458:	e0bff717 	ldw	r2,-36(fp)
    145c:	1001703a 	wrctl	status,r2
}
    1460:	0001883a 	nop
        OS_EXIT_CRITICAL();
       *perr        =  OS_ERR_NONE;
    1464:	e0800217 	ldw	r2,8(fp)
    1468:	10000005 	stb	zero,0(r2)
        return (events_rdy_nbr);
    146c:	e0bffd0b 	ldhu	r2,-12(fp)
    1470:	00008b06 	br	16a0 <OSEventPendMulti+0x62c>
    }

                                                        /* Otherwise, must wait until any event occurs */
    OSTCBCur->OSTCBStat     |= events_stat  |           /* Resource not available, ...                 */
    1474:	d0aa3b17 	ldw	r2,-22292(gp)
    1478:	10800e03 	ldbu	r2,56(r2)
    147c:	e0fffcc3 	ldbu	r3,-13(fp)
    1480:	1884b03a 	or	r2,r3,r2
    1484:	1009883a 	mov	r4,r2
    1488:	d0aa3b17 	ldw	r2,-22292(gp)
    148c:	00ffe004 	movi	r3,-128
    1490:	20c6b03a 	or	r3,r4,r3
    1494:	10c00e05 	stb	r3,56(r2)
                               OS_STAT_MULTI;           /* ... pend on multiple events                 */
    OSTCBCur->OSTCBStatPend  = OS_STAT_PEND_OK;
    1498:	d0aa3b17 	ldw	r2,-22292(gp)
    149c:	10000e45 	stb	zero,57(r2)
    OSTCBCur->OSTCBDly       = timeout;                 /* Store pend timeout in TCB                   */
    14a0:	d0aa3b17 	ldw	r2,-22292(gp)
    14a4:	e0ffef17 	ldw	r3,-68(fp)
    14a8:	10c00d15 	stw	r3,52(r2)
    OS_EventTaskWaitMulti(pevents_pend);                /* Suspend task until events or timeout occurs */
    14ac:	e13ff217 	ldw	r4,-56(fp)
    14b0:	0001fdc0 	call	1fdc <OS_EventTaskWaitMulti>
    14b4:	e0bffb17 	ldw	r2,-20(fp)
    14b8:	e0bff515 	stw	r2,-44(fp)
  NIOS2_WRITE_STATUS (context);
    14bc:	e0bff517 	ldw	r2,-44(fp)
    14c0:	1001703a 	wrctl	status,r2
}
    14c4:	0001883a 	nop

    OS_EXIT_CRITICAL();
    OS_Sched();                                         /* Find next highest priority task ready       */
    14c8:	00027a00 	call	27a0 <OS_Sched>
  NIOS2_READ_STATUS (context);
    14cc:	0005303a 	rdctl	r2,status
    14d0:	e0bff615 	stw	r2,-40(fp)
  NIOS2_WRITE_STATUS (context & ~NIOS2_STATUS_PIE_MSK);
    14d4:	e0fff617 	ldw	r3,-40(fp)
    14d8:	00bfff84 	movi	r2,-2
    14dc:	1884703a 	and	r2,r3,r2
    14e0:	1001703a 	wrctl	status,r2
  return context;
    14e4:	e0bff617 	ldw	r2,-40(fp)
    OS_ENTER_CRITICAL();
    14e8:	e0bffb15 	stw	r2,-20(fp)

    switch (OSTCBCur->OSTCBStatPend) {                  /* Handle event posted, aborted, or timed-out  */
    14ec:	d0aa3b17 	ldw	r2,-22292(gp)
    14f0:	10800e43 	ldbu	r2,57(r2)
    14f4:	10803fcc 	andi	r2,r2,255
    14f8:	10000226 	beq	r2,zero,1504 <OSEventPendMulti+0x490>
    14fc:	10800098 	cmpnei	r2,r2,2
    1500:	1000171e 	bne	r2,zero,1560 <OSEventPendMulti+0x4ec>
        case OS_STAT_PEND_OK:
        case OS_STAT_PEND_ABORT:
             pevent = OSTCBCur->OSTCBEventMultiRdy;
    1504:	d0aa3b17 	ldw	r2,-22292(gp)
    1508:	10800917 	ldw	r2,36(r2)
    150c:	e0bffe15 	stw	r2,-8(fp)
             if (pevent != (OS_EVENT *)0) {             /* If task event ptr != NULL, ...              */
    1510:	e0bffe17 	ldw	r2,-8(fp)
    1514:	10000a26 	beq	r2,zero,1540 <OSEventPendMulti+0x4cc>
                *pevents_rdy++   =  pevent;             /* ... return available event ...              */
    1518:	e0bff117 	ldw	r2,-60(fp)
    151c:	10c00104 	addi	r3,r2,4
    1520:	e0fff115 	stw	r3,-60(fp)
    1524:	e0fffe17 	ldw	r3,-8(fp)
    1528:	10c00015 	stw	r3,0(r2)
                *pevents_rdy     = (OS_EVENT *)0;       /* ... & NULL terminate return event array     */
    152c:	e0bff117 	ldw	r2,-60(fp)
    1530:	10000015 	stw	zero,0(r2)
                  events_rdy_nbr =  1;
    1534:	00800044 	movi	r2,1
    1538:	e0bffd0d 	sth	r2,-12(fp)

             } else {                                   /* Else NO event available, handle as timeout  */
                 OSTCBCur->OSTCBStatPend = OS_STAT_PEND_TO;
                 OS_EventTaskRemoveMulti(OSTCBCur, pevents_pend);
             }
             break;
    153c:	00000d06 	br	1574 <OSEventPendMulti+0x500>
                 OSTCBCur->OSTCBStatPend = OS_STAT_PEND_TO;
    1540:	d0aa3b17 	ldw	r2,-22292(gp)
    1544:	00c00044 	movi	r3,1
    1548:	10c00e45 	stb	r3,57(r2)
                 OS_EventTaskRemoveMulti(OSTCBCur, pevents_pend);
    154c:	d0aa3b17 	ldw	r2,-22292(gp)
    1550:	e17ff217 	ldw	r5,-56(fp)
    1554:	1009883a 	mov	r4,r2
    1558:	00021d40 	call	21d4 <OS_EventTaskRemoveMulti>
             break;
    155c:	00000506 	br	1574 <OSEventPendMulti+0x500>

        case OS_STAT_PEND_TO:                           /* If events timed out, ...                    */
        default:                                        /* ... remove task from events' wait lists     */
             OS_EventTaskRemoveMulti(OSTCBCur, pevents_pend);
    1560:	d0aa3b17 	ldw	r2,-22292(gp)
    1564:	e17ff217 	ldw	r5,-56(fp)
    1568:	1009883a 	mov	r4,r2
    156c:	00021d40 	call	21d4 <OS_EventTaskRemoveMulti>
             break;
    1570:	0001883a 	nop
    }

    switch (OSTCBCur->OSTCBStatPend) {
    1574:	d0aa3b17 	ldw	r2,-22292(gp)
    1578:	10800e43 	ldbu	r2,57(r2)
    157c:	10803fcc 	andi	r2,r2,255
    1580:	10000326 	beq	r2,zero,1590 <OSEventPendMulti+0x51c>
    1584:	108000a0 	cmpeqi	r2,r2,2
    1588:	1000251e 	bne	r2,zero,1620 <OSEventPendMulti+0x5ac>
    158c:	00002c06 	br	1640 <OSEventPendMulti+0x5cc>
        case OS_STAT_PEND_OK:
             switch (pevent->OSEventType) {             /* Return event's message                      */
    1590:	e0bffe17 	ldw	r2,-8(fp)
    1594:	10800003 	ldbu	r2,0(r2)
    1598:	10803fcc 	andi	r2,r2,255
    159c:	10c000c8 	cmpgei	r3,r2,3
    15a0:	1800021e 	bne	r3,zero,15ac <OSEventPendMulti+0x538>
    15a4:	00800816 	blt	zero,r2,15c8 <OSEventPendMulti+0x554>
    15a8:	00000e06 	br	15e4 <OSEventPendMulti+0x570>
    15ac:	108000d8 	cmpnei	r2,r2,3
    15b0:	10000c1e 	bne	r2,zero,15e4 <OSEventPendMulti+0x570>
#if (OS_SEM_EN > 0u)
                 case OS_EVENT_TYPE_SEM:
                     *pmsgs_rdy++ = (void *)0;          /* NO message returned for semaphores          */
    15b4:	e0bff017 	ldw	r2,-64(fp)
    15b8:	10c00104 	addi	r3,r2,4
    15bc:	e0fff015 	stw	r3,-64(fp)
    15c0:	10000015 	stw	zero,0(r2)
                      break;
    15c4:	00001306 	br	1614 <OSEventPendMulti+0x5a0>

#if ((OS_MBOX_EN > 0u) ||                 \
    ((OS_Q_EN    > 0u) && (OS_MAX_QS > 0u)))
                 case OS_EVENT_TYPE_MBOX:
                 case OS_EVENT_TYPE_Q:
                     *pmsgs_rdy++ = (void *)OSTCBCur->OSTCBMsg;     /* Return received message         */
    15c8:	d0ea3b17 	ldw	r3,-22292(gp)
    15cc:	e0bff017 	ldw	r2,-64(fp)
    15d0:	11000104 	addi	r4,r2,4
    15d4:	e13ff015 	stw	r4,-64(fp)
    15d8:	18c00a17 	ldw	r3,40(r3)
    15dc:	10c00015 	stw	r3,0(r2)
                      break;
    15e0:	00000c06 	br	1614 <OSEventPendMulti+0x5a0>
    15e4:	e0bffb17 	ldw	r2,-20(fp)
    15e8:	e0bff415 	stw	r2,-48(fp)
  NIOS2_WRITE_STATUS (context);
    15ec:	e0bff417 	ldw	r2,-48(fp)
    15f0:	1001703a 	wrctl	status,r2
}
    15f4:	0001883a 	nop

                 case OS_EVENT_TYPE_MUTEX:
                 case OS_EVENT_TYPE_FLAG:
                 default:
                      OS_EXIT_CRITICAL();
                     *pevents_rdy = (OS_EVENT *)0;      /* NULL terminate return event array           */
    15f8:	e0bff117 	ldw	r2,-60(fp)
    15fc:	10000015 	stw	zero,0(r2)
                     *perr        =  OS_ERR_EVENT_TYPE;
    1600:	e0800217 	ldw	r2,8(fp)
    1604:	00c00044 	movi	r3,1
    1608:	10c00005 	stb	r3,0(r2)
                      return (events_rdy_nbr);
    160c:	e0bffd0b 	ldhu	r2,-12(fp)
    1610:	00002306 	br	16a0 <OSEventPendMulti+0x62c>
             }
            *perr = OS_ERR_NONE;
    1614:	e0800217 	ldw	r2,8(fp)
    1618:	10000005 	stb	zero,0(r2)
             break;
    161c:	00001006 	br	1660 <OSEventPendMulti+0x5ec>

        case OS_STAT_PEND_ABORT:
            *pmsgs_rdy++ = (void *)0;                   /* NO message returned for abort               */
    1620:	e0bff017 	ldw	r2,-64(fp)
    1624:	10c00104 	addi	r3,r2,4
    1628:	e0fff015 	stw	r3,-64(fp)
    162c:	10000015 	stw	zero,0(r2)
            *perr        =  OS_ERR_PEND_ABORT;          /* Indicate that event  aborted                */
    1630:	e0800217 	ldw	r2,8(fp)
    1634:	00c00384 	movi	r3,14
    1638:	10c00005 	stb	r3,0(r2)
             break;
    163c:	00000806 	br	1660 <OSEventPendMulti+0x5ec>

        case OS_STAT_PEND_TO:
        default:
            *pmsgs_rdy++ = (void *)0;                   /* NO message returned for timeout             */
    1640:	e0bff017 	ldw	r2,-64(fp)
    1644:	10c00104 	addi	r3,r2,4
    1648:	e0fff015 	stw	r3,-64(fp)
    164c:	10000015 	stw	zero,0(r2)
            *perr        =  OS_ERR_TIMEOUT;             /* Indicate that events timed out              */
    1650:	e0800217 	ldw	r2,8(fp)
    1654:	00c00284 	movi	r3,10
    1658:	10c00005 	stb	r3,0(r2)
             break;
    165c:	0001883a 	nop
    }

    OSTCBCur->OSTCBStat          =  OS_STAT_RDY;        /* Set   task  status to ready                 */
    1660:	d0aa3b17 	ldw	r2,-22292(gp)
    1664:	10000e05 	stb	zero,56(r2)
    OSTCBCur->OSTCBStatPend      =  OS_STAT_PEND_OK;    /* Clear pend  status                          */
    1668:	d0aa3b17 	ldw	r2,-22292(gp)
    166c:	10000e45 	stb	zero,57(r2)
    OSTCBCur->OSTCBEventMultiPtr = (OS_EVENT **)0;      /* Clear event pointers                        */
    1670:	d0aa3b17 	ldw	r2,-22292(gp)
    1674:	10000815 	stw	zero,32(r2)
    OSTCBCur->OSTCBEventMultiRdy = (OS_EVENT  *)0;
    1678:	d0aa3b17 	ldw	r2,-22292(gp)
    167c:	10000915 	stw	zero,36(r2)
#if ((OS_MBOX_EN > 0u) ||                 \
    ((OS_Q_EN    > 0u) && (OS_MAX_QS > 0u)))
    OSTCBCur->OSTCBMsg           = (void      *)0;      /* Clear task  message                         */
    1680:	d0aa3b17 	ldw	r2,-22292(gp)
    1684:	10000a15 	stw	zero,40(r2)
    1688:	e0bffb17 	ldw	r2,-20(fp)
    168c:	e0bff315 	stw	r2,-52(fp)
  NIOS2_WRITE_STATUS (context);
    1690:	e0bff317 	ldw	r2,-52(fp)
    1694:	1001703a 	wrctl	status,r2
}
    1698:	0001883a 	nop
#endif
    OS_EXIT_CRITICAL();

    return (events_rdy_nbr);
    169c:	e0bffd0b 	ldhu	r2,-12(fp)
}
    16a0:	e037883a 	mov	sp,fp
    16a4:	dfc00117 	ldw	ra,4(sp)
    16a8:	df000017 	ldw	fp,0(sp)
    16ac:	dec00204 	addi	sp,sp,8
    16b0:	f800283a 	ret

000016b4 <OSInit>:
* Returns    : none
*********************************************************************************************************
*/

void  OSInit (void)
{
    16b4:	defffe04 	addi	sp,sp,-8
    16b8:	dfc00115 	stw	ra,4(sp)
    16bc:	df000015 	stw	fp,0(sp)
    16c0:	d839883a 	mov	fp,sp
#if defined(OS_TLS_TBL_SIZE) && (OS_TLS_TBL_SIZE > 0u)
    INT8U  err;
#endif
#endif

    OSInitHookBegin();                                           /* Call port specific initialization code   */
    16c4:	000acf80 	call	acf8 <OSInitHookBegin>

    OS_InitMisc();                                               /* Initialize miscellaneous variables       */
    16c8:	00024240 	call	2424 <OS_InitMisc>

    OS_InitRdyList();                                            /* Initialize the Ready List                */
    16cc:	00024700 	call	2470 <OS_InitRdyList>

    OS_InitTCBList();                                            /* Initialize the free list of OS_TCBs      */
    16d0:	00025dc0 	call	25dc <OS_InitTCBList>

    OS_InitEventList();                                          /* Initialize the free list of OS_EVENTs    */
    16d4:	00023280 	call	2328 <OS_InitEventList>

#if (OS_FLAG_EN > 0u) && (OS_MAX_FLAGS > 0u)
    OS_FlagInit();                                               /* Initialize the event flag structures     */
    16d8:	00045240 	call	4524 <OS_FlagInit>
#endif

#if (OS_MEM_EN > 0u) && (OS_MAX_MEM_PART > 0u)
    OS_MemInit();                                                /* Initialize the memory manager            */
    16dc:	0004df40 	call	4df4 <OS_MemInit>
#endif

#if (OS_Q_EN > 0u) && (OS_MAX_QS > 0u)
    OS_QInit();                                                  /* Initialize the message queue structures  */
    16e0:	0005f3c0 	call	5f3c <OS_QInit>
        return;
    }
#endif
#endif

    OS_InitTaskIdle();                                           /* Create the Idle Task                     */
    16e4:	00024d40 	call	24d4 <OS_InitTaskIdle>
#if OS_TASK_STAT_EN > 0u
    OS_InitTaskStat();                                           /* Create the Statistic Task                */
    16e8:	00025580 	call	2558 <OS_InitTaskStat>

#if OS_TMR_EN > 0u
    OSTmr_Init();                                                /* Initialize the Timer Manager             */
#endif

    OSInitHookEnd();                                             /* Call port specific init. code            */
    16ec:	000ad180 	call	ad18 <OSInitHookEnd>

#if OS_DEBUG_EN > 0u
    OSDebugInit();
    16f0:	0002f280 	call	2f28 <OSDebugInit>
#endif
}
    16f4:	0001883a 	nop
    16f8:	e037883a 	mov	sp,fp
    16fc:	dfc00117 	ldw	ra,4(sp)
    1700:	df000017 	ldw	fp,0(sp)
    1704:	dec00204 	addi	sp,sp,8
    1708:	f800283a 	ret

0000170c <OSIntEnter>:
*                 OSIntEnter() is always called with interrupts disabled.
*********************************************************************************************************
*/

void  OSIntEnter (void)
{
    170c:	deffff04 	addi	sp,sp,-4
    1710:	df000015 	stw	fp,0(sp)
    1714:	d839883a 	mov	fp,sp
    if (OSRunning == OS_TRUE) {
    1718:	d0aa3943 	ldbu	r2,-22299(gp)
    171c:	10803fcc 	andi	r2,r2,255
    1720:	10800058 	cmpnei	r2,r2,1
    1724:	1000071e 	bne	r2,zero,1744 <OSIntEnter+0x38>
        if (OSIntNesting < 255u) {
    1728:	d0aa3743 	ldbu	r2,-22307(gp)
    172c:	10803fcc 	andi	r2,r2,255
    1730:	10803fe0 	cmpeqi	r2,r2,255
    1734:	1000031e 	bne	r2,zero,1744 <OSIntEnter+0x38>
            OSIntNesting++;                      /* Increment ISR nesting level                        */
    1738:	d0aa3743 	ldbu	r2,-22307(gp)
    173c:	10800044 	addi	r2,r2,1
    1740:	d0aa3745 	stb	r2,-22307(gp)
        }
        OS_TRACE_ISR_ENTER();
    }
}
    1744:	0001883a 	nop
    1748:	e037883a 	mov	sp,fp
    174c:	df000017 	ldw	fp,0(sp)
    1750:	dec00104 	addi	sp,sp,4
    1754:	f800283a 	ret

00001758 <OSIntExit>:
*              2) Rescheduling is prevented when the scheduler is locked (see OS_SchedLock())
*********************************************************************************************************
*/

void  OSIntExit (void)
{
    1758:	defffb04 	addi	sp,sp,-20
    175c:	dfc00415 	stw	ra,16(sp)
    1760:	df000315 	stw	fp,12(sp)
    1764:	df000304 	addi	fp,sp,12
#if OS_CRITICAL_METHOD == 3u                               /* Allocate storage for CPU status register */
    OS_CPU_SR  cpu_sr = 0u;
    1768:	e03fff15 	stw	zero,-4(fp)
#endif



    if (OSRunning == OS_TRUE) {
    176c:	d0aa3943 	ldbu	r2,-22299(gp)
    1770:	10803fcc 	andi	r2,r2,255
    1774:	10800058 	cmpnei	r2,r2,1
    1778:	10002e1e 	bne	r2,zero,1834 <OSIntExit+0xdc>
  NIOS2_READ_STATUS (context);
    177c:	0005303a 	rdctl	r2,status
    1780:	e0bffe15 	stw	r2,-8(fp)
  NIOS2_WRITE_STATUS (context & ~NIOS2_STATUS_PIE_MSK);
    1784:	e0fffe17 	ldw	r3,-8(fp)
    1788:	00bfff84 	movi	r2,-2
    178c:	1884703a 	and	r2,r3,r2
    1790:	1001703a 	wrctl	status,r2
  return context;
    1794:	e0bffe17 	ldw	r2,-8(fp)
        OS_ENTER_CRITICAL();
    1798:	e0bfff15 	stw	r2,-4(fp)
        if (OSIntNesting > 0u) {                           /* Prevent OSIntNesting from wrapping       */
    179c:	d0aa3743 	ldbu	r2,-22307(gp)
    17a0:	10803fcc 	andi	r2,r2,255
    17a4:	10000326 	beq	r2,zero,17b4 <OSIntExit+0x5c>
            OSIntNesting--;
    17a8:	d0aa3743 	ldbu	r2,-22307(gp)
    17ac:	10bfffc4 	addi	r2,r2,-1
    17b0:	d0aa3745 	stb	r2,-22307(gp)
        }
        if (OSIntNesting == 0u) {                          /* Reschedule only if all ISRs complete ... */
    17b4:	d0aa3743 	ldbu	r2,-22307(gp)
    17b8:	10803fcc 	andi	r2,r2,255
    17bc:	1000181e 	bne	r2,zero,1820 <OSIntExit+0xc8>
            if (OSLockNesting == 0u) {                     /* ... and not locked.                      */
    17c0:	d0aa3783 	ldbu	r2,-22306(gp)
    17c4:	10803fcc 	andi	r2,r2,255
    17c8:	1000151e 	bne	r2,zero,1820 <OSIntExit+0xc8>
                OS_SchedNew();
    17cc:	000286c0 	call	286c <OS_SchedNew>
                OSTCBHighRdy = OSTCBPrioTbl[OSPrioHighRdy];
    17d0:	d0aa3803 	ldbu	r2,-22304(gp)
    17d4:	10803fcc 	andi	r2,r2,255
    17d8:	100690ba 	slli	r3,r2,2
    17dc:	00800074 	movhi	r2,1
    17e0:	1885883a 	add	r2,r3,r2
    17e4:	10901217 	ldw	r2,16456(r2)
    17e8:	d0aa3d15 	stw	r2,-22284(gp)
                if (OSPrioHighRdy != OSPrioCur) {          /* No Ctx Sw if current task is highest rdy */
    17ec:	d0ea3803 	ldbu	r3,-22304(gp)
    17f0:	d0aa37c3 	ldbu	r2,-22305(gp)
    17f4:	18c03fcc 	andi	r3,r3,255
    17f8:	10803fcc 	andi	r2,r2,255
    17fc:	18800826 	beq	r3,r2,1820 <OSIntExit+0xc8>
#if OS_TASK_PROFILE_EN > 0u
                    OSTCBHighRdy->OSTCBCtxSwCtr++;         /* Inc. # of context switches to this task  */
    1800:	d0aa3d17 	ldw	r2,-22284(gp)
    1804:	10c01017 	ldw	r3,64(r2)
    1808:	18c00044 	addi	r3,r3,1
    180c:	10c01015 	stw	r3,64(r2)
#endif
                    OSCtxSwCtr++;                          /* Keep track of the number of ctx switches */
    1810:	d0aa3117 	ldw	r2,-22332(gp)
    1814:	10800044 	addi	r2,r2,1
    1818:	d0aa3115 	stw	r2,-22332(gp)
                    OS_TLS_TaskSw();
#endif
#endif
                    OS_TRACE_ISR_EXIT_TO_SCHEDULER();

                    OSIntCtxSw();                          /* Perform interrupt level ctx switch       */
    181c:	000aa340 	call	aa34 <OSCtxSw>
    1820:	e0bfff17 	ldw	r2,-4(fp)
    1824:	e0bffd15 	stw	r2,-12(fp)
  NIOS2_WRITE_STATUS (context);
    1828:	e0bffd17 	ldw	r2,-12(fp)
    182c:	1001703a 	wrctl	status,r2
}
    1830:	0001883a 	nop
            OS_TRACE_ISR_EXIT();
        }

        OS_EXIT_CRITICAL();
    }
}
    1834:	0001883a 	nop
    1838:	e037883a 	mov	sp,fp
    183c:	dfc00117 	ldw	ra,4(sp)
    1840:	df000017 	ldw	fp,0(sp)
    1844:	dec00204 	addi	sp,sp,8
    1848:	f800283a 	ret

0000184c <OSSchedLock>:
*********************************************************************************************************
*/

#if OS_SCHED_LOCK_EN > 0u
void  OSSchedLock (void)
{
    184c:	defffc04 	addi	sp,sp,-16
    1850:	df000315 	stw	fp,12(sp)
    1854:	df000304 	addi	fp,sp,12
#if OS_CRITICAL_METHOD == 3u                     /* Allocate storage for CPU status register           */
    OS_CPU_SR  cpu_sr = 0u;
    1858:	e03fff15 	stw	zero,-4(fp)
#endif



    if (OSRunning == OS_TRUE) {                  /* Make sure multitasking is running                  */
    185c:	d0aa3943 	ldbu	r2,-22299(gp)
    1860:	10803fcc 	andi	r2,r2,255
    1864:	10800058 	cmpnei	r2,r2,1
    1868:	1000171e 	bne	r2,zero,18c8 <OSSchedLock+0x7c>
  NIOS2_READ_STATUS (context);
    186c:	0005303a 	rdctl	r2,status
    1870:	e0bffe15 	stw	r2,-8(fp)
  NIOS2_WRITE_STATUS (context & ~NIOS2_STATUS_PIE_MSK);
    1874:	e0fffe17 	ldw	r3,-8(fp)
    1878:	00bfff84 	movi	r2,-2
    187c:	1884703a 	and	r2,r3,r2
    1880:	1001703a 	wrctl	status,r2
  return context;
    1884:	e0bffe17 	ldw	r2,-8(fp)
        OS_ENTER_CRITICAL();
    1888:	e0bfff15 	stw	r2,-4(fp)
        if (OSIntNesting == 0u) {                /* Can't call from an ISR                             */
    188c:	d0aa3743 	ldbu	r2,-22307(gp)
    1890:	10803fcc 	andi	r2,r2,255
    1894:	1000071e 	bne	r2,zero,18b4 <OSSchedLock+0x68>
            if (OSLockNesting < 255u) {          /* Prevent OSLockNesting from wrapping back to 0      */
    1898:	d0aa3783 	ldbu	r2,-22306(gp)
    189c:	10803fcc 	andi	r2,r2,255
    18a0:	10803fe0 	cmpeqi	r2,r2,255
    18a4:	1000031e 	bne	r2,zero,18b4 <OSSchedLock+0x68>
                OSLockNesting++;                 /* Increment lock nesting level                       */
    18a8:	d0aa3783 	ldbu	r2,-22306(gp)
    18ac:	10800044 	addi	r2,r2,1
    18b0:	d0aa3785 	stb	r2,-22306(gp)
    18b4:	e0bfff17 	ldw	r2,-4(fp)
    18b8:	e0bffd15 	stw	r2,-12(fp)
  NIOS2_WRITE_STATUS (context);
    18bc:	e0bffd17 	ldw	r2,-12(fp)
    18c0:	1001703a 	wrctl	status,r2
}
    18c4:	0001883a 	nop
            }
        }
        OS_EXIT_CRITICAL();
    }
}
    18c8:	0001883a 	nop
    18cc:	e037883a 	mov	sp,fp
    18d0:	df000017 	ldw	fp,0(sp)
    18d4:	dec00104 	addi	sp,sp,4
    18d8:	f800283a 	ret

000018dc <OSSchedUnlock>:
*********************************************************************************************************
*/

#if OS_SCHED_LOCK_EN > 0u
void  OSSchedUnlock (void)
{
    18dc:	defff804 	addi	sp,sp,-32
    18e0:	dfc00715 	stw	ra,28(sp)
    18e4:	df000615 	stw	fp,24(sp)
    18e8:	df000604 	addi	fp,sp,24
#if OS_CRITICAL_METHOD == 3u                               /* Allocate storage for CPU status register */
    OS_CPU_SR  cpu_sr = 0u;
    18ec:	e03fff15 	stw	zero,-4(fp)
#endif



    if (OSRunning == OS_TRUE) {                            /* Make sure multitasking is running        */
    18f0:	d0aa3943 	ldbu	r2,-22299(gp)
    18f4:	10803fcc 	andi	r2,r2,255
    18f8:	10800058 	cmpnei	r2,r2,1
    18fc:	10002a1e 	bne	r2,zero,19a8 <OSSchedUnlock+0xcc>
  NIOS2_READ_STATUS (context);
    1900:	0005303a 	rdctl	r2,status
    1904:	e0bffe15 	stw	r2,-8(fp)
  NIOS2_WRITE_STATUS (context & ~NIOS2_STATUS_PIE_MSK);
    1908:	e0fffe17 	ldw	r3,-8(fp)
    190c:	00bfff84 	movi	r2,-2
    1910:	1884703a 	and	r2,r3,r2
    1914:	1001703a 	wrctl	status,r2
  return context;
    1918:	e0bffe17 	ldw	r2,-8(fp)
        OS_ENTER_CRITICAL();
    191c:	e0bfff15 	stw	r2,-4(fp)
        if (OSIntNesting == 0u) {                          /* Can't call from an ISR                   */
    1920:	d0aa3743 	ldbu	r2,-22307(gp)
    1924:	10803fcc 	andi	r2,r2,255
    1928:	10001a1e 	bne	r2,zero,1994 <OSSchedUnlock+0xb8>
            if (OSLockNesting > 0u) {                      /* Do not decrement if already 0            */
    192c:	d0aa3783 	ldbu	r2,-22306(gp)
    1930:	10803fcc 	andi	r2,r2,255
    1934:	10001226 	beq	r2,zero,1980 <OSSchedUnlock+0xa4>
                OSLockNesting--;                           /* Decrement lock nesting level             */
    1938:	d0aa3783 	ldbu	r2,-22306(gp)
    193c:	10bfffc4 	addi	r2,r2,-1
    1940:	d0aa3785 	stb	r2,-22306(gp)
                if (OSLockNesting == 0u) {                 /* See if scheduler is enabled              */
    1944:	d0aa3783 	ldbu	r2,-22306(gp)
    1948:	10803fcc 	andi	r2,r2,255
    194c:	1000071e 	bne	r2,zero,196c <OSSchedUnlock+0x90>
    1950:	e0bfff17 	ldw	r2,-4(fp)
    1954:	e0bffd15 	stw	r2,-12(fp)
  NIOS2_WRITE_STATUS (context);
    1958:	e0bffd17 	ldw	r2,-12(fp)
    195c:	1001703a 	wrctl	status,r2
}
    1960:	0001883a 	nop
                    OS_EXIT_CRITICAL();
                    OS_Sched();                            /* See if a HPT is ready                    */
    1964:	00027a00 	call	27a0 <OS_Sched>
            }
        } else {
            OS_EXIT_CRITICAL();
        }
    }
}
    1968:	00000f06 	br	19a8 <OSSchedUnlock+0xcc>
    196c:	e0bfff17 	ldw	r2,-4(fp)
    1970:	e0bffc15 	stw	r2,-16(fp)
  NIOS2_WRITE_STATUS (context);
    1974:	e0bffc17 	ldw	r2,-16(fp)
    1978:	1001703a 	wrctl	status,r2
}
    197c:	00000a06 	br	19a8 <OSSchedUnlock+0xcc>
    1980:	e0bfff17 	ldw	r2,-4(fp)
    1984:	e0bffb15 	stw	r2,-20(fp)
  NIOS2_WRITE_STATUS (context);
    1988:	e0bffb17 	ldw	r2,-20(fp)
    198c:	1001703a 	wrctl	status,r2
}
    1990:	00000506 	br	19a8 <OSSchedUnlock+0xcc>
    1994:	e0bfff17 	ldw	r2,-4(fp)
    1998:	e0bffa15 	stw	r2,-24(fp)
  NIOS2_WRITE_STATUS (context);
    199c:	e0bffa17 	ldw	r2,-24(fp)
    19a0:	1001703a 	wrctl	status,r2
}
    19a4:	0001883a 	nop
    19a8:	0001883a 	nop
    19ac:	e037883a 	mov	sp,fp
    19b0:	dfc00117 	ldw	ra,4(sp)
    19b4:	df000017 	ldw	fp,0(sp)
    19b8:	dec00204 	addi	sp,sp,8
    19bc:	f800283a 	ret

000019c0 <OSStart>:
*                 d_ Execute the task.
*********************************************************************************************************
*/

void  OSStart (void)
{
    19c0:	defffe04 	addi	sp,sp,-8
    19c4:	dfc00115 	stw	ra,4(sp)
    19c8:	df000015 	stw	fp,0(sp)
    19cc:	d839883a 	mov	fp,sp
    if (OSRunning == OS_FALSE) {
    19d0:	d0aa3943 	ldbu	r2,-22299(gp)
    19d4:	10803fcc 	andi	r2,r2,255
    19d8:	10000d1e 	bne	r2,zero,1a10 <OSStart+0x50>
        OS_SchedNew();                               /* Find highest priority's task priority number   */
    19dc:	000286c0 	call	286c <OS_SchedNew>
        OSPrioCur     = OSPrioHighRdy;
    19e0:	d0aa3803 	ldbu	r2,-22304(gp)
    19e4:	d0aa37c5 	stb	r2,-22305(gp)
        OSTCBHighRdy  = OSTCBPrioTbl[OSPrioHighRdy]; /* Point to highest priority task ready to run    */
    19e8:	d0aa3803 	ldbu	r2,-22304(gp)
    19ec:	10803fcc 	andi	r2,r2,255
    19f0:	100690ba 	slli	r3,r2,2
    19f4:	00800074 	movhi	r2,1
    19f8:	1885883a 	add	r2,r3,r2
    19fc:	10901217 	ldw	r2,16456(r2)
    1a00:	d0aa3d15 	stw	r2,-22284(gp)
        OSTCBCur      = OSTCBHighRdy;
    1a04:	d0aa3d17 	ldw	r2,-22284(gp)
    1a08:	d0aa3b15 	stw	r2,-22292(gp)
        OSStartHighRdy();                            /* Execute target specific code to start task     */
    1a0c:	000aac00 	call	aac0 <OSStartHighRdy>
    }
}
    1a10:	0001883a 	nop
    1a14:	e037883a 	mov	sp,fp
    1a18:	dfc00117 	ldw	ra,4(sp)
    1a1c:	df000017 	ldw	fp,0(sp)
    1a20:	dec00204 	addi	sp,sp,8
    1a24:	f800283a 	ret

00001a28 <OSStatInit>:
*********************************************************************************************************
*/

#if OS_TASK_STAT_EN > 0u
void  OSStatInit (void)
{
    1a28:	defff904 	addi	sp,sp,-28
    1a2c:	dfc00615 	stw	ra,24(sp)
    1a30:	df000515 	stw	fp,20(sp)
    1a34:	df000504 	addi	fp,sp,20
#if OS_CRITICAL_METHOD == 3u                     /* Allocate storage for CPU status register           */
    OS_CPU_SR  cpu_sr = 0u;
    1a38:	e03fff15 	stw	zero,-4(fp)
#endif



    OSTimeDly(2u);                               /* Synchronize with clock tick                        */
    1a3c:	01000084 	movi	r4,2
    1a40:	00084380 	call	8438 <OSTimeDly>
  NIOS2_READ_STATUS (context);
    1a44:	0005303a 	rdctl	r2,status
    1a48:	e0bffb15 	stw	r2,-20(fp)
  NIOS2_WRITE_STATUS (context & ~NIOS2_STATUS_PIE_MSK);
    1a4c:	e0fffb17 	ldw	r3,-20(fp)
    1a50:	00bfff84 	movi	r2,-2
    1a54:	1884703a 	and	r2,r3,r2
    1a58:	1001703a 	wrctl	status,r2
  return context;
    1a5c:	e0bffb17 	ldw	r2,-20(fp)
    OS_ENTER_CRITICAL();
    1a60:	e0bfff15 	stw	r2,-4(fp)
    OSIdleCtr    = 0uL;                          /* Clear idle counter                                 */
    1a64:	d02a3a15 	stw	zero,-22296(gp)
    1a68:	e0bfff17 	ldw	r2,-4(fp)
    1a6c:	e0bffc15 	stw	r2,-16(fp)
  NIOS2_WRITE_STATUS (context);
    1a70:	e0bffc17 	ldw	r2,-16(fp)
    1a74:	1001703a 	wrctl	status,r2
}
    1a78:	0001883a 	nop
    OS_EXIT_CRITICAL();
    OSTimeDly(OS_TICKS_PER_SEC / 10u);           /* Determine MAX. idle counter value for 1/10 second  */
    1a7c:	01001904 	movi	r4,100
    1a80:	00084380 	call	8438 <OSTimeDly>
  NIOS2_READ_STATUS (context);
    1a84:	0005303a 	rdctl	r2,status
    1a88:	e0bffd15 	stw	r2,-12(fp)
  NIOS2_WRITE_STATUS (context & ~NIOS2_STATUS_PIE_MSK);
    1a8c:	e0fffd17 	ldw	r3,-12(fp)
    1a90:	00bfff84 	movi	r2,-2
    1a94:	1884703a 	and	r2,r3,r2
    1a98:	1001703a 	wrctl	status,r2
  return context;
    1a9c:	e0bffd17 	ldw	r2,-12(fp)
    OS_ENTER_CRITICAL();
    1aa0:	e0bfff15 	stw	r2,-4(fp)
    OSIdleCtrMax = OSIdleCtr;                    /* Store maximum idle counter count in 1/10 second    */
    1aa4:	d0aa3a17 	ldw	r2,-22296(gp)
    1aa8:	d0aa3515 	stw	r2,-22316(gp)
    OSStatRdy    = OS_TRUE;
    1aac:	00800044 	movi	r2,1
    1ab0:	d0aa3705 	stb	r2,-22308(gp)
    1ab4:	e0bfff17 	ldw	r2,-4(fp)
    1ab8:	e0bffe15 	stw	r2,-8(fp)
  NIOS2_WRITE_STATUS (context);
    1abc:	e0bffe17 	ldw	r2,-8(fp)
    1ac0:	1001703a 	wrctl	status,r2
}
    1ac4:	0001883a 	nop
    OS_EXIT_CRITICAL();
}
    1ac8:	0001883a 	nop
    1acc:	e037883a 	mov	sp,fp
    1ad0:	dfc00117 	ldw	ra,4(sp)
    1ad4:	df000017 	ldw	fp,0(sp)
    1ad8:	dec00204 	addi	sp,sp,8
    1adc:	f800283a 	ret

00001ae0 <OSTimeTick>:
* Returns    : none
*********************************************************************************************************
*/

void  OSTimeTick (void)
{
    1ae0:	defff704 	addi	sp,sp,-36
    1ae4:	dfc00815 	stw	ra,32(sp)
    1ae8:	df000715 	stw	fp,28(sp)
    1aec:	df000704 	addi	fp,sp,28
    OS_TCB    *ptcb;
#if OS_TICK_STEP_EN > 0u
    BOOLEAN    step;
#endif
#if OS_CRITICAL_METHOD == 3u                               /* Allocate storage for CPU status register     */
    OS_CPU_SR  cpu_sr = 0u;
    1af0:	e03ffd15 	stw	zero,-12(fp)
#endif



#if OS_TIME_TICK_HOOK_EN > 0u
    OSTimeTickHook();                                      /* Call user definable hook                     */
    1af4:	000acd80 	call	acd8 <OSTimeTickHook>
  NIOS2_READ_STATUS (context);
    1af8:	0005303a 	rdctl	r2,status
    1afc:	e0bffb15 	stw	r2,-20(fp)
  NIOS2_WRITE_STATUS (context & ~NIOS2_STATUS_PIE_MSK);
    1b00:	e0fffb17 	ldw	r3,-20(fp)
    1b04:	00bfff84 	movi	r2,-2
    1b08:	1884703a 	and	r2,r3,r2
    1b0c:	1001703a 	wrctl	status,r2
  return context;
    1b10:	e0bffb17 	ldw	r2,-20(fp)
#endif
#if OS_TIME_GET_SET_EN > 0u
    OS_ENTER_CRITICAL();                                   /* Update the 32-bit tick counter               */
    1b14:	e0bffd15 	stw	r2,-12(fp)
    OSTime++;
    1b18:	d0aa4317 	ldw	r2,-22260(gp)
    1b1c:	10800044 	addi	r2,r2,1
    1b20:	d0aa4315 	stw	r2,-22260(gp)
    1b24:	e0bffd17 	ldw	r2,-12(fp)
    1b28:	e0bffc15 	stw	r2,-16(fp)
  NIOS2_WRITE_STATUS (context);
    1b2c:	e0bffc17 	ldw	r2,-16(fp)
    1b30:	1001703a 	wrctl	status,r2
}
    1b34:	0001883a 	nop
    OS_TRACE_TICK_INCREMENT(OSTime);
    OS_EXIT_CRITICAL();
#endif
    if (OSRunning == OS_TRUE) {
    1b38:	d0aa3943 	ldbu	r2,-22299(gp)
    1b3c:	10803fcc 	andi	r2,r2,255
    1b40:	10800058 	cmpnei	r2,r2,1
    1b44:	10006b1e 	bne	r2,zero,1cf4 <OSTimeTick+0x214>
#if OS_TICK_STEP_EN > 0u
        switch (OSTickStepState) {                         /* Determine whether we need to process a tick  */
    1b48:	d0aa3f03 	ldbu	r2,-22276(gp)
    1b4c:	10803fcc 	andi	r2,r2,255
    1b50:	10c000a0 	cmpeqi	r3,r2,2
    1b54:	18000b1e 	bne	r3,zero,1b84 <OSTimeTick+0xa4>
    1b58:	10c000c8 	cmpgei	r3,r2,3
    1b5c:	18000e1e 	bne	r3,zero,1b98 <OSTimeTick+0xb8>
    1b60:	10000326 	beq	r2,zero,1b70 <OSTimeTick+0x90>
    1b64:	10800060 	cmpeqi	r2,r2,1
    1b68:	1000041e 	bne	r2,zero,1b7c <OSTimeTick+0x9c>
    1b6c:	00000a06 	br	1b98 <OSTimeTick+0xb8>
            case OS_TICK_STEP_DIS:                         /* Yes, stepping is disabled                    */
                 step = OS_TRUE;
    1b70:	00800044 	movi	r2,1
    1b74:	e0bffec5 	stb	r2,-5(fp)
                 break;
    1b78:	00000b06 	br	1ba8 <OSTimeTick+0xc8>

            case OS_TICK_STEP_WAIT:                        /* No,  waiting for uC/OS-View to set ...       */
                 step = OS_FALSE;                          /*      .. OSTickStepState to OS_TICK_STEP_ONCE */
    1b7c:	e03ffec5 	stb	zero,-5(fp)
                 break;
    1b80:	00000906 	br	1ba8 <OSTimeTick+0xc8>

            case OS_TICK_STEP_ONCE:                        /* Yes, process tick once and wait for next ... */
                 step            = OS_TRUE;                /*      ... step command from uC/OS-View        */
    1b84:	00800044 	movi	r2,1
    1b88:	e0bffec5 	stb	r2,-5(fp)
                 OSTickStepState = OS_TICK_STEP_WAIT;
    1b8c:	00800044 	movi	r2,1
    1b90:	d0aa3f05 	stb	r2,-22276(gp)
                 break;
    1b94:	00000406 	br	1ba8 <OSTimeTick+0xc8>

            default:                                       /* Invalid case, correct situation              */
                 step            = OS_TRUE;
    1b98:	00800044 	movi	r2,1
    1b9c:	e0bffec5 	stb	r2,-5(fp)
                 OSTickStepState = OS_TICK_STEP_DIS;
    1ba0:	d02a3f05 	stb	zero,-22276(gp)
                 break;
    1ba4:	0001883a 	nop
        }
        if (step == OS_FALSE) {                            /* Return if waiting for step command           */
    1ba8:	e0bffec3 	ldbu	r2,-5(fp)
    1bac:	10005026 	beq	r2,zero,1cf0 <OSTimeTick+0x210>
            return;
        }
#endif
        ptcb = OSTCBList;                                  /* Point at first TCB in TCB list               */
    1bb0:	d0aa3e17 	ldw	r2,-22280(gp)
    1bb4:	e0bfff15 	stw	r2,-4(fp)
        while (ptcb->OSTCBPrio != OS_TASK_IDLE_PRIO) {     /* Go through all TCBs in TCB list              */
    1bb8:	00004706 	br	1cd8 <OSTimeTick+0x1f8>
  NIOS2_READ_STATUS (context);
    1bbc:	0005303a 	rdctl	r2,status
    1bc0:	e0bffa15 	stw	r2,-24(fp)
  NIOS2_WRITE_STATUS (context & ~NIOS2_STATUS_PIE_MSK);
    1bc4:	e0fffa17 	ldw	r3,-24(fp)
    1bc8:	00bfff84 	movi	r2,-2
    1bcc:	1884703a 	and	r2,r3,r2
    1bd0:	1001703a 	wrctl	status,r2
  return context;
    1bd4:	e0bffa17 	ldw	r2,-24(fp)
            OS_ENTER_CRITICAL();
    1bd8:	e0bffd15 	stw	r2,-12(fp)
            if (ptcb->OSTCBDly != 0u) {                    /* No, Delayed or waiting for event with TO     */
    1bdc:	e0bfff17 	ldw	r2,-4(fp)
    1be0:	10800d17 	ldw	r2,52(r2)
    1be4:	10003426 	beq	r2,zero,1cb8 <OSTimeTick+0x1d8>
                ptcb->OSTCBDly--;                          /* Decrement nbr of ticks to end of delay       */
    1be8:	e0bfff17 	ldw	r2,-4(fp)
    1bec:	10800d17 	ldw	r2,52(r2)
    1bf0:	10ffffc4 	addi	r3,r2,-1
    1bf4:	e0bfff17 	ldw	r2,-4(fp)
    1bf8:	10c00d15 	stw	r3,52(r2)
                if (ptcb->OSTCBDly == 0u) {                /* Check for timeout                            */
    1bfc:	e0bfff17 	ldw	r2,-4(fp)
    1c00:	10800d17 	ldw	r2,52(r2)
    1c04:	10002c1e 	bne	r2,zero,1cb8 <OSTimeTick+0x1d8>

                    if ((ptcb->OSTCBStat & OS_STAT_PEND_ANY) != OS_STAT_RDY) {
    1c08:	e0bfff17 	ldw	r2,-4(fp)
    1c0c:	10800e03 	ldbu	r2,56(r2)
    1c10:	10803fcc 	andi	r2,r2,255
    1c14:	10800dcc 	andi	r2,r2,55
    1c18:	10000b26 	beq	r2,zero,1c48 <OSTimeTick+0x168>
                        ptcb->OSTCBStat  &= (INT8U)~(INT8U)OS_STAT_PEND_ANY;   /* Yes, Clear status flag   */
    1c1c:	e0bfff17 	ldw	r2,-4(fp)
    1c20:	10c00e03 	ldbu	r3,56(r2)
    1c24:	00bff204 	movi	r2,-56
    1c28:	1884703a 	and	r2,r3,r2
    1c2c:	1007883a 	mov	r3,r2
    1c30:	e0bfff17 	ldw	r2,-4(fp)
    1c34:	10c00e05 	stb	r3,56(r2)
                        ptcb->OSTCBStatPend = OS_STAT_PEND_TO;                 /* Indicate PEND timeout    */
    1c38:	e0bfff17 	ldw	r2,-4(fp)
    1c3c:	00c00044 	movi	r3,1
    1c40:	10c00e45 	stb	r3,57(r2)
    1c44:	00000206 	br	1c50 <OSTimeTick+0x170>
                    } else {
                        ptcb->OSTCBStatPend = OS_STAT_PEND_OK;
    1c48:	e0bfff17 	ldw	r2,-4(fp)
    1c4c:	10000e45 	stb	zero,57(r2)
                    }

                    if ((ptcb->OSTCBStat & OS_STAT_SUSPEND) == OS_STAT_RDY) {  /* Is task suspended?       */
    1c50:	e0bfff17 	ldw	r2,-4(fp)
    1c54:	10800e03 	ldbu	r2,56(r2)
    1c58:	10803fcc 	andi	r2,r2,255
    1c5c:	1080020c 	andi	r2,r2,8
    1c60:	1000151e 	bne	r2,zero,1cb8 <OSTimeTick+0x1d8>
                        OSRdyGrp               |= ptcb->OSTCBBitY;             /* No,  Make ready          */
    1c64:	e0bfff17 	ldw	r2,-4(fp)
    1c68:	10c00f83 	ldbu	r3,62(r2)
    1c6c:	d0aa3843 	ldbu	r2,-22303(gp)
    1c70:	1884b03a 	or	r2,r3,r2
    1c74:	d0aa3845 	stb	r2,-22303(gp)
                        OSRdyTbl[ptcb->OSTCBY] |= ptcb->OSTCBBitX;
    1c78:	e0bfff17 	ldw	r2,-4(fp)
    1c7c:	10800f03 	ldbu	r2,60(r2)
    1c80:	10c03fcc 	andi	r3,r2,255
    1c84:	d0aa3884 	addi	r2,gp,-22302
    1c88:	1885883a 	add	r2,r3,r2
    1c8c:	11000003 	ldbu	r4,0(r2)
    1c90:	e0bfff17 	ldw	r2,-4(fp)
    1c94:	10800f43 	ldbu	r2,61(r2)
    1c98:	e0ffff17 	ldw	r3,-4(fp)
    1c9c:	18c00f03 	ldbu	r3,60(r3)
    1ca0:	18c03fcc 	andi	r3,r3,255
    1ca4:	2084b03a 	or	r2,r4,r2
    1ca8:	1009883a 	mov	r4,r2
    1cac:	d0aa3884 	addi	r2,gp,-22302
    1cb0:	1885883a 	add	r2,r3,r2
    1cb4:	11000005 	stb	r4,0(r2)
                        OS_TRACE_TASK_READY(ptcb);
                    }
                }
            }
            ptcb = ptcb->OSTCBNext;                        /* Point at next TCB in TCB list                */
    1cb8:	e0bfff17 	ldw	r2,-4(fp)
    1cbc:	10800517 	ldw	r2,20(r2)
    1cc0:	e0bfff15 	stw	r2,-4(fp)
    1cc4:	e0bffd17 	ldw	r2,-12(fp)
    1cc8:	e0bff915 	stw	r2,-28(fp)
  NIOS2_WRITE_STATUS (context);
    1ccc:	e0bff917 	ldw	r2,-28(fp)
    1cd0:	1001703a 	wrctl	status,r2
}
    1cd4:	0001883a 	nop
        while (ptcb->OSTCBPrio != OS_TASK_IDLE_PRIO) {     /* Go through all TCBs in TCB list              */
    1cd8:	e0bfff17 	ldw	r2,-4(fp)
    1cdc:	10800e83 	ldbu	r2,58(r2)
    1ce0:	10803fcc 	andi	r2,r2,255
    1ce4:	10800518 	cmpnei	r2,r2,20
    1ce8:	103fb41e 	bne	r2,zero,1bbc <OSTimeTick+0xdc>
    1cec:	00000106 	br	1cf4 <OSTimeTick+0x214>
            return;
    1cf0:	0001883a 	nop
            OS_EXIT_CRITICAL();
        }
    }
}
    1cf4:	e037883a 	mov	sp,fp
    1cf8:	dfc00117 	ldw	ra,4(sp)
    1cfc:	df000017 	ldw	fp,0(sp)
    1d00:	dec00204 	addi	sp,sp,8
    1d04:	f800283a 	ret

00001d08 <OSVersion>:
* Returns    : The version number of uC/OS-II multiplied by 10000.
*********************************************************************************************************
*/

INT16U  OSVersion (void)
{
    1d08:	deffff04 	addi	sp,sp,-4
    1d0c:	df000015 	stw	fp,0(sp)
    1d10:	d839883a 	mov	fp,sp
    return (OS_VERSION);
    1d14:	009c9d04 	movi	r2,29300
}
    1d18:	e037883a 	mov	sp,fp
    1d1c:	df000017 	ldw	fp,0(sp)
    1d20:	dec00104 	addi	sp,sp,4
    1d24:	f800283a 	ret

00001d28 <OS_Dummy>:
*********************************************************************************************************
*/

#if OS_TASK_DEL_EN > 0u
void  OS_Dummy (void)
{
    1d28:	deffff04 	addi	sp,sp,-4
    1d2c:	df000015 	stw	fp,0(sp)
    1d30:	d839883a 	mov	fp,sp
}
    1d34:	0001883a 	nop
    1d38:	e037883a 	mov	sp,fp
    1d3c:	df000017 	ldw	fp,0(sp)
    1d40:	dec00104 	addi	sp,sp,4
    1d44:	f800283a 	ret

00001d48 <OS_EventTaskRdy>:
#if (OS_EVENT_EN)
INT8U  OS_EventTaskRdy (OS_EVENT  *pevent,
                        void      *pmsg,
                        INT8U      msk,
                        INT8U      pend_stat)
{
    1d48:	defff804 	addi	sp,sp,-32
    1d4c:	dfc00715 	stw	ra,28(sp)
    1d50:	df000615 	stw	fp,24(sp)
    1d54:	df000604 	addi	fp,sp,24
    1d58:	e13ffd15 	stw	r4,-12(fp)
    1d5c:	e17ffc15 	stw	r5,-16(fp)
    1d60:	3005883a 	mov	r2,r6
    1d64:	3807883a 	mov	r3,r7
    1d68:	e0bffb05 	stb	r2,-20(fp)
    1d6c:	1805883a 	mov	r2,r3
    1d70:	e0bffa05 	stb	r2,-24(fp)
    OS_PRIO  *ptbl;
#endif


#if OS_LOWEST_PRIO <= 63u
    y    = OSUnMapTbl[pevent->OSEventGrp];              /* Find HPT waiting for message                */
    1d74:	e0bffd17 	ldw	r2,-12(fp)
    1d78:	10800283 	ldbu	r2,10(r2)
    1d7c:	10c03fcc 	andi	r3,r2,255
    1d80:	00800074 	movhi	r2,1
    1d84:	1885883a 	add	r2,r3,r2
    1d88:	10ae0b03 	ldbu	r2,-18388(r2)
    1d8c:	e0bfffc5 	stb	r2,-1(fp)
    x    = OSUnMapTbl[pevent->OSEventTbl[y]];
    1d90:	e0bfffc3 	ldbu	r2,-1(fp)
    1d94:	e0fffd17 	ldw	r3,-12(fp)
    1d98:	1885883a 	add	r2,r3,r2
    1d9c:	108002c3 	ldbu	r2,11(r2)
    1da0:	10c03fcc 	andi	r3,r2,255
    1da4:	00800074 	movhi	r2,1
    1da8:	1885883a 	add	r2,r3,r2
    1dac:	10ae0b03 	ldbu	r2,-18388(r2)
    1db0:	e0bfff85 	stb	r2,-2(fp)
    prio = (INT8U)((y << 3u) + x);                      /* Find priority of task getting the msg       */
    1db4:	e0bfffc3 	ldbu	r2,-1(fp)
    1db8:	100490fa 	slli	r2,r2,3
    1dbc:	1007883a 	mov	r3,r2
    1dc0:	e0bfff83 	ldbu	r2,-2(fp)
    1dc4:	10c5883a 	add	r2,r2,r3
    1dc8:	e0bfff45 	stb	r2,-3(fp)
        x = OSUnMapTbl[(OS_PRIO)(*ptbl >> 8u) & 0xFFu] + 8u;
    }
    prio = (INT8U)((y << 4u) + x);                      /* Find priority of task getting the msg       */
#endif

    ptcb                  =  OSTCBPrioTbl[prio];        /* Point to this task's OS_TCB                 */
    1dcc:	e0bfff43 	ldbu	r2,-3(fp)
    1dd0:	100690ba 	slli	r3,r2,2
    1dd4:	00800074 	movhi	r2,1
    1dd8:	1885883a 	add	r2,r3,r2
    1ddc:	10901217 	ldw	r2,16456(r2)
    1de0:	e0bffe15 	stw	r2,-8(fp)
    ptcb->OSTCBDly        =  0u;                        /* Prevent OSTimeTick() from readying task     */
    1de4:	e0bffe17 	ldw	r2,-8(fp)
    1de8:	10000d15 	stw	zero,52(r2)
#if ((OS_Q_EN > 0u) && (OS_MAX_QS > 0u)) || (OS_MBOX_EN > 0u)
    ptcb->OSTCBMsg        =  pmsg;                      /* Send message directly to waiting task       */
    1dec:	e0bffe17 	ldw	r2,-8(fp)
    1df0:	e0fffc17 	ldw	r3,-16(fp)
    1df4:	10c00a15 	stw	r3,40(r2)
#else
    pmsg                  =  pmsg;                      /* Prevent compiler warning if not used        */
#endif
    ptcb->OSTCBStat      &= (INT8U)~msk;                /* Clear bit associated with event type        */
    1df8:	e0bffe17 	ldw	r2,-8(fp)
    1dfc:	10800e03 	ldbu	r2,56(r2)
    1e00:	e0fffb03 	ldbu	r3,-20(fp)
    1e04:	00c6303a 	nor	r3,zero,r3
    1e08:	10c4703a 	and	r2,r2,r3
    1e0c:	1007883a 	mov	r3,r2
    1e10:	e0bffe17 	ldw	r2,-8(fp)
    1e14:	10c00e05 	stb	r3,56(r2)
    ptcb->OSTCBStatPend   =  pend_stat;                 /* Set pend status of post or abort            */
    1e18:	e0bffe17 	ldw	r2,-8(fp)
    1e1c:	e0fffa03 	ldbu	r3,-24(fp)
    1e20:	10c00e45 	stb	r3,57(r2)
                                                        /* See if task is ready (could be susp'd)      */
    if ((ptcb->OSTCBStat &   OS_STAT_SUSPEND) == OS_STAT_RDY) {
    1e24:	e0bffe17 	ldw	r2,-8(fp)
    1e28:	10800e03 	ldbu	r2,56(r2)
    1e2c:	10803fcc 	andi	r2,r2,255
    1e30:	1080020c 	andi	r2,r2,8
    1e34:	1000111e 	bne	r2,zero,1e7c <OS_EventTaskRdy+0x134>
        OSRdyGrp         |=  ptcb->OSTCBBitY;           /* Put task in the ready to run list           */
    1e38:	e0bffe17 	ldw	r2,-8(fp)
    1e3c:	10c00f83 	ldbu	r3,62(r2)
    1e40:	d0aa3843 	ldbu	r2,-22303(gp)
    1e44:	1884b03a 	or	r2,r3,r2
    1e48:	d0aa3845 	stb	r2,-22303(gp)
        OSRdyTbl[y]      |=  ptcb->OSTCBBitX;
    1e4c:	e0ffffc3 	ldbu	r3,-1(fp)
    1e50:	d0aa3884 	addi	r2,gp,-22302
    1e54:	1885883a 	add	r2,r3,r2
    1e58:	11000003 	ldbu	r4,0(r2)
    1e5c:	e0bffe17 	ldw	r2,-8(fp)
    1e60:	10800f43 	ldbu	r2,61(r2)
    1e64:	e0ffffc3 	ldbu	r3,-1(fp)
    1e68:	2084b03a 	or	r2,r4,r2
    1e6c:	1009883a 	mov	r4,r2
    1e70:	d0aa3884 	addi	r2,gp,-22302
    1e74:	1885883a 	add	r2,r3,r2
    1e78:	11000005 	stb	r4,0(r2)
        OS_TRACE_TASK_READY(ptcb);
    }

    OS_EventTaskRemove(ptcb, pevent);                   /* Remove this task from event   wait list     */
    1e7c:	e17ffd17 	ldw	r5,-12(fp)
    1e80:	e13ffe17 	ldw	r4,-8(fp)
    1e84:	00021240 	call	2124 <OS_EventTaskRemove>
#if (OS_EVENT_MULTI_EN > 0u)
    if (ptcb->OSTCBEventMultiPtr != (OS_EVENT **)0) {   /* Remove this task from events' wait lists    */
    1e88:	e0bffe17 	ldw	r2,-8(fp)
    1e8c:	10800817 	ldw	r2,32(r2)
    1e90:	10000a26 	beq	r2,zero,1ebc <OS_EventTaskRdy+0x174>
        OS_EventTaskRemoveMulti(ptcb, ptcb->OSTCBEventMultiPtr);
    1e94:	e0bffe17 	ldw	r2,-8(fp)
    1e98:	10800817 	ldw	r2,32(r2)
    1e9c:	100b883a 	mov	r5,r2
    1ea0:	e13ffe17 	ldw	r4,-8(fp)
    1ea4:	00021d40 	call	21d4 <OS_EventTaskRemoveMulti>
        ptcb->OSTCBEventMultiPtr  = (OS_EVENT **)0;     /* No longer pending on multi list             */
    1ea8:	e0bffe17 	ldw	r2,-8(fp)
    1eac:	10000815 	stw	zero,32(r2)
        ptcb->OSTCBEventMultiRdy  = (OS_EVENT  *)pevent;/* Return event as first multi-pend event ready*/
    1eb0:	e0bffe17 	ldw	r2,-8(fp)
    1eb4:	e0fffd17 	ldw	r3,-12(fp)
    1eb8:	10c00915 	stw	r3,36(r2)
    }
#endif

    return (prio);
    1ebc:	e0bfff43 	ldbu	r2,-3(fp)
}
    1ec0:	e037883a 	mov	sp,fp
    1ec4:	dfc00117 	ldw	ra,4(sp)
    1ec8:	df000017 	ldw	fp,0(sp)
    1ecc:	dec00204 	addi	sp,sp,8
    1ed0:	f800283a 	ret

00001ed4 <OS_EventTaskWait>:
* Note       : This function is INTERNAL to uC/OS-II and your application should not call it.
*********************************************************************************************************
*/
#if (OS_EVENT_EN)
void  OS_EventTaskWait (OS_EVENT *pevent)
{
    1ed4:	defffd04 	addi	sp,sp,-12
    1ed8:	df000215 	stw	fp,8(sp)
    1edc:	df000204 	addi	fp,sp,8
    1ee0:	e13ffe15 	stw	r4,-8(fp)
    INT8U  y;


    OSTCBCur->OSTCBEventPtr               = pevent;                 /* Store ptr to ECB in TCB         */
    1ee4:	d0aa3b17 	ldw	r2,-22292(gp)
    1ee8:	e0fffe17 	ldw	r3,-8(fp)
    1eec:	10c00715 	stw	r3,28(r2)

    pevent->OSEventTbl[OSTCBCur->OSTCBY] |= OSTCBCur->OSTCBBitX;    /* Put task in waiting list        */
    1ef0:	d0aa3b17 	ldw	r2,-22292(gp)
    1ef4:	10800f03 	ldbu	r2,60(r2)
    1ef8:	10803fcc 	andi	r2,r2,255
    1efc:	e0fffe17 	ldw	r3,-8(fp)
    1f00:	1885883a 	add	r2,r3,r2
    1f04:	110002c3 	ldbu	r4,11(r2)
    1f08:	d0aa3b17 	ldw	r2,-22292(gp)
    1f0c:	10c00f43 	ldbu	r3,61(r2)
    1f10:	d0aa3b17 	ldw	r2,-22292(gp)
    1f14:	10800f03 	ldbu	r2,60(r2)
    1f18:	10803fcc 	andi	r2,r2,255
    1f1c:	20c6b03a 	or	r3,r4,r3
    1f20:	1809883a 	mov	r4,r3
    1f24:	e0fffe17 	ldw	r3,-8(fp)
    1f28:	1885883a 	add	r2,r3,r2
    1f2c:	110002c5 	stb	r4,11(r2)
    pevent->OSEventGrp                   |= OSTCBCur->OSTCBBitY;
    1f30:	e0bffe17 	ldw	r2,-8(fp)
    1f34:	10c00283 	ldbu	r3,10(r2)
    1f38:	d0aa3b17 	ldw	r2,-22292(gp)
    1f3c:	10800f83 	ldbu	r2,62(r2)
    1f40:	1884b03a 	or	r2,r3,r2
    1f44:	1007883a 	mov	r3,r2
    1f48:	e0bffe17 	ldw	r2,-8(fp)
    1f4c:	10c00285 	stb	r3,10(r2)

    y             =  OSTCBCur->OSTCBY;            /* Task no longer ready                              */
    1f50:	d0aa3b17 	ldw	r2,-22292(gp)
    1f54:	10800f03 	ldbu	r2,60(r2)
    1f58:	e0bfffc5 	stb	r2,-1(fp)
    OSRdyTbl[y]  &= (OS_PRIO)~OSTCBCur->OSTCBBitX;
    1f5c:	e0ffffc3 	ldbu	r3,-1(fp)
    1f60:	d0aa3884 	addi	r2,gp,-22302
    1f64:	1885883a 	add	r2,r3,r2
    1f68:	10800003 	ldbu	r2,0(r2)
    1f6c:	d0ea3b17 	ldw	r3,-22292(gp)
    1f70:	18c00f43 	ldbu	r3,61(r3)
    1f74:	00c6303a 	nor	r3,zero,r3
    1f78:	1809883a 	mov	r4,r3
    1f7c:	e0ffffc3 	ldbu	r3,-1(fp)
    1f80:	1104703a 	and	r2,r2,r4
    1f84:	1009883a 	mov	r4,r2
    1f88:	d0aa3884 	addi	r2,gp,-22302
    1f8c:	1885883a 	add	r2,r3,r2
    1f90:	11000005 	stb	r4,0(r2)
    OS_TRACE_TASK_SUSPENDED(OSTCBCur);
    if (OSRdyTbl[y] == 0u) {                      /* Clear event grp bit if this was only task pending */
    1f94:	e0ffffc3 	ldbu	r3,-1(fp)
    1f98:	d0aa3884 	addi	r2,gp,-22302
    1f9c:	1885883a 	add	r2,r3,r2
    1fa0:	10800003 	ldbu	r2,0(r2)
    1fa4:	10803fcc 	andi	r2,r2,255
    1fa8:	1000071e 	bne	r2,zero,1fc8 <OS_EventTaskWait+0xf4>
        OSRdyGrp &= (OS_PRIO)~OSTCBCur->OSTCBBitY;
    1fac:	d0aa3b17 	ldw	r2,-22292(gp)
    1fb0:	10800f83 	ldbu	r2,62(r2)
    1fb4:	0084303a 	nor	r2,zero,r2
    1fb8:	1007883a 	mov	r3,r2
    1fbc:	d0aa3843 	ldbu	r2,-22303(gp)
    1fc0:	1884703a 	and	r2,r3,r2
    1fc4:	d0aa3845 	stb	r2,-22303(gp)
    }
}
    1fc8:	0001883a 	nop
    1fcc:	e037883a 	mov	sp,fp
    1fd0:	df000017 	ldw	fp,0(sp)
    1fd4:	dec00104 	addi	sp,sp,4
    1fd8:	f800283a 	ret

00001fdc <OS_EventTaskWaitMulti>:
* Note       : This function is INTERNAL to uC/OS-II and your application should not call it.
*********************************************************************************************************
*/
#if ((OS_EVENT_EN) && (OS_EVENT_MULTI_EN > 0u))
void  OS_EventTaskWaitMulti (OS_EVENT **pevents_wait)
{
    1fdc:	defffb04 	addi	sp,sp,-20
    1fe0:	df000415 	stw	fp,16(sp)
    1fe4:	df000404 	addi	fp,sp,16
    1fe8:	e13ffc15 	stw	r4,-16(fp)
    OS_EVENT **pevents;
    OS_EVENT  *pevent;
    INT8U      y;


    OSTCBCur->OSTCBEventMultiPtr = (OS_EVENT **)pevents_wait;       /* Store ptr to ECBs in TCB        */
    1fec:	d0aa3b17 	ldw	r2,-22292(gp)
    1ff0:	e0fffc17 	ldw	r3,-16(fp)
    1ff4:	10c00815 	stw	r3,32(r2)
    OSTCBCur->OSTCBEventMultiRdy = (OS_EVENT  *)0;
    1ff8:	d0aa3b17 	ldw	r2,-22292(gp)
    1ffc:	10000915 	stw	zero,36(r2)

    pevents =  pevents_wait;
    2000:	e0bffc17 	ldw	r2,-16(fp)
    2004:	e0bfff15 	stw	r2,-4(fp)
    pevent  = *pevents;
    2008:	e0bfff17 	ldw	r2,-4(fp)
    200c:	10800017 	ldw	r2,0(r2)
    2010:	e0bffe15 	stw	r2,-8(fp)
    while (pevent != (OS_EVENT *)0) {                               /* Put task in waiting lists       */
    2014:	00001e06 	br	2090 <OS_EventTaskWaitMulti+0xb4>
        pevent->OSEventTbl[OSTCBCur->OSTCBY] |= OSTCBCur->OSTCBBitX;
    2018:	d0aa3b17 	ldw	r2,-22292(gp)
    201c:	10800f03 	ldbu	r2,60(r2)
    2020:	10803fcc 	andi	r2,r2,255
    2024:	e0fffe17 	ldw	r3,-8(fp)
    2028:	1885883a 	add	r2,r3,r2
    202c:	110002c3 	ldbu	r4,11(r2)
    2030:	d0aa3b17 	ldw	r2,-22292(gp)
    2034:	10c00f43 	ldbu	r3,61(r2)
    2038:	d0aa3b17 	ldw	r2,-22292(gp)
    203c:	10800f03 	ldbu	r2,60(r2)
    2040:	10803fcc 	andi	r2,r2,255
    2044:	20c6b03a 	or	r3,r4,r3
    2048:	1809883a 	mov	r4,r3
    204c:	e0fffe17 	ldw	r3,-8(fp)
    2050:	1885883a 	add	r2,r3,r2
    2054:	110002c5 	stb	r4,11(r2)
        pevent->OSEventGrp                   |= OSTCBCur->OSTCBBitY;
    2058:	e0bffe17 	ldw	r2,-8(fp)
    205c:	10c00283 	ldbu	r3,10(r2)
    2060:	d0aa3b17 	ldw	r2,-22292(gp)
    2064:	10800f83 	ldbu	r2,62(r2)
    2068:	1884b03a 	or	r2,r3,r2
    206c:	1007883a 	mov	r3,r2
    2070:	e0bffe17 	ldw	r2,-8(fp)
    2074:	10c00285 	stb	r3,10(r2)
        pevents++;
    2078:	e0bfff17 	ldw	r2,-4(fp)
    207c:	10800104 	addi	r2,r2,4
    2080:	e0bfff15 	stw	r2,-4(fp)
        pevent = *pevents;
    2084:	e0bfff17 	ldw	r2,-4(fp)
    2088:	10800017 	ldw	r2,0(r2)
    208c:	e0bffe15 	stw	r2,-8(fp)
    while (pevent != (OS_EVENT *)0) {                               /* Put task in waiting lists       */
    2090:	e0bffe17 	ldw	r2,-8(fp)
    2094:	103fe01e 	bne	r2,zero,2018 <OS_EventTaskWaitMulti+0x3c>
    }

    y             =  OSTCBCur->OSTCBY;            /* Task no longer ready                              */
    2098:	d0aa3b17 	ldw	r2,-22292(gp)
    209c:	10800f03 	ldbu	r2,60(r2)
    20a0:	e0bffdc5 	stb	r2,-9(fp)
    OSRdyTbl[y]  &= (OS_PRIO)~OSTCBCur->OSTCBBitX;
    20a4:	e0fffdc3 	ldbu	r3,-9(fp)
    20a8:	d0aa3884 	addi	r2,gp,-22302
    20ac:	1885883a 	add	r2,r3,r2
    20b0:	10800003 	ldbu	r2,0(r2)
    20b4:	d0ea3b17 	ldw	r3,-22292(gp)
    20b8:	18c00f43 	ldbu	r3,61(r3)
    20bc:	00c6303a 	nor	r3,zero,r3
    20c0:	1809883a 	mov	r4,r3
    20c4:	e0fffdc3 	ldbu	r3,-9(fp)
    20c8:	1104703a 	and	r2,r2,r4
    20cc:	1009883a 	mov	r4,r2
    20d0:	d0aa3884 	addi	r2,gp,-22302
    20d4:	1885883a 	add	r2,r3,r2
    20d8:	11000005 	stb	r4,0(r2)
    OS_TRACE_TASK_SUSPENDED(OSTCBCur);
    if (OSRdyTbl[y] == 0u) {                      /* Clear event grp bit if this was only task pending */
    20dc:	e0fffdc3 	ldbu	r3,-9(fp)
    20e0:	d0aa3884 	addi	r2,gp,-22302
    20e4:	1885883a 	add	r2,r3,r2
    20e8:	10800003 	ldbu	r2,0(r2)
    20ec:	10803fcc 	andi	r2,r2,255
    20f0:	1000071e 	bne	r2,zero,2110 <OS_EventTaskWaitMulti+0x134>
        OSRdyGrp &= (OS_PRIO)~OSTCBCur->OSTCBBitY;
    20f4:	d0aa3b17 	ldw	r2,-22292(gp)
    20f8:	10800f83 	ldbu	r2,62(r2)
    20fc:	0084303a 	nor	r2,zero,r2
    2100:	1007883a 	mov	r3,r2
    2104:	d0aa3843 	ldbu	r2,-22303(gp)
    2108:	1884703a 	and	r2,r3,r2
    210c:	d0aa3845 	stb	r2,-22303(gp)
    }
}
    2110:	0001883a 	nop
    2114:	e037883a 	mov	sp,fp
    2118:	df000017 	ldw	fp,0(sp)
    211c:	dec00104 	addi	sp,sp,4
    2120:	f800283a 	ret

00002124 <OS_EventTaskRemove>:
*********************************************************************************************************
*/
#if (OS_EVENT_EN)
void  OS_EventTaskRemove (OS_TCB   *ptcb,
                          OS_EVENT *pevent)
{
    2124:	defffc04 	addi	sp,sp,-16
    2128:	df000315 	stw	fp,12(sp)
    212c:	df000304 	addi	fp,sp,12
    2130:	e13ffe15 	stw	r4,-8(fp)
    2134:	e17ffd15 	stw	r5,-12(fp)
    INT8U  y;


    y                       =  ptcb->OSTCBY;
    2138:	e0bffe17 	ldw	r2,-8(fp)
    213c:	10800f03 	ldbu	r2,60(r2)
    2140:	e0bfffc5 	stb	r2,-1(fp)
    pevent->OSEventTbl[y]  &= (OS_PRIO)~ptcb->OSTCBBitX;    /* Remove task from wait list              */
    2144:	e0bfffc3 	ldbu	r2,-1(fp)
    2148:	e0fffd17 	ldw	r3,-12(fp)
    214c:	1885883a 	add	r2,r3,r2
    2150:	10c002c3 	ldbu	r3,11(r2)
    2154:	e0bffe17 	ldw	r2,-8(fp)
    2158:	10800f43 	ldbu	r2,61(r2)
    215c:	0084303a 	nor	r2,zero,r2
    2160:	1009883a 	mov	r4,r2
    2164:	e0bfffc3 	ldbu	r2,-1(fp)
    2168:	1906703a 	and	r3,r3,r4
    216c:	1809883a 	mov	r4,r3
    2170:	e0fffd17 	ldw	r3,-12(fp)
    2174:	1885883a 	add	r2,r3,r2
    2178:	110002c5 	stb	r4,11(r2)
    if (pevent->OSEventTbl[y] == 0u) {
    217c:	e0bfffc3 	ldbu	r2,-1(fp)
    2180:	e0fffd17 	ldw	r3,-12(fp)
    2184:	1885883a 	add	r2,r3,r2
    2188:	108002c3 	ldbu	r2,11(r2)
    218c:	10803fcc 	andi	r2,r2,255
    2190:	1000091e 	bne	r2,zero,21b8 <OS_EventTaskRemove+0x94>
        pevent->OSEventGrp &= (OS_PRIO)~ptcb->OSTCBBitY;
    2194:	e0bffd17 	ldw	r2,-12(fp)
    2198:	10800283 	ldbu	r2,10(r2)
    219c:	e0fffe17 	ldw	r3,-8(fp)
    21a0:	18c00f83 	ldbu	r3,62(r3)
    21a4:	00c6303a 	nor	r3,zero,r3
    21a8:	10c4703a 	and	r2,r2,r3
    21ac:	1007883a 	mov	r3,r2
    21b0:	e0bffd17 	ldw	r2,-12(fp)
    21b4:	10c00285 	stb	r3,10(r2)
    }
    ptcb->OSTCBEventPtr     = (OS_EVENT  *)0;               /* Unlink OS_EVENT from OS_TCB             */
    21b8:	e0bffe17 	ldw	r2,-8(fp)
    21bc:	10000715 	stw	zero,28(r2)
}
    21c0:	0001883a 	nop
    21c4:	e037883a 	mov	sp,fp
    21c8:	df000017 	ldw	fp,0(sp)
    21cc:	dec00104 	addi	sp,sp,4
    21d0:	f800283a 	ret

000021d4 <OS_EventTaskRemoveMulti>:
*********************************************************************************************************
*/
#if ((OS_EVENT_EN) && (OS_EVENT_MULTI_EN > 0u))
void  OS_EventTaskRemoveMulti (OS_TCB    *ptcb,
                               OS_EVENT **pevents_multi)
{
    21d4:	defffa04 	addi	sp,sp,-24
    21d8:	df000515 	stw	fp,20(sp)
    21dc:	df000504 	addi	fp,sp,20
    21e0:	e13ffc15 	stw	r4,-16(fp)
    21e4:	e17ffb15 	stw	r5,-20(fp)
    INT8U      y;
    OS_PRIO    bity;
    OS_PRIO    bitx;


    y       =  ptcb->OSTCBY;
    21e8:	e0bffc17 	ldw	r2,-16(fp)
    21ec:	10800f03 	ldbu	r2,60(r2)
    21f0:	e0bffdc5 	stb	r2,-9(fp)
    bity    =  ptcb->OSTCBBitY;
    21f4:	e0bffc17 	ldw	r2,-16(fp)
    21f8:	10800f83 	ldbu	r2,62(r2)
    21fc:	e0bffd85 	stb	r2,-10(fp)
    bitx    =  ptcb->OSTCBBitX;
    2200:	e0bffc17 	ldw	r2,-16(fp)
    2204:	10800f43 	ldbu	r2,61(r2)
    2208:	e0bffd45 	stb	r2,-11(fp)
    pevents =  pevents_multi;
    220c:	e0bffb17 	ldw	r2,-20(fp)
    2210:	e0bfff15 	stw	r2,-4(fp)
    pevent  = *pevents;
    2214:	e0bfff17 	ldw	r2,-4(fp)
    2218:	10800017 	ldw	r2,0(r2)
    221c:	e0bffe15 	stw	r2,-8(fp)
    while (pevent != (OS_EVENT *)0) {                   /* Remove task from all events' wait lists     */
    2220:	00002106 	br	22a8 <OS_EventTaskRemoveMulti+0xd4>
        pevent->OSEventTbl[y]  &= (OS_PRIO)~bitx;
    2224:	e0bffdc3 	ldbu	r2,-9(fp)
    2228:	e0fffe17 	ldw	r3,-8(fp)
    222c:	1885883a 	add	r2,r3,r2
    2230:	10c002c3 	ldbu	r3,11(r2)
    2234:	e0bffd43 	ldbu	r2,-11(fp)
    2238:	0084303a 	nor	r2,zero,r2
    223c:	1009883a 	mov	r4,r2
    2240:	e0bffdc3 	ldbu	r2,-9(fp)
    2244:	1906703a 	and	r3,r3,r4
    2248:	1809883a 	mov	r4,r3
    224c:	e0fffe17 	ldw	r3,-8(fp)
    2250:	1885883a 	add	r2,r3,r2
    2254:	110002c5 	stb	r4,11(r2)
        if (pevent->OSEventTbl[y] == 0u) {
    2258:	e0bffdc3 	ldbu	r2,-9(fp)
    225c:	e0fffe17 	ldw	r3,-8(fp)
    2260:	1885883a 	add	r2,r3,r2
    2264:	108002c3 	ldbu	r2,11(r2)
    2268:	10803fcc 	andi	r2,r2,255
    226c:	1000081e 	bne	r2,zero,2290 <OS_EventTaskRemoveMulti+0xbc>
            pevent->OSEventGrp &= (OS_PRIO)~bity;
    2270:	e0bffe17 	ldw	r2,-8(fp)
    2274:	10800283 	ldbu	r2,10(r2)
    2278:	e0fffd83 	ldbu	r3,-10(fp)
    227c:	00c6303a 	nor	r3,zero,r3
    2280:	10c4703a 	and	r2,r2,r3
    2284:	1007883a 	mov	r3,r2
    2288:	e0bffe17 	ldw	r2,-8(fp)
    228c:	10c00285 	stb	r3,10(r2)
        }
        pevents++;
    2290:	e0bfff17 	ldw	r2,-4(fp)
    2294:	10800104 	addi	r2,r2,4
    2298:	e0bfff15 	stw	r2,-4(fp)
        pevent = *pevents;
    229c:	e0bfff17 	ldw	r2,-4(fp)
    22a0:	10800017 	ldw	r2,0(r2)
    22a4:	e0bffe15 	stw	r2,-8(fp)
    while (pevent != (OS_EVENT *)0) {                   /* Remove task from all events' wait lists     */
    22a8:	e0bffe17 	ldw	r2,-8(fp)
    22ac:	103fdd1e 	bne	r2,zero,2224 <OS_EventTaskRemoveMulti+0x50>
    }
}
    22b0:	0001883a 	nop
    22b4:	0001883a 	nop
    22b8:	e037883a 	mov	sp,fp
    22bc:	df000017 	ldw	fp,0(sp)
    22c0:	dec00104 	addi	sp,sp,4
    22c4:	f800283a 	ret

000022c8 <OS_EventWaitListInit>:
* Note       : This function is INTERNAL to uC/OS-II and your application should not call it.
*********************************************************************************************************
*/
#if (OS_EVENT_EN)
void  OS_EventWaitListInit (OS_EVENT *pevent)
{
    22c8:	defffd04 	addi	sp,sp,-12
    22cc:	df000215 	stw	fp,8(sp)
    22d0:	df000204 	addi	fp,sp,8
    22d4:	e13ffe15 	stw	r4,-8(fp)
    INT8U  i;


    pevent->OSEventGrp = 0u;                     /* No task waiting on event                           */
    22d8:	e0bffe17 	ldw	r2,-8(fp)
    22dc:	10000285 	stb	zero,10(r2)
    for (i = 0u; i < OS_EVENT_TBL_SIZE; i++) {
    22e0:	e03fffc5 	stb	zero,-1(fp)
    22e4:	00000706 	br	2304 <OS_EventWaitListInit+0x3c>
        pevent->OSEventTbl[i] = 0u;
    22e8:	e0bfffc3 	ldbu	r2,-1(fp)
    22ec:	e0fffe17 	ldw	r3,-8(fp)
    22f0:	1885883a 	add	r2,r3,r2
    22f4:	100002c5 	stb	zero,11(r2)
    for (i = 0u; i < OS_EVENT_TBL_SIZE; i++) {
    22f8:	e0bfffc3 	ldbu	r2,-1(fp)
    22fc:	10800044 	addi	r2,r2,1
    2300:	e0bfffc5 	stb	r2,-1(fp)
    2304:	e0bfffc3 	ldbu	r2,-1(fp)
    2308:	108000f0 	cmpltui	r2,r2,3
    230c:	103ff61e 	bne	r2,zero,22e8 <OS_EventWaitListInit+0x20>
    }
}
    2310:	0001883a 	nop
    2314:	0001883a 	nop
    2318:	e037883a 	mov	sp,fp
    231c:	df000017 	ldw	fp,0(sp)
    2320:	dec00104 	addi	sp,sp,4
    2324:	f800283a 	ret

00002328 <OS_InitEventList>:
* Returns    : none
*********************************************************************************************************
*/

static  void  OS_InitEventList (void)
{
    2328:	defffa04 	addi	sp,sp,-24
    232c:	dfc00515 	stw	ra,20(sp)
    2330:	df000415 	stw	fp,16(sp)
    2334:	df000404 	addi	fp,sp,16
    INT16U     ix_next;
    OS_EVENT  *pevent1;
    OS_EVENT  *pevent2;


    OS_MemClr((INT8U *)&OSEventTbl[0], sizeof(OSEventTbl)); /* Clear the event table                   */
    2338:	01412c04 	movi	r5,1200
    233c:	01000074 	movhi	r4,1
    2340:	210a9604 	addi	r4,r4,10840
    2344:	00026dc0 	call	26dc <OS_MemClr>
    for (ix = 0u; ix < (OS_MAX_EVENTS - 1u); ix++) {        /* Init. list of free EVENT control blocks */
    2348:	e03fff8d 	sth	zero,-2(fp)
    234c:	00001b06 	br	23bc <OS_InitEventList+0x94>
        ix_next = ix + 1u;
    2350:	e0bfff8b 	ldhu	r2,-2(fp)
    2354:	10800044 	addi	r2,r2,1
    2358:	e0bffd8d 	sth	r2,-10(fp)
        pevent1 = &OSEventTbl[ix];
    235c:	e0bfff8b 	ldhu	r2,-2(fp)
    2360:	10c00524 	muli	r3,r2,20
    2364:	00800074 	movhi	r2,1
    2368:	108a9604 	addi	r2,r2,10840
    236c:	1885883a 	add	r2,r3,r2
    2370:	e0bffe15 	stw	r2,-8(fp)
        pevent2 = &OSEventTbl[ix_next];
    2374:	e0bffd8b 	ldhu	r2,-10(fp)
    2378:	10c00524 	muli	r3,r2,20
    237c:	00800074 	movhi	r2,1
    2380:	108a9604 	addi	r2,r2,10840
    2384:	1885883a 	add	r2,r3,r2
    2388:	e0bffc15 	stw	r2,-16(fp)
        pevent1->OSEventType    = OS_EVENT_TYPE_UNUSED;
    238c:	e0bffe17 	ldw	r2,-8(fp)
    2390:	10000005 	stb	zero,0(r2)
        pevent1->OSEventPtr     = pevent2;
    2394:	e0bffe17 	ldw	r2,-8(fp)
    2398:	e0fffc17 	ldw	r3,-16(fp)
    239c:	10c00115 	stw	r3,4(r2)
#if OS_EVENT_NAME_EN > 0u
        pevent1->OSEventName    = (INT8U *)(void *)"?";     /* Unknown name                            */
    23a0:	e0fffe17 	ldw	r3,-8(fp)
    23a4:	00800074 	movhi	r2,1
    23a8:	10ae4b04 	addi	r2,r2,-18132
    23ac:	18800415 	stw	r2,16(r3)
    for (ix = 0u; ix < (OS_MAX_EVENTS - 1u); ix++) {        /* Init. list of free EVENT control blocks */
    23b0:	e0bfff8b 	ldhu	r2,-2(fp)
    23b4:	10800044 	addi	r2,r2,1
    23b8:	e0bfff8d 	sth	r2,-2(fp)
    23bc:	e0bfff8b 	ldhu	r2,-2(fp)
    23c0:	10800ef0 	cmpltui	r2,r2,59
    23c4:	103fe21e 	bne	r2,zero,2350 <OS_InitEventList+0x28>
#endif
    }
    pevent1                         = &OSEventTbl[ix];
    23c8:	e0bfff8b 	ldhu	r2,-2(fp)
    23cc:	10c00524 	muli	r3,r2,20
    23d0:	00800074 	movhi	r2,1
    23d4:	108a9604 	addi	r2,r2,10840
    23d8:	1885883a 	add	r2,r3,r2
    23dc:	e0bffe15 	stw	r2,-8(fp)
    pevent1->OSEventType            = OS_EVENT_TYPE_UNUSED;
    23e0:	e0bffe17 	ldw	r2,-8(fp)
    23e4:	10000005 	stb	zero,0(r2)
    pevent1->OSEventPtr             = (OS_EVENT *)0;
    23e8:	e0bffe17 	ldw	r2,-8(fp)
    23ec:	10000115 	stw	zero,4(r2)
#if OS_EVENT_NAME_EN > 0u
    pevent1->OSEventName            = (INT8U *)(void *)"?"; /* Unknown name                            */
    23f0:	e0fffe17 	ldw	r3,-8(fp)
    23f4:	00800074 	movhi	r2,1
    23f8:	10ae4b04 	addi	r2,r2,-18132
    23fc:	18800415 	stw	r2,16(r3)
#endif
    OSEventFreeList                 = &OSEventTbl[0];
    2400:	00800074 	movhi	r2,1
    2404:	108a9604 	addi	r2,r2,10840
    2408:	d0aa3215 	stw	r2,-22328(gp)
#if OS_EVENT_NAME_EN > 0u
    OSEventFreeList->OSEventName    = (INT8U *)"?";         /* Unknown name                            */
#endif
#endif
#endif
}
    240c:	0001883a 	nop
    2410:	e037883a 	mov	sp,fp
    2414:	dfc00117 	ldw	ra,4(sp)
    2418:	df000017 	ldw	fp,0(sp)
    241c:	dec00204 	addi	sp,sp,8
    2420:	f800283a 	ret

00002424 <OS_InitMisc>:
* Returns    : none
*********************************************************************************************************
*/

static  void  OS_InitMisc (void)
{
    2424:	deffff04 	addi	sp,sp,-4
    2428:	df000015 	stw	fp,0(sp)
    242c:	d839883a 	mov	fp,sp
#if OS_TIME_GET_SET_EN > 0u
    OSTime                    = 0uL;                       /* Clear the 32-bit system clock            */
    2430:	d02a4315 	stw	zero,-22260(gp)
#endif

    OSIntNesting              = 0u;                        /* Clear the interrupt nesting counter      */
    2434:	d02a3745 	stb	zero,-22307(gp)
    OSLockNesting             = 0u;                        /* Clear the scheduling lock counter        */
    2438:	d02a3785 	stb	zero,-22306(gp)

    OSTaskCtr                 = 0u;                        /* Clear the number of tasks                */
    243c:	d02a3985 	stb	zero,-22298(gp)

    OSRunning                 = OS_FALSE;                  /* Indicate that multitasking not started   */
    2440:	d02a3945 	stb	zero,-22299(gp)

    OSCtxSwCtr                = 0u;                        /* Clear the context switch counter         */
    2444:	d02a3115 	stw	zero,-22332(gp)
    OSIdleCtr                 = 0uL;                       /* Clear the 32-bit idle counter            */
    2448:	d02a3a15 	stw	zero,-22296(gp)

#if OS_TASK_STAT_EN > 0u
    OSIdleCtrRun              = 0uL;
    244c:	d02a3615 	stw	zero,-22312(gp)
    OSIdleCtrMax              = 0uL;
    2450:	d02a3515 	stw	zero,-22316(gp)
    OSStatRdy                 = OS_FALSE;                  /* Statistic task is not ready              */
    2454:	d02a3705 	stb	zero,-22308(gp)
#ifdef OS_SAFETY_CRITICAL_IEC61508
    OSSafetyCriticalStartFlag = OS_FALSE;                  /* Still allow creation of objects          */
#endif

#if OS_TASK_REG_TBL_SIZE > 0u
    OSTaskRegNextAvailID      = 0u;                        /* Initialize the task register ID          */
    2458:	d02a4205 	stb	zero,-22264(gp)
#endif
}
    245c:	0001883a 	nop
    2460:	e037883a 	mov	sp,fp
    2464:	df000017 	ldw	fp,0(sp)
    2468:	dec00104 	addi	sp,sp,4
    246c:	f800283a 	ret

00002470 <OS_InitRdyList>:
* Returns    : none
*********************************************************************************************************
*/

static  void  OS_InitRdyList (void)
{
    2470:	defffe04 	addi	sp,sp,-8
    2474:	df000115 	stw	fp,4(sp)
    2478:	df000104 	addi	fp,sp,4
    INT8U  i;


    OSRdyGrp      = 0u;                                    /* Clear the ready list                     */
    247c:	d02a3845 	stb	zero,-22303(gp)
    for (i = 0u; i < OS_RDY_TBL_SIZE; i++) {
    2480:	e03fffc5 	stb	zero,-1(fp)
    2484:	00000706 	br	24a4 <OS_InitRdyList+0x34>
        OSRdyTbl[i] = 0u;
    2488:	e0ffffc3 	ldbu	r3,-1(fp)
    248c:	d0aa3884 	addi	r2,gp,-22302
    2490:	1885883a 	add	r2,r3,r2
    2494:	10000005 	stb	zero,0(r2)
    for (i = 0u; i < OS_RDY_TBL_SIZE; i++) {
    2498:	e0bfffc3 	ldbu	r2,-1(fp)
    249c:	10800044 	addi	r2,r2,1
    24a0:	e0bfffc5 	stb	r2,-1(fp)
    24a4:	e0bfffc3 	ldbu	r2,-1(fp)
    24a8:	108000f0 	cmpltui	r2,r2,3
    24ac:	103ff61e 	bne	r2,zero,2488 <OS_InitRdyList+0x18>
    }

    OSPrioCur     = 0u;
    24b0:	d02a37c5 	stb	zero,-22305(gp)
    OSPrioHighRdy = 0u;
    24b4:	d02a3805 	stb	zero,-22304(gp)

    OSTCBHighRdy  = (OS_TCB *)0;
    24b8:	d02a3d15 	stw	zero,-22284(gp)
    OSTCBCur      = (OS_TCB *)0;
    24bc:	d02a3b15 	stw	zero,-22292(gp)
}
    24c0:	0001883a 	nop
    24c4:	e037883a 	mov	sp,fp
    24c8:	df000017 	ldw	fp,0(sp)
    24cc:	dec00104 	addi	sp,sp,4
    24d0:	f800283a 	ret

000024d4 <OS_InitTaskIdle>:
* Returns    : none
*********************************************************************************************************
*/

static  void  OS_InitTaskIdle (void)
{
    24d4:	defff804 	addi	sp,sp,-32
    24d8:	dfc00715 	stw	ra,28(sp)
    24dc:	df000615 	stw	fp,24(sp)
    24e0:	df000604 	addi	fp,sp,24
#endif


#if OS_TASK_CREATE_EXT_EN > 0u
    #if OS_STK_GROWTH == 1u
    (void)OSTaskCreateExt(OS_TaskIdle,
    24e4:	008000c4 	movi	r2,3
    24e8:	d8800415 	stw	r2,16(sp)
    24ec:	d8000315 	stw	zero,12(sp)
    24f0:	00808004 	movi	r2,512
    24f4:	d8800215 	stw	r2,8(sp)
    24f8:	00800074 	movhi	r2,1
    24fc:	108e1204 	addi	r2,r2,14408
    2500:	d8800115 	stw	r2,4(sp)
    2504:	00bfffd4 	movui	r2,65535
    2508:	d8800015 	stw	r2,0(sp)
    250c:	01c00504 	movi	r7,20
    2510:	01800074 	movhi	r6,1
    2514:	31901104 	addi	r6,r6,16452
    2518:	000b883a 	mov	r5,zero
    251c:	01000034 	movhi	r4,0
    2520:	210a4f04 	addi	r4,r4,10556
    2524:	00070b80 	call	70b8 <OSTaskCreateExt>
                       OS_TASK_IDLE_PRIO);
    #endif
#endif

#if OS_TASK_NAME_EN > 0u
    OSTaskNameSet(OS_TASK_IDLE_PRIO, (INT8U *)(void *)"uC/OS-II Idle", &err);
    2528:	e0bfffc4 	addi	r2,fp,-1
    252c:	100d883a 	mov	r6,r2
    2530:	01400074 	movhi	r5,1
    2534:	296e4c04 	addi	r5,r5,-18128
    2538:	01000504 	movi	r4,20
    253c:	00078c40 	call	78c4 <OSTaskNameSet>
#endif
}
    2540:	0001883a 	nop
    2544:	e037883a 	mov	sp,fp
    2548:	dfc00117 	ldw	ra,4(sp)
    254c:	df000017 	ldw	fp,0(sp)
    2550:	dec00204 	addi	sp,sp,8
    2554:	f800283a 	ret

00002558 <OS_InitTaskStat>:
*********************************************************************************************************
*/

#if OS_TASK_STAT_EN > 0u
static  void  OS_InitTaskStat (void)
{
    2558:	defff804 	addi	sp,sp,-32
    255c:	dfc00715 	stw	ra,28(sp)
    2560:	df000615 	stw	fp,24(sp)
    2564:	df000604 	addi	fp,sp,24
#endif


#if OS_TASK_CREATE_EXT_EN > 0u
    #if OS_STK_GROWTH == 1u
    (void)OSTaskCreateExt(OS_TaskStat,
    2568:	008000c4 	movi	r2,3
    256c:	d8800415 	stw	r2,16(sp)
    2570:	d8000315 	stw	zero,12(sp)
    2574:	00808004 	movi	r2,512
    2578:	d8800215 	stw	r2,8(sp)
    257c:	00800074 	movhi	r2,1
    2580:	108c1204 	addi	r2,r2,12360
    2584:	d8800115 	stw	r2,4(sp)
    2588:	00bfff94 	movui	r2,65534
    258c:	d8800015 	stw	r2,0(sp)
    2590:	01c004c4 	movi	r7,19
    2594:	01800074 	movhi	r6,1
    2598:	318e1104 	addi	r6,r6,14404
    259c:	000b883a 	mov	r5,zero
    25a0:	01000034 	movhi	r4,0
    25a4:	210a6704 	addi	r4,r4,10652
    25a8:	00070b80 	call	70b8 <OSTaskCreateExt>
                       OS_TASK_STAT_PRIO);                             /* One higher than the idle task  */
    #endif
#endif

#if OS_TASK_NAME_EN > 0u
    OSTaskNameSet(OS_TASK_STAT_PRIO, (INT8U *)(void *)"uC/OS-II Stat", &err);
    25ac:	e0bfffc4 	addi	r2,fp,-1
    25b0:	100d883a 	mov	r6,r2
    25b4:	01400074 	movhi	r5,1
    25b8:	296e5004 	addi	r5,r5,-18112
    25bc:	010004c4 	movi	r4,19
    25c0:	00078c40 	call	78c4 <OSTaskNameSet>
#endif
}
    25c4:	0001883a 	nop
    25c8:	e037883a 	mov	sp,fp
    25cc:	dfc00117 	ldw	ra,4(sp)
    25d0:	df000017 	ldw	fp,0(sp)
    25d4:	dec00204 	addi	sp,sp,8
    25d8:	f800283a 	ret

000025dc <OS_InitTCBList>:
* Returns    : none
*********************************************************************************************************
*/

static  void  OS_InitTCBList (void)
{
    25dc:	defffa04 	addi	sp,sp,-24
    25e0:	dfc00515 	stw	ra,20(sp)
    25e4:	df000415 	stw	fp,16(sp)
    25e8:	df000404 	addi	fp,sp,16
    INT8U    ix_next;
    OS_TCB  *ptcb1;
    OS_TCB  *ptcb2;


    OS_MemClr((INT8U *)&OSTCBTbl[0],     sizeof(OSTCBTbl));      /* Clear all the TCBs                 */
    25ec:	01428804 	movi	r5,2592
    25f0:	01000074 	movhi	r4,1
    25f4:	21102704 	addi	r4,r4,16540
    25f8:	00026dc0 	call	26dc <OS_MemClr>
    OS_MemClr((INT8U *)&OSTCBPrioTbl[0], sizeof(OSTCBPrioTbl));  /* Clear the priority table           */
    25fc:	01401504 	movi	r5,84
    2600:	01000074 	movhi	r4,1
    2604:	21101204 	addi	r4,r4,16456
    2608:	00026dc0 	call	26dc <OS_MemClr>
    for (ix = 0u; ix < (OS_MAX_TASKS + OS_N_SYS_TASKS - 1u); ix++) {    /* Init. list of free TCBs     */
    260c:	e03fffc5 	stb	zero,-1(fp)
    2610:	00001906 	br	2678 <OS_InitTCBList+0x9c>
        ix_next =  ix + 1u;
    2614:	e0bfffc3 	ldbu	r2,-1(fp)
    2618:	10800044 	addi	r2,r2,1
    261c:	e0bffdc5 	stb	r2,-9(fp)
        ptcb1   = &OSTCBTbl[ix];
    2620:	e0bfffc3 	ldbu	r2,-1(fp)
    2624:	10c03624 	muli	r3,r2,216
    2628:	00800074 	movhi	r2,1
    262c:	10902704 	addi	r2,r2,16540
    2630:	1885883a 	add	r2,r3,r2
    2634:	e0bffe15 	stw	r2,-8(fp)
        ptcb2   = &OSTCBTbl[ix_next];
    2638:	e0bffdc3 	ldbu	r2,-9(fp)
    263c:	10c03624 	muli	r3,r2,216
    2640:	00800074 	movhi	r2,1
    2644:	10902704 	addi	r2,r2,16540
    2648:	1885883a 	add	r2,r3,r2
    264c:	e0bffc15 	stw	r2,-16(fp)
        ptcb1->OSTCBNext = ptcb2;
    2650:	e0bffe17 	ldw	r2,-8(fp)
    2654:	e0fffc17 	ldw	r3,-16(fp)
    2658:	10c00515 	stw	r3,20(r2)
#if OS_TASK_NAME_EN > 0u
        ptcb1->OSTCBTaskName = (INT8U *)(void *)"?";             /* Unknown name                       */
    265c:	e0fffe17 	ldw	r3,-8(fp)
    2660:	00800074 	movhi	r2,1
    2664:	10ae4b04 	addi	r2,r2,-18132
    2668:	18801515 	stw	r2,84(r3)
    for (ix = 0u; ix < (OS_MAX_TASKS + OS_N_SYS_TASKS - 1u); ix++) {    /* Init. list of free TCBs     */
    266c:	e0bfffc3 	ldbu	r2,-1(fp)
    2670:	10800044 	addi	r2,r2,1
    2674:	e0bfffc5 	stb	r2,-1(fp)
    2678:	e0bfffc3 	ldbu	r2,-1(fp)
    267c:	108002f0 	cmpltui	r2,r2,11
    2680:	103fe41e 	bne	r2,zero,2614 <OS_InitTCBList+0x38>
#endif
    }
    ptcb1                   = &OSTCBTbl[ix];
    2684:	e0bfffc3 	ldbu	r2,-1(fp)
    2688:	10c03624 	muli	r3,r2,216
    268c:	00800074 	movhi	r2,1
    2690:	10902704 	addi	r2,r2,16540
    2694:	1885883a 	add	r2,r3,r2
    2698:	e0bffe15 	stw	r2,-8(fp)
    ptcb1->OSTCBNext        = (OS_TCB *)0;                       /* Last OS_TCB                        */
    269c:	e0bffe17 	ldw	r2,-8(fp)
    26a0:	10000515 	stw	zero,20(r2)
#if OS_TASK_NAME_EN > 0u
    ptcb1->OSTCBTaskName    = (INT8U *)(void *)"?";              /* Unknown name                       */
    26a4:	e0fffe17 	ldw	r3,-8(fp)
    26a8:	00800074 	movhi	r2,1
    26ac:	10ae4b04 	addi	r2,r2,-18132
    26b0:	18801515 	stw	r2,84(r3)
#endif
    OSTCBList               = (OS_TCB *)0;                       /* TCB lists initializations          */
    26b4:	d02a3e15 	stw	zero,-22280(gp)
    OSTCBFreeList           = &OSTCBTbl[0];
    26b8:	00800074 	movhi	r2,1
    26bc:	10902704 	addi	r2,r2,16540
    26c0:	d0aa3c15 	stw	r2,-22288(gp)
}
    26c4:	0001883a 	nop
    26c8:	e037883a 	mov	sp,fp
    26cc:	dfc00117 	ldw	ra,4(sp)
    26d0:	df000017 	ldw	fp,0(sp)
    26d4:	dec00204 	addi	sp,sp,8
    26d8:	f800283a 	ret

000026dc <OS_MemClr>:
*********************************************************************************************************
*/

void  OS_MemClr (INT8U  *pdest,
                 INT16U  size)
{
    26dc:	defffd04 	addi	sp,sp,-12
    26e0:	df000215 	stw	fp,8(sp)
    26e4:	df000204 	addi	fp,sp,8
    26e8:	e13fff15 	stw	r4,-4(fp)
    26ec:	2805883a 	mov	r2,r5
    26f0:	e0bffe0d 	sth	r2,-8(fp)
    while (size > 0u) {
    26f4:	00000706 	br	2714 <OS_MemClr+0x38>
        *pdest++ = (INT8U)0;
    26f8:	e0bfff17 	ldw	r2,-4(fp)
    26fc:	10c00044 	addi	r3,r2,1
    2700:	e0ffff15 	stw	r3,-4(fp)
    2704:	10000005 	stb	zero,0(r2)
        size--;
    2708:	e0bffe0b 	ldhu	r2,-8(fp)
    270c:	10bfffc4 	addi	r2,r2,-1
    2710:	e0bffe0d 	sth	r2,-8(fp)
    while (size > 0u) {
    2714:	e0bffe0b 	ldhu	r2,-8(fp)
    2718:	103ff71e 	bne	r2,zero,26f8 <OS_MemClr+0x1c>
    }
}
    271c:	0001883a 	nop
    2720:	0001883a 	nop
    2724:	e037883a 	mov	sp,fp
    2728:	df000017 	ldw	fp,0(sp)
    272c:	dec00104 	addi	sp,sp,4
    2730:	f800283a 	ret

00002734 <OS_MemCopy>:
*/

void  OS_MemCopy (INT8U  *pdest,
                  INT8U  *psrc,
                  INT16U  size)
{
    2734:	defffc04 	addi	sp,sp,-16
    2738:	df000315 	stw	fp,12(sp)
    273c:	df000304 	addi	fp,sp,12
    2740:	e13fff15 	stw	r4,-4(fp)
    2744:	e17ffe15 	stw	r5,-8(fp)
    2748:	3005883a 	mov	r2,r6
    274c:	e0bffd0d 	sth	r2,-12(fp)
    while (size > 0u) {
    2750:	00000b06 	br	2780 <OS_MemCopy+0x4c>
        *pdest++ = *psrc++;
    2754:	e0fffe17 	ldw	r3,-8(fp)
    2758:	18800044 	addi	r2,r3,1
    275c:	e0bffe15 	stw	r2,-8(fp)
    2760:	e0bfff17 	ldw	r2,-4(fp)
    2764:	11000044 	addi	r4,r2,1
    2768:	e13fff15 	stw	r4,-4(fp)
    276c:	18c00003 	ldbu	r3,0(r3)
    2770:	10c00005 	stb	r3,0(r2)
        size--;
    2774:	e0bffd0b 	ldhu	r2,-12(fp)
    2778:	10bfffc4 	addi	r2,r2,-1
    277c:	e0bffd0d 	sth	r2,-12(fp)
    while (size > 0u) {
    2780:	e0bffd0b 	ldhu	r2,-12(fp)
    2784:	103ff31e 	bne	r2,zero,2754 <OS_MemCopy+0x20>
    }
}
    2788:	0001883a 	nop
    278c:	0001883a 	nop
    2790:	e037883a 	mov	sp,fp
    2794:	df000017 	ldw	fp,0(sp)
    2798:	dec00104 	addi	sp,sp,4
    279c:	f800283a 	ret

000027a0 <OS_Sched>:
*              2) Rescheduling is prevented when the scheduler is locked (see OS_SchedLock())
*********************************************************************************************************
*/

void  OS_Sched (void)
{
    27a0:	defffb04 	addi	sp,sp,-20
    27a4:	dfc00415 	stw	ra,16(sp)
    27a8:	df000315 	stw	fp,12(sp)
    27ac:	df000304 	addi	fp,sp,12
#if OS_CRITICAL_METHOD == 3u                           /* Allocate storage for CPU status register     */
    OS_CPU_SR  cpu_sr = 0u;
    27b0:	e03fff15 	stw	zero,-4(fp)
  NIOS2_READ_STATUS (context);
    27b4:	0005303a 	rdctl	r2,status
    27b8:	e0bffe15 	stw	r2,-8(fp)
  NIOS2_WRITE_STATUS (context & ~NIOS2_STATUS_PIE_MSK);
    27bc:	e0fffe17 	ldw	r3,-8(fp)
    27c0:	00bfff84 	movi	r2,-2
    27c4:	1884703a 	and	r2,r3,r2
    27c8:	1001703a 	wrctl	status,r2
  return context;
    27cc:	e0bffe17 	ldw	r2,-8(fp)
#endif



    OS_ENTER_CRITICAL();
    27d0:	e0bfff15 	stw	r2,-4(fp)
    if (OSIntNesting == 0u) {                          /* Schedule only if all ISRs done and ...       */
    27d4:	d0aa3743 	ldbu	r2,-22307(gp)
    27d8:	10803fcc 	andi	r2,r2,255
    27dc:	1000181e 	bne	r2,zero,2840 <OS_Sched+0xa0>
        if (OSLockNesting == 0u) {                     /* ... scheduler is not locked                  */
    27e0:	d0aa3783 	ldbu	r2,-22306(gp)
    27e4:	10803fcc 	andi	r2,r2,255
    27e8:	1000151e 	bne	r2,zero,2840 <OS_Sched+0xa0>
            OS_SchedNew();
    27ec:	000286c0 	call	286c <OS_SchedNew>
            OSTCBHighRdy = OSTCBPrioTbl[OSPrioHighRdy];
    27f0:	d0aa3803 	ldbu	r2,-22304(gp)
    27f4:	10803fcc 	andi	r2,r2,255
    27f8:	100690ba 	slli	r3,r2,2
    27fc:	00800074 	movhi	r2,1
    2800:	1885883a 	add	r2,r3,r2
    2804:	10901217 	ldw	r2,16456(r2)
    2808:	d0aa3d15 	stw	r2,-22284(gp)
            if (OSPrioHighRdy != OSPrioCur) {          /* No Ctx Sw if current task is highest rdy     */
    280c:	d0ea3803 	ldbu	r3,-22304(gp)
    2810:	d0aa37c3 	ldbu	r2,-22305(gp)
    2814:	18c03fcc 	andi	r3,r3,255
    2818:	10803fcc 	andi	r2,r2,255
    281c:	18800826 	beq	r3,r2,2840 <OS_Sched+0xa0>
#if OS_TASK_PROFILE_EN > 0u
                OSTCBHighRdy->OSTCBCtxSwCtr++;         /* Inc. # of context switches to this task      */
    2820:	d0aa3d17 	ldw	r2,-22284(gp)
    2824:	10c01017 	ldw	r3,64(r2)
    2828:	18c00044 	addi	r3,r3,1
    282c:	10c01015 	stw	r3,64(r2)
#endif
                OSCtxSwCtr++;                          /* Increment context switch counter             */
    2830:	d0aa3117 	ldw	r2,-22332(gp)
    2834:	10800044 	addi	r2,r2,1
    2838:	d0aa3115 	stw	r2,-22332(gp)
#if defined(OS_TLS_TBL_SIZE) && (OS_TLS_TBL_SIZE > 0u)
                OS_TLS_TaskSw();
#endif
#endif

                OS_TASK_SW();                          /* Perform a context switch                     */
    283c:	000aa340 	call	aa34 <OSCtxSw>
    2840:	e0bfff17 	ldw	r2,-4(fp)
    2844:	e0bffd15 	stw	r2,-12(fp)
  NIOS2_WRITE_STATUS (context);
    2848:	e0bffd17 	ldw	r2,-12(fp)
    284c:	1001703a 	wrctl	status,r2
}
    2850:	0001883a 	nop
            }
        }
    }
    OS_EXIT_CRITICAL();
}
    2854:	0001883a 	nop
    2858:	e037883a 	mov	sp,fp
    285c:	dfc00117 	ldw	ra,4(sp)
    2860:	df000017 	ldw	fp,0(sp)
    2864:	dec00204 	addi	sp,sp,8
    2868:	f800283a 	ret

0000286c <OS_SchedNew>:
*              2) Interrupts are assumed to be disabled when this function is called.
*********************************************************************************************************
*/

static  void  OS_SchedNew (void)
{
    286c:	defffe04 	addi	sp,sp,-8
    2870:	df000115 	stw	fp,4(sp)
    2874:	df000104 	addi	fp,sp,4
#if OS_LOWEST_PRIO <= 63u                        /* See if we support up to 64 tasks                   */
    INT8U   y;


    y             = OSUnMapTbl[OSRdyGrp];
    2878:	d0aa3843 	ldbu	r2,-22303(gp)
    287c:	10c03fcc 	andi	r3,r2,255
    2880:	00800074 	movhi	r2,1
    2884:	1885883a 	add	r2,r3,r2
    2888:	10ae0b03 	ldbu	r2,-18388(r2)
    288c:	e0bfffc5 	stb	r2,-1(fp)
    OSPrioHighRdy = (INT8U)((y << 3u) + OSUnMapTbl[OSRdyTbl[y]]);
    2890:	e0bfffc3 	ldbu	r2,-1(fp)
    2894:	100490fa 	slli	r2,r2,3
    2898:	1009883a 	mov	r4,r2
    289c:	e0ffffc3 	ldbu	r3,-1(fp)
    28a0:	d0aa3884 	addi	r2,gp,-22302
    28a4:	1885883a 	add	r2,r3,r2
    28a8:	10800003 	ldbu	r2,0(r2)
    28ac:	10c03fcc 	andi	r3,r2,255
    28b0:	00800074 	movhi	r2,1
    28b4:	1885883a 	add	r2,r3,r2
    28b8:	10ae0b03 	ldbu	r2,-18388(r2)
    28bc:	2085883a 	add	r2,r4,r2
    28c0:	d0aa3805 	stb	r2,-22304(gp)
        OSPrioHighRdy = (INT8U)((y << 4u) + OSUnMapTbl[(*ptbl & 0xFFu)]);
    } else {
        OSPrioHighRdy = (INT8U)((y << 4u) + OSUnMapTbl[(OS_PRIO)(*ptbl >> 8u) & 0xFFu] + 8u);
    }
#endif
}
    28c4:	0001883a 	nop
    28c8:	e037883a 	mov	sp,fp
    28cc:	df000017 	ldw	fp,0(sp)
    28d0:	dec00104 	addi	sp,sp,4
    28d4:	f800283a 	ret

000028d8 <OS_StrLen>:
*********************************************************************************************************
*/

#if (OS_EVENT_NAME_EN > 0u) || (OS_FLAG_NAME_EN > 0u) || (OS_MEM_NAME_EN > 0u) || (OS_TASK_NAME_EN > 0u) || (OS_TMR_CFG_NAME_EN > 0u)
INT8U  OS_StrLen (INT8U *psrc)
{
    28d8:	defffd04 	addi	sp,sp,-12
    28dc:	df000215 	stw	fp,8(sp)
    28e0:	df000204 	addi	fp,sp,8
    28e4:	e13ffe15 	stw	r4,-8(fp)
    INT8U  len;


#if OS_ARG_CHK_EN > 0u
    if (psrc == (INT8U *)0) {
    28e8:	e0bffe17 	ldw	r2,-8(fp)
    28ec:	1000021e 	bne	r2,zero,28f8 <OS_StrLen+0x20>
        return (0u);
    28f0:	0005883a 	mov	r2,zero
    28f4:	00000d06 	br	292c <OS_StrLen+0x54>
    }
#endif

    len = 0u;
    28f8:	e03fffc5 	stb	zero,-1(fp)
    while (*psrc != OS_ASCII_NUL) {
    28fc:	00000606 	br	2918 <OS_StrLen+0x40>
        psrc++;
    2900:	e0bffe17 	ldw	r2,-8(fp)
    2904:	10800044 	addi	r2,r2,1
    2908:	e0bffe15 	stw	r2,-8(fp)
        len++;
    290c:	e0bfffc3 	ldbu	r2,-1(fp)
    2910:	10800044 	addi	r2,r2,1
    2914:	e0bfffc5 	stb	r2,-1(fp)
    while (*psrc != OS_ASCII_NUL) {
    2918:	e0bffe17 	ldw	r2,-8(fp)
    291c:	10800003 	ldbu	r2,0(r2)
    2920:	10803fcc 	andi	r2,r2,255
    2924:	103ff61e 	bne	r2,zero,2900 <OS_StrLen+0x28>
    }
    return (len);
    2928:	e0bfffc3 	ldbu	r2,-1(fp)
}
    292c:	e037883a 	mov	sp,fp
    2930:	df000017 	ldw	fp,0(sp)
    2934:	dec00104 	addi	sp,sp,4
    2938:	f800283a 	ret

0000293c <OS_TaskIdle>:
*                 power.
*********************************************************************************************************
*/

void  OS_TaskIdle (void *p_arg)
{
    293c:	defffa04 	addi	sp,sp,-24
    2940:	dfc00515 	stw	ra,20(sp)
    2944:	df000415 	stw	fp,16(sp)
    2948:	df000404 	addi	fp,sp,16
    294c:	e13ffc15 	stw	r4,-16(fp)
#if OS_CRITICAL_METHOD == 3u                     /* Allocate storage for CPU status register           */
    OS_CPU_SR  cpu_sr = 0u;
    2950:	e03fff15 	stw	zero,-4(fp)
  NIOS2_READ_STATUS (context);
    2954:	0005303a 	rdctl	r2,status
    2958:	e0bffd15 	stw	r2,-12(fp)
  NIOS2_WRITE_STATUS (context & ~NIOS2_STATUS_PIE_MSK);
    295c:	e0fffd17 	ldw	r3,-12(fp)
    2960:	00bfff84 	movi	r2,-2
    2964:	1884703a 	and	r2,r3,r2
    2968:	1001703a 	wrctl	status,r2
  return context;
    296c:	e0bffd17 	ldw	r2,-12(fp)
#endif

    (void)p_arg;                                 /* Prevent compiler warning for not using 'p_arg'     */
    for (;;) {
        OS_ENTER_CRITICAL();
    2970:	e0bfff15 	stw	r2,-4(fp)
        OSIdleCtr++;
    2974:	d0aa3a17 	ldw	r2,-22296(gp)
    2978:	10800044 	addi	r2,r2,1
    297c:	d0aa3a15 	stw	r2,-22296(gp)
    2980:	e0bfff17 	ldw	r2,-4(fp)
    2984:	e0bffe15 	stw	r2,-8(fp)
  NIOS2_WRITE_STATUS (context);
    2988:	e0bffe17 	ldw	r2,-8(fp)
    298c:	1001703a 	wrctl	status,r2
}
    2990:	0001883a 	nop
        OS_EXIT_CRITICAL();
        OSTaskIdleHook();                        /* Call user definable HOOK                           */
    2994:	000ad380 	call	ad38 <OSTaskIdleHook>
        OS_ENTER_CRITICAL();
    2998:	003fee06 	br	2954 <OS_TaskIdle+0x18>

0000299c <OS_TaskStat>:
*********************************************************************************************************
*/

#if OS_TASK_STAT_EN > 0u
void  OS_TaskStat (void *p_arg)
{
    299c:	defff504 	addi	sp,sp,-44
    29a0:	dfc00a15 	stw	ra,40(sp)
    29a4:	df000915 	stw	fp,36(sp)
    29a8:	df000904 	addi	fp,sp,36
    29ac:	e13ff715 	stw	r4,-36(fp)
    INT8S  usage;
#if OS_CRITICAL_METHOD == 3u                     /* Allocate storage for CPU status register           */
    OS_CPU_SR  cpu_sr = 0u;
    29b0:	e03fff15 	stw	zero,-4(fp)
#endif



    p_arg = p_arg;                               /* Prevent compiler warning for not using 'p_arg'     */
    while (OSStatRdy == OS_FALSE) {
    29b4:	00000206 	br	29c0 <OS_TaskStat+0x24>
        OSTimeDly(2u * OS_TICKS_PER_SEC / 10u);  /* Wait until statistic task is ready                 */
    29b8:	01003204 	movi	r4,200
    29bc:	00084380 	call	8438 <OSTimeDly>
    while (OSStatRdy == OS_FALSE) {
    29c0:	d0aa3703 	ldbu	r2,-22308(gp)
    29c4:	10803fcc 	andi	r2,r2,255
    29c8:	103ffb26 	beq	r2,zero,29b8 <OS_TaskStat+0x1c>
    }
    OSIdleCtrMax /= 100uL;
    29cc:	d0aa3517 	ldw	r2,-22316(gp)
    29d0:	01401904 	movi	r5,100
    29d4:	1009883a 	mov	r4,r2
    29d8:	000b7040 	call	b704 <__udivsi3>
    29dc:	d0aa3515 	stw	r2,-22316(gp)
    if (OSIdleCtrMax == 0uL) {
    29e0:	d0aa3517 	ldw	r2,-22316(gp)
    29e4:	1000031e 	bne	r2,zero,29f4 <OS_TaskStat+0x58>
        OSCPUUsage = 0u;
    29e8:	d02a3405 	stb	zero,-22320(gp)
#if OS_TASK_SUSPEND_EN > 0u
        (void)OSTaskSuspend(OS_PRIO_SELF);
    29ec:	01003fc4 	movi	r4,255
    29f0:	0007db40 	call	7db4 <OSTaskSuspend>
  NIOS2_READ_STATUS (context);
    29f4:	0005303a 	rdctl	r2,status
    29f8:	e0bffc15 	stw	r2,-16(fp)
  NIOS2_WRITE_STATUS (context & ~NIOS2_STATUS_PIE_MSK);
    29fc:	e0fffc17 	ldw	r3,-16(fp)
    2a00:	00bfff84 	movi	r2,-2
    2a04:	1884703a 	and	r2,r3,r2
    2a08:	1001703a 	wrctl	status,r2
  return context;
    2a0c:	e0bffc17 	ldw	r2,-16(fp)
        for (;;) {
            OSTimeDly(OS_TICKS_PER_SEC);
        }
#endif
    }
    OS_ENTER_CRITICAL();
    2a10:	e0bfff15 	stw	r2,-4(fp)
    OSIdleCtr = OSIdleCtrMax * 100uL;            /* Set initial CPU usage as 0%                        */
    2a14:	d0aa3517 	ldw	r2,-22316(gp)
    2a18:	10801924 	muli	r2,r2,100
    2a1c:	d0aa3a15 	stw	r2,-22296(gp)
    2a20:	e0bfff17 	ldw	r2,-4(fp)
    2a24:	e0bffd15 	stw	r2,-12(fp)
  NIOS2_WRITE_STATUS (context);
    2a28:	e0bffd17 	ldw	r2,-12(fp)
    2a2c:	1001703a 	wrctl	status,r2
}
    2a30:	0001883a 	nop
    OS_EXIT_CRITICAL();
    for (;;) {
        OSTimeDly(1);                            /* Synchronize with clock tick                        */
    2a34:	01000044 	movi	r4,1
    2a38:	00084380 	call	8438 <OSTimeDly>
  NIOS2_READ_STATUS (context);
    2a3c:	0005303a 	rdctl	r2,status
    2a40:	e0bff815 	stw	r2,-32(fp)
  NIOS2_WRITE_STATUS (context & ~NIOS2_STATUS_PIE_MSK);
    2a44:	e0fff817 	ldw	r3,-32(fp)
    2a48:	00bfff84 	movi	r2,-2
    2a4c:	1884703a 	and	r2,r3,r2
    2a50:	1001703a 	wrctl	status,r2
  return context;
    2a54:	e0bff817 	ldw	r2,-32(fp)

        OS_ENTER_CRITICAL();
    2a58:	e0bfff15 	stw	r2,-4(fp)
        OSIdleCtr = 0uL;                        /* Reset the idle counter for the next second         */
    2a5c:	d02a3a15 	stw	zero,-22296(gp)
    2a60:	e0bfff17 	ldw	r2,-4(fp)
    2a64:	e0bff915 	stw	r2,-28(fp)
  NIOS2_WRITE_STATUS (context);
    2a68:	e0bff917 	ldw	r2,-28(fp)
    2a6c:	1001703a 	wrctl	status,r2
}
    2a70:	0001883a 	nop
        OS_EXIT_CRITICAL();

        OSTimeDly(OS_TICKS_PER_SEC / 10u);       /* Accumulate OSIdleCtr for the next 1/10 second      */
    2a74:	01001904 	movi	r4,100
    2a78:	00084380 	call	8438 <OSTimeDly>
  NIOS2_READ_STATUS (context);
    2a7c:	0005303a 	rdctl	r2,status
    2a80:	e0bffa15 	stw	r2,-24(fp)
  NIOS2_WRITE_STATUS (context & ~NIOS2_STATUS_PIE_MSK);
    2a84:	e0fffa17 	ldw	r3,-24(fp)
    2a88:	00bfff84 	movi	r2,-2
    2a8c:	1884703a 	and	r2,r3,r2
    2a90:	1001703a 	wrctl	status,r2
  return context;
    2a94:	e0bffa17 	ldw	r2,-24(fp)

        OS_ENTER_CRITICAL();
    2a98:	e0bfff15 	stw	r2,-4(fp)
        OSIdleCtrRun = OSIdleCtr;                /* Store number of cycles which elapsed while idle    */
    2a9c:	d0aa3a17 	ldw	r2,-22296(gp)
    2aa0:	d0aa3615 	stw	r2,-22312(gp)
    2aa4:	e0bfff17 	ldw	r2,-4(fp)
    2aa8:	e0bffb15 	stw	r2,-20(fp)
  NIOS2_WRITE_STATUS (context);
    2aac:	e0bffb17 	ldw	r2,-20(fp)
    2ab0:	1001703a 	wrctl	status,r2
}
    2ab4:	0001883a 	nop
        OS_EXIT_CRITICAL();

        usage            = 100 - (INT8S)(OSIdleCtrRun / OSIdleCtrMax);
    2ab8:	d0aa3617 	ldw	r2,-22312(gp)
    2abc:	d0ea3517 	ldw	r3,-22316(gp)
    2ac0:	180b883a 	mov	r5,r3
    2ac4:	1009883a 	mov	r4,r2
    2ac8:	000b7040 	call	b704 <__udivsi3>
    2acc:	1007883a 	mov	r3,r2
    2ad0:	00801904 	movi	r2,100
    2ad4:	10c5c83a 	sub	r2,r2,r3
    2ad8:	e0bffec5 	stb	r2,-5(fp)
        if (usage >= 0) {                        /* Make sure we don't have a negative percentage      */
    2adc:	e0bffec7 	ldb	r2,-5(fp)
    2ae0:	10000316 	blt	r2,zero,2af0 <OS_TaskStat+0x154>
            OSCPUUsage   = (INT8U)usage;
    2ae4:	e0bffec3 	ldbu	r2,-5(fp)
    2ae8:	d0aa3405 	stb	r2,-22320(gp)
    2aec:	00000606 	br	2b08 <OS_TaskStat+0x16c>
        } else {
            OSCPUUsage   = 0u;
    2af0:	d02a3405 	stb	zero,-22320(gp)
            OSIdleCtrMax = OSIdleCtrRun / 100uL; /* Update max counter value to current one            */
    2af4:	d0aa3617 	ldw	r2,-22312(gp)
    2af8:	01401904 	movi	r5,100
    2afc:	1009883a 	mov	r4,r2
    2b00:	000b7040 	call	b704 <__udivsi3>
    2b04:	d0aa3515 	stw	r2,-22316(gp)
        }

        OSTaskStatHook();                        /* Invoke user definable hook                         */
    2b08:	000acb80 	call	acb8 <OSTaskStatHook>
#if (OS_TASK_STAT_STK_CHK_EN > 0u) && (OS_TASK_CREATE_EXT_EN > 0u)
        OS_TaskStatStkChk();                     /* Check the stacks for each task                     */
    2b0c:	0002b140 	call	2b14 <OS_TaskStatStkChk>
        OSTimeDly(1);                            /* Synchronize with clock tick                        */
    2b10:	003fc806 	br	2a34 <OS_TaskStat+0x98>

00002b14 <OS_TaskStatStkChk>:
*********************************************************************************************************
*/

#if (OS_TASK_STAT_STK_CHK_EN > 0u) && (OS_TASK_CREATE_EXT_EN > 0u)
void  OS_TaskStatStkChk (void)
{
    2b14:	defffa04 	addi	sp,sp,-24
    2b18:	dfc00515 	stw	ra,20(sp)
    2b1c:	df000415 	stw	fp,16(sp)
    2b20:	df000404 	addi	fp,sp,16
    OS_STK_DATA  stk_data;
    INT8U        err;
    INT8U        prio;


    for (prio = 0u; prio <= OS_TASK_IDLE_PRIO; prio++) {
    2b24:	e03fffc5 	stb	zero,-1(fp)
    2b28:	00002106 	br	2bb0 <OS_TaskStatStkChk+0x9c>
        err = OSTaskStkChk(prio, &stk_data);
    2b2c:	e0bfffc3 	ldbu	r2,-1(fp)
    2b30:	e0fffc04 	addi	r3,fp,-16
    2b34:	180b883a 	mov	r5,r3
    2b38:	1009883a 	mov	r4,r2
    2b3c:	0007c040 	call	7c04 <OSTaskStkChk>
    2b40:	e0bfff85 	stb	r2,-2(fp)
        if (err == OS_ERR_NONE) {
    2b44:	e0bfff83 	ldbu	r2,-2(fp)
    2b48:	1000161e 	bne	r2,zero,2ba4 <OS_TaskStatStkChk+0x90>
            ptcb = OSTCBPrioTbl[prio];
    2b4c:	e0bfffc3 	ldbu	r2,-1(fp)
    2b50:	100690ba 	slli	r3,r2,2
    2b54:	00800074 	movhi	r2,1
    2b58:	1885883a 	add	r2,r3,r2
    2b5c:	10901217 	ldw	r2,16456(r2)
    2b60:	e0bffe15 	stw	r2,-8(fp)
            if (ptcb != (OS_TCB *)0) {                               /* Make sure task 'ptcb' is ...   */
    2b64:	e0bffe17 	ldw	r2,-8(fp)
    2b68:	10000e26 	beq	r2,zero,2ba4 <OS_TaskStatStkChk+0x90>
                if (ptcb != OS_TCB_RESERVED) {                       /* ... still valid.               */
    2b6c:	e0bffe17 	ldw	r2,-8(fp)
    2b70:	10800060 	cmpeqi	r2,r2,1
    2b74:	10000b1e 	bne	r2,zero,2ba4 <OS_TaskStatStkChk+0x90>
#if OS_TASK_PROFILE_EN > 0u
                    #if OS_STK_GROWTH == 1u
                    ptcb->OSTCBStkBase = ptcb->OSTCBStkBottom + ptcb->OSTCBStkSize;
    2b78:	e0bffe17 	ldw	r2,-8(fp)
    2b7c:	10c00217 	ldw	r3,8(r2)
    2b80:	e0bffe17 	ldw	r2,-8(fp)
    2b84:	10800317 	ldw	r2,12(r2)
    2b88:	100490ba 	slli	r2,r2,2
    2b8c:	1887883a 	add	r3,r3,r2
    2b90:	e0bffe17 	ldw	r2,-8(fp)
    2b94:	10c01315 	stw	r3,76(r2)
                    #else
                    ptcb->OSTCBStkBase = ptcb->OSTCBStkBottom - ptcb->OSTCBStkSize;
                    #endif
                    ptcb->OSTCBStkUsed = stk_data.OSUsed;            /* Store number of entries used   */
    2b98:	e0fffd17 	ldw	r3,-12(fp)
    2b9c:	e0bffe17 	ldw	r2,-8(fp)
    2ba0:	10c01415 	stw	r3,80(r2)
    for (prio = 0u; prio <= OS_TASK_IDLE_PRIO; prio++) {
    2ba4:	e0bfffc3 	ldbu	r2,-1(fp)
    2ba8:	10800044 	addi	r2,r2,1
    2bac:	e0bfffc5 	stb	r2,-1(fp)
    2bb0:	e0bfffc3 	ldbu	r2,-1(fp)
    2bb4:	10800570 	cmpltui	r2,r2,21
    2bb8:	103fdc1e 	bne	r2,zero,2b2c <OS_TaskStatStkChk+0x18>
#endif
                }
            }
        }
    }
}
    2bbc:	0001883a 	nop
    2bc0:	0001883a 	nop
    2bc4:	e037883a 	mov	sp,fp
    2bc8:	dfc00117 	ldw	ra,4(sp)
    2bcc:	df000017 	ldw	fp,0(sp)
    2bd0:	dec00204 	addi	sp,sp,8
    2bd4:	f800283a 	ret

00002bd8 <OS_TCBInit>:
                   OS_STK  *pbos,
                   INT16U   id,
                   INT32U   stk_size,
                   void    *pext,
                   INT16U   opt)
{
    2bd8:	deffef04 	addi	sp,sp,-68
    2bdc:	dfc01015 	stw	ra,64(sp)
    2be0:	df000f15 	stw	fp,60(sp)
    2be4:	df000f04 	addi	fp,sp,60
    2be8:	2007883a 	mov	r3,r4
    2bec:	e17ff415 	stw	r5,-48(fp)
    2bf0:	e1bff315 	stw	r6,-52(fp)
    2bf4:	3809883a 	mov	r4,r7
    2bf8:	e0800417 	ldw	r2,16(fp)
    2bfc:	e0fff505 	stb	r3,-44(fp)
    2c00:	2007883a 	mov	r3,r4
    2c04:	e0fff20d 	sth	r3,-56(fp)
    2c08:	e0bff10d 	sth	r2,-60(fp)
    OS_TCB    *ptcb;
#if OS_CRITICAL_METHOD == 3u                               /* Allocate storage for CPU status register */
    OS_CPU_SR  cpu_sr = 0u;
    2c0c:	e03ffe15 	stw	zero,-8(fp)
  NIOS2_READ_STATUS (context);
    2c10:	0005303a 	rdctl	r2,status
    2c14:	e0bffc15 	stw	r2,-16(fp)
  NIOS2_WRITE_STATUS (context & ~NIOS2_STATUS_PIE_MSK);
    2c18:	e0fffc17 	ldw	r3,-16(fp)
    2c1c:	00bfff84 	movi	r2,-2
    2c20:	1884703a 	and	r2,r3,r2
    2c24:	1001703a 	wrctl	status,r2
  return context;
    2c28:	e0bffc17 	ldw	r2,-16(fp)
    INT8U      j;
#endif
#endif


    OS_ENTER_CRITICAL();
    2c2c:	e0bffe15 	stw	r2,-8(fp)
    ptcb = OSTCBFreeList;                                  /* Get a free TCB from the free TCB list    */
    2c30:	d0aa3c17 	ldw	r2,-22288(gp)
    2c34:	e0bffd15 	stw	r2,-12(fp)
    if (ptcb != (OS_TCB *)0) {
    2c38:	e0bffd17 	ldw	r2,-12(fp)
    2c3c:	1000af26 	beq	r2,zero,2efc <OS_TCBInit+0x324>
        OSTCBFreeList            = ptcb->OSTCBNext;        /* Update pointer to free TCB list          */
    2c40:	e0bffd17 	ldw	r2,-12(fp)
    2c44:	10800517 	ldw	r2,20(r2)
    2c48:	d0aa3c15 	stw	r2,-22288(gp)
    2c4c:	e0bffe17 	ldw	r2,-8(fp)
    2c50:	e0bffb15 	stw	r2,-20(fp)
  NIOS2_WRITE_STATUS (context);
    2c54:	e0bffb17 	ldw	r2,-20(fp)
    2c58:	1001703a 	wrctl	status,r2
}
    2c5c:	0001883a 	nop
        OS_EXIT_CRITICAL();
        ptcb->OSTCBStkPtr        = ptos;                   /* Load Stack pointer in TCB                */
    2c60:	e0bffd17 	ldw	r2,-12(fp)
    2c64:	e0fff417 	ldw	r3,-48(fp)
    2c68:	10c00015 	stw	r3,0(r2)
        ptcb->OSTCBPrio          = prio;                   /* Load task priority into TCB              */
    2c6c:	e0bffd17 	ldw	r2,-12(fp)
    2c70:	e0fff503 	ldbu	r3,-44(fp)
    2c74:	10c00e85 	stb	r3,58(r2)
        ptcb->OSTCBStat          = OS_STAT_RDY;            /* Task is ready to run                     */
    2c78:	e0bffd17 	ldw	r2,-12(fp)
    2c7c:	10000e05 	stb	zero,56(r2)
        ptcb->OSTCBStatPend      = OS_STAT_PEND_OK;        /* Clear pend status                        */
    2c80:	e0bffd17 	ldw	r2,-12(fp)
    2c84:	10000e45 	stb	zero,57(r2)
        ptcb->OSTCBDly           = 0u;                     /* Task is not delayed                      */
    2c88:	e0bffd17 	ldw	r2,-12(fp)
    2c8c:	10000d15 	stw	zero,52(r2)

#if OS_TASK_CREATE_EXT_EN > 0u
        ptcb->OSTCBExtPtr        = pext;                   /* Store pointer to TCB extension           */
    2c90:	e0bffd17 	ldw	r2,-12(fp)
    2c94:	e0c00317 	ldw	r3,12(fp)
    2c98:	10c00115 	stw	r3,4(r2)
        ptcb->OSTCBStkSize       = stk_size;               /* Store stack size                         */
    2c9c:	e0bffd17 	ldw	r2,-12(fp)
    2ca0:	e0c00217 	ldw	r3,8(fp)
    2ca4:	10c00315 	stw	r3,12(r2)
        ptcb->OSTCBStkBottom     = pbos;                   /* Store pointer to bottom of stack         */
    2ca8:	e0bffd17 	ldw	r2,-12(fp)
    2cac:	e0fff317 	ldw	r3,-52(fp)
    2cb0:	10c00215 	stw	r3,8(r2)
        ptcb->OSTCBOpt           = opt;                    /* Store task options                       */
    2cb4:	e0bffd17 	ldw	r2,-12(fp)
    2cb8:	e0fff10b 	ldhu	r3,-60(fp)
    2cbc:	10c0040d 	sth	r3,16(r2)
        ptcb->OSTCBId            = id;                     /* Store task ID                            */
    2cc0:	e0bffd17 	ldw	r2,-12(fp)
    2cc4:	e0fff20b 	ldhu	r3,-56(fp)
    2cc8:	10c0048d 	sth	r3,18(r2)
        opt                      = opt;
        id                       = id;
#endif

#if OS_TASK_DEL_EN > 0u
        ptcb->OSTCBDelReq        = OS_ERR_NONE;
    2ccc:	e0bffd17 	ldw	r2,-12(fp)
    2cd0:	10000fc5 	stb	zero,63(r2)
#endif

#if OS_LOWEST_PRIO <= 63u                                         /* Pre-compute X, Y                  */
        ptcb->OSTCBY             = (INT8U)(prio >> 3u);
    2cd4:	e0bff503 	ldbu	r2,-44(fp)
    2cd8:	1004d0fa 	srli	r2,r2,3
    2cdc:	1007883a 	mov	r3,r2
    2ce0:	e0bffd17 	ldw	r2,-12(fp)
    2ce4:	10c00f05 	stb	r3,60(r2)
        ptcb->OSTCBX             = (INT8U)(prio & 0x07u);
    2ce8:	e0bff503 	ldbu	r2,-44(fp)
    2cec:	108001cc 	andi	r2,r2,7
    2cf0:	1007883a 	mov	r3,r2
    2cf4:	e0bffd17 	ldw	r2,-12(fp)
    2cf8:	10c00ec5 	stb	r3,59(r2)
#else                                                             /* Pre-compute X, Y                  */
        ptcb->OSTCBY             = (INT8U)((INT8U)(prio >> 4u) & 0xFFu);
        ptcb->OSTCBX             = (INT8U) (prio & 0x0Fu);
#endif
                                                                  /* Pre-compute BitX and BitY         */
        ptcb->OSTCBBitY          = (OS_PRIO)(1uL << ptcb->OSTCBY);
    2cfc:	e0bffd17 	ldw	r2,-12(fp)
    2d00:	10800f03 	ldbu	r2,60(r2)
    2d04:	10803fcc 	andi	r2,r2,255
    2d08:	00c00044 	movi	r3,1
    2d0c:	1884983a 	sll	r2,r3,r2
    2d10:	1007883a 	mov	r3,r2
    2d14:	e0bffd17 	ldw	r2,-12(fp)
    2d18:	10c00f85 	stb	r3,62(r2)
        ptcb->OSTCBBitX          = (OS_PRIO)(1uL << ptcb->OSTCBX);
    2d1c:	e0bffd17 	ldw	r2,-12(fp)
    2d20:	10800ec3 	ldbu	r2,59(r2)
    2d24:	10803fcc 	andi	r2,r2,255
    2d28:	00c00044 	movi	r3,1
    2d2c:	1884983a 	sll	r2,r3,r2
    2d30:	1007883a 	mov	r3,r2
    2d34:	e0bffd17 	ldw	r2,-12(fp)
    2d38:	10c00f45 	stb	r3,61(r2)

#if (OS_EVENT_EN)
        ptcb->OSTCBEventPtr      = (OS_EVENT  *)0;         /* Task is not pending on an  event         */
    2d3c:	e0bffd17 	ldw	r2,-12(fp)
    2d40:	10000715 	stw	zero,28(r2)
#if (OS_EVENT_MULTI_EN > 0u)
        ptcb->OSTCBEventMultiPtr = (OS_EVENT **)0;         /* Task is not pending on any events        */
    2d44:	e0bffd17 	ldw	r2,-12(fp)
    2d48:	10000815 	stw	zero,32(r2)
        ptcb->OSTCBEventMultiRdy = (OS_EVENT  *)0;         /* No events readied for Multipend          */
    2d4c:	e0bffd17 	ldw	r2,-12(fp)
    2d50:	10000915 	stw	zero,36(r2)
#endif
#endif

#if (OS_FLAG_EN > 0u) && (OS_MAX_FLAGS > 0u) && (OS_TASK_DEL_EN > 0u)
        ptcb->OSTCBFlagNode      = (OS_FLAG_NODE *)0;      /* Task is not pending on an event flag     */
    2d54:	e0bffd17 	ldw	r2,-12(fp)
    2d58:	10000b15 	stw	zero,44(r2)
#endif

#if (OS_MBOX_EN > 0u) || ((OS_Q_EN > 0u) && (OS_MAX_QS > 0u))
        ptcb->OSTCBMsg           = (void *)0;              /* No message received                      */
    2d5c:	e0bffd17 	ldw	r2,-12(fp)
    2d60:	10000a15 	stw	zero,40(r2)
#endif

#if OS_TASK_PROFILE_EN > 0u
        ptcb->OSTCBCtxSwCtr      = 0uL;                    /* Initialize profiling variables           */
    2d64:	e0bffd17 	ldw	r2,-12(fp)
    2d68:	10001015 	stw	zero,64(r2)
        ptcb->OSTCBCyclesStart   = 0uL;
    2d6c:	e0bffd17 	ldw	r2,-12(fp)
    2d70:	10001215 	stw	zero,72(r2)
        ptcb->OSTCBCyclesTot     = 0uL;
    2d74:	e0bffd17 	ldw	r2,-12(fp)
    2d78:	10001115 	stw	zero,68(r2)
        ptcb->OSTCBStkBase       = (OS_STK *)0;
    2d7c:	e0bffd17 	ldw	r2,-12(fp)
    2d80:	10001315 	stw	zero,76(r2)
        ptcb->OSTCBStkUsed       = 0uL;
    2d84:	e0bffd17 	ldw	r2,-12(fp)
    2d88:	10001415 	stw	zero,80(r2)
#endif

#if OS_TASK_NAME_EN > 0u
        ptcb->OSTCBTaskName      = (INT8U *)(void *)"?";
    2d8c:	e0fffd17 	ldw	r3,-12(fp)
    2d90:	00800074 	movhi	r2,1
    2d94:	10ae4b04 	addi	r2,r2,-18132
    2d98:	18801515 	stw	r2,84(r3)
#endif

#if OS_TASK_REG_TBL_SIZE > 0u                              /* Initialize the task variables            */
        for (i = 0u; i < OS_TASK_REG_TBL_SIZE; i++) {
    2d9c:	e03fffc5 	stb	zero,-1(fp)
    2da0:	00000906 	br	2dc8 <OS_TCBInit+0x1f0>
            ptcb->OSTCBRegTbl[i] = 0u;
    2da4:	e0bfffc3 	ldbu	r2,-1(fp)
    2da8:	e0fffd17 	ldw	r3,-12(fp)
    2dac:	10800584 	addi	r2,r2,22
    2db0:	100490ba 	slli	r2,r2,2
    2db4:	1885883a 	add	r2,r3,r2
    2db8:	10000015 	stw	zero,0(r2)
        for (i = 0u; i < OS_TASK_REG_TBL_SIZE; i++) {
    2dbc:	e0bfffc3 	ldbu	r2,-1(fp)
    2dc0:	10800044 	addi	r2,r2,1
    2dc4:	e0bfffc5 	stb	r2,-1(fp)
    2dc8:	e0bfffc3 	ldbu	r2,-1(fp)
    2dcc:	10800830 	cmpltui	r2,r2,32
    2dd0:	103ff41e 	bne	r2,zero,2da4 <OS_TCBInit+0x1cc>
        }
#endif

        OSTCBInitHook(ptcb);
    2dd4:	e13ffd17 	ldw	r4,-12(fp)
    2dd8:	000ad7c0 	call	ad7c <OSTCBInitHook>
  NIOS2_READ_STATUS (context);
    2ddc:	0005303a 	rdctl	r2,status
    2de0:	e0bff815 	stw	r2,-32(fp)
  NIOS2_WRITE_STATUS (context & ~NIOS2_STATUS_PIE_MSK);
    2de4:	e0fff817 	ldw	r3,-32(fp)
    2de8:	00bfff84 	movi	r2,-2
    2dec:	1884703a 	and	r2,r3,r2
    2df0:	1001703a 	wrctl	status,r2
  return context;
    2df4:	e0bff817 	ldw	r2,-32(fp)

        OS_ENTER_CRITICAL();
    2df8:	e0bffe15 	stw	r2,-8(fp)
        OSTCBPrioTbl[prio] = ptcb;
    2dfc:	e0bff503 	ldbu	r2,-44(fp)
    2e00:	100890ba 	slli	r4,r2,2
    2e04:	e0fffd17 	ldw	r3,-12(fp)
    2e08:	00800074 	movhi	r2,1
    2e0c:	2085883a 	add	r2,r4,r2
    2e10:	10d01215 	stw	r3,16456(r2)
    2e14:	e0bffe17 	ldw	r2,-8(fp)
    2e18:	e0bff915 	stw	r2,-28(fp)
  NIOS2_WRITE_STATUS (context);
    2e1c:	e0bff917 	ldw	r2,-28(fp)
    2e20:	1001703a 	wrctl	status,r2
}
    2e24:	0001883a 	nop
        OS_EXIT_CRITICAL();

        OSTaskCreateHook(ptcb);                            /* Call user defined hook                   */
    2e28:	e13ffd17 	ldw	r4,-12(fp)
    2e2c:	000ac500 	call	ac50 <OSTaskCreateHook>
  NIOS2_READ_STATUS (context);
    2e30:	0005303a 	rdctl	r2,status
    2e34:	e0bffa15 	stw	r2,-24(fp)
  NIOS2_WRITE_STATUS (context & ~NIOS2_STATUS_PIE_MSK);
    2e38:	e0fffa17 	ldw	r3,-24(fp)
    2e3c:	00bfff84 	movi	r2,-2
    2e40:	1884703a 	and	r2,r3,r2
    2e44:	1001703a 	wrctl	status,r2
  return context;
    2e48:	e0bffa17 	ldw	r2,-24(fp)
        }
        OS_TLS_TaskCreate(ptcb);                           /* Call TLS hook                            */
#endif
#endif

        OS_ENTER_CRITICAL();
    2e4c:	e0bffe15 	stw	r2,-8(fp)
        ptcb->OSTCBNext = OSTCBList;                       /* Link into TCB chain                      */
    2e50:	d0ea3e17 	ldw	r3,-22280(gp)
    2e54:	e0bffd17 	ldw	r2,-12(fp)
    2e58:	10c00515 	stw	r3,20(r2)
        ptcb->OSTCBPrev = (OS_TCB *)0;
    2e5c:	e0bffd17 	ldw	r2,-12(fp)
    2e60:	10000615 	stw	zero,24(r2)
        if (OSTCBList != (OS_TCB *)0) {
    2e64:	d0aa3e17 	ldw	r2,-22280(gp)
    2e68:	10000326 	beq	r2,zero,2e78 <OS_TCBInit+0x2a0>
            OSTCBList->OSTCBPrev = ptcb;
    2e6c:	d0aa3e17 	ldw	r2,-22280(gp)
    2e70:	e0fffd17 	ldw	r3,-12(fp)
    2e74:	10c00615 	stw	r3,24(r2)
        }
        OSTCBList               = ptcb;
    2e78:	e0bffd17 	ldw	r2,-12(fp)
    2e7c:	d0aa3e15 	stw	r2,-22280(gp)
        OSRdyGrp               |= ptcb->OSTCBBitY;         /* Make task ready to run                   */
    2e80:	e0bffd17 	ldw	r2,-12(fp)
    2e84:	10c00f83 	ldbu	r3,62(r2)
    2e88:	d0aa3843 	ldbu	r2,-22303(gp)
    2e8c:	1884b03a 	or	r2,r3,r2
    2e90:	d0aa3845 	stb	r2,-22303(gp)
        OSRdyTbl[ptcb->OSTCBY] |= ptcb->OSTCBBitX;
    2e94:	e0bffd17 	ldw	r2,-12(fp)
    2e98:	10800f03 	ldbu	r2,60(r2)
    2e9c:	10c03fcc 	andi	r3,r2,255
    2ea0:	d0aa3884 	addi	r2,gp,-22302
    2ea4:	1885883a 	add	r2,r3,r2
    2ea8:	11000003 	ldbu	r4,0(r2)
    2eac:	e0bffd17 	ldw	r2,-12(fp)
    2eb0:	10800f43 	ldbu	r2,61(r2)
    2eb4:	e0fffd17 	ldw	r3,-12(fp)
    2eb8:	18c00f03 	ldbu	r3,60(r3)
    2ebc:	18c03fcc 	andi	r3,r3,255
    2ec0:	2084b03a 	or	r2,r4,r2
    2ec4:	1009883a 	mov	r4,r2
    2ec8:	d0aa3884 	addi	r2,gp,-22302
    2ecc:	1885883a 	add	r2,r3,r2
    2ed0:	11000005 	stb	r4,0(r2)
        OSTaskCtr++;                                       /* Increment the #tasks counter             */
    2ed4:	d0aa3983 	ldbu	r2,-22298(gp)
    2ed8:	10800044 	addi	r2,r2,1
    2edc:	d0aa3985 	stb	r2,-22298(gp)
    2ee0:	e0bffe17 	ldw	r2,-8(fp)
    2ee4:	e0bff715 	stw	r2,-36(fp)
  NIOS2_WRITE_STATUS (context);
    2ee8:	e0bff717 	ldw	r2,-36(fp)
    2eec:	1001703a 	wrctl	status,r2
}
    2ef0:	0001883a 	nop
        OS_TRACE_TASK_READY(ptcb);
        OS_EXIT_CRITICAL();
        return (OS_ERR_NONE);
    2ef4:	0005883a 	mov	r2,zero
    2ef8:	00000606 	br	2f14 <OS_TCBInit+0x33c>
    2efc:	e0bffe17 	ldw	r2,-8(fp)
    2f00:	e0bff615 	stw	r2,-40(fp)
  NIOS2_WRITE_STATUS (context);
    2f04:	e0bff617 	ldw	r2,-40(fp)
    2f08:	1001703a 	wrctl	status,r2
}
    2f0c:	0001883a 	nop
    }
    OS_EXIT_CRITICAL();
    return (OS_ERR_TASK_NO_MORE_TCB);
    2f10:	00801084 	movi	r2,66
}
    2f14:	e037883a 	mov	sp,fp
    2f18:	dfc00117 	ldw	ra,4(sp)
    2f1c:	df000017 	ldw	fp,0(sp)
    2f20:	dec00204 	addi	sp,sp,8
    2f24:	f800283a 	ret

00002f28 <OSDebugInit>:
*********************************************************************************************************
*/

#if OS_DEBUG_EN > 0u
void  OSDebugInit (void)
{
    2f28:	defffe04 	addi	sp,sp,-8
    2f2c:	df000115 	stw	fp,4(sp)
    2f30:	df000104 	addi	fp,sp,4
    void  const  *ptemp;


    ptemp = (void const *)&OSDebugEn;
    2f34:	d0a00204 	addi	r2,gp,-32760
    2f38:	e0bfff15 	stw	r2,-4(fp)

    ptemp = (void const *)&OSEndiannessTest;
    2f3c:	d0a00304 	addi	r2,gp,-32756
    2f40:	e0bfff15 	stw	r2,-4(fp)

    ptemp = (void const *)&OSEventMax;
    2f44:	d0a00484 	addi	r2,gp,-32750
    2f48:	e0bfff15 	stw	r2,-4(fp)
    ptemp = (void const *)&OSEventNameEn;
    2f4c:	d0a00504 	addi	r2,gp,-32748
    2f50:	e0bfff15 	stw	r2,-4(fp)
    ptemp = (void const *)&OSEventEn;
    2f54:	d0a00404 	addi	r2,gp,-32752
    2f58:	e0bfff15 	stw	r2,-4(fp)
    ptemp = (void const *)&OSEventSize;
    2f5c:	d0a00584 	addi	r2,gp,-32746
    2f60:	e0bfff15 	stw	r2,-4(fp)
    ptemp = (void const *)&OSEventTblSize;
    2f64:	d0a00604 	addi	r2,gp,-32744
    2f68:	e0bfff15 	stw	r2,-4(fp)
    ptemp = (void const *)&OSEventMultiEn;
    2f6c:	d0a00684 	addi	r2,gp,-32742
    2f70:	e0bfff15 	stw	r2,-4(fp)

    ptemp = (void const *)&OSFlagEn;
    2f74:	d0a00704 	addi	r2,gp,-32740
    2f78:	e0bfff15 	stw	r2,-4(fp)
    ptemp = (void const *)&OSFlagGrpSize;
    2f7c:	d0a00784 	addi	r2,gp,-32738
    2f80:	e0bfff15 	stw	r2,-4(fp)
    ptemp = (void const *)&OSFlagNodeSize;
    2f84:	d0a00804 	addi	r2,gp,-32736
    2f88:	e0bfff15 	stw	r2,-4(fp)
    ptemp = (void const *)&OSFlagWidth;
    2f8c:	d0a00884 	addi	r2,gp,-32734
    2f90:	e0bfff15 	stw	r2,-4(fp)
    ptemp = (void const *)&OSFlagMax;
    2f94:	d0a00904 	addi	r2,gp,-32732
    2f98:	e0bfff15 	stw	r2,-4(fp)
    ptemp = (void const *)&OSFlagNameEn;
    2f9c:	d0a00984 	addi	r2,gp,-32730
    2fa0:	e0bfff15 	stw	r2,-4(fp)

    ptemp = (void const *)&OSLowestPrio;
    2fa4:	d0a00a04 	addi	r2,gp,-32728
    2fa8:	e0bfff15 	stw	r2,-4(fp)

    ptemp = (void const *)&OSMboxEn;
    2fac:	d0a00a84 	addi	r2,gp,-32726
    2fb0:	e0bfff15 	stw	r2,-4(fp)

    ptemp = (void const *)&OSMemEn;
    2fb4:	d0a00b04 	addi	r2,gp,-32724
    2fb8:	e0bfff15 	stw	r2,-4(fp)
    ptemp = (void const *)&OSMemMax;
    2fbc:	d0a00b84 	addi	r2,gp,-32722
    2fc0:	e0bfff15 	stw	r2,-4(fp)
    ptemp = (void const *)&OSMemNameEn;
    2fc4:	d0a00c04 	addi	r2,gp,-32720
    2fc8:	e0bfff15 	stw	r2,-4(fp)
    ptemp = (void const *)&OSMemSize;
    2fcc:	d0a00c84 	addi	r2,gp,-32718
    2fd0:	e0bfff15 	stw	r2,-4(fp)
    ptemp = (void const *)&OSMemTblSize;
    2fd4:	d0a00d04 	addi	r2,gp,-32716
    2fd8:	e0bfff15 	stw	r2,-4(fp)

    ptemp = (void const *)&OSMutexEn;
    2fdc:	d0a00d84 	addi	r2,gp,-32714
    2fe0:	e0bfff15 	stw	r2,-4(fp)

    ptemp = (void const *)&OSPtrSize;
    2fe4:	d0a00e04 	addi	r2,gp,-32712
    2fe8:	e0bfff15 	stw	r2,-4(fp)

    ptemp = (void const *)&OSQEn;
    2fec:	d0a00e84 	addi	r2,gp,-32710
    2ff0:	e0bfff15 	stw	r2,-4(fp)
    ptemp = (void const *)&OSQMax;
    2ff4:	d0a00f04 	addi	r2,gp,-32708
    2ff8:	e0bfff15 	stw	r2,-4(fp)
    ptemp = (void const *)&OSQSize;
    2ffc:	d0a00f84 	addi	r2,gp,-32706
    3000:	e0bfff15 	stw	r2,-4(fp)

    ptemp = (void const *)&OSRdyTblSize;
    3004:	d0a01004 	addi	r2,gp,-32704
    3008:	e0bfff15 	stw	r2,-4(fp)

    ptemp = (void const *)&OSSemEn;
    300c:	d0a01084 	addi	r2,gp,-32702
    3010:	e0bfff15 	stw	r2,-4(fp)

    ptemp = (void const *)&OSStkWidth;
    3014:	d0a01104 	addi	r2,gp,-32700
    3018:	e0bfff15 	stw	r2,-4(fp)

    ptemp = (void const *)&OSTaskCreateEn;
    301c:	d0a01184 	addi	r2,gp,-32698
    3020:	e0bfff15 	stw	r2,-4(fp)
    ptemp = (void const *)&OSTaskCreateExtEn;
    3024:	d0a01204 	addi	r2,gp,-32696
    3028:	e0bfff15 	stw	r2,-4(fp)
    ptemp = (void const *)&OSTaskDelEn;
    302c:	d0a01284 	addi	r2,gp,-32694
    3030:	e0bfff15 	stw	r2,-4(fp)
    ptemp = (void const *)&OSTaskIdleStkSize;
    3034:	d0a01304 	addi	r2,gp,-32692
    3038:	e0bfff15 	stw	r2,-4(fp)
    ptemp = (void const *)&OSTaskProfileEn;
    303c:	d0a01384 	addi	r2,gp,-32690
    3040:	e0bfff15 	stw	r2,-4(fp)
    ptemp = (void const *)&OSTaskMax;
    3044:	d0a01404 	addi	r2,gp,-32688
    3048:	e0bfff15 	stw	r2,-4(fp)
    ptemp = (void const *)&OSTaskNameEn;
    304c:	d0a01484 	addi	r2,gp,-32686
    3050:	e0bfff15 	stw	r2,-4(fp)
    ptemp = (void const *)&OSTaskStatEn;
    3054:	d0a01504 	addi	r2,gp,-32684
    3058:	e0bfff15 	stw	r2,-4(fp)
    ptemp = (void const *)&OSTaskStatStkSize;
    305c:	d0a01584 	addi	r2,gp,-32682
    3060:	e0bfff15 	stw	r2,-4(fp)
    ptemp = (void const *)&OSTaskStatStkChkEn;
    3064:	d0a01604 	addi	r2,gp,-32680
    3068:	e0bfff15 	stw	r2,-4(fp)
    ptemp = (void const *)&OSTaskSwHookEn;
    306c:	d0a01684 	addi	r2,gp,-32678
    3070:	e0bfff15 	stw	r2,-4(fp)

    ptemp = (void const *)&OSTCBPrioTblMax;
    3074:	d0a01784 	addi	r2,gp,-32674
    3078:	e0bfff15 	stw	r2,-4(fp)
    ptemp = (void const *)&OSTCBSize;
    307c:	d0a01804 	addi	r2,gp,-32672
    3080:	e0bfff15 	stw	r2,-4(fp)

    ptemp = (void const *)&OSTicksPerSec;
    3084:	d0a01884 	addi	r2,gp,-32670
    3088:	e0bfff15 	stw	r2,-4(fp)
    ptemp = (void const *)&OSTimeTickHookEn;
    308c:	d0a01904 	addi	r2,gp,-32668
    3090:	e0bfff15 	stw	r2,-4(fp)

    ptemp = (void const *)&OSTmrWheelSize;
    ptemp = (void const *)&OSTmrWheelTblSize;
#endif

    ptemp = (void const *)&OSVersionNbr;
    3094:	d0a01984 	addi	r2,gp,-32666
    3098:	e0bfff15 	stw	r2,-4(fp)

    ptemp = (void const *)&OSDataSize;
    309c:	d0a01f04 	addi	r2,gp,-32644
    30a0:	e0bfff15 	stw	r2,-4(fp)

    ptemp = ptemp;                             /* Prevent compiler warning for 'ptemp' not being used! */
}
    30a4:	0001883a 	nop
    30a8:	e037883a 	mov	sp,fp
    30ac:	df000017 	ldw	fp,0(sp)
    30b0:	dec00104 	addi	sp,sp,4
    30b4:	f800283a 	ret

000030b8 <OSFlagAccept>:
#if OS_FLAG_ACCEPT_EN > 0u
OS_FLAGS  OSFlagAccept (OS_FLAG_GRP  *pgrp,
                        OS_FLAGS      flags,
                        INT8U         wait_type,
                        INT8U        *perr)
{
    30b8:	defff204 	addi	sp,sp,-56
    30bc:	df000d15 	stw	fp,52(sp)
    30c0:	df000d04 	addi	fp,sp,52
    30c4:	e13ff615 	stw	r4,-40(fp)
    30c8:	2805883a 	mov	r2,r5
    30cc:	3007883a 	mov	r3,r6
    30d0:	e1fff315 	stw	r7,-52(fp)
    30d4:	e0bff50d 	sth	r2,-44(fp)
    30d8:	1805883a 	mov	r2,r3
    30dc:	e0bff405 	stb	r2,-48(fp)
    OS_FLAGS      flags_rdy;
    INT8U         result;
    BOOLEAN       consume;
#if OS_CRITICAL_METHOD == 3u                               /* Allocate storage for CPU status register */
    OS_CPU_SR     cpu_sr = 0u;
    30e0:	e03ffe15 	stw	zero,-8(fp)
        return ((OS_FLAGS)0);
    }
#endif

#if OS_ARG_CHK_EN > 0u
    if (pgrp == (OS_FLAG_GRP *)0) {                        /* Validate 'pgrp'                          */
    30e4:	e0bff617 	ldw	r2,-40(fp)
    30e8:	1000051e 	bne	r2,zero,3100 <OSFlagAccept+0x48>
        *perr = OS_ERR_FLAG_INVALID_PGRP;
    30ec:	e0bff317 	ldw	r2,-52(fp)
    30f0:	00c01b84 	movi	r3,110
    30f4:	10c00005 	stb	r3,0(r2)
        return ((OS_FLAGS)0);
    30f8:	0005883a 	mov	r2,zero
    30fc:	0000ad06 	br	33b4 <OSFlagAccept+0x2fc>
    }
#endif
    if (pgrp->OSFlagType != OS_EVENT_TYPE_FLAG) {          /* Validate event block type                */
    3100:	e0bff617 	ldw	r2,-40(fp)
    3104:	10800003 	ldbu	r2,0(r2)
    3108:	10803fcc 	andi	r2,r2,255
    310c:	10800160 	cmpeqi	r2,r2,5
    3110:	1000051e 	bne	r2,zero,3128 <OSFlagAccept+0x70>
        *perr = OS_ERR_EVENT_TYPE;
    3114:	e0bff317 	ldw	r2,-52(fp)
    3118:	00c00044 	movi	r3,1
    311c:	10c00005 	stb	r3,0(r2)
        return ((OS_FLAGS)0);
    3120:	0005883a 	mov	r2,zero
    3124:	0000a306 	br	33b4 <OSFlagAccept+0x2fc>
    }
    result = (INT8U)(wait_type & OS_FLAG_CONSUME);
    3128:	e0fff403 	ldbu	r3,-48(fp)
    312c:	00bfe004 	movi	r2,-128
    3130:	1884703a 	and	r2,r3,r2
    3134:	e0bffdc5 	stb	r2,-9(fp)
    if (result != (INT8U)0) {                              /* See if we need to consume the flags      */
    3138:	e0bffdc3 	ldbu	r2,-9(fp)
    313c:	10000626 	beq	r2,zero,3158 <OSFlagAccept+0xa0>
        wait_type &= ~OS_FLAG_CONSUME;
    3140:	e0bff403 	ldbu	r2,-48(fp)
    3144:	10801fcc 	andi	r2,r2,127
    3148:	e0bff405 	stb	r2,-48(fp)
        consume    = OS_TRUE;
    314c:	00800044 	movi	r2,1
    3150:	e0bfff45 	stb	r2,-3(fp)
    3154:	00000106 	br	315c <OSFlagAccept+0xa4>
    } else {
        consume    = OS_FALSE;
    3158:	e03fff45 	stb	zero,-3(fp)
    }

    *perr = OS_ERR_NONE;                                   /* Assume NO error until proven otherwise.  */
    315c:	e0bff317 	ldw	r2,-52(fp)
    3160:	10000005 	stb	zero,0(r2)
  NIOS2_READ_STATUS (context);
    3164:	0005303a 	rdctl	r2,status
    3168:	e0bffc15 	stw	r2,-16(fp)
  NIOS2_WRITE_STATUS (context & ~NIOS2_STATUS_PIE_MSK);
    316c:	e0fffc17 	ldw	r3,-16(fp)
    3170:	00bfff84 	movi	r2,-2
    3174:	1884703a 	and	r2,r3,r2
    3178:	1001703a 	wrctl	status,r2
  return context;
    317c:	e0bffc17 	ldw	r2,-16(fp)
    OS_ENTER_CRITICAL();
    3180:	e0bffe15 	stw	r2,-8(fp)
    switch (wait_type) {
    3184:	e0bff403 	ldbu	r2,-48(fp)
    3188:	10c000e0 	cmpeqi	r3,r2,3
    318c:	1800271e 	bne	r3,zero,322c <OSFlagAccept+0x174>
    3190:	10c00108 	cmpgei	r3,r2,4
    3194:	18007c1e 	bne	r3,zero,3388 <OSFlagAccept+0x2d0>
    3198:	10c000a0 	cmpeqi	r3,r2,2
    319c:	1800061e 	bne	r3,zero,31b8 <OSFlagAccept+0x100>
    31a0:	10c000c8 	cmpgei	r3,r2,3
    31a4:	1800781e 	bne	r3,zero,3388 <OSFlagAccept+0x2d0>
    31a8:	10003c26 	beq	r2,zero,329c <OSFlagAccept+0x1e4>
    31ac:	10800060 	cmpeqi	r2,r2,1
    31b0:	1000581e 	bne	r2,zero,3314 <OSFlagAccept+0x25c>
    31b4:	00007406 	br	3388 <OSFlagAccept+0x2d0>
        case OS_FLAG_WAIT_SET_ALL:                         /* See if all required flags are set        */
             flags_rdy = (OS_FLAGS)(pgrp->OSFlagFlags & flags);     /* Extract only the bits we want   */
    31b8:	e0bff617 	ldw	r2,-40(fp)
    31bc:	1080020b 	ldhu	r2,8(r2)
    31c0:	e0fff50b 	ldhu	r3,-44(fp)
    31c4:	1884703a 	and	r2,r3,r2
    31c8:	e0bfff8d 	sth	r2,-2(fp)
             if (flags_rdy == flags) {                     /* Must match ALL the bits that we want     */
    31cc:	e0ffff8b 	ldhu	r3,-2(fp)
    31d0:	e0bff50b 	ldhu	r2,-44(fp)
    31d4:	18800c1e 	bne	r3,r2,3208 <OSFlagAccept+0x150>
                 if (consume == OS_TRUE) {                 /* See if we need to consume the flags      */
    31d8:	e0bfff43 	ldbu	r2,-3(fp)
    31dc:	10800058 	cmpnei	r2,r2,1
    31e0:	10000c1e 	bne	r2,zero,3214 <OSFlagAccept+0x15c>
                     pgrp->OSFlagFlags &= (OS_FLAGS)~flags_rdy;     /* Clear ONLY the flags we wanted  */
    31e4:	e0bff617 	ldw	r2,-40(fp)
    31e8:	1080020b 	ldhu	r2,8(r2)
    31ec:	e0ffff8b 	ldhu	r3,-2(fp)
    31f0:	00c6303a 	nor	r3,zero,r3
    31f4:	10c4703a 	and	r2,r2,r3
    31f8:	1007883a 	mov	r3,r2
    31fc:	e0bff617 	ldw	r2,-40(fp)
    3200:	10c0020d 	sth	r3,8(r2)
    3204:	00000306 	br	3214 <OSFlagAccept+0x15c>
                 }
             } else {
                 *perr = OS_ERR_FLAG_NOT_RDY;
    3208:	e0bff317 	ldw	r2,-52(fp)
    320c:	00c01c04 	movi	r3,112
    3210:	10c00005 	stb	r3,0(r2)
    3214:	e0bffe17 	ldw	r2,-8(fp)
    3218:	e0bffb15 	stw	r2,-20(fp)
  NIOS2_WRITE_STATUS (context);
    321c:	e0bffb17 	ldw	r2,-20(fp)
    3220:	1001703a 	wrctl	status,r2
}
    3224:	0001883a 	nop
             }
             OS_EXIT_CRITICAL();
             break;
    3228:	00006106 	br	33b0 <OSFlagAccept+0x2f8>

        case OS_FLAG_WAIT_SET_ANY:
             flags_rdy = (OS_FLAGS)(pgrp->OSFlagFlags & flags);     /* Extract only the bits we want   */
    322c:	e0bff617 	ldw	r2,-40(fp)
    3230:	1080020b 	ldhu	r2,8(r2)
    3234:	e0fff50b 	ldhu	r3,-44(fp)
    3238:	1884703a 	and	r2,r3,r2
    323c:	e0bfff8d 	sth	r2,-2(fp)
             if (flags_rdy != (OS_FLAGS)0) {               /* See if any flag set                      */
    3240:	e0bfff8b 	ldhu	r2,-2(fp)
    3244:	10000c26 	beq	r2,zero,3278 <OSFlagAccept+0x1c0>
                 if (consume == OS_TRUE) {                 /* See if we need to consume the flags      */
    3248:	e0bfff43 	ldbu	r2,-3(fp)
    324c:	10800058 	cmpnei	r2,r2,1
    3250:	10000c1e 	bne	r2,zero,3284 <OSFlagAccept+0x1cc>
                     pgrp->OSFlagFlags &= (OS_FLAGS)~flags_rdy;     /* Clear ONLY the flags we got     */
    3254:	e0bff617 	ldw	r2,-40(fp)
    3258:	1080020b 	ldhu	r2,8(r2)
    325c:	e0ffff8b 	ldhu	r3,-2(fp)
    3260:	00c6303a 	nor	r3,zero,r3
    3264:	10c4703a 	and	r2,r2,r3
    3268:	1007883a 	mov	r3,r2
    326c:	e0bff617 	ldw	r2,-40(fp)
    3270:	10c0020d 	sth	r3,8(r2)
    3274:	00000306 	br	3284 <OSFlagAccept+0x1cc>
                 }
             } else {
                 *perr = OS_ERR_FLAG_NOT_RDY;
    3278:	e0bff317 	ldw	r2,-52(fp)
    327c:	00c01c04 	movi	r3,112
    3280:	10c00005 	stb	r3,0(r2)
    3284:	e0bffe17 	ldw	r2,-8(fp)
    3288:	e0bffa15 	stw	r2,-24(fp)
  NIOS2_WRITE_STATUS (context);
    328c:	e0bffa17 	ldw	r2,-24(fp)
    3290:	1001703a 	wrctl	status,r2
}
    3294:	0001883a 	nop
             }
             OS_EXIT_CRITICAL();
             break;
    3298:	00004506 	br	33b0 <OSFlagAccept+0x2f8>

#if OS_FLAG_WAIT_CLR_EN > 0u
        case OS_FLAG_WAIT_CLR_ALL:                         /* See if all required flags are cleared    */
             flags_rdy = (OS_FLAGS)~pgrp->OSFlagFlags & flags;    /* Extract only the bits we want     */
    329c:	e0bff617 	ldw	r2,-40(fp)
    32a0:	1080020b 	ldhu	r2,8(r2)
    32a4:	0084303a 	nor	r2,zero,r2
    32a8:	1007883a 	mov	r3,r2
    32ac:	e0bff50b 	ldhu	r2,-44(fp)
    32b0:	10c4703a 	and	r2,r2,r3
    32b4:	e0bfff8d 	sth	r2,-2(fp)
             if (flags_rdy == flags) {                     /* Must match ALL the bits that we want     */
    32b8:	e0ffff8b 	ldhu	r3,-2(fp)
    32bc:	e0bff50b 	ldhu	r2,-44(fp)
    32c0:	18800b1e 	bne	r3,r2,32f0 <OSFlagAccept+0x238>
                 if (consume == OS_TRUE) {                 /* See if we need to consume the flags      */
    32c4:	e0bfff43 	ldbu	r2,-3(fp)
    32c8:	10800058 	cmpnei	r2,r2,1
    32cc:	10000b1e 	bne	r2,zero,32fc <OSFlagAccept+0x244>
                     pgrp->OSFlagFlags |= flags_rdy;       /* Set ONLY the flags that we wanted        */
    32d0:	e0bff617 	ldw	r2,-40(fp)
    32d4:	1080020b 	ldhu	r2,8(r2)
    32d8:	e0ffff8b 	ldhu	r3,-2(fp)
    32dc:	1884b03a 	or	r2,r3,r2
    32e0:	1007883a 	mov	r3,r2
    32e4:	e0bff617 	ldw	r2,-40(fp)
    32e8:	10c0020d 	sth	r3,8(r2)
    32ec:	00000306 	br	32fc <OSFlagAccept+0x244>
                 }
             } else {
                 *perr = OS_ERR_FLAG_NOT_RDY;
    32f0:	e0bff317 	ldw	r2,-52(fp)
    32f4:	00c01c04 	movi	r3,112
    32f8:	10c00005 	stb	r3,0(r2)
    32fc:	e0bffe17 	ldw	r2,-8(fp)
    3300:	e0bff915 	stw	r2,-28(fp)
  NIOS2_WRITE_STATUS (context);
    3304:	e0bff917 	ldw	r2,-28(fp)
    3308:	1001703a 	wrctl	status,r2
}
    330c:	0001883a 	nop
             }
             OS_EXIT_CRITICAL();
             break;
    3310:	00002706 	br	33b0 <OSFlagAccept+0x2f8>

        case OS_FLAG_WAIT_CLR_ANY:
             flags_rdy = (OS_FLAGS)~pgrp->OSFlagFlags & flags;   /* Extract only the bits we want      */
    3314:	e0bff617 	ldw	r2,-40(fp)
    3318:	1080020b 	ldhu	r2,8(r2)
    331c:	0084303a 	nor	r2,zero,r2
    3320:	1007883a 	mov	r3,r2
    3324:	e0bff50b 	ldhu	r2,-44(fp)
    3328:	10c4703a 	and	r2,r2,r3
    332c:	e0bfff8d 	sth	r2,-2(fp)
             if (flags_rdy != (OS_FLAGS)0) {               /* See if any flag cleared                  */
    3330:	e0bfff8b 	ldhu	r2,-2(fp)
    3334:	10000b26 	beq	r2,zero,3364 <OSFlagAccept+0x2ac>
                 if (consume == OS_TRUE) {                 /* See if we need to consume the flags      */
    3338:	e0bfff43 	ldbu	r2,-3(fp)
    333c:	10800058 	cmpnei	r2,r2,1
    3340:	10000b1e 	bne	r2,zero,3370 <OSFlagAccept+0x2b8>
                     pgrp->OSFlagFlags |= flags_rdy;       /* Set ONLY the flags that we got           */
    3344:	e0bff617 	ldw	r2,-40(fp)
    3348:	1080020b 	ldhu	r2,8(r2)
    334c:	e0ffff8b 	ldhu	r3,-2(fp)
    3350:	1884b03a 	or	r2,r3,r2
    3354:	1007883a 	mov	r3,r2
    3358:	e0bff617 	ldw	r2,-40(fp)
    335c:	10c0020d 	sth	r3,8(r2)
    3360:	00000306 	br	3370 <OSFlagAccept+0x2b8>
                 }
             } else {
                 *perr = OS_ERR_FLAG_NOT_RDY;
    3364:	e0bff317 	ldw	r2,-52(fp)
    3368:	00c01c04 	movi	r3,112
    336c:	10c00005 	stb	r3,0(r2)
    3370:	e0bffe17 	ldw	r2,-8(fp)
    3374:	e0bff815 	stw	r2,-32(fp)
  NIOS2_WRITE_STATUS (context);
    3378:	e0bff817 	ldw	r2,-32(fp)
    337c:	1001703a 	wrctl	status,r2
}
    3380:	0001883a 	nop
             }
             OS_EXIT_CRITICAL();
             break;
    3384:	00000a06 	br	33b0 <OSFlagAccept+0x2f8>
    3388:	e0bffe17 	ldw	r2,-8(fp)
    338c:	e0bff715 	stw	r2,-36(fp)
  NIOS2_WRITE_STATUS (context);
    3390:	e0bff717 	ldw	r2,-36(fp)
    3394:	1001703a 	wrctl	status,r2
}
    3398:	0001883a 	nop
#endif

        default:
             OS_EXIT_CRITICAL();
             flags_rdy = (OS_FLAGS)0;
    339c:	e03fff8d 	sth	zero,-2(fp)
             *perr     = OS_ERR_FLAG_WAIT_TYPE;
    33a0:	e0bff317 	ldw	r2,-52(fp)
    33a4:	00c01bc4 	movi	r3,111
    33a8:	10c00005 	stb	r3,0(r2)
             break;
    33ac:	0001883a 	nop
    }
    return (flags_rdy);
    33b0:	e0bfff8b 	ldhu	r2,-2(fp)
}
    33b4:	e037883a 	mov	sp,fp
    33b8:	df000017 	ldw	fp,0(sp)
    33bc:	dec00104 	addi	sp,sp,4
    33c0:	f800283a 	ret

000033c4 <OSFlagCreate>:
*********************************************************************************************************
*/

OS_FLAG_GRP  *OSFlagCreate (OS_FLAGS  flags,
                            INT8U    *perr)
{
    33c4:	defff804 	addi	sp,sp,-32
    33c8:	df000715 	stw	fp,28(sp)
    33cc:	df000704 	addi	fp,sp,28
    33d0:	2005883a 	mov	r2,r4
    33d4:	e17ff915 	stw	r5,-28(fp)
    33d8:	e0bffa0d 	sth	r2,-24(fp)
    OS_FLAG_GRP *pgrp;
#if OS_CRITICAL_METHOD == 3u                        /* Allocate storage for CPU status register        */
    OS_CPU_SR    cpu_sr = 0u;
    33dc:	e03fff15 	stw	zero,-4(fp)
        *perr = OS_ERR_ILLEGAL_CREATE_RUN_TIME;
        return ((OS_FLAG_GRP *)0);
    }
#endif

    if (OSIntNesting > 0u) {                        /* See if called from ISR ...                      */
    33e0:	d0aa3743 	ldbu	r2,-22307(gp)
    33e4:	10803fcc 	andi	r2,r2,255
    33e8:	10000526 	beq	r2,zero,3400 <OSFlagCreate+0x3c>
        *perr = OS_ERR_CREATE_ISR;                  /* ... can't CREATE from an ISR                    */
    33ec:	e0bff917 	ldw	r2,-28(fp)
    33f0:	00c00404 	movi	r3,16
    33f4:	10c00005 	stb	r3,0(r2)
        return ((OS_FLAG_GRP *)0);
    33f8:	0005883a 	mov	r2,zero
    33fc:	00002c06 	br	34b0 <OSFlagCreate+0xec>
  NIOS2_READ_STATUS (context);
    3400:	0005303a 	rdctl	r2,status
    3404:	e0bffd15 	stw	r2,-12(fp)
  NIOS2_WRITE_STATUS (context & ~NIOS2_STATUS_PIE_MSK);
    3408:	e0fffd17 	ldw	r3,-12(fp)
    340c:	00bfff84 	movi	r2,-2
    3410:	1884703a 	and	r2,r3,r2
    3414:	1001703a 	wrctl	status,r2
  return context;
    3418:	e0bffd17 	ldw	r2,-12(fp)
    }
    OS_ENTER_CRITICAL();
    341c:	e0bfff15 	stw	r2,-4(fp)
    pgrp = OSFlagFreeList;                          /* Get next free event flag                        */
    3420:	d0aa3317 	ldw	r2,-22324(gp)
    3424:	e0bffe15 	stw	r2,-8(fp)
    if (pgrp != (OS_FLAG_GRP *)0) {                 /* See if we have event flag groups available      */
    3428:	e0bffe17 	ldw	r2,-8(fp)
    342c:	10001726 	beq	r2,zero,348c <OSFlagCreate+0xc8>
                                                    /* Adjust free list                                */
        OSFlagFreeList       = (OS_FLAG_GRP *)OSFlagFreeList->OSFlagWaitList;
    3430:	d0aa3317 	ldw	r2,-22324(gp)
    3434:	10800117 	ldw	r2,4(r2)
    3438:	d0aa3315 	stw	r2,-22324(gp)
        pgrp->OSFlagType     = OS_EVENT_TYPE_FLAG;  /* Set to event flag group type                    */
    343c:	e0bffe17 	ldw	r2,-8(fp)
    3440:	00c00144 	movi	r3,5
    3444:	10c00005 	stb	r3,0(r2)
        pgrp->OSFlagFlags    = flags;               /* Set to desired initial value                    */
    3448:	e0bffe17 	ldw	r2,-8(fp)
    344c:	e0fffa0b 	ldhu	r3,-24(fp)
    3450:	10c0020d 	sth	r3,8(r2)
        pgrp->OSFlagWaitList = (void *)0;           /* Clear list of tasks waiting on flags            */
    3454:	e0bffe17 	ldw	r2,-8(fp)
    3458:	10000115 	stw	zero,4(r2)
#if OS_FLAG_NAME_EN > 0u
        pgrp->OSFlagName     = (INT8U *)(void *)"?";
    345c:	e0fffe17 	ldw	r3,-8(fp)
    3460:	00800074 	movhi	r2,1
    3464:	10ae5404 	addi	r2,r2,-18096
    3468:	18800315 	stw	r2,12(r3)
    346c:	e0bfff17 	ldw	r2,-4(fp)
    3470:	e0bffc15 	stw	r2,-16(fp)
  NIOS2_WRITE_STATUS (context);
    3474:	e0bffc17 	ldw	r2,-16(fp)
    3478:	1001703a 	wrctl	status,r2
}
    347c:	0001883a 	nop
#endif
        OS_TRACE_FLAG_CREATE(pgrp, pgrp->OSFlagName);
        OS_EXIT_CRITICAL();
        *perr                = OS_ERR_NONE;
    3480:	e0bff917 	ldw	r2,-28(fp)
    3484:	10000005 	stb	zero,0(r2)
    3488:	00000806 	br	34ac <OSFlagCreate+0xe8>
    348c:	e0bfff17 	ldw	r2,-4(fp)
    3490:	e0bffb15 	stw	r2,-20(fp)
  NIOS2_WRITE_STATUS (context);
    3494:	e0bffb17 	ldw	r2,-20(fp)
    3498:	1001703a 	wrctl	status,r2
}
    349c:	0001883a 	nop
    } else {
        OS_EXIT_CRITICAL();
        *perr                = OS_ERR_FLAG_GRP_DEPLETED;
    34a0:	e0bff917 	ldw	r2,-28(fp)
    34a4:	00c01c84 	movi	r3,114
    34a8:	10c00005 	stb	r3,0(r2)
    }
    return (pgrp);                                  /* Return pointer to event flag group              */
    34ac:	e0bffe17 	ldw	r2,-8(fp)
}
    34b0:	e037883a 	mov	sp,fp
    34b4:	df000017 	ldw	fp,0(sp)
    34b8:	dec00104 	addi	sp,sp,4
    34bc:	f800283a 	ret

000034c0 <OSFlagDel>:

#if OS_FLAG_DEL_EN > 0u
OS_FLAG_GRP  *OSFlagDel (OS_FLAG_GRP  *pgrp,
                         INT8U         opt,
                         INT8U        *perr)
{
    34c0:	defff204 	addi	sp,sp,-56
    34c4:	dfc00d15 	stw	ra,52(sp)
    34c8:	df000c15 	stw	fp,48(sp)
    34cc:	df000c04 	addi	fp,sp,48
    34d0:	e13ff615 	stw	r4,-40(fp)
    34d4:	2805883a 	mov	r2,r5
    34d8:	e1bff415 	stw	r6,-48(fp)
    34dc:	e0bff505 	stb	r2,-44(fp)
    BOOLEAN       tasks_waiting;
    OS_FLAG_NODE *pnode;
    OS_FLAG_GRP  *pgrp_return;
#if OS_CRITICAL_METHOD == 3u                               /* Allocate storage for CPU status register */
    OS_CPU_SR     cpu_sr = 0u;
    34e0:	e03ffc15 	stw	zero,-16(fp)
        return ((OS_FLAG_GRP *)0);
    }
#endif

#if OS_ARG_CHK_EN > 0u
    if (pgrp == (OS_FLAG_GRP *)0) {                        /* Validate 'pgrp'                          */
    34e4:	e0bff617 	ldw	r2,-40(fp)
    34e8:	1000051e 	bne	r2,zero,3500 <OSFlagDel+0x40>
        *perr = OS_ERR_FLAG_INVALID_PGRP;
    34ec:	e0bff417 	ldw	r2,-48(fp)
    34f0:	00c01b84 	movi	r3,110
    34f4:	10c00005 	stb	r3,0(r2)
        return (pgrp);
    34f8:	e0bff617 	ldw	r2,-40(fp)
    34fc:	00007c06 	br	36f0 <OSFlagDel+0x230>
    }
#endif

    OS_TRACE_FLAG_DEL_ENTER(pgrp, opt);

    if (OSIntNesting > 0u) {                               /* See if called from ISR ...               */
    3500:	d0aa3743 	ldbu	r2,-22307(gp)
    3504:	10803fcc 	andi	r2,r2,255
    3508:	10000526 	beq	r2,zero,3520 <OSFlagDel+0x60>
        *perr = OS_ERR_DEL_ISR;                            /* ... can't DELETE from an ISR             */
    350c:	e0bff417 	ldw	r2,-48(fp)
    3510:	00c003c4 	movi	r3,15
    3514:	10c00005 	stb	r3,0(r2)
        OS_TRACE_FLAG_DEL_EXIT(*perr);
        return (pgrp);
    3518:	e0bff617 	ldw	r2,-40(fp)
    351c:	00007406 	br	36f0 <OSFlagDel+0x230>
    }
    if (pgrp->OSFlagType != OS_EVENT_TYPE_FLAG) {          /* Validate event group type                */
    3520:	e0bff617 	ldw	r2,-40(fp)
    3524:	10800003 	ldbu	r2,0(r2)
    3528:	10803fcc 	andi	r2,r2,255
    352c:	10800160 	cmpeqi	r2,r2,5
    3530:	1000051e 	bne	r2,zero,3548 <OSFlagDel+0x88>
        *perr = OS_ERR_EVENT_TYPE;
    3534:	e0bff417 	ldw	r2,-48(fp)
    3538:	00c00044 	movi	r3,1
    353c:	10c00005 	stb	r3,0(r2)
        OS_TRACE_FLAG_DEL_EXIT(*perr);
        return (pgrp);
    3540:	e0bff617 	ldw	r2,-40(fp)
    3544:	00006a06 	br	36f0 <OSFlagDel+0x230>
  NIOS2_READ_STATUS (context);
    3548:	0005303a 	rdctl	r2,status
    354c:	e0bffb15 	stw	r2,-20(fp)
  NIOS2_WRITE_STATUS (context & ~NIOS2_STATUS_PIE_MSK);
    3550:	e0fffb17 	ldw	r3,-20(fp)
    3554:	00bfff84 	movi	r2,-2
    3558:	1884703a 	and	r2,r3,r2
    355c:	1001703a 	wrctl	status,r2
  return context;
    3560:	e0bffb17 	ldw	r2,-20(fp)
    }
    OS_ENTER_CRITICAL();
    3564:	e0bffc15 	stw	r2,-16(fp)
    if (pgrp->OSFlagWaitList != (void *)0) {               /* See if any tasks waiting on event flags  */
    3568:	e0bff617 	ldw	r2,-40(fp)
    356c:	10800117 	ldw	r2,4(r2)
    3570:	10000326 	beq	r2,zero,3580 <OSFlagDel+0xc0>
        tasks_waiting = OS_TRUE;                           /* Yes                                      */
    3574:	00800044 	movi	r2,1
    3578:	e0bfffc5 	stb	r2,-1(fp)
    357c:	00000106 	br	3584 <OSFlagDel+0xc4>
    } else {
        tasks_waiting = OS_FALSE;                          /* No                                       */
    3580:	e03fffc5 	stb	zero,-1(fp)
    }
    switch (opt) {
    3584:	e0bff503 	ldbu	r2,-44(fp)
    3588:	10000326 	beq	r2,zero,3598 <OSFlagDel+0xd8>
    358c:	10800060 	cmpeqi	r2,r2,1
    3590:	1000241e 	bne	r2,zero,3624 <OSFlagDel+0x164>
    3594:	00004a06 	br	36c0 <OSFlagDel+0x200>
        case OS_DEL_NO_PEND:                               /* Delete group if no task waiting          */
             if (tasks_waiting == OS_FALSE) {
    3598:	e0bfffc3 	ldbu	r2,-1(fp)
    359c:	1000161e 	bne	r2,zero,35f8 <OSFlagDel+0x138>
#if OS_FLAG_NAME_EN > 0u
                 pgrp->OSFlagName     = (INT8U *)(void *)"?";
    35a0:	e0fff617 	ldw	r3,-40(fp)
    35a4:	00800074 	movhi	r2,1
    35a8:	10ae5404 	addi	r2,r2,-18096
    35ac:	18800315 	stw	r2,12(r3)
#endif
                 pgrp->OSFlagType     = OS_EVENT_TYPE_UNUSED;
    35b0:	e0bff617 	ldw	r2,-40(fp)
    35b4:	10000005 	stb	zero,0(r2)
                 pgrp->OSFlagWaitList = (void *)OSFlagFreeList; /* Return group to free list           */
    35b8:	d0ea3317 	ldw	r3,-22324(gp)
    35bc:	e0bff617 	ldw	r2,-40(fp)
    35c0:	10c00115 	stw	r3,4(r2)
                 pgrp->OSFlagFlags    = (OS_FLAGS)0;
    35c4:	e0bff617 	ldw	r2,-40(fp)
    35c8:	1000020d 	sth	zero,8(r2)
                 OSFlagFreeList       = pgrp;
    35cc:	e0bff617 	ldw	r2,-40(fp)
    35d0:	d0aa3315 	stw	r2,-22324(gp)
    35d4:	e0bffc17 	ldw	r2,-16(fp)
    35d8:	e0bffa15 	stw	r2,-24(fp)
  NIOS2_WRITE_STATUS (context);
    35dc:	e0bffa17 	ldw	r2,-24(fp)
    35e0:	1001703a 	wrctl	status,r2
}
    35e4:	0001883a 	nop
                 OS_EXIT_CRITICAL();
                 *perr                = OS_ERR_NONE;
    35e8:	e0bff417 	ldw	r2,-48(fp)
    35ec:	10000005 	stb	zero,0(r2)
                 pgrp_return          = (OS_FLAG_GRP *)0;  /* Event Flag Group has been deleted        */
    35f0:	e03ffd15 	stw	zero,-12(fp)
             } else {
                 OS_EXIT_CRITICAL();
                 *perr                = OS_ERR_TASK_WAITING;
                 pgrp_return          = pgrp;
             }
             break;
    35f4:	00003d06 	br	36ec <OSFlagDel+0x22c>
    35f8:	e0bffc17 	ldw	r2,-16(fp)
    35fc:	e0bff915 	stw	r2,-28(fp)
  NIOS2_WRITE_STATUS (context);
    3600:	e0bff917 	ldw	r2,-28(fp)
    3604:	1001703a 	wrctl	status,r2
}
    3608:	0001883a 	nop
                 *perr                = OS_ERR_TASK_WAITING;
    360c:	e0bff417 	ldw	r2,-48(fp)
    3610:	00c01244 	movi	r3,73
    3614:	10c00005 	stb	r3,0(r2)
                 pgrp_return          = pgrp;
    3618:	e0bff617 	ldw	r2,-40(fp)
    361c:	e0bffd15 	stw	r2,-12(fp)
             break;
    3620:	00003206 	br	36ec <OSFlagDel+0x22c>

        case OS_DEL_ALWAYS:                                /* Always delete the event flag group       */
             pnode = (OS_FLAG_NODE *)pgrp->OSFlagWaitList;
    3624:	e0bff617 	ldw	r2,-40(fp)
    3628:	10800117 	ldw	r2,4(r2)
    362c:	e0bffe15 	stw	r2,-8(fp)
             while (pnode != (OS_FLAG_NODE *)0) {          /* Ready ALL tasks waiting for flags        */
    3630:	00000706 	br	3650 <OSFlagDel+0x190>
                 (void)OS_FlagTaskRdy(pnode, (OS_FLAGS)0, OS_STAT_PEND_ABORT);
    3634:	01800084 	movi	r6,2
    3638:	000b883a 	mov	r5,zero
    363c:	e13ffe17 	ldw	r4,-8(fp)
    3640:	00046200 	call	4620 <OS_FlagTaskRdy>
                 pnode = (OS_FLAG_NODE *)pnode->OSFlagNodeNext;
    3644:	e0bffe17 	ldw	r2,-8(fp)
    3648:	10800017 	ldw	r2,0(r2)
    364c:	e0bffe15 	stw	r2,-8(fp)
             while (pnode != (OS_FLAG_NODE *)0) {          /* Ready ALL tasks waiting for flags        */
    3650:	e0bffe17 	ldw	r2,-8(fp)
    3654:	103ff71e 	bne	r2,zero,3634 <OSFlagDel+0x174>
             }
#if OS_FLAG_NAME_EN > 0u
             pgrp->OSFlagName     = (INT8U *)(void *)"?";
    3658:	e0fff617 	ldw	r3,-40(fp)
    365c:	00800074 	movhi	r2,1
    3660:	10ae5404 	addi	r2,r2,-18096
    3664:	18800315 	stw	r2,12(r3)
#endif
             pgrp->OSFlagType     = OS_EVENT_TYPE_UNUSED;
    3668:	e0bff617 	ldw	r2,-40(fp)
    366c:	10000005 	stb	zero,0(r2)
             pgrp->OSFlagWaitList = (void *)OSFlagFreeList;/* Return group to free list                */
    3670:	d0ea3317 	ldw	r3,-22324(gp)
    3674:	e0bff617 	ldw	r2,-40(fp)
    3678:	10c00115 	stw	r3,4(r2)
             pgrp->OSFlagFlags    = (OS_FLAGS)0;
    367c:	e0bff617 	ldw	r2,-40(fp)
    3680:	1000020d 	sth	zero,8(r2)
             OSFlagFreeList       = pgrp;
    3684:	e0bff617 	ldw	r2,-40(fp)
    3688:	d0aa3315 	stw	r2,-22324(gp)
    368c:	e0bffc17 	ldw	r2,-16(fp)
    3690:	e0bff815 	stw	r2,-32(fp)
  NIOS2_WRITE_STATUS (context);
    3694:	e0bff817 	ldw	r2,-32(fp)
    3698:	1001703a 	wrctl	status,r2
}
    369c:	0001883a 	nop
             OS_EXIT_CRITICAL();
             if (tasks_waiting == OS_TRUE) {               /* Reschedule only if task(s) were waiting  */
    36a0:	e0bfffc3 	ldbu	r2,-1(fp)
    36a4:	10800058 	cmpnei	r2,r2,1
    36a8:	1000011e 	bne	r2,zero,36b0 <OSFlagDel+0x1f0>
                 OS_Sched();                               /* Find highest priority task ready to run  */
    36ac:	00027a00 	call	27a0 <OS_Sched>
             }
             *perr = OS_ERR_NONE;
    36b0:	e0bff417 	ldw	r2,-48(fp)
    36b4:	10000005 	stb	zero,0(r2)
             pgrp_return          = (OS_FLAG_GRP *)0;      /* Event Flag Group has been deleted        */
    36b8:	e03ffd15 	stw	zero,-12(fp)
             break;
    36bc:	00000b06 	br	36ec <OSFlagDel+0x22c>
    36c0:	e0bffc17 	ldw	r2,-16(fp)
    36c4:	e0bff715 	stw	r2,-36(fp)
  NIOS2_WRITE_STATUS (context);
    36c8:	e0bff717 	ldw	r2,-36(fp)
    36cc:	1001703a 	wrctl	status,r2
}
    36d0:	0001883a 	nop

        default:
             OS_EXIT_CRITICAL();
             *perr                = OS_ERR_INVALID_OPT;
    36d4:	e0bff417 	ldw	r2,-48(fp)
    36d8:	00c001c4 	movi	r3,7
    36dc:	10c00005 	stb	r3,0(r2)
             pgrp_return          = pgrp;
    36e0:	e0bff617 	ldw	r2,-40(fp)
    36e4:	e0bffd15 	stw	r2,-12(fp)
             break;
    36e8:	0001883a 	nop
    }

    OS_TRACE_FLAG_DEL_EXIT(*perr);

    return (pgrp_return);
    36ec:	e0bffd17 	ldw	r2,-12(fp)
}
    36f0:	e037883a 	mov	sp,fp
    36f4:	dfc00117 	ldw	ra,4(sp)
    36f8:	df000017 	ldw	fp,0(sp)
    36fc:	dec00204 	addi	sp,sp,8
    3700:	f800283a 	ret

00003704 <OSFlagNameGet>:

#if OS_FLAG_NAME_EN > 0u
INT8U  OSFlagNameGet (OS_FLAG_GRP   *pgrp,
                      INT8U        **pname,
                      INT8U         *perr)
{
    3704:	defff604 	addi	sp,sp,-40
    3708:	dfc00915 	stw	ra,36(sp)
    370c:	df000815 	stw	fp,32(sp)
    3710:	df000804 	addi	fp,sp,32
    3714:	e13ffa15 	stw	r4,-24(fp)
    3718:	e17ff915 	stw	r5,-28(fp)
    371c:	e1bff815 	stw	r6,-32(fp)
    INT8U      len;
#if OS_CRITICAL_METHOD == 3u                     /* Allocate storage for CPU status register           */
    OS_CPU_SR  cpu_sr = 0u;
    3720:	e03fff15 	stw	zero,-4(fp)
        return (0u);
    }
#endif

#if OS_ARG_CHK_EN > 0u
    if (pgrp == (OS_FLAG_GRP *)0) {              /* Is 'pgrp' a NULL pointer?                          */
    3724:	e0bffa17 	ldw	r2,-24(fp)
    3728:	1000051e 	bne	r2,zero,3740 <OSFlagNameGet+0x3c>
        *perr = OS_ERR_FLAG_INVALID_PGRP;
    372c:	e0bff817 	ldw	r2,-32(fp)
    3730:	00c01b84 	movi	r3,110
    3734:	10c00005 	stb	r3,0(r2)
        return (0u);
    3738:	0005883a 	mov	r2,zero
    373c:	00003706 	br	381c <OSFlagNameGet+0x118>
    }
    if (pname == (INT8U **)0) {                   /* Is 'pname' a NULL pointer?                         */
    3740:	e0bff917 	ldw	r2,-28(fp)
    3744:	1000051e 	bne	r2,zero,375c <OSFlagNameGet+0x58>
        *perr = OS_ERR_PNAME_NULL;
    3748:	e0bff817 	ldw	r2,-32(fp)
    374c:	00c00304 	movi	r3,12
    3750:	10c00005 	stb	r3,0(r2)
        return (0u);
    3754:	0005883a 	mov	r2,zero
    3758:	00003006 	br	381c <OSFlagNameGet+0x118>
    }
#endif
    if (OSIntNesting > 0u) {                     /* See if trying to call from an ISR                  */
    375c:	d0aa3743 	ldbu	r2,-22307(gp)
    3760:	10803fcc 	andi	r2,r2,255
    3764:	10000526 	beq	r2,zero,377c <OSFlagNameGet+0x78>
        *perr = OS_ERR_NAME_GET_ISR;
    3768:	e0bff817 	ldw	r2,-32(fp)
    376c:	00c00444 	movi	r3,17
    3770:	10c00005 	stb	r3,0(r2)
        return (0u);
    3774:	0005883a 	mov	r2,zero
    3778:	00002806 	br	381c <OSFlagNameGet+0x118>
  NIOS2_READ_STATUS (context);
    377c:	0005303a 	rdctl	r2,status
    3780:	e0bffd15 	stw	r2,-12(fp)
  NIOS2_WRITE_STATUS (context & ~NIOS2_STATUS_PIE_MSK);
    3784:	e0fffd17 	ldw	r3,-12(fp)
    3788:	00bfff84 	movi	r2,-2
    378c:	1884703a 	and	r2,r3,r2
    3790:	1001703a 	wrctl	status,r2
  return context;
    3794:	e0bffd17 	ldw	r2,-12(fp)
    }
    OS_ENTER_CRITICAL();
    3798:	e0bfff15 	stw	r2,-4(fp)
    if (pgrp->OSFlagType != OS_EVENT_TYPE_FLAG) {
    379c:	e0bffa17 	ldw	r2,-24(fp)
    37a0:	10800003 	ldbu	r2,0(r2)
    37a4:	10803fcc 	andi	r2,r2,255
    37a8:	10800160 	cmpeqi	r2,r2,5
    37ac:	10000a1e 	bne	r2,zero,37d8 <OSFlagNameGet+0xd4>
    37b0:	e0bfff17 	ldw	r2,-4(fp)
    37b4:	e0bffc15 	stw	r2,-16(fp)
  NIOS2_WRITE_STATUS (context);
    37b8:	e0bffc17 	ldw	r2,-16(fp)
    37bc:	1001703a 	wrctl	status,r2
}
    37c0:	0001883a 	nop
        OS_EXIT_CRITICAL();
        *perr = OS_ERR_EVENT_TYPE;
    37c4:	e0bff817 	ldw	r2,-32(fp)
    37c8:	00c00044 	movi	r3,1
    37cc:	10c00005 	stb	r3,0(r2)
        return (0u);
    37d0:	0005883a 	mov	r2,zero
    37d4:	00001106 	br	381c <OSFlagNameGet+0x118>
    }
    *pname = pgrp->OSFlagName;
    37d8:	e0bffa17 	ldw	r2,-24(fp)
    37dc:	10c00317 	ldw	r3,12(r2)
    37e0:	e0bff917 	ldw	r2,-28(fp)
    37e4:	10c00015 	stw	r3,0(r2)
    len    = OS_StrLen(*pname);
    37e8:	e0bff917 	ldw	r2,-28(fp)
    37ec:	10800017 	ldw	r2,0(r2)
    37f0:	1009883a 	mov	r4,r2
    37f4:	00028d80 	call	28d8 <OS_StrLen>
    37f8:	e0bffec5 	stb	r2,-5(fp)
    37fc:	e0bfff17 	ldw	r2,-4(fp)
    3800:	e0bffb15 	stw	r2,-20(fp)
  NIOS2_WRITE_STATUS (context);
    3804:	e0bffb17 	ldw	r2,-20(fp)
    3808:	1001703a 	wrctl	status,r2
}
    380c:	0001883a 	nop
    OS_EXIT_CRITICAL();
    *perr  = OS_ERR_NONE;
    3810:	e0bff817 	ldw	r2,-32(fp)
    3814:	10000005 	stb	zero,0(r2)
    return (len);
    3818:	e0bffec3 	ldbu	r2,-5(fp)
}
    381c:	e037883a 	mov	sp,fp
    3820:	dfc00117 	ldw	ra,4(sp)
    3824:	df000017 	ldw	fp,0(sp)
    3828:	dec00204 	addi	sp,sp,8
    382c:	f800283a 	ret

00003830 <OSFlagNameSet>:

#if OS_FLAG_NAME_EN > 0u
void  OSFlagNameSet (OS_FLAG_GRP  *pgrp,
                     INT8U        *pname,
                     INT8U        *perr)
{
    3830:	defff804 	addi	sp,sp,-32
    3834:	df000715 	stw	fp,28(sp)
    3838:	df000704 	addi	fp,sp,28
    383c:	e13ffb15 	stw	r4,-20(fp)
    3840:	e17ffa15 	stw	r5,-24(fp)
    3844:	e1bff915 	stw	r6,-28(fp)
#if OS_CRITICAL_METHOD == 3u                     /* Allocate storage for CPU status register           */
    OS_CPU_SR  cpu_sr = 0u;
    3848:	e03fff15 	stw	zero,-4(fp)
        return;
    }
#endif

#if OS_ARG_CHK_EN > 0u
    if (pgrp == (OS_FLAG_GRP *)0) {              /* Is 'pgrp' a NULL pointer?                          */
    384c:	e0bffb17 	ldw	r2,-20(fp)
    3850:	1000041e 	bne	r2,zero,3864 <OSFlagNameSet+0x34>
        *perr = OS_ERR_FLAG_INVALID_PGRP;
    3854:	e0bff917 	ldw	r2,-28(fp)
    3858:	00c01b84 	movi	r3,110
    385c:	10c00005 	stb	r3,0(r2)
        return;
    3860:	00002e06 	br	391c <OSFlagNameSet+0xec>
    }
    if (pname == (INT8U *)0) {                   /* Is 'pname' a NULL pointer?                         */
    3864:	e0bffa17 	ldw	r2,-24(fp)
    3868:	1000041e 	bne	r2,zero,387c <OSFlagNameSet+0x4c>
        *perr = OS_ERR_PNAME_NULL;
    386c:	e0bff917 	ldw	r2,-28(fp)
    3870:	00c00304 	movi	r3,12
    3874:	10c00005 	stb	r3,0(r2)
        return;
    3878:	00002806 	br	391c <OSFlagNameSet+0xec>
    }
#endif
    if (OSIntNesting > 0u) {                     /* See if trying to call from an ISR                  */
    387c:	d0aa3743 	ldbu	r2,-22307(gp)
    3880:	10803fcc 	andi	r2,r2,255
    3884:	10000426 	beq	r2,zero,3898 <OSFlagNameSet+0x68>
        *perr = OS_ERR_NAME_SET_ISR;
    3888:	e0bff917 	ldw	r2,-28(fp)
    388c:	00c00484 	movi	r3,18
    3890:	10c00005 	stb	r3,0(r2)
        return;
    3894:	00002106 	br	391c <OSFlagNameSet+0xec>
  NIOS2_READ_STATUS (context);
    3898:	0005303a 	rdctl	r2,status
    389c:	e0bffe15 	stw	r2,-8(fp)
  NIOS2_WRITE_STATUS (context & ~NIOS2_STATUS_PIE_MSK);
    38a0:	e0fffe17 	ldw	r3,-8(fp)
    38a4:	00bfff84 	movi	r2,-2
    38a8:	1884703a 	and	r2,r3,r2
    38ac:	1001703a 	wrctl	status,r2
  return context;
    38b0:	e0bffe17 	ldw	r2,-8(fp)
    }
    OS_ENTER_CRITICAL();
    38b4:	e0bfff15 	stw	r2,-4(fp)
    if (pgrp->OSFlagType != OS_EVENT_TYPE_FLAG) {
    38b8:	e0bffb17 	ldw	r2,-20(fp)
    38bc:	10800003 	ldbu	r2,0(r2)
    38c0:	10803fcc 	andi	r2,r2,255
    38c4:	10800160 	cmpeqi	r2,r2,5
    38c8:	1000091e 	bne	r2,zero,38f0 <OSFlagNameSet+0xc0>
    38cc:	e0bfff17 	ldw	r2,-4(fp)
    38d0:	e0bffd15 	stw	r2,-12(fp)
  NIOS2_WRITE_STATUS (context);
    38d4:	e0bffd17 	ldw	r2,-12(fp)
    38d8:	1001703a 	wrctl	status,r2
}
    38dc:	0001883a 	nop
        OS_EXIT_CRITICAL();
        *perr = OS_ERR_EVENT_TYPE;
    38e0:	e0bff917 	ldw	r2,-28(fp)
    38e4:	00c00044 	movi	r3,1
    38e8:	10c00005 	stb	r3,0(r2)
        return;
    38ec:	00000b06 	br	391c <OSFlagNameSet+0xec>
    }
    pgrp->OSFlagName = pname;
    38f0:	e0bffb17 	ldw	r2,-20(fp)
    38f4:	e0fffa17 	ldw	r3,-24(fp)
    38f8:	10c00315 	stw	r3,12(r2)
    38fc:	e0bfff17 	ldw	r2,-4(fp)
    3900:	e0bffc15 	stw	r2,-16(fp)
  NIOS2_WRITE_STATUS (context);
    3904:	e0bffc17 	ldw	r2,-16(fp)
    3908:	1001703a 	wrctl	status,r2
}
    390c:	0001883a 	nop
    OS_EXIT_CRITICAL();
    OS_TRACE_EVENT_NAME_SET(pgrp, pname);
    *perr            = OS_ERR_NONE;
    3910:	e0bff917 	ldw	r2,-28(fp)
    3914:	10000005 	stb	zero,0(r2)
    return;
    3918:	0001883a 	nop
}
    391c:	e037883a 	mov	sp,fp
    3920:	df000017 	ldw	fp,0(sp)
    3924:	dec00104 	addi	sp,sp,4
    3928:	f800283a 	ret

0000392c <OSFlagPend>:
OS_FLAGS  OSFlagPend (OS_FLAG_GRP  *pgrp,
                      OS_FLAGS      flags,
                      INT8U         wait_type,
                      INT32U        timeout,
                      INT8U        *perr)
{
    392c:	deffe204 	addi	sp,sp,-120
    3930:	dfc01d15 	stw	ra,116(sp)
    3934:	df001c15 	stw	fp,112(sp)
    3938:	df001c04 	addi	fp,sp,112
    393c:	e13fe815 	stw	r4,-96(fp)
    3940:	2805883a 	mov	r2,r5
    3944:	3007883a 	mov	r3,r6
    3948:	e1ffe515 	stw	r7,-108(fp)
    394c:	e0bfe70d 	sth	r2,-100(fp)
    3950:	1805883a 	mov	r2,r3
    3954:	e0bfe605 	stb	r2,-104(fp)
    OS_FLAGS      flags_rdy;
    INT8U         result;
    INT8U         pend_stat;
    BOOLEAN       consume;
#if OS_CRITICAL_METHOD == 3u                               /* Allocate storage for CPU status register */
    OS_CPU_SR     cpu_sr = 0u;
    3958:	e03ffe15 	stw	zero,-8(fp)
        return ((OS_FLAGS)0);
    }
#endif

#if OS_ARG_CHK_EN > 0u
    if (pgrp == (OS_FLAG_GRP *)0) {                        /* Validate 'pgrp'                          */
    395c:	e0bfe817 	ldw	r2,-96(fp)
    3960:	1000051e 	bne	r2,zero,3978 <OSFlagPend+0x4c>
        *perr = OS_ERR_FLAG_INVALID_PGRP;
    3964:	e0800217 	ldw	r2,8(fp)
    3968:	00c01b84 	movi	r3,110
    396c:	10c00005 	stb	r3,0(r2)
        return ((OS_FLAGS)0);
    3970:	0005883a 	mov	r2,zero
    3974:	00015e06 	br	3ef0 <OSFlagPend+0x5c4>
    }
#endif

    OS_TRACE_FLAG_PEND_ENTER(pgrp, flags, timeout, wait_type);

    if (OSIntNesting > 0u) {                               /* See if called from ISR ...               */
    3978:	d0aa3743 	ldbu	r2,-22307(gp)
    397c:	10803fcc 	andi	r2,r2,255
    3980:	10000526 	beq	r2,zero,3998 <OSFlagPend+0x6c>
        *perr = OS_ERR_PEND_ISR;                           /* ... can't PEND from an ISR               */
    3984:	e0800217 	ldw	r2,8(fp)
    3988:	00c00084 	movi	r3,2
    398c:	10c00005 	stb	r3,0(r2)
        OS_TRACE_FLAG_PEND_EXIT(*perr);
        return ((OS_FLAGS)0);
    3990:	0005883a 	mov	r2,zero
    3994:	00015606 	br	3ef0 <OSFlagPend+0x5c4>
    }
    if (OSLockNesting > 0u) {                              /* See if called with scheduler locked ...  */
    3998:	d0aa3783 	ldbu	r2,-22306(gp)
    399c:	10803fcc 	andi	r2,r2,255
    39a0:	10000526 	beq	r2,zero,39b8 <OSFlagPend+0x8c>
        *perr = OS_ERR_PEND_LOCKED;                        /* ... can't PEND when locked               */
    39a4:	e0800217 	ldw	r2,8(fp)
    39a8:	00c00344 	movi	r3,13
    39ac:	10c00005 	stb	r3,0(r2)
        OS_TRACE_FLAG_PEND_EXIT(*perr);
        return ((OS_FLAGS)0);
    39b0:	0005883a 	mov	r2,zero
    39b4:	00014e06 	br	3ef0 <OSFlagPend+0x5c4>
    }
    if (pgrp->OSFlagType != OS_EVENT_TYPE_FLAG) {          /* Validate event block type                */
    39b8:	e0bfe817 	ldw	r2,-96(fp)
    39bc:	10800003 	ldbu	r2,0(r2)
    39c0:	10803fcc 	andi	r2,r2,255
    39c4:	10800160 	cmpeqi	r2,r2,5
    39c8:	1000051e 	bne	r2,zero,39e0 <OSFlagPend+0xb4>
        *perr = OS_ERR_EVENT_TYPE;
    39cc:	e0800217 	ldw	r2,8(fp)
    39d0:	00c00044 	movi	r3,1
    39d4:	10c00005 	stb	r3,0(r2)
        OS_TRACE_FLAG_PEND_EXIT(*perr);
        return ((OS_FLAGS)0);
    39d8:	0005883a 	mov	r2,zero
    39dc:	00014406 	br	3ef0 <OSFlagPend+0x5c4>
    }
    result = (INT8U)(wait_type & OS_FLAG_CONSUME);
    39e0:	e0ffe603 	ldbu	r3,-104(fp)
    39e4:	00bfe004 	movi	r2,-128
    39e8:	1884703a 	and	r2,r3,r2
    39ec:	e0bffdc5 	stb	r2,-9(fp)
    if (result != (INT8U)0) {                              /* See if we need to consume the flags      */
    39f0:	e0bffdc3 	ldbu	r2,-9(fp)
    39f4:	10000626 	beq	r2,zero,3a10 <OSFlagPend+0xe4>
        wait_type &= (INT8U)~(INT8U)OS_FLAG_CONSUME;
    39f8:	e0bfe603 	ldbu	r2,-104(fp)
    39fc:	10801fcc 	andi	r2,r2,127
    3a00:	e0bfe605 	stb	r2,-104(fp)
        consume    = OS_TRUE;
    3a04:	00800044 	movi	r2,1
    3a08:	e0bfffc5 	stb	r2,-1(fp)
    3a0c:	00000106 	br	3a14 <OSFlagPend+0xe8>
    } else {
        consume    = OS_FALSE;
    3a10:	e03fffc5 	stb	zero,-1(fp)
  NIOS2_READ_STATUS (context);
    3a14:	0005303a 	rdctl	r2,status
    3a18:	e0bffb15 	stw	r2,-20(fp)
  NIOS2_WRITE_STATUS (context & ~NIOS2_STATUS_PIE_MSK);
    3a1c:	e0fffb17 	ldw	r3,-20(fp)
    3a20:	00bfff84 	movi	r2,-2
    3a24:	1884703a 	and	r2,r3,r2
    3a28:	1001703a 	wrctl	status,r2
  return context;
    3a2c:	e0bffb17 	ldw	r2,-20(fp)
    }

    OS_ENTER_CRITICAL();
    3a30:	e0bffe15 	stw	r2,-8(fp)
    switch (wait_type) {
    3a34:	e0bfe603 	ldbu	r2,-104(fp)
    3a38:	10c000e0 	cmpeqi	r3,r2,3
    3a3c:	1800391e 	bne	r3,zero,3b24 <OSFlagPend+0x1f8>
    3a40:	10c00108 	cmpgei	r3,r2,4
    3a44:	1800c41e 	bne	r3,zero,3d58 <OSFlagPend+0x42c>
    3a48:	10c000a0 	cmpeqi	r3,r2,2
    3a4c:	1800061e 	bne	r3,zero,3a68 <OSFlagPend+0x13c>
    3a50:	10c000c8 	cmpgei	r3,r2,3
    3a54:	1800c01e 	bne	r3,zero,3d58 <OSFlagPend+0x42c>
    3a58:	10006026 	beq	r2,zero,3bdc <OSFlagPend+0x2b0>
    3a5c:	10800060 	cmpeqi	r2,r2,1
    3a60:	10008e1e 	bne	r2,zero,3c9c <OSFlagPend+0x370>
    3a64:	0000bc06 	br	3d58 <OSFlagPend+0x42c>
        case OS_FLAG_WAIT_SET_ALL:                         /* See if all required flags are set        */
             flags_rdy = (OS_FLAGS)(pgrp->OSFlagFlags & flags);   /* Extract only the bits we want     */
    3a68:	e0bfe817 	ldw	r2,-96(fp)
    3a6c:	1080020b 	ldhu	r2,8(r2)
    3a70:	e0ffe70b 	ldhu	r3,-100(fp)
    3a74:	1884703a 	and	r2,r3,r2
    3a78:	e0bffd0d 	sth	r2,-12(fp)
             if (flags_rdy == flags) {                     /* Must match ALL the bits that we want     */
    3a7c:	e0fffd0b 	ldhu	r3,-12(fp)
    3a80:	e0bfe70b 	ldhu	r2,-100(fp)
    3a84:	1880171e 	bne	r3,r2,3ae4 <OSFlagPend+0x1b8>
                 if (consume == OS_TRUE) {                 /* See if we need to consume the flags      */
    3a88:	e0bfffc3 	ldbu	r2,-1(fp)
    3a8c:	10800058 	cmpnei	r2,r2,1
    3a90:	1000081e 	bne	r2,zero,3ab4 <OSFlagPend+0x188>
                     pgrp->OSFlagFlags &= (OS_FLAGS)~flags_rdy;   /* Clear ONLY the flags we wanted    */
    3a94:	e0bfe817 	ldw	r2,-96(fp)
    3a98:	1080020b 	ldhu	r2,8(r2)
    3a9c:	e0fffd0b 	ldhu	r3,-12(fp)
    3aa0:	00c6303a 	nor	r3,zero,r3
    3aa4:	10c4703a 	and	r2,r2,r3
    3aa8:	1007883a 	mov	r3,r2
    3aac:	e0bfe817 	ldw	r2,-96(fp)
    3ab0:	10c0020d 	sth	r3,8(r2)
                 }
                 OSTCBCur->OSTCBFlagsRdy = flags_rdy;      /* Save flags that were ready               */
    3ab4:	d0aa3b17 	ldw	r2,-22292(gp)
    3ab8:	e0fffd0b 	ldhu	r3,-12(fp)
    3abc:	10c00c0d 	sth	r3,48(r2)
    3ac0:	e0bffe17 	ldw	r2,-8(fp)
    3ac4:	e0bffa15 	stw	r2,-24(fp)
  NIOS2_WRITE_STATUS (context);
    3ac8:	e0bffa17 	ldw	r2,-24(fp)
    3acc:	1001703a 	wrctl	status,r2
}
    3ad0:	0001883a 	nop
                 OS_EXIT_CRITICAL();                       /* Yes, condition met, return to caller     */
                 *perr                   = OS_ERR_NONE;
    3ad4:	e0800217 	ldw	r2,8(fp)
    3ad8:	10000005 	stb	zero,0(r2)
                 OS_TRACE_FLAG_PEND_EXIT(*perr);
                 return (flags_rdy);
    3adc:	e0bffd0b 	ldhu	r2,-12(fp)
    3ae0:	00010306 	br	3ef0 <OSFlagPend+0x5c4>
             } else {                                      /* Block task until events occur or timeout */
                 OS_FlagBlock(pgrp, &node, flags, wait_type, timeout);
    3ae4:	e13fe70b 	ldhu	r4,-100(fp)
    3ae8:	e17fe603 	ldbu	r5,-104(fp)
    3aec:	e0ffe904 	addi	r3,fp,-92
    3af0:	e0bfe517 	ldw	r2,-108(fp)
    3af4:	d8800015 	stw	r2,0(sp)
    3af8:	280f883a 	mov	r7,r5
    3afc:	200d883a 	mov	r6,r4
    3b00:	180b883a 	mov	r5,r3
    3b04:	e13fe817 	ldw	r4,-96(fp)
    3b08:	00043c80 	call	43c8 <OS_FlagBlock>
    3b0c:	e0bffe17 	ldw	r2,-8(fp)
    3b10:	e0bff915 	stw	r2,-28(fp)
  NIOS2_WRITE_STATUS (context);
    3b14:	e0bff917 	ldw	r2,-28(fp)
    3b18:	1001703a 	wrctl	status,r2
}
    3b1c:	0001883a 	nop
                 OS_EXIT_CRITICAL();
             }
             break;
    3b20:	00009806 	br	3d84 <OSFlagPend+0x458>

        case OS_FLAG_WAIT_SET_ANY:
