
hello_ucos.elf:     file format elf32-littlenios2
hello_ucos.elf
architecture: nios2:r1, flags 0x00000112:
EXEC_P, HAS_SYMS, D_PAGED
start address 0x00000238

Program Header:
    LOAD off    0x00001000 vaddr 0x00000000 paddr 0x00000000 align 2**12
         filesz 0x00000020 memsz 0x00000020 flags r-x
    LOAD off    0x00001020 vaddr 0x00000020 paddr 0x00000020 align 2**12
         filesz 0x0000eac4 memsz 0x0000eac4 flags r-x
    LOAD off    0x0000fae4 vaddr 0x0000eae4 paddr 0x000116e8 align 2**12
         filesz 0x00002c04 memsz 0x00002c04 flags rw-
    LOAD off    0x000002ec vaddr 0x000142ec paddr 0x000142ec align 2**12
         filesz 0x00000000 memsz 0x000069a8 flags rw-

Sections:
Idx Name          Size      VMA       LMA       File off  Algn
  0 .entry        00000020  00000000  00000000  00001000  2**5
                  CONTENTS, ALLOC, LOAD, READONLY, CODE
  1 .exceptions   00000218  00000020  00000020  00001020  2**2
                  CONTENTS, ALLOC, LOAD, READONLY, CODE
  2 .text         0000e4ec  00000238  00000238  00001238  2**2
                  CONTENTS, ALLOC, LOAD, READONLY, CODE
  3 .rodata       000003c0  0000e724  0000e724  0000f724  2**2
                  CONTENTS, ALLOC, LOAD, READONLY, DATA
  4 .rwdata       00002c04  0000eae4  000116e8  0000fae4  2**2
                  CONTENTS, ALLOC, LOAD, DATA, SMALL_DATA
  5 .bss          000069a8  000142ec  000142ec  000132ec  2**2
                  ALLOC, SMALL_DATA
  6 .sdram        00000000  0001ac94  0001ac94  000126e8  2**0
                  CONTENTS
  7 .onchip_sram  00000000  08000000  08000000  000126e8  2**0
                  CONTENTS
  8 .VGA_Char_Buf_Subsystem_Onchip_SRAM 00000000  09000000  09000000  000126e8  2**0
                  CONTENTS
  9 .comment      0000002d  00000000  00000000  000126e8  2**0
                  CONTENTS, READONLY
 10 .debug_aranges 00000be8  00000000  00000000  00012718  2**3
                  CONTENTS, READONLY, DEBUGGING, OCTETS
 11 .debug_info   00021427  00000000  00000000  00013300  2**0
                  CONTENTS, READONLY, DEBUGGING, OCTETS
 12 .debug_abbrev 000091e9  00000000  00000000  00034727  2**0
                  CONTENTS, READONLY, DEBUGGING, OCTETS
 13 .debug_line   00009a66  00000000  00000000  0003d910  2**0
                  CONTENTS, READONLY, DEBUGGING, OCTETS
 14 .debug_frame  000028b0  00000000  00000000  00047378  2**2
                  CONTENTS, READONLY, DEBUGGING, OCTETS
 15 .debug_str    00002ddb  00000000  00000000  00049c28  2**0
                  CONTENTS, READONLY, DEBUGGING, OCTETS
 16 .debug_alt_sim_info 00000030  00000000  00000000  0004ca04  2**2
                  CONTENTS, READONLY, DEBUGGING, OCTETS
 17 .debug_ranges 00000070  00000000  00000000  0004ca38  2**3
                  CONTENTS, READONLY, DEBUGGING, OCTETS
 18 .debug_line_str 0000162f  00000000  00000000  0004caa8  2**0
                  CONTENTS, READONLY, DEBUGGING, OCTETS
 19 .debug_loclists 00003fd8  00000000  00000000  0004e0d7  2**0
                  CONTENTS, READONLY, DEBUGGING, OCTETS
 20 .debug_rnglists 000005d0  00000000  00000000  000520af  2**0
                  CONTENTS, READONLY, DEBUGGING, OCTETS
 21 .thread_model 00000006  00000000  00000000  0005693a  2**0
                  CONTENTS, READONLY
 22 .cpu          00000005  00000000  00000000  00056940  2**0
                  CONTENTS, READONLY
 23 .qsys         00000001  00000000  00000000  00056945  2**0
                  CONTENTS, READONLY
 24 .simulation_enabled 00000001  00000000  00000000  00056946  2**0
                  CONTENTS, READONLY
 25 .stderr_dev   00000009  00000000  00000000  00056947  2**0
                  CONTENTS, READONLY
 26 .stdin_dev    00000009  00000000  00000000  00056950  2**0
                  CONTENTS, READONLY
 27 .stdout_dev   00000009  00000000  00000000  00056959  2**0
                  CONTENTS, READONLY
 28 .sopc_system_name 00000005  00000000  00000000  00056962  2**0
                  CONTENTS, READONLY
 29 .quartus_project_dir 0000001a  00000000  00000000  00056967  2**0
                  CONTENTS, READONLY
 30 .jdi          00004480  00000000  00000000  00056981  2**0
                  CONTENTS, READONLY
 31 .sopcinfo     000c2337  00000000  00000000  0005ae01  2**0
                  CONTENTS, READONLY
SYMBOL TABLE:
00000000 l    d  .entry	00000000 .entry
00000020 l    d  .exceptions	00000000 .exceptions
00000238 l    d  .text	00000000 .text
0000e724 l    d  .rodata	00000000 .rodata
0000eae4 l    d  .rwdata	00000000 .rwdata
000142ec l    d  .bss	00000000 .bss
0001ac94 l    d  .sdram	00000000 .sdram
08000000 l    d  .onchip_sram	00000000 .onchip_sram
09000000 l    d  .VGA_Char_Buf_Subsystem_Onchip_SRAM	00000000 .VGA_Char_Buf_Subsystem_Onchip_SRAM
00000000 l    d  .comment	00000000 .comment
00000000 l    d  .debug_aranges	00000000 .debug_aranges
00000000 l    d  .debug_info	00000000 .debug_info
00000000 l    d  .debug_abbrev	00000000 .debug_abbrev
00000000 l    d  .debug_line	00000000 .debug_line
00000000 l    d  .debug_frame	00000000 .debug_frame
00000000 l    d  .debug_str	00000000 .debug_str
00000000 l    d  .debug_alt_sim_info	00000000 .debug_alt_sim_info
00000000 l    d  .debug_ranges	00000000 .debug_ranges
00000000 l    d  .debug_line_str	00000000 .debug_line_str
00000000 l    d  .debug_loclists	00000000 .debug_loclists
00000000 l    d  .debug_rnglists	00000000 .debug_rnglists
00000000 l    df *ABS*	00000000 crt0.o
00000280 l       .text	00000000 alt_after_alt_main
00000000 l    df *ABS*	00000000 alt_irq_handler.c
00000000 l    df *ABS*	00000000 alt_instruction_exception_entry.c
00000000 l    df *ABS*	00000000 bsp.c
0000eae4 l     O .rwdata	00000010 szMap
00000000 l    df *ABS*	00000000 hello_ucosii.c
00000000 l    df *ABS*	00000000 rom8x8.c
00000000 l    df *ABS*	00000000 vgalib.c
000142ec l     O .bss	00000004 video_buffer
000142f0 l     O .bss	00000004 cur_x
000142f4 l     O .bss	00000004 cur_y
00000000 l    df *ABS*	00000000 puts.c
00000000 l    df *ABS*	00000000 strlen.c
00000000 l    df *ABS*	00000000 findfp.c
00000af0 l     F .text	00000008 __fp_lock
00000b04 l     F .text	00000008 __fp_unlock
00000b0c l     F .text	00000168 __sinit.part.0
00000000 l    df *ABS*	00000000 fvwrite.c
00000000 l    df *ABS*	00000000 fwalk.c
00000000 l    df *ABS*	00000000 impure.c
0000faf4 l     O .rwdata	00000424 impure_data
00000000 l    df *ABS*	00000000 mallocr.c
00000000 l    df *ABS*	00000000 memchr.c
00000000 l    df *ABS*	00000000 memcpy.c
00000000 l    df *ABS*	00000000 memmove.c
00000000 l    df *ABS*	00000000 memset.c
00000000 l    df *ABS*	00000000 mallocr.c
00000000 l    df *ABS*	00000000 sbrkr.c
00000000 l    df *ABS*	00000000 stdio.c
00000000 l    df *ABS*	00000000 writer.c
00000000 l    df *ABS*	00000000 wsetup.c
00000000 l    df *ABS*	00000000 closer.c
00000000 l    df *ABS*	00000000 fclose.c
00000000 l    df *ABS*	00000000 fflush.c
00000000 l    df *ABS*	00000000 mallocr.c
00000000 l    df *ABS*	00000000 int_errno.c
00000000 l    df *ABS*	00000000 lseekr.c
00000000 l    df *ABS*	00000000 makebuf.c
00000000 l    df *ABS*	00000000 readr.c
00000000 l    df *ABS*	00000000 fstatr.c
00000000 l    df *ABS*	00000000 isattyr.c
00000000 l    df *ABS*	00000000 lib2-divmod.c
00000000 l    df *ABS*	00000000 alt_close.c
00003708 l     F .text	0000003c alt_get_errno
00000000 l    df *ABS*	00000000 alt_dev.c
00003814 l     F .text	0000002c alt_dev_null_write
00000000 l    df *ABS*	00000000 alt_errno.c
00000000 l    df *ABS*	00000000 alt_fstat.c
00003840 l     F .text	0000003c alt_get_errno
00000000 l    df *ABS*	00000000 alt_isatty.c
0000392c l     F .text	0000003c alt_get_errno
00000000 l    df *ABS*	00000000 alt_load.c
00003a0c l     F .text	00000068 alt_load_section
00000000 l    df *ABS*	00000000 alt_lseek.c
00003af8 l     F .text	0000003c alt_get_errno
00000000 l    df *ABS*	00000000 alt_main.c
00000000 l    df *ABS*	00000000 alt_read.c
00003cc8 l     F .text	0000003c alt_get_errno
00000000 l    df *ABS*	00000000 alt_release_fd.c
00000000 l    df *ABS*	00000000 alt_sbrk.c
00011658 l     O .rwdata	00000004 heap_end
00000000 l    df *ABS*	00000000 alt_write.c
00003f10 l     F .text	0000003c alt_get_errno
00000000 l    df *ABS*	00000000 alt_env_lock.c
0001165c l     O .rwdata	00000004 lockid
0001431c l     O .bss	00000004 locks
00000000 l    df *ABS*	00000000 alt_malloc_lock.c
00011660 l     O .rwdata	00000004 lockid
00014324 l     O .bss	00000004 locks
00000000 l    df *ABS*	00000000 os_core.c
0000591c l     F .text	0000004c OS_InitMisc
00005968 l     F .text	00000064 OS_InitRdyList
00005ad4 l     F .text	00000100 OS_InitTCBList
00005820 l     F .text	000000fc OS_InitEventList
000059cc l     F .text	00000084 OS_InitTaskIdle
00005a50 l     F .text	00000084 OS_InitTaskStat
00005d64 l     F .text	0000006c OS_SchedNew
00000000 l    df *ABS*	00000000 os_dbg_r.c
00000000 l    df *ABS*	00000000 os_flag.c
00007b18 l     F .text	00000104 OS_FlagTaskRdy
000078c0 l     F .text	0000015c OS_FlagBlock
00000000 l    df *ABS*	00000000 os_mem.c
00000000 l    df *ABS*	00000000 os_q.c
00000000 l    df *ABS*	00000000 os_sem.c
00000000 l    df *ABS*	00000000 os_task.c
00000000 l    df *ABS*	00000000 os_time.c
00000000 l    df *ABS*	00000000 alt_sys_init.c
0000be10 l     F .text	00000034 alt_dev_reg
000104c8 l     O .rwdata	0000106c jtag_uart
00011534 l     O .rwdata	0000005c VGA_Char_Buf_Subsystem_Char_Buf_DMA
00011590 l     O .rwdata	0000005c VGA_VGA_Pixel_DMA
000115ec l     O .rwdata	00000044 VGA_VGA_Pixel_RGB_Resampler
00000000 l    df *ABS*	00000000 altera_avalon_jtag_uart_fd.c
00000000 l    df *ABS*	00000000 altera_avalon_jtag_uart_init.c
0000c664 l     F .text	000002ac altera_avalon_jtag_uart_irq
0000c910 l     F .text	0000010c altera_avalon_jtag_uart_timeout
00000000 l    df *ABS*	00000000 altera_avalon_jtag_uart_ioctl.c
00000000 l    df *ABS*	00000000 altera_avalon_jtag_uart_read.c
00000000 l    df *ABS*	00000000 altera_avalon_jtag_uart_write.c
00000000 l    df *ABS*	00000000 altera_avalon_timer_sc.c
0000d110 l     F .text	0000007c alt_avalon_timer_sc_irq
00000000 l    df *ABS*	00000000 alt_alarm_start.c
00000000 l    df *ABS*	00000000 alt_dcache_flush_all.c
00000000 l    df *ABS*	00000000 alt_dev_llist_insert.c
0000d3bc l     F .text	0000003c alt_get_errno
00000000 l    df *ABS*	00000000 alt_do_ctors.c
00000000 l    df *ABS*	00000000 alt_do_dtors.c
00000000 l    df *ABS*	00000000 alt_icache_flush_all.c
00000000 l    df *ABS*	00000000 alt_iic.c
00000000 l    df *ABS*	00000000 alt_iic_isr_register.c
00000000 l    df *ABS*	00000000 alt_io_redirect.c
0000d834 l     F .text	000000b0 alt_open_fd
00000000 l    df *ABS*	00000000 alt_irq_vars.c
00000000 l    df *ABS*	00000000 alt_open.c
0000d960 l     F .text	0000003c alt_get_errno
0000d99c l     F .text	000000b8 alt_file_locked
00000000 l    df *ABS*	00000000 alt_tick.c
00000000 l    df *ABS*	00000000 altera_nios2_gen2_irq.c
00000000 l    df *ABS*	00000000 os_cpu_a.o
00000040 l       *ABS*	00000000 OSCtxSw_SWITCH_PC
00000000 l    df *ABS*	00000000 os_cpu_c.c
00000014 l       *ABS*	00000000 OSTCBNext_OFFSET
0000003a l       *ABS*	00000000 OSTCBPrio_OFFSET
00000000 l       *ABS*	00000000 OSTCBStkPtr_OFFSET
00000000 l    df *ABS*	00000000 alt_find_dev.c
00000000 l    df *ABS*	00000000 alt_find_file.c
00000000 l    df *ABS*	00000000 alt_get_fd.c
00000000 l    df *ABS*	00000000 alt_icache_flush.c
00000000 l    df *ABS*	00000000 atexit.c
00000000 l    df *ABS*	00000000 exit.c
00000000 l    df *ABS*	00000000 memcmp.c
00000000 l    df *ABS*	00000000 __atexit.c
00000000 l    df *ABS*	00000000 __call_atexit.c
00000000 l    df *ABS*	00000000 alt_exit.c
00014384 g     O .bss	00000004 alt_instruction_exception_handler
000034fc g     F .text	00000058 _isatty_r
00003c08 g     F .text	000000c0 alt_main
0000097c g     F .text	000000cc _puts_r
0001ab94 g     O .bss	00000100 alt_irq
00003194 g     F .text	00000064 _lseek_r
000082ec g     F .text	000000dc OS_MemInit
000116e8 g       *ABS*	00000000 __flash_rwdata_start
0000bdac g     F .text	00000064 OSTimeSet
0000456c g     F .text	00000640 OSEventPendMulti
0001ac94 g       *ABS*	00000000 __alt_heap_start
0000dfb8 g     F .text	00000024 OSTaskCreateHook
00014388 g     O .bss	00002000 task1_stk
00011686 g     O .rwdata	00000002 OSMboxEn
00004c04 g     F .text	0000004c OSIntEnter
000026e4 g     F .text	0000005c __sseek
00000e2c g     F .text	00000010 __sinit
0000b6cc g     F .text	000000b0 OSTaskRegGetID
00011696 g     O .rwdata	00000002 OSQEn
00000c74 g     F .text	00000068 __sfmoreglue
000002cc g     F .text	00000028 BSP_clrLED
00011682 g     O .rwdata	00000002 OSFlagNameEn
0000428c g     F .text	000000d4 __malloc_unlock
0000e020 g     F .text	00000020 OSTaskStatHook
00014342 g     O .bss	00000001 OSLockNesting
0001436c g     O .bss	00000001 OSTaskRegNextAvailID
000116d8 g     O .rwdata	00000002 OSDataSize
00014349 g     O .bss	00000001 OSRunning
00001e20 g     F .text	0000012c memmove
0000e060 g     F .text	00000020 OSInitHookBegin
000116d0 g     O .rwdata	00000002 OSTmrSize
00000e18 g     F .text	00000014 _cleanup
0001434c g     O .bss	00000004 OSIdleCtr
0000dd78 g     F .text	00000024 altera_nios2_gen2_irq_init
0000de48 g       .text	00000000 OSStartTsk
000060d0 g     F .text	00000350 OS_TCBInit
00000000 g     F .entry	0000001c __reset
0000b884 g     F .text	0000003c OS_TaskReturn
000116d6 g     O .rwdata	00000002 OSTmrWheelTblSize
00000020 g       *ABS*	00000000 __flash_exceptions_start
00011672 g     O .rwdata	00000002 OSEventSize
00014344 g     O .bss	00000001 OSPrioHighRdy
0000349c g     F .text	00000060 _fstat_r
0000dfdc g     F .text	00000024 OSTaskDelHook
00014304 g     O .bss	00000004 errno
0000265c g     F .text	00000008 __seofread
0000de28 g       .text	00000000 OSStartHighRdy
0000a5b0 g     F .text	000001dc OSTaskCreateExt
000073fc g     F .text	00000064 OSFlagPendGetFlagsRdy
000116b2 g     O .rwdata	00000002 OSTaskStatStkSize
000065b0 g     F .text	0000030c OSFlagAccept
00008920 g     F .text	000000bc OSQFlush
000083c8 g     F .text	00000134 OSQAccept
00014310 g     O .bss	00000004 alt_argv
00019630 g       *ABS*	00000000 _gp
0000a40c g     F .text	000001a4 OSTaskCreate
00009f58 g     F .text	000004b4 OSTaskChangePrio
00014320 g     O .bss	00000004 alt_heapsem
00006420 g     F .text	00000190 OSDebugInit
0000a78c g     F .text	00000340 OSTaskDel
00010348 g     O .rwdata	00000180 alt_fd_list
00018860 g     O .bss	00000140 OSFlagTbl
0000561c g     F .text	000000b0 OS_EventTaskRemove
0000e108 g     F .text	00000090 alt_find_dev
00001d20 g     F .text	00000100 memcpy
0001169c g     O .rwdata	00000002 OSRdyTblSize
00000af8 g     F .text	0000000c _cleanup_r
0000d8e4 g     F .text	0000007c alt_io_redirect
0000e724 g       *ABS*	00000000 __DTOR_END__
00000a48 g     F .text	00000010 puts
0000e408 g     F .text	00000074 alt_exception_cause_generated_bad_addr
00004360 g     F .text	00000120 OSEventNameGet
00011680 g     O .rwdata	00000002 OSFlagMax
00000770 g     F .text	0000008c VgaWriteScreen
00004c50 g     F .text	000000f4 OSIntExit
000116bc g     O .rwdata	00000002 OSTCBSize
00014343 g     O .bss	00000001 OSPrioCur
0000cb78 g     F .text	000002c8 altera_avalon_jtag_uart_read
00003648 g     F .text	00000064 .hidden __udivsi3
00003968 g     F .text	000000a4 isatty
000116a0 g     O .rwdata	00000002 OSStkWidth
00011694 g     O .rwdata	00000002 OSPtrSize
00011674 g     O .rwdata	00000002 OSEventTblSize
0000dd9c g       .text	00000000 OSCtxSw
0000e378 g     F .text	00000090 alt_icache_flush
00014300 g     O .bss	00000004 __malloc_top_pad
0001435c g     O .bss	00000004 OSTCBList
0000b77c g     F .text	00000108 OSTaskRegSet
00014308 g     O .bss	00000004 alt_fd_list_lock
00000e74 g     F .text	000004bc __sfvwrite_r
0001a414 g     O .bss	000005a0 OSMemTbl
00014360 g     O .bss	00000001 OSTickStepState
0001168c g     O .rwdata	00000002 OSMemNameEn
000025b0 g     F .text	00000058 _sbrk_r
09000000 g       *ABS*	00000000 __alt_mem_VGA_Char_Buf_Subsystem_Onchip_SRAM
00011698 g     O .rwdata	00000002 OSQMax
000189a0 g     O .bss	00000800 OSTaskStatStk
00007f70 g     F .text	000000f0 OSMemNameGet
00011678 g     O .rwdata	00000002 OSFlagEn
00003438 g     F .text	00000064 _read_r
000116c0 g     O .rwdata	00000002 OSTimeTickHookEn
00008dcc g     F .text	00000174 OSQPost
00007c1c g     F .text	000000a4 OS_FlagUnlink
00011650 g     O .rwdata	00000004 alt_max_fd
00005c2c g     F .text	0000006c OS_MemCopy
00005c98 g     F .text	000000cc OS_Sched
00002968 g     F .text	000000f8 _fclose_r
00007e88 g     F .text	000000e8 OSMemGet
0000adbc g     F .text	00000160 OSTaskNameSet
00002cf8 g     F .text	00000084 fflush
000142fc g     O .bss	00000004 __malloc_max_sbrked_mem
00014328 g     O .bss	00000004 OSCtxSwCtr
0000e040 g     F .text	00000020 OSTimeTickHook
000056cc g     F .text	000000f4 OS_EventTaskRemoveMulti
000054d4 g     F .text	00000148 OS_EventTaskWaitMulti
0001169a g     O .rwdata	00000002 OSQSize
00003b34 g     F .text	000000d4 lseek
000098c4 g     F .text	0000020c OSSemPend
00011670 g     O .rwdata	00000002 OSEventNameEn
00011630 g     O .rwdata	00000004 _global_impure_ptr
00002040 g     F .text	00000570 _realloc_r
00011684 g     O .rwdata	00000002 OSLowestPrio
0001ac94 g       *ABS*	00000000 __bss_end
0000d74c g     F .text	000000e8 alt_iic_isr_register
0000e0e4 g     F .text	00000024 OSTCBInitHook
000116ce g     O .rwdata	00000002 OSTmrCfgTicksPerSec
0000dc4c g     F .text	0000012c alt_tick
0001166c g     O .rwdata	00000002 OSEventEn
00000e4c g     F .text	00000014 __fp_lock_all
0000d700 g     F .text	0000004c alt_ic_irq_enabled
00007a1c g     F .text	000000fc OS_FlagInit
08000000 g       *ABS*	00000000 __alt_mem_onchip_sram
0000dba8 g     F .text	000000a4 alt_alarm_stop
000116ae g     O .rwdata	00000002 OSTaskNameEn
000007fc g     F .text	00000048 VgaPrintAt
000116a8 g     O .rwdata	00000002 OSTaskIdleStkSize
00014374 g     O .bss	00000004 alt_irq_active
00009500 g     F .text	000000b4 OSSemAccept
00008120 g     F .text	000000e0 OSMemPut
00007cc0 g     F .text	000001c8 OSMemCreate
00014338 g     O .bss	00000004 OSIdleCtrMax
000000fc g     F .exceptions	000000c8 alt_irq_handler
00010320 g     O .rwdata	00000028 alt_dev_null
000116be g     O .rwdata	00000002 OSTicksPerSec
0000e0c0 g     F .text	00000024 OSTaskReturnHook
0000dd9c g       .text	00000000 OSIntCtxSw
0000d370 g     F .text	0000004c alt_dcache_flush_all
0000b5bc g     F .text	00000110 OSTaskRegGet
000116c4 g     O .rwdata	00000002 OS_TLS_TblSize
00014354 g     O .bss	00000004 OSTCBFreeList
000116e8 g       *ABS*	00000000 __ram_rwdata_end
00009ad0 g     F .text	00000164 OSSemPendAbort
00011648 g     O .rwdata	00000008 alt_dev_list
00003f4c g     F .text	000000f8 write
000116c2 g     O .rwdata	00000002 OSVersionNbr
0000eae4 g       *ABS*	00000000 __ram_rodata_end
0000387c g     F .text	000000b0 fstat
00011668 g     O .rwdata	00000004 OSEndiannessTest
000036ac g     F .text	0000005c .hidden __umodsi3
000002f4 g     F .text	00000020 BSP_readSW
0001167a g     O .rwdata	00000002 OSFlagGrpSize
0000eaf4 g     O .rwdata	00001000 rom8x8_bits
0001ac94 g       *ABS*	00000000 end
0000c514 g     F .text	00000150 altera_avalon_jtag_uart_init
00005e94 g     F .text	00000178 OS_TaskStat
000001c4 g     F .exceptions	00000074 alt_instruction_exception_entry
0000e724 g       *ABS*	00000000 __CTOR_LIST__
04000000 g       *ABS*	00000000 __alt_stack_pointer
0000d18c g     F .text	00000084 alt_avalon_timer_sc_init
0000ce40 g     F .text	000002d0 altera_avalon_jtag_uart_write
00000284 g     F .text	00000020 BSP_init
00000e3c g     F .text	00000004 __sfp_lock_acquire
00001c54 g     F .text	000000cc memchr
00005bd4 g     F .text	00000058 OS_MemClr
0000de6c g     F .text	0000014c OSTaskStkInit
000003a0 g     F .text	00000038 task1
00002e98 g     F .text	000002fc _free_r
00005240 g     F .text	0000018c OS_EventTaskRdy
0000e5cc g     F .text	00000120 __call_exitprocs
00014334 g     O .bss	00000001 OSCPUUsage
00011638 g     O .rwdata	00000004 __malloc_sbrk_base
00000238 g     F .text	0000004c _start
000003d8 g     F .text	00000038 task2
00014378 g     O .bss	00000004 _alt_tick_rate
000089dc g     F .text	0000028c OSQPend
0000b930 g     F .text	00000118 OSTimeDly
00000544 g     F .text	000000a4 VgaClearScreen
0001437c g     O .bss	00000008 _alt_nticks
00003d04 g     F .text	000000fc read
0000be80 g     F .text	00000530 alt_sys_init
0000e53c g     F .text	00000090 __register_exitproc
0001434a g     O .bss	00000001 OSTaskCtr
0000ba48 g     F .text	00000128 OSTimeDlyHMSM
0000ca1c g     F .text	00000068 altera_avalon_jtag_uart_close
000116ca g     O .rwdata	00000002 OSTmrCfgNameEn
0000eae4 g       *ABS*	00000000 __ram_rwdata_start
0000e724 g       *ABS*	00000000 __ram_rodata_start
00018388 g     O .bss	00000028 __malloc_current_mallinfo
0001166e g     O .rwdata	00000002 OSEventMax
00009c34 g     F .text	0000011c OSSemPost
00004dd4 g     F .text	000000e4 OSSchedUnlock
0000c3b0 g     F .text	00000060 altera_avalon_jtag_uart_read_fd
0000e2a0 g     F .text	000000d8 alt_get_fd
00014364 g     O .bss	00000004 OSMemFreeList
00004f20 g     F .text	000000b8 OSStatInit
00007808 g     F .text	000000b8 OSFlagQuery
00000510 g     F .text	00000034 VgaInit
000116a4 g     O .rwdata	00000002 OSTaskCreateExtEn
00002910 g     F .text	00000058 _close_r
0000e4c4 g     F .text	00000078 memcmp
00005220 g     F .text	00000020 OS_Dummy
0000c470 g     F .text	00000050 altera_avalon_jtag_uart_close_fd
0001ac94 g       *ABS*	00000000 __alt_stack_base
0000c4c0 g     F .text	00000054 altera_avalon_jtag_uart_ioctl_fd
000027ac g     F .text	00000164 __swsetup_r
0001a9b4 g     O .bss	000001e0 OSQTbl
00000314 g     F .text	00000028 BSP_readBP
00000cdc g     F .text	0000013c __sfp
0000ff18 g     O .rwdata	00000408 __malloc_av_
00000e48 g     F .text	00000004 __sinit_lock_release
00014358 g     O .bss	00000004 OSTCBHighRdy
00002608 g     F .text	00000054 __sread
00014368 g     O .bss	00000004 OSQFreeList
0000e198 g     F .text	00000108 alt_find_file
0000037c g     F .text	00000024 SEG7_Decimal
0000d3f8 g     F .text	000000a8 alt_dev_llist_insert
00004164 g     F .text	00000128 __malloc_lock
00003e58 g     F .text	000000b8 sbrk
00004480 g     F .text	000000ec OSEventNameSet
00002c98 g     F .text	00000060 _fflush_r
00014345 g     O .bss	00000001 OSRdyGrp
00000668 g     F .text	00000108 VgaWriteCharacter
000142ec g       *ABS*	00000000 __bss_start
00001f4c g     F .text	000000f4 memset
00000410 g     F .text	00000100 main
00014314 g     O .bss	00000004 alt_envp
000142f8 g     O .bss	00000004 __malloc_max_total_mem
0000c410 g     F .text	00000060 altera_avalon_jtag_uart_write_fd
0000e934 g     O .rodata	00000100 OSUnMapTbl
0001169e g     O .rwdata	00000002 OSSemEn
00007460 g     F .text	000003a8 OSFlagPost
00002740 g     F .text	00000008 __sclose
04000000 g       *ABS*	00000000 __alt_heap_limit
00002a60 g     F .text	00000010 fclose
000053cc g     F .text	00000108 OS_EventTaskWait
00016388 g     O .bss	00002000 task2_stk
0000600c g     F .text	000000c4 OS_TaskStatStkChk
0000aacc g     F .text	00000158 OSTaskDelReq
00001470 g     F .text	000007e4 _malloc_r
00011654 g     O .rwdata	00000004 alt_errno
00004eb8 g     F .text	00000068 OSStart
00004104 g     F .text	00000060 __env_unlock
00001330 g     F .text	00000098 _fwalk
0000af1c g     F .text	000001e0 OSTaskResume
00008200 g     F .text	000000ec OSMemQuery
000116b0 g     O .rwdata	00000002 OSTaskStatEn
0001168a g     O .rwdata	00000002 OSMemMax
00008f40 g     F .text	0000017c OSQPostFront
00003554 g     F .text	00000080 .hidden __divsi3
00014346 g     O .bss	00000003 OSRdyTbl
00011664 g     O .rwdata	00000002 OSDebugEn
00002d7c g     F .text	0000011c _malloc_trim_r
0000e724 g       *ABS*	00000000 __CTOR_END__
0001167c g     O .rwdata	00000002 OSFlagNodeSize
000116c8 g     O .rwdata	00000002 OSTmrCfgMax
000084fc g     F .text	000001ac OSQCreate
0000ac24 g     F .text	00000198 OSTaskNameGet
0000e724 g       *ABS*	00000000 __flash_rodata_start
000090bc g     F .text	00000218 OSQPostOpt
00004fd8 g     F .text	00000228 OSTimeTick
000116ac g     O .rwdata	00000002 OSTaskMax
0000e724 g       *ABS*	00000000 __DTOR_LIST__
000095b4 g     F .text	000000d8 OSSemCreate
000116d4 g     O .rwdata	00000002 OSTmrWheelSize
000116a6 g     O .rwdata	00000002 OSTaskDelEn
00009d50 g     F .text	00000114 OSSemQuery
000086a8 g     F .text	00000278 OSQDel
00008c68 g     F .text	00000164 OSQPendAbort
0000be44 g     F .text	0000003c alt_irq_init
00003e00 g     F .text	00000058 alt_release_fd
0000033c g     F .text	00000020 SEG7_on
0000e47c g     F .text	00000014 atexit
0000035c g     F .text	00000020 SEG7_off
00002748 g     F .text	00000064 _write_r
00004d44 g     F .text	00000090 OSSchedLock
000068bc g     F .text	000000fc OSFlagCreate
00011634 g     O .rwdata	00000004 _impure_ptr
0001430c g     O .bss	00000004 alt_argc
00002a70 g     F .text	00000228 __sflush_r
0000d504 g     F .text	00000064 _do_dtors
00011676 g     O .rwdata	00000002 OSEventMultiEn
000069b8 g     F .text	00000244 OSFlagDel
0001432c g     O .bss	00000004 OSEventFreeList
00000020 g       .exceptions	00000000 alt_irq_entry
00006e24 g     F .text	000005d8 OSFlagPend
000116c6 g     O .rwdata	00000002 OSTmrEn
00000e60 g     F .text	00000014 __fp_unlock_all
00011640 g     O .rwdata	00000008 alt_fs_list
0000e080 g     F .text	00000020 OSInitHookEnd
00000020 g       *ABS*	00000000 __ram_exceptions_start
000116ba g     O .rwdata	00000002 OSTCBPrioTblMax
000033a8 g     F .text	00000090 __swhatbuf_r
000116b4 g     O .rwdata	00000002 OSTaskStatStkChkEn
0000d59c g     F .text	00000050 alt_ic_isr_register
00011688 g     O .rwdata	00000002 OSMemEn
00011692 g     O .rwdata	00000002 OSMutexEn
000005e8 g     F .text	00000080 VgaSetCursor
000116e8 g       *ABS*	00000000 _edata
0001ac94 g       *ABS*	00000000 _end
00014341 g     O .bss	00000001 OSIntNesting
00000238 g       *ABS*	00000000 __ram_exceptions_end
0000ca84 g     F .text	000000f4 altera_avalon_jtag_uart_ioctl
0000bb70 g     F .text	000001dc OSTimeDlyResume
00006d28 g     F .text	000000fc OSFlagNameSet
000116b8 g     O .rwdata	00000002 OSTaskRegTblSize
0000b0fc g     F .text	000001b0 OSTaskStkChk
0000d674 g     F .text	0000008c alt_ic_irq_disable
0001168e g     O .rwdata	00000002 OSMemSize
00002664 g     F .text	00000080 __swrite
0001163c g     O .rwdata	00000004 __malloc_trim_threshold
00014350 g     O .bss	00000004 OSTCBCur
0000e490 g     F .text	00000034 exit
00011690 g     O .rwdata	00000002 OSMemTblSize
000013c8 g     F .text	000000a8 _fwalk_reent
000035d4 g     F .text	00000074 .hidden __modsi3
04000000 g       *ABS*	00000000 __alt_data_end
00000020 g     F .exceptions	00000000 alt_exception
00000e40 g     F .text	00000004 __sfp_lock_release
00004bac g     F .text	00000058 OSInit
00000000 g       *ABS*	00000000 __alt_mem_sdram
0000b494 g     F .text	00000128 OSTaskQuery
00009434 g     F .text	000000cc OS_QInit
00005dd0 g     F .text	00000064 OS_StrLen
00008060 g     F .text	000000c0 OSMemNameSet
000116aa g     O .rwdata	00000002 OSTaskProfileEn
00014370 g     O .bss	00000004 OSTime
000191a0 g     O .bss	00000800 OSTaskIdleStk
0000e6ec g     F .text	00000038 _exit
0000d210 g     F .text	00000160 alt_alarm_start
00006bfc g     F .text	0000012c OSFlagNameGet
0000bd4c g     F .text	00000060 OSTimeGet
000031f8 g     F .text	000001b0 __smakebuf_r
00000a58 g     F .text	00000098 strlen
0000e000 g     F .text	00000020 OSTaskSwHook
0000da54 g     F .text	00000154 open
000183b0 g     O .bss	000004b0 OSEventTbl
000199f4 g     O .bss	00000a20 OSTCBTbl
00009e64 g     F .text	000000f4 OSSemSet
0000d568 g     F .text	00000034 alt_icache_flush_all
000116dc g     O .rwdata	00000004 alt_priority_mask
0000968c g     F .text	00000238 OSSemDel
00014330 g     O .bss	00000004 OSFlagFreeList
0000d5ec g     F .text	00000088 alt_ic_irq_enable
00014340 g     O .bss	00000001 OSStatRdy
000199a0 g     O .bss	00000054 OSTCBPrioTbl
00004044 g     F .text	000000c0 __env_lock
000116b6 g     O .rwdata	00000002 OSTaskSwHookEn
000116e0 g     O .rwdata	00000008 alt_alarm_list
0001167e g     O .rwdata	00000002 OSFlagWidth
0000d4a0 g     F .text	00000064 _do_ctors
00003744 g     F .text	000000d0 close
000002a4 g     F .text	00000028 BSP_setLED
00014318 g     O .bss	00000004 alt_envsem
0001433c g     O .bss	00000004 OSIdleCtrRun
00005200 g     F .text	00000020 OSVersion
000116cc g     O .rwdata	00000002 OSTmrCfgWheelSize
00003a74 g     F .text	00000084 alt_load
0000b8c0 g     F .text	00000070 OS_TaskStkClr
000116a2 g     O .rwdata	00000002 OSTaskCreateEn
000057c0 g     F .text	00000060 OS_EventWaitListInit
00000844 g     F .text	00000138 VgaDrawBox
0000e0a0 g     F .text	00000020 OSTaskIdleHook
00000e44 g     F .text	00000004 __sinit_lock_acquire
0000b2ac g     F .text	000001e8 OSTaskSuspend
00005e34 g     F .text	00000060 OS_TaskIdle
000116d2 g     O .rwdata	00000002 OSTmrTblSize
000092d4 g     F .text	00000160 OSQQuery



Disassembly of section .entry:

00000000 <__reset>:
#if NIOS2_ICACHE_SIZE > 0 && defined(ALT_ALLOW_CODE_AT_RESET) && (!defined(ALT_SIM_OPTIMIZE) || defined(NIOS2_ECC_PRESENT))
    /* Assume the instruction cache size is always a power of two. */
#if NIOS2_ICACHE_SIZE > 0x8000
    movhi r2, %hi(NIOS2_ICACHE_SIZE)
#else
    movui r2, NIOS2_ICACHE_SIZE
   0:	00840014 	movui	r2,4096
#endif

0:
    initi r2
   4:	1001483a 	initi	r2
    addi r2, r2, -NIOS2_ICACHE_LINE_SIZE
   8:	10bff804 	addi	r2,r2,-32
    bgt r2, zero, 0b
   c:	00bffd16 	blt	zero,r2,4 <__reset+0x4>
 * Jump to the _start entry point in the .text section if reset code
 * is allowed or if optimizing for RTL simulation.
 */
#if defined(ALT_ALLOW_CODE_AT_RESET) || defined(ALT_SIM_OPTIMIZE)
    /* Jump to the _start entry point in the .text section. */
    movhi r1, %hi(_start)
  10:	00400034 	movhi	at,0
    ori r1, r1, %lo(_start)
  14:	08408e14 	ori	at,at,568
    jmp r1
  18:	0800683a 	jmp	at
  1c:	00000000 	call	0 <__reset>

Disassembly of section .exceptions:

00000020 <alt_exception>:

#else /* ALT_EXCEPTION_STACK disabled */
        /* 
         * Reserve space on normal stack for registers about to be pushed.
         */
        addi  sp, sp, -76
  20:	deffed04 	addi	sp,sp,-76
         * documentation for details).
         *
         * Leave a gap in the stack frame at 4(sp) for the muldiv handler to
         * store zero into.
         */
        stw   ra,  0(sp)
  24:	dfc00015 	stw	ra,0(sp)
        stw   r1,   8(sp)
  28:	d8400215 	stw	at,8(sp)
        stw   r2,  12(sp)
  2c:	d8800315 	stw	r2,12(sp)
        stw   r3,  16(sp)
  30:	d8c00415 	stw	r3,16(sp)
        stw   r4,  20(sp)
  34:	d9000515 	stw	r4,20(sp)
        stw   r5,  24(sp)
  38:	d9400615 	stw	r5,24(sp)
        stw   r6,  28(sp)
  3c:	d9800715 	stw	r6,28(sp)
        stw   r7,  32(sp)
  40:	d9c00815 	stw	r7,32(sp)
        rdctl r5, estatus   /* Read early to avoid usage stall */
  44:	000b307a 	rdctl	r5,estatus
        stw   r8,  36(sp)
  48:	da000915 	stw	r8,36(sp)
        stw   r9,  40(sp)
  4c:	da400a15 	stw	r9,40(sp)
        stw   r10, 44(sp)
  50:	da800b15 	stw	r10,44(sp)
        stw   r11, 48(sp)
  54:	dac00c15 	stw	r11,48(sp)
        stw   r12, 52(sp)
  58:	db000d15 	stw	r12,52(sp)
        stw   r13, 56(sp)
  5c:	db400e15 	stw	r13,56(sp)
        stw   r14, 60(sp)
  60:	db800f15 	stw	r14,60(sp)
        stw   r15, 64(sp)
  64:	dbc01015 	stw	r15,64(sp)
        /*
         * ea-4 contains the address of the instruction being executed
         * when the exception occured. For interrupt exceptions, we will
         * will be re-issue the isntruction. Store it in 72(sp)
         */
        stw   r5,  68(sp)  /* estatus */
  68:	d9401115 	stw	r5,68(sp)
        addi  r15, ea, -4  /* instruction that caused exception */
  6c:	ebffff04 	addi	r15,ea,-4
        stw   r15,  72(sp)
  70:	dbc01215 	stw	r15,72(sp)
#else
        /*
         * Test to see if the exception was a software exception or caused 
         * by an external interrupt, and vector accordingly.
         */
        rdctl r4, ipending
  74:	0009313a 	rdctl	r4,ipending
        andi  r2, r5, 1
  78:	2880004c 	andi	r2,r5,1
        beq   r2, zero, .Lnot_irq
  7c:	10000326 	beq	r2,zero,8c <OSCtxSw_SWITCH_PC+0x4c>
        beq   r4, zero, .Lnot_irq
  80:	20000226 	beq	r4,zero,8c <OSCtxSw_SWITCH_PC+0x4c>
        /*
         * Now that all necessary registers have been preserved, call 
         * alt_irq_handler() to process the interrupts.
         */

        call alt_irq_handler
  84:	00000fc0 	call	fc <alt_irq_handler>

        .section .exceptions.irqreturn, "xa"

        br    .Lexception_exit
  88:	00000706 	br	a8 <OSCtxSw_SWITCH_PC+0x68>
         * upon completion, so we write ea (address of instruction *after*
         * the one where the exception occured) into 72(sp). The actual
         * instruction that caused the exception is written in r2, which these
         * handlers will utilize.
         */
        stw ea, 72(sp) /* EA is PC+4 so will skip over instruction causing exception */
  8c:	df401215 	stw	ea,72(sp)
.Lunknown_16bit:
        addi.n r4, r4, 2 /* Need PC+2 to skip over instruction causing exception */
        stw r4, 72(sp)

#else /* CDX is not Enabled and all instructions are 32bits */
        ldw r2, -4(ea) /* Instruction value that caused exception */
  90:	e8bfff17 	ldw	r2,-4(ea)
  94:	e93fff04 	addi	r4,ea,-4
  98:	00001c40 	call	1c4 <alt_instruction_exception_entry>
  9c:	1000021e 	bne	r2,zero,a8 <OSCtxSw_SWITCH_PC+0x68>
  a0:	ebffff04 	addi	r15,ea,-4
  a4:	dbc01215 	stw	r15,72(sp)
        /* 
         * Restore the saved registers, so that all general purpose registers 
         * have been restored to their state at the time the interrupt occured.
         */

        ldw   r5,  68(sp)
  a8:	d9401117 	ldw	r5,68(sp)
        ldw   ea,  72(sp)  /* This becomes the PC once eret is executed */
  ac:	df401217 	ldw	ea,72(sp)
        ldw   ra,   0(sp)
  b0:	dfc00017 	ldw	ra,0(sp)

        wrctl estatus, r5
  b4:	2801707a 	wrctl	estatus,r5

        ldw   r1,   8(sp)
  b8:	d8400217 	ldw	at,8(sp)
        ldw   r2,  12(sp)
  bc:	d8800317 	ldw	r2,12(sp)
        ldw   r3,  16(sp)
  c0:	d8c00417 	ldw	r3,16(sp)
        ldw   r4,  20(sp)
  c4:	d9000517 	ldw	r4,20(sp)
        ldw   r5,  24(sp)
  c8:	d9400617 	ldw	r5,24(sp)
        ldw   r6,  28(sp)
  cc:	d9800717 	ldw	r6,28(sp)
        ldw   r7,  32(sp)
  d0:	d9c00817 	ldw	r7,32(sp)

#if defined(ALT_EXCEPTION_STACK) && defined(ALT_STACK_CHECK)
        ldw   et, %gprel(alt_exception_old_stack_limit)(gp)
#endif

        ldw   r8,  36(sp)
  d4:	da000917 	ldw	r8,36(sp)
        ldw   r9,  40(sp)
  d8:	da400a17 	ldw	r9,40(sp)
        ldw   r10, 44(sp)
  dc:	da800b17 	ldw	r10,44(sp)
        ldw   r11, 48(sp)
  e0:	dac00c17 	ldw	r11,48(sp)
        ldw   r12, 52(sp)
  e4:	db000d17 	ldw	r12,52(sp)
        ldw   r13, 56(sp)
  e8:	db400e17 	ldw	r13,56(sp)
        ldw   r14, 60(sp)
  ec:	db800f17 	ldw	r14,60(sp)
        ldw   r15, 64(sp)
  f0:	dbc01017 	ldw	r15,64(sp)
        stw   et, %gprel(alt_stack_limit_value)(gp)
        stw   zero, %gprel(alt_exception_old_stack_limit)(gp)
#endif /* ALT_STACK_CHECK */
        ldw   sp,  76(sp)
#else /* ALT_EXCEPTION_STACK disabled */
        addi  sp, sp, 76
  f4:	dec01304 	addi	sp,sp,76

        /*
         * Return to the interrupted instruction.
         */

        eret
  f8:	ef80083a 	eret

000000fc <alt_irq_handler>:
 * instruction is present if the macro ALT_CI_INTERRUPT_VECTOR defined.
 */

void alt_irq_handler (void) __attribute__ ((section (".exceptions")));
void alt_irq_handler (void)
{
  fc:	defff904 	addi	sp,sp,-28
 100:	dfc00615 	stw	ra,24(sp)
 104:	df000515 	stw	fp,20(sp)
 108:	df000504 	addi	fp,sp,20
  
  /*
   * Notify the operating system that we are at interrupt level.
   */ 
  
  ALT_OS_INT_ENTER();
 10c:	0004c040 	call	4c04 <OSIntEnter>
#ifndef NIOS2_EIC_PRESENT
static ALT_INLINE alt_u32 ALT_ALWAYS_INLINE alt_irq_pending (void)
{
  alt_u32 active;

  NIOS2_READ_IPENDING (active);
 110:	0005313a 	rdctl	r2,ipending
 114:	e0bffc15 	stw	r2,-16(fp)

  return active;
 118:	e0bffc17 	ldw	r2,-16(fp)
   * Consider the case where the high priority interupt is asserted during
   * the interrupt entry sequence for a lower priority interrupt to see why
   * this is the case.
   */

  active = alt_irq_pending ();
 11c:	e0bfff15 	stw	r2,-4(fp)

  do
  {
    i = 0;
 120:	e03ffd15 	stw	zero,-12(fp)
    mask = 1;
 124:	00800044 	movi	r2,1
 128:	e0bffe15 	stw	r2,-8(fp)
     * called to clear the interrupt condition.
     */

    do
    {
      if (active & mask)
 12c:	e0ffff17 	ldw	r3,-4(fp)
 130:	e0bffe17 	ldw	r2,-8(fp)
 134:	1884703a 	and	r2,r3,r2
 138:	10001126 	beq	r2,zero,180 <alt_irq_handler+0x84>
      { 
#ifdef ALT_ENHANCED_INTERRUPT_API_PRESENT
        alt_irq[i].handler(alt_irq[i].context); 
 13c:	e0bffd17 	ldw	r2,-12(fp)
 140:	100690fa 	slli	r3,r2,3
 144:	008000b4 	movhi	r2,2
 148:	1885883a 	add	r2,r3,r2
 14c:	10eae517 	ldw	r3,-21612(r2)
 150:	e0bffd17 	ldw	r2,-12(fp)
 154:	100890fa 	slli	r4,r2,3
 158:	008000b4 	movhi	r2,2
 15c:	2085883a 	add	r2,r4,r2
 160:	10aae617 	ldw	r2,-21608(r2)
 164:	1009883a 	mov	r4,r2
 168:	183ee83a 	callr	r3
#else
        alt_irq[i].handler(alt_irq[i].context, i); 
#endif
        break;
 16c:	0001883a 	nop
  NIOS2_READ_IPENDING (active);
 170:	0005313a 	rdctl	r2,ipending
 174:	e0bffb15 	stw	r2,-20(fp)
  return active;
 178:	e0bffb17 	ldw	r2,-20(fp)
 17c:	00000706 	br	19c <alt_irq_handler+0xa0>
      }
      mask <<= 1;
 180:	e0bffe17 	ldw	r2,-8(fp)
 184:	1085883a 	add	r2,r2,r2
 188:	e0bffe15 	stw	r2,-8(fp)
      i++;
 18c:	e0bffd17 	ldw	r2,-12(fp)
 190:	10800044 	addi	r2,r2,1
 194:	e0bffd15 	stw	r2,-12(fp)
      if (active & mask)
 198:	003fe406 	br	12c <alt_irq_handler+0x30>

    } while (1);

    active = alt_irq_pending ();
 19c:	e0bfff15 	stw	r2,-4(fp)
    
  } while (active);
 1a0:	e0bfff17 	ldw	r2,-4(fp)
 1a4:	103fde1e 	bne	r2,zero,120 <alt_irq_handler+0x24>

  /*
   * Notify the operating system that interrupt processing is complete.
   */ 

  ALT_OS_INT_EXIT();
 1a8:	0004c500 	call	4c50 <OSIntExit>
}
 1ac:	0001883a 	nop
 1b0:	e037883a 	mov	sp,fp
 1b4:	dfc00117 	ldw	ra,4(sp)
 1b8:	df000017 	ldw	fp,0(sp)
 1bc:	dec00204 	addi	sp,sp,8
 1c0:	f800283a 	ret

000001c4 <alt_instruction_exception_entry>:
 * that handler if it has been registered. Absent a handler, it will
 * break break or hang as discussed below.
 */
int 
alt_instruction_exception_entry (alt_u32 exception_pc)
{
 1c4:	defffb04 	addi	sp,sp,-20
 1c8:	dfc00415 	stw	ra,16(sp)
 1cc:	df000315 	stw	fp,12(sp)
 1d0:	df000304 	addi	fp,sp,12
 1d4:	e13ffd15 	stw	r4,-12(fp)
 * NIOS2_EXCEPTION_CAUSE_NOT_PRESENT. Your handling routine should
 * check the validity of the cause argument before proceeding.
 */
#ifdef NIOS2_HAS_EXTRA_EXCEPTION_INFO
  /* Get exception cause & "badaddr" */
  NIOS2_READ_EXCEPTION(cause);
 1d8:	000531fa 	rdctl	r2,exception
 1dc:	e0bfff15 	stw	r2,-4(fp)
  cause = ( (cause & NIOS2_EXCEPTION_REG_CAUSE_MASK) >>
 1e0:	e0bfff17 	ldw	r2,-4(fp)
 1e4:	1004d0ba 	srli	r2,r2,2
 1e8:	108007cc 	andi	r2,r2,31
 1ec:	e0bfff15 	stw	r2,-4(fp)
              NIOS2_EXCEPTION_REG_CAUSE_OFST );

  NIOS2_READ_BADADDR(badaddr);
 1f0:	0005333a 	rdctl	r2,badaddr
 1f4:	e0bffe15 	stw	r2,-8(fp)
#else
  cause = NIOS2_EXCEPTION_CAUSE_NOT_PRESENT;
  badaddr = 0;
#endif /* NIOS2_HAS_EXTRA_EXCEPTION_INFO */

  if(alt_instruction_exception_handler) {
 1f8:	d0ab5517 	ldw	r2,-21164(gp)
 1fc:	10000726 	beq	r2,zero,21c <alt_instruction_exception_entry+0x58>
     * Call handler. Its return value indicates whether the exception-causing
     * instruction should be re-issued. The code that called us,
     * alt_eceptions_entry.S, will look at this value and adjust the ea
     * register as necessary
     */
    return alt_instruction_exception_handler(cause, exception_pc, badaddr);
 200:	d0ab5517 	ldw	r2,-21164(gp)
 204:	e0ffff17 	ldw	r3,-4(fp)
 208:	e1bffe17 	ldw	r6,-8(fp)
 20c:	e17ffd17 	ldw	r5,-12(fp)
 210:	1809883a 	mov	r4,r3
 214:	103ee83a 	callr	r2
 218:	00000206 	br	224 <alt_instruction_exception_entry+0x60>
   *    (a peripheral which negates its interrupt output before its
   *    interrupt handler has been executed will cause spurious interrupts)
   */
  else {
#ifdef NIOS2_HAS_DEBUG_STUB
    NIOS2_BREAK();
 21c:	003da03a 	break	0
      ;
#endif /* NIOS2_HAS_DEBUG_STUB */
  }

  /* We should not get here. Remove compiler warning. */
  return NIOS2_EXCEPTION_RETURN_REISSUE_INST;
 220:	0005883a 	mov	r2,zero
}
 224:	e037883a 	mov	sp,fp
 228:	dfc00117 	ldw	ra,4(sp)
 22c:	df000017 	ldw	fp,0(sp)
 230:	dec00204 	addi	sp,sp,8
 234:	f800283a 	ret

Disassembly of section .text:

00000238 <_start>:

    /* Assume the data cache size is always a power of two. */
#if NIOS2_DCACHE_SIZE > 0x8000
    movhi r2, %hi(NIOS2_DCACHE_SIZE)
#else
    movui r2, NIOS2_DCACHE_SIZE
     238:	00820014 	movui	r2,2048
#endif

0:
    initd 0(r2)
     23c:	10000033 	initd	0(r2)
#ifdef NIOS2_ECC_PRESENT
    addi r2, r2, -4
#else
    addi r2, r2, -NIOS2_DCACHE_LINE_SIZE
     240:	10bff804 	addi	r2,r2,-32
#endif
    bgt r2, zero, 0b
     244:	00bffd16 	blt	zero,r2,23c <_start+0x4>

    /*
     * Now that the caches are initialized, set up the stack pointer and global pointer.
     * The values provided by the linker are assumed to be correctly aligned.
     */
    movhi sp, %hi(__alt_stack_pointer)
     248:	06c10034 	movhi	sp,1024
    ori sp, sp, %lo(__alt_stack_pointer)
     24c:	dec00014 	ori	sp,sp,0
    movhi gp, %hi(_gp)
     250:	06800074 	movhi	gp,1
    ori gp, gp, %lo(_gp)
     254:	d6a58c14 	ori	gp,gp,38448
 */
#ifndef ALT_SIM_OPTIMIZE
    /* Log that the BSS is about to be cleared. */
    ALT_LOG_PUTS(alt_log_msg_bss)

    movhi r2, %hi(__bss_start)
     258:	00800074 	movhi	r2,1
    ori r2, r2, %lo(__bss_start)
     25c:	1090bb14 	ori	r2,r2,17132

    movhi r3, %hi(__bss_end)
     260:	00c00074 	movhi	r3,1
    ori r3, r3, %lo(__bss_end)
     264:	18eb2514 	ori	r3,r3,44180

    beq r2, r3, 1f
     268:	10c00326 	beq	r2,r3,278 <_start+0x40>

0:
    stw zero, (r2)
     26c:	10000015 	stw	zero,0(r2)
    addi r2, r2, 4
     270:	10800104 	addi	r2,r2,4
    bltu r2, r3, 0b
     274:	10fffd36 	bltu	r2,r3,26c <_start+0x34>
     * section aren't defined until alt_load() has been called).
     */
    mov   et, zero
#endif

    call alt_load
     278:	0003a740 	call	3a74 <alt_load>

    /* Log that alt_main is about to be called. */
    ALT_LOG_PUTS(alt_log_msg_alt_main)

    /* Call the C entry point. It should never return. */
    call alt_main
     27c:	0003c080 	call	3c08 <alt_main>

00000280 <alt_after_alt_main>:

    /* Wait in infinite loop in case alt_main does return. */
alt_after_alt_main:
    br alt_after_alt_main
     280:	003fff06 	br	280 <alt_after_alt_main>

00000284 <BSP_init>:
static unsigned char szMap[] = {
        63, 6, 91, 79, 102, 109, 125, 7, 127, 111, 119, 124, 57, 94, 121, 113};
      // 0, 1,  2,  3,   4,   5,   6, 7,   8,   9,   a,   b,  c,  d,   e,   f


void BSP_init(void){
     284:	deffff04 	addi	sp,sp,-4
     288:	df000015 	stw	fp,0(sp)
     28c:	d839883a 	mov	fp,sp
}
     290:	0001883a 	nop
     294:	e037883a 	mov	sp,fp
     298:	df000017 	ldw	fp,0(sp)
     29c:	dec00104 	addi	sp,sp,4
     2a0:	f800283a 	ret

000002a4 <BSP_setLED>:

void BSP_setLED(unsigned char lite){
     2a4:	defffe04 	addi	sp,sp,-8
     2a8:	df000115 	stw	fp,4(sp)
     2ac:	df000104 	addi	fp,sp,4
     2b0:	2005883a 	mov	r2,r4
     2b4:	e0bfff05 	stb	r2,-4(fp)
}
     2b8:	0001883a 	nop
     2bc:	e037883a 	mov	sp,fp
     2c0:	df000017 	ldw	fp,0(sp)
     2c4:	dec00104 	addi	sp,sp,4
     2c8:	f800283a 	ret

000002cc <BSP_clrLED>:

void BSP_clrLED(unsigned char lite){
     2cc:	defffe04 	addi	sp,sp,-8
     2d0:	df000115 	stw	fp,4(sp)
     2d4:	df000104 	addi	fp,sp,4
     2d8:	2005883a 	mov	r2,r4
     2dc:	e0bfff05 	stb	r2,-4(fp)
}
     2e0:	0001883a 	nop
     2e4:	e037883a 	mov	sp,fp
     2e8:	df000017 	ldw	fp,0(sp)
     2ec:	dec00104 	addi	sp,sp,4
     2f0:	f800283a 	ret

000002f4 <BSP_readSW>:

unsigned int BSP_readSW(){
     2f4:	deffff04 	addi	sp,sp,-4
     2f8:	df000015 	stw	fp,0(sp)
     2fc:	d839883a 	mov	fp,sp
}
     300:	0001883a 	nop
     304:	e037883a 	mov	sp,fp
     308:	df000017 	ldw	fp,0(sp)
     30c:	dec00104 	addi	sp,sp,4
     310:	f800283a 	ret

00000314 <BSP_readBP>:

unsigned int BSP_readBP(unsigned char nbr){
     314:	defffe04 	addi	sp,sp,-8
     318:	df000115 	stw	fp,4(sp)
     31c:	df000104 	addi	fp,sp,4
     320:	2005883a 	mov	r2,r4
     324:	e0bfff05 	stb	r2,-4(fp)
}
     328:	0001883a 	nop
     32c:	e037883a 	mov	sp,fp
     330:	df000017 	ldw	fp,0(sp)
     334:	dec00104 	addi	sp,sp,4
     338:	f800283a 	ret

0000033c <SEG7_on>:

void SEG7_on(void){
     33c:	deffff04 	addi	sp,sp,-4
     340:	df000015 	stw	fp,0(sp)
     344:	d839883a 	mov	fp,sp
}
     348:	0001883a 	nop
     34c:	e037883a 	mov	sp,fp
     350:	df000017 	ldw	fp,0(sp)
     354:	dec00104 	addi	sp,sp,4
     358:	f800283a 	ret

0000035c <SEG7_off>:

void SEG7_off(void){
     35c:	deffff04 	addi	sp,sp,-4
     360:	df000015 	stw	fp,0(sp)
     364:	d839883a 	mov	fp,sp
}
     368:	0001883a 	nop
     36c:	e037883a 	mov	sp,fp
     370:	df000017 	ldw	fp,0(sp)
     374:	dec00104 	addi	sp,sp,4
     378:	f800283a 	ret

0000037c <SEG7_Decimal>:

void SEG7_Decimal(unsigned int value){
     37c:	defffe04 	addi	sp,sp,-8
     380:	df000115 	stw	fp,4(sp)
     384:	df000104 	addi	fp,sp,4
     388:	e13fff15 	stw	r4,-4(fp)
}
     38c:	0001883a 	nop
     390:	e037883a 	mov	sp,fp
     394:	df000017 	ldw	fp,0(sp)
     398:	dec00104 	addi	sp,sp,4
     39c:	f800283a 	ret

000003a0 <task1>:
#define TASK1_PRIORITY      1
#define TASK2_PRIORITY      2

/* Prints "Hello World" and sleeps for three seconds */
void task1(void* pdata)
{
     3a0:	defffd04 	addi	sp,sp,-12
     3a4:	dfc00215 	stw	ra,8(sp)
     3a8:	df000115 	stw	fp,4(sp)
     3ac:	df000104 	addi	fp,sp,4
     3b0:	e13fff15 	stw	r4,-4(fp)
  while (1)
  { 
    printf("Hello from task1\n");
     3b4:	01000074 	movhi	r4,1
     3b8:	2139c904 	addi	r4,r4,-6364
     3bc:	0000a480 	call	a48 <puts>
    OSTimeDlyHMSM(0, 0, 3, 0);
     3c0:	000f883a 	mov	r7,zero
     3c4:	018000c4 	movi	r6,3
     3c8:	000b883a 	mov	r5,zero
     3cc:	0009883a 	mov	r4,zero
     3d0:	000ba480 	call	ba48 <OSTimeDlyHMSM>
    printf("Hello from task1\n");
     3d4:	003ff706 	br	3b4 <task1+0x14>

000003d8 <task2>:
  }
}
/* Prints "Hello World" and sleeps for three seconds */
void task2(void* pdata)
{
     3d8:	defffd04 	addi	sp,sp,-12
     3dc:	dfc00215 	stw	ra,8(sp)
     3e0:	df000115 	stw	fp,4(sp)
     3e4:	df000104 	addi	fp,sp,4
     3e8:	e13fff15 	stw	r4,-4(fp)
  while (1)
  { 
    printf("Hello from task2\n");
     3ec:	01000074 	movhi	r4,1
     3f0:	2139ce04 	addi	r4,r4,-6344
     3f4:	0000a480 	call	a48 <puts>
    OSTimeDlyHMSM(0, 0, 3, 0);
     3f8:	000f883a 	mov	r7,zero
     3fc:	018000c4 	movi	r6,3
     400:	000b883a 	mov	r5,zero
     404:	0009883a 	mov	r4,zero
     408:	000ba480 	call	ba48 <OSTimeDlyHMSM>
    printf("Hello from task2\n");
     40c:	003ff706 	br	3ec <task2+0x14>

00000410 <main>:
  }
}
/* The main function creates two task and starts multi-tasking */
int main(void)
{
     410:	defff904 	addi	sp,sp,-28
     414:	dfc00615 	stw	ra,24(sp)
     418:	df000515 	stw	fp,20(sp)
     41c:	df000504 	addi	fp,sp,20

  printf("MicroC/OS-II Licensing Terms\n");
     420:	01000074 	movhi	r4,1
     424:	2139d304 	addi	r4,r4,-6324
     428:	0000a480 	call	a48 <puts>
  printf("============================\n");
     42c:	01000074 	movhi	r4,1
     430:	2139db04 	addi	r4,r4,-6292
     434:	0000a480 	call	a48 <puts>
  printf ("uC/OS-II is a portable, ROMable, scalable, preemptive, real-time deterministic \n");
     438:	01000074 	movhi	r4,1
     43c:	2139e304 	addi	r4,r4,-6260
     440:	0000a480 	call	a48 <puts>
  printf("multitasking kernel for microprocessors, microcontrollers and DSPs.\n");
     444:	01000074 	movhi	r4,1
     448:	2139f704 	addi	r4,r4,-6180
     44c:	0000a480 	call	a48 <puts>
  printf("This RTOS can be used free of charge under APACHE 2.0 License.\n");
     450:	01000074 	movhi	r4,1
     454:	213a0804 	addi	r4,r4,-6112
     458:	0000a480 	call	a48 <puts>
  printf("for more information please see the license files included in the BSP project or contact Micrium.\n");
     45c:	01000074 	movhi	r4,1
     460:	213a1804 	addi	r4,r4,-6048
     464:	0000a480 	call	a48 <puts>
  printf("For the complete documentation, visit https://doc.micrium.com/display/ucos/\n\n\n");
     468:	01000074 	movhi	r4,1
     46c:	213a3104 	addi	r4,r4,-5948
     470:	0000a480 	call	a48 <puts>
    

  OSTaskCreateExt(task1,
     474:	d8000415 	stw	zero,16(sp)
     478:	d8000315 	stw	zero,12(sp)
     47c:	00820004 	movi	r2,2048
     480:	d8800215 	stw	r2,8(sp)
     484:	00800074 	movhi	r2,1
     488:	1090e204 	addi	r2,r2,17288
     48c:	d8800115 	stw	r2,4(sp)
     490:	00800044 	movi	r2,1
     494:	d8800015 	stw	r2,0(sp)
     498:	01c00044 	movi	r7,1
     49c:	01800074 	movhi	r6,1
     4a0:	3198e104 	addi	r6,r6,25476
     4a4:	000b883a 	mov	r5,zero
     4a8:	01000034 	movhi	r4,0
     4ac:	2100e804 	addi	r4,r4,928
     4b0:	000a5b00 	call	a5b0 <OSTaskCreateExt>
                  TASK_STACKSIZE,
                  NULL,
                  0);
              
               
  OSTaskCreateExt(task2,
     4b4:	d8000415 	stw	zero,16(sp)
     4b8:	d8000315 	stw	zero,12(sp)
     4bc:	00820004 	movi	r2,2048
     4c0:	d8800215 	stw	r2,8(sp)
     4c4:	00800074 	movhi	r2,1
     4c8:	1098e204 	addi	r2,r2,25480
     4cc:	d8800115 	stw	r2,4(sp)
     4d0:	00800084 	movi	r2,2
     4d4:	d8800015 	stw	r2,0(sp)
     4d8:	01c00084 	movi	r7,2
     4dc:	018000b4 	movhi	r6,2
     4e0:	31a0e104 	addi	r6,r6,-31868
     4e4:	000b883a 	mov	r5,zero
     4e8:	01000034 	movhi	r4,0
     4ec:	2100f604 	addi	r4,r4,984
     4f0:	000a5b00 	call	a5b0 <OSTaskCreateExt>
                  TASK2_PRIORITY,
                  task2_stk,
                  TASK_STACKSIZE,
                  NULL,
                  0);
  OSStart();
     4f4:	0004eb80 	call	4eb8 <OSStart>
  return 0;
     4f8:	0005883a 	mov	r2,zero
}
     4fc:	e037883a 	mov	sp,fp
     500:	dfc00117 	ldw	ra,4(sp)
     504:	df000017 	ldw	fp,0(sp)
     508:	dec00204 	addi	sp,sp,8
     50c:	f800283a 	ret

00000510 <VgaInit>:

static int cur_x; // En pixel
static int cur_y; // En pixel


void VgaInit() {
     510:	deffff04 	addi	sp,sp,-4
     514:	df000015 	stw	fp,0(sp)
     518:	d839883a 	mov	fp,sp
  video_buffer = (int *)VGA_VGA_PIXEL_DMA_BASE;
     51c:	0083c034 	movhi	r2,3840
     520:	10800404 	addi	r2,r2,16
     524:	d0ab2f15 	stw	r2,-21316(gp)
  cur_y = 0;
     528:	d02b3115 	stw	zero,-21308(gp)
  cur_x = 0;
     52c:	d02b3015 	stw	zero,-21312(gp)
}
     530:	0001883a 	nop
     534:	e037883a 	mov	sp,fp
     538:	df000017 	ldw	fp,0(sp)
     53c:	dec00104 	addi	sp,sp,4
     540:	f800283a 	ret

00000544 <VgaClearScreen>:

void VgaClearScreen(void) {
     544:	defffd04 	addi	sp,sp,-12
     548:	df000215 	stw	fp,8(sp)
     54c:	df000204 	addi	fp,sp,8
  int i;
  int  *ptr;

  // Memoire video pixels
  ptr = (int *)*(int *)VGA_VGA_PIXEL_DMA_BASE;
     550:	0083c034 	movhi	r2,3840
     554:	10800404 	addi	r2,r2,16
     558:	10800017 	ldw	r2,0(r2)
     55c:	e0bffe15 	stw	r2,-8(fp)
  for(i= 0; i<(0x40000/4); i++)
     560:	e03fff15 	stw	zero,-4(fp)
     564:	00000806 	br	588 <VgaClearScreen+0x44>
    *(ptr+i)= 0;
     568:	e0bfff17 	ldw	r2,-4(fp)
     56c:	100490ba 	slli	r2,r2,2
     570:	e0fffe17 	ldw	r3,-8(fp)
     574:	1885883a 	add	r2,r3,r2
     578:	10000015 	stw	zero,0(r2)
  for(i= 0; i<(0x40000/4); i++)
     57c:	e0bfff17 	ldw	r2,-4(fp)
     580:	10800044 	addi	r2,r2,1
     584:	e0bfff15 	stw	r2,-4(fp)
     588:	e0bfff17 	ldw	r2,-4(fp)
     58c:	00ffffd4 	movui	r3,65535
     590:	18bff50e 	bge	r3,r2,568 <VgaClearScreen+0x24>

  // Memoire video caracteres
  ptr = (int *)VGA_CHAR_BUF_SUBSYSTEM_ONCHIP_SRAM_BASE;
     594:	00824034 	movhi	r2,2304
     598:	e0bffe15 	stw	r2,-8(fp)
  for(i= 0; i<(0x2000/4); i++)
     59c:	e03fff15 	stw	zero,-4(fp)
     5a0:	00000806 	br	5c4 <VgaClearScreen+0x80>
    *(ptr+i)= 0;
     5a4:	e0bfff17 	ldw	r2,-4(fp)
     5a8:	100490ba 	slli	r2,r2,2
     5ac:	e0fffe17 	ldw	r3,-8(fp)
     5b0:	1885883a 	add	r2,r3,r2
     5b4:	10000015 	stw	zero,0(r2)
  for(i= 0; i<(0x2000/4); i++)
     5b8:	e0bfff17 	ldw	r2,-4(fp)
     5bc:	10800044 	addi	r2,r2,1
     5c0:	e0bfff15 	stw	r2,-4(fp)
     5c4:	e0bfff17 	ldw	r2,-4(fp)
     5c8:	10820010 	cmplti	r2,r2,2048
     5cc:	103ff51e 	bne	r2,zero,5a4 <VgaClearScreen+0x60>
}
     5d0:	0001883a 	nop
     5d4:	0001883a 	nop
     5d8:	e037883a 	mov	sp,fp
     5dc:	df000017 	ldw	fp,0(sp)
     5e0:	dec00104 	addi	sp,sp,4
     5e4:	f800283a 	ret

000005e8 <VgaSetCursor>:

void VgaSetCursor(int col, int row) {
     5e8:	defffd04 	addi	sp,sp,-12
     5ec:	df000215 	stw	fp,8(sp)
     5f0:	df000204 	addi	fp,sp,8
     5f4:	e13fff15 	stw	r4,-4(fp)
     5f8:	e17ffe15 	stw	r5,-8(fp)
  if(row > CHAR_ROW - 1) row = CHAR_ROW - 1;
     5fc:	e0bffe17 	ldw	r2,-8(fp)
     600:	10800790 	cmplti	r2,r2,30
     604:	1000021e 	bne	r2,zero,610 <VgaSetCursor+0x28>
     608:	00800744 	movi	r2,29
     60c:	e0bffe15 	stw	r2,-8(fp)
  if(col > CHAR_COL - 1) col = CHAR_COL - 1;
     610:	e0bfff17 	ldw	r2,-4(fp)
     614:	10800a10 	cmplti	r2,r2,40
     618:	1000021e 	bne	r2,zero,624 <VgaSetCursor+0x3c>
     61c:	008009c4 	movi	r2,39
     620:	e0bfff15 	stw	r2,-4(fp)
  if(row < 0) row = 0;
     624:	e0bffe17 	ldw	r2,-8(fp)
     628:	1000010e 	bge	r2,zero,630 <VgaSetCursor+0x48>
     62c:	e03ffe15 	stw	zero,-8(fp)
  if(col < 0) col = 0;
     630:	e0bfff17 	ldw	r2,-4(fp)
     634:	1000010e 	bge	r2,zero,63c <VgaSetCursor+0x54>
     638:	e03fff15 	stw	zero,-4(fp)
  cur_y = row*8;
     63c:	e0bffe17 	ldw	r2,-8(fp)
     640:	100490fa 	slli	r2,r2,3
     644:	d0ab3115 	stw	r2,-21308(gp)
  cur_x = col*8;
     648:	e0bfff17 	ldw	r2,-4(fp)
     64c:	100490fa 	slli	r2,r2,3
     650:	d0ab3015 	stw	r2,-21312(gp)
}
     654:	0001883a 	nop
     658:	e037883a 	mov	sp,fp
     65c:	df000017 	ldw	fp,0(sp)
     660:	dec00104 	addi	sp,sp,4
     664:	f800283a 	ret

00000668 <VgaWriteCharacter>:

void VgaWriteCharacter(unsigned char c) {
     668:	defff904 	addi	sp,sp,-28
     66c:	df000615 	stw	fp,24(sp)
     670:	df000604 	addi	fp,sp,24
     674:	2005883a 	mov	r2,r4
     678:	e0bffa05 	stb	r2,-24(fp)
  int pixel_buf_ptr;
  int pixel_ptr, row, col;

  // cur_x * 2 car les pixels sont sur 16 bits
  // cur_y * 1024 car lignes sont alignees sur 1024 bits
  pixel_buf_ptr = *(int *)video_buffer + cur_x * 2 + (cur_y * 1024);
     67c:	d0ab2f17 	ldw	r2,-21316(gp)
     680:	10c00017 	ldw	r3,0(r2)
     684:	d0ab3017 	ldw	r2,-21312(gp)
     688:	1085883a 	add	r2,r2,r2
     68c:	1887883a 	add	r3,r3,r2
     690:	d0ab3117 	ldw	r2,-21308(gp)
     694:	100492ba 	slli	r2,r2,10
     698:	1885883a 	add	r2,r3,r2
     69c:	e0bffd15 	stw	r2,-12(fp)

  for (row = 0; row < 8; row++) {
     6a0:	e03fff15 	stw	zero,-4(fp)
     6a4:	00002906 	br	74c <VgaWriteCharacter+0xe4>
    short row_color = rom8x8_bits[(c * 8) + row];
     6a8:	e0bffa03 	ldbu	r2,-24(fp)
     6ac:	100690fa 	slli	r3,r2,3
     6b0:	e0bfff17 	ldw	r2,-4(fp)
     6b4:	1885883a 	add	r2,r3,r2
     6b8:	1087883a 	add	r3,r2,r2
     6bc:	00800074 	movhi	r2,1
     6c0:	1885883a 	add	r2,r3,r2
     6c4:	10babd0b 	ldhu	r2,-5388(r2)
     6c8:	e0bffc8d 	sth	r2,-14(fp)
    for (col = 0; col < 8; col++) {
     6cc:	e03ffe15 	stw	zero,-8(fp)
     6d0:	00001806 	br	734 <VgaWriteCharacter+0xcc>
      pixel_ptr = pixel_buf_ptr + (row * 1024) + (col << 1);
     6d4:	e0bfff17 	ldw	r2,-4(fp)
     6d8:	100692ba 	slli	r3,r2,10
     6dc:	e0bffd17 	ldw	r2,-12(fp)
     6e0:	1887883a 	add	r3,r3,r2
     6e4:	e0bffe17 	ldw	r2,-8(fp)
     6e8:	1085883a 	add	r2,r2,r2
     6ec:	1885883a 	add	r2,r3,r2
     6f0:	e0bffb15 	stw	r2,-20(fp)
      if ((row_color >> (15 - col)) & 1) {
     6f4:	e0fffc8f 	ldh	r3,-14(fp)
     6f8:	010003c4 	movi	r4,15
     6fc:	e0bffe17 	ldw	r2,-8(fp)
     700:	2085c83a 	sub	r2,r4,r2
     704:	1885d83a 	sra	r2,r3,r2
     708:	1080004c 	andi	r2,r2,1
     70c:	10000426 	beq	r2,zero,720 <VgaWriteCharacter+0xb8>
	*(short *)pixel_ptr = 0xFFFF;
     710:	e0bffb17 	ldw	r2,-20(fp)
     714:	00ffffc4 	movi	r3,-1
     718:	10c0000d 	sth	r3,0(r2)
     71c:	00000206 	br	728 <VgaWriteCharacter+0xc0>
      }
      else {
	*(short *)pixel_ptr = 0;
     720:	e0bffb17 	ldw	r2,-20(fp)
     724:	1000000d 	sth	zero,0(r2)
    for (col = 0; col < 8; col++) {
     728:	e0bffe17 	ldw	r2,-8(fp)
     72c:	10800044 	addi	r2,r2,1
     730:	e0bffe15 	stw	r2,-8(fp)
     734:	e0bffe17 	ldw	r2,-8(fp)
     738:	10800210 	cmplti	r2,r2,8
     73c:	103fe51e 	bne	r2,zero,6d4 <VgaWriteCharacter+0x6c>
  for (row = 0; row < 8; row++) {
     740:	e0bfff17 	ldw	r2,-4(fp)
     744:	10800044 	addi	r2,r2,1
     748:	e0bfff15 	stw	r2,-4(fp)
     74c:	e0bfff17 	ldw	r2,-4(fp)
     750:	10800210 	cmplti	r2,r2,8
     754:	103fd41e 	bne	r2,zero,6a8 <VgaWriteCharacter+0x40>
      }
    }
  }
}
     758:	0001883a 	nop
     75c:	0001883a 	nop
     760:	e037883a 	mov	sp,fp
     764:	df000017 	ldw	fp,0(sp)
     768:	dec00104 	addi	sp,sp,4
     76c:	f800283a 	ret

00000770 <VgaWriteScreen>:

void VgaWriteScreen(char *string) {
     770:	defffc04 	addi	sp,sp,-16
     774:	dfc00315 	stw	ra,12(sp)
     778:	df000215 	stw	fp,8(sp)
     77c:	df000204 	addi	fp,sp,8
     780:	e13ffe15 	stw	r4,-8(fp)
  int count;

  count = 0;
     784:	e03fff15 	stw	zero,-4(fp)

  while(string[count] != '\0') {
     788:	00000d06 	br	7c0 <VgaWriteScreen+0x50>
    VgaWriteCharacter(string[count]);
     78c:	e0bfff17 	ldw	r2,-4(fp)
     790:	e0fffe17 	ldw	r3,-8(fp)
     794:	1885883a 	add	r2,r3,r2
     798:	10800003 	ldbu	r2,0(r2)
     79c:	10803fcc 	andi	r2,r2,255
     7a0:	1009883a 	mov	r4,r2
     7a4:	00006680 	call	668 <VgaWriteCharacter>
    cur_x += 8;
     7a8:	d0ab3017 	ldw	r2,-21312(gp)
     7ac:	10800204 	addi	r2,r2,8
     7b0:	d0ab3015 	stw	r2,-21312(gp)
    count++;
     7b4:	e0bfff17 	ldw	r2,-4(fp)
     7b8:	10800044 	addi	r2,r2,1
     7bc:	e0bfff15 	stw	r2,-4(fp)
  while(string[count] != '\0') {
     7c0:	e0bfff17 	ldw	r2,-4(fp)
     7c4:	e0fffe17 	ldw	r3,-8(fp)
     7c8:	1885883a 	add	r2,r3,r2
     7cc:	10800003 	ldbu	r2,0(r2)
     7d0:	10803fcc 	andi	r2,r2,255
     7d4:	1080201c 	xori	r2,r2,128
     7d8:	10bfe004 	addi	r2,r2,-128
     7dc:	103feb1e 	bne	r2,zero,78c <VgaWriteScreen+0x1c>
  }
  //VgaWriteCharacter(' ');
}
     7e0:	0001883a 	nop
     7e4:	0001883a 	nop
     7e8:	e037883a 	mov	sp,fp
     7ec:	dfc00117 	ldw	ra,4(sp)
     7f0:	df000017 	ldw	fp,0(sp)
     7f4:	dec00204 	addi	sp,sp,8
     7f8:	f800283a 	ret

000007fc <VgaPrintAt>:

void VgaPrintAt(int col, int row, char *string) {
     7fc:	defffb04 	addi	sp,sp,-20
     800:	dfc00415 	stw	ra,16(sp)
     804:	df000315 	stw	fp,12(sp)
     808:	df000304 	addi	fp,sp,12
     80c:	e13fff15 	stw	r4,-4(fp)
     810:	e17ffe15 	stw	r5,-8(fp)
     814:	e1bffd15 	stw	r6,-12(fp)
  VgaSetCursor(col, row);
     818:	e17ffe17 	ldw	r5,-8(fp)
     81c:	e13fff17 	ldw	r4,-4(fp)
     820:	00005e80 	call	5e8 <VgaSetCursor>
  VgaWriteScreen(string);
     824:	e13ffd17 	ldw	r4,-12(fp)
     828:	00007700 	call	770 <VgaWriteScreen>
}
     82c:	0001883a 	nop
     830:	e037883a 	mov	sp,fp
     834:	dfc00117 	ldw	ra,4(sp)
     838:	df000017 	ldw	fp,0(sp)
     83c:	dec00204 	addi	sp,sp,8
     840:	f800283a 	ret

00000844 <VgaDrawBox>:

int VgaDrawBox(int x1, int y1, int x2, int y2, short pixel_color) {
     844:	defff604 	addi	sp,sp,-40
     848:	df000915 	stw	fp,36(sp)
     84c:	df000904 	addi	fp,sp,36
     850:	e13ffb15 	stw	r4,-20(fp)
     854:	e17ffa15 	stw	r5,-24(fp)
     858:	e1bff915 	stw	r6,-28(fp)
     85c:	e1fff815 	stw	r7,-32(fp)
     860:	e0800117 	ldw	r2,4(fp)
     864:	e0bff70d 	sth	r2,-36(fp)
  int pixel_buf_ptr = *(int *)video_buffer;
     868:	d0ab2f17 	ldw	r2,-21316(gp)
     86c:	10800017 	ldw	r2,0(r2)
     870:	e0bffd15 	stw	r2,-12(fp)
  int pixel_ptr, row, col;

  if((x1 < 0) || (x2 < 0) || (y1 < 0) || (y2 <0)) return(-1);
     874:	e0bffb17 	ldw	r2,-20(fp)
     878:	10000616 	blt	r2,zero,894 <VgaDrawBox+0x50>
     87c:	e0bff917 	ldw	r2,-28(fp)
     880:	10000416 	blt	r2,zero,894 <VgaDrawBox+0x50>
     884:	e0bffa17 	ldw	r2,-24(fp)
     888:	10000216 	blt	r2,zero,894 <VgaDrawBox+0x50>
     88c:	e0bff817 	ldw	r2,-32(fp)
     890:	1000020e 	bge	r2,zero,89c <VgaDrawBox+0x58>
     894:	00bfffc4 	movi	r2,-1
     898:	00003406 	br	96c <VgaDrawBox+0x128>
  if((x1 > SIZE_X - 1) || (x2 > SIZE_X - 1) || (y1 > SIZE_Y - 1) || (y2 > SIZE_Y - 1)) return(-1);
     89c:	e0bffb17 	ldw	r2,-20(fp)
     8a0:	10805008 	cmpgei	r2,r2,320
     8a4:	1000091e 	bne	r2,zero,8cc <VgaDrawBox+0x88>
     8a8:	e0bff917 	ldw	r2,-28(fp)
     8ac:	10805008 	cmpgei	r2,r2,320
     8b0:	1000061e 	bne	r2,zero,8cc <VgaDrawBox+0x88>
     8b4:	e0bffa17 	ldw	r2,-24(fp)
     8b8:	10803c08 	cmpgei	r2,r2,240
     8bc:	1000031e 	bne	r2,zero,8cc <VgaDrawBox+0x88>
     8c0:	e0bff817 	ldw	r2,-32(fp)
     8c4:	10803c10 	cmplti	r2,r2,240
     8c8:	1000021e 	bne	r2,zero,8d4 <VgaDrawBox+0x90>
     8cc:	00bfffc4 	movi	r2,-1
     8d0:	00002606 	br	96c <VgaDrawBox+0x128>
  if((x2 < x1) ||(y2 < y1)) return(-1);
     8d4:	e0fff917 	ldw	r3,-28(fp)
     8d8:	e0bffb17 	ldw	r2,-20(fp)
     8dc:	18800316 	blt	r3,r2,8ec <VgaDrawBox+0xa8>
     8e0:	e0fff817 	ldw	r3,-32(fp)
     8e4:	e0bffa17 	ldw	r2,-24(fp)
     8e8:	1880020e 	bge	r3,r2,8f4 <VgaDrawBox+0xb0>
     8ec:	00bfffc4 	movi	r2,-1
     8f0:	00001e06 	br	96c <VgaDrawBox+0x128>

  for (row = y1; row <= y2; row++) {
     8f4:	e0bffa17 	ldw	r2,-24(fp)
     8f8:	e0bfff15 	stw	r2,-4(fp)
     8fc:	00001706 	br	95c <VgaDrawBox+0x118>
    for (col = x1; col <= x2; col++) {
     900:	e0bffb17 	ldw	r2,-20(fp)
     904:	e0bffe15 	stw	r2,-8(fp)
     908:	00000e06 	br	944 <VgaDrawBox+0x100>
      pixel_ptr = pixel_buf_ptr + (row * 1024) + (col << 1);
     90c:	e0bfff17 	ldw	r2,-4(fp)
     910:	100692ba 	slli	r3,r2,10
     914:	e0bffd17 	ldw	r2,-12(fp)
     918:	1887883a 	add	r3,r3,r2
     91c:	e0bffe17 	ldw	r2,-8(fp)
     920:	1085883a 	add	r2,r2,r2
     924:	1885883a 	add	r2,r3,r2
     928:	e0bffc15 	stw	r2,-16(fp)
      *(short *)pixel_ptr = pixel_color;
     92c:	e0bffc17 	ldw	r2,-16(fp)
     930:	e0fff70b 	ldhu	r3,-36(fp)
     934:	10c0000d 	sth	r3,0(r2)
    for (col = x1; col <= x2; col++) {
     938:	e0bffe17 	ldw	r2,-8(fp)
     93c:	10800044 	addi	r2,r2,1
     940:	e0bffe15 	stw	r2,-8(fp)
     944:	e0bffe17 	ldw	r2,-8(fp)
     948:	e0fff917 	ldw	r3,-28(fp)
     94c:	18bfef0e 	bge	r3,r2,90c <VgaDrawBox+0xc8>
  for (row = y1; row <= y2; row++) {
     950:	e0bfff17 	ldw	r2,-4(fp)
     954:	10800044 	addi	r2,r2,1
     958:	e0bfff15 	stw	r2,-4(fp)
     95c:	e0bfff17 	ldw	r2,-4(fp)
     960:	e0fff817 	ldw	r3,-32(fp)
     964:	18bfe60e 	bge	r3,r2,900 <VgaDrawBox+0xbc>
    }
  }
  return(0);
     968:	0005883a 	mov	r2,zero
}
     96c:	e037883a 	mov	sp,fp
     970:	df000017 	ldw	fp,0(sp)
     974:	dec00104 	addi	sp,sp,4
     978:	f800283a 	ret

0000097c <_puts_r>:
     97c:	defff504 	addi	sp,sp,-44
     980:	dc000815 	stw	r16,32(sp)
     984:	2021883a 	mov	r16,r4
     988:	2809883a 	mov	r4,r5
     98c:	dc400915 	stw	r17,36(sp)
     990:	dfc00a15 	stw	ra,40(sp)
     994:	2823883a 	mov	r17,r5
     998:	0000a580 	call	a58 <strlen>
     99c:	11000044 	addi	r4,r2,1
     9a0:	d8800515 	stw	r2,20(sp)
     9a4:	00800044 	movi	r2,1
     9a8:	00c00074 	movhi	r3,1
     9ac:	d8800715 	stw	r2,28(sp)
     9b0:	d8800404 	addi	r2,sp,16
     9b4:	18fa4504 	addi	r3,r3,-5868
     9b8:	d8800115 	stw	r2,4(sp)
     9bc:	00800084 	movi	r2,2
     9c0:	dc400415 	stw	r17,16(sp)
     9c4:	d8c00615 	stw	r3,24(sp)
     9c8:	d9000315 	stw	r4,12(sp)
     9cc:	d8800215 	stw	r2,8(sp)
     9d0:	81400217 	ldw	r5,8(r16)
     9d4:	80000226 	beq	r16,zero,9e0 <_puts_r+0x64>
     9d8:	80800e17 	ldw	r2,56(r16)
     9dc:	10001326 	beq	r2,zero,a2c <_puts_r+0xb0>
     9e0:	2880030b 	ldhu	r2,12(r5)
     9e4:	10c8000c 	andi	r3,r2,8192
     9e8:	1800061e 	bne	r3,zero,a04 <_puts_r+0x88>
     9ec:	28c01917 	ldw	r3,100(r5)
     9f0:	0137ffc4 	movi	r4,-8193
     9f4:	10880014 	ori	r2,r2,8192
     9f8:	1906703a 	and	r3,r3,r4
     9fc:	2880030d 	sth	r2,12(r5)
     a00:	28c01915 	stw	r3,100(r5)
     a04:	d9800104 	addi	r6,sp,4
     a08:	8009883a 	mov	r4,r16
     a0c:	0000e740 	call	e74 <__sfvwrite_r>
     a10:	10000b1e 	bne	r2,zero,a40 <_puts_r+0xc4>
     a14:	00800284 	movi	r2,10
     a18:	dfc00a17 	ldw	ra,40(sp)
     a1c:	dc400917 	ldw	r17,36(sp)
     a20:	dc000817 	ldw	r16,32(sp)
     a24:	dec00b04 	addi	sp,sp,44
     a28:	f800283a 	ret
     a2c:	8009883a 	mov	r4,r16
     a30:	d9400015 	stw	r5,0(sp)
     a34:	0000e2c0 	call	e2c <__sinit>
     a38:	d9400017 	ldw	r5,0(sp)
     a3c:	003fe806 	br	9e0 <_puts_r+0x64>
     a40:	00bfffc4 	movi	r2,-1
     a44:	003ff406 	br	a18 <_puts_r+0x9c>

00000a48 <puts>:
     a48:	00800074 	movhi	r2,1
     a4c:	200b883a 	mov	r5,r4
     a50:	11058d17 	ldw	r4,5684(r2)
     a54:	000097c1 	jmpi	97c <_puts_r>

00000a58 <strlen>:
     a58:	208000cc 	andi	r2,r4,3
     a5c:	10000926 	beq	r2,zero,a84 <strlen+0x2c>
     a60:	2005883a 	mov	r2,r4
     a64:	00000306 	br	a74 <strlen+0x1c>
     a68:	10800044 	addi	r2,r2,1
     a6c:	10c000cc 	andi	r3,r2,3
     a70:	18000526 	beq	r3,zero,a88 <strlen+0x30>
     a74:	10c00007 	ldb	r3,0(r2)
     a78:	183ffb1e 	bne	r3,zero,a68 <strlen+0x10>
     a7c:	1105c83a 	sub	r2,r2,r4
     a80:	f800283a 	ret
     a84:	2005883a 	mov	r2,r4
     a88:	11400017 	ldw	r5,0(r2)
     a8c:	01ffbff4 	movhi	r7,65279
     a90:	39ffbfc4 	addi	r7,r7,-257
     a94:	29c7883a 	add	r3,r5,r7
     a98:	01a02074 	movhi	r6,32897
     a9c:	014a303a 	nor	r5,zero,r5
     aa0:	1946703a 	and	r3,r3,r5
     aa4:	31a02004 	addi	r6,r6,-32640
     aa8:	1986703a 	and	r3,r3,r6
     aac:	1800071e 	bne	r3,zero,acc <strlen+0x74>
     ab0:	11400117 	ldw	r5,4(r2)
     ab4:	10800104 	addi	r2,r2,4
     ab8:	29c7883a 	add	r3,r5,r7
     abc:	014a303a 	nor	r5,zero,r5
     ac0:	1946703a 	and	r3,r3,r5
     ac4:	1986703a 	and	r3,r3,r6
     ac8:	183ff926 	beq	r3,zero,ab0 <strlen+0x58>
     acc:	10c00007 	ldb	r3,0(r2)
     ad0:	183fea26 	beq	r3,zero,a7c <strlen+0x24>
     ad4:	10c00047 	ldb	r3,1(r2)
     ad8:	10800044 	addi	r2,r2,1
     adc:	183fe726 	beq	r3,zero,a7c <strlen+0x24>
     ae0:	10c00047 	ldb	r3,1(r2)
     ae4:	10800044 	addi	r2,r2,1
     ae8:	183ffa1e 	bne	r3,zero,ad4 <strlen+0x7c>
     aec:	003fe306 	br	a7c <strlen+0x24>

00000af0 <__fp_lock>:
     af0:	0005883a 	mov	r2,zero
     af4:	f800283a 	ret

00000af8 <_cleanup_r>:
     af8:	01400034 	movhi	r5,0
     afc:	294a5a04 	addi	r5,r5,10600
     b00:	00013c81 	jmpi	13c8 <_fwalk_reent>

00000b04 <__fp_unlock>:
     b04:	0005883a 	mov	r2,zero
     b08:	f800283a 	ret

00000b0c <__sinit.part.0>:
     b0c:	00c00034 	movhi	r3,0
     b10:	20800117 	ldw	r2,4(r4)
     b14:	18c2be04 	addi	r3,r3,2808
     b18:	20c00f15 	stw	r3,60(r4)
     b1c:	2140bb04 	addi	r5,r4,748
     b20:	00c000c4 	movi	r3,3
     b24:	20c0b915 	stw	r3,740(r4)
     b28:	2140ba15 	stw	r5,744(r4)
     b2c:	2000b815 	stw	zero,736(r4)
     b30:	10001705 	stb	zero,92(r2)
     b34:	10001745 	stb	zero,93(r2)
     b38:	10001785 	stb	zero,94(r2)
     b3c:	100017c5 	stb	zero,95(r2)
     b40:	10001805 	stb	zero,96(r2)
     b44:	10001845 	stb	zero,97(r2)
     b48:	10001885 	stb	zero,98(r2)
     b4c:	100018c5 	stb	zero,99(r2)
     b50:	00c00104 	movi	r3,4
     b54:	10c00315 	stw	r3,12(r2)
     b58:	02000034 	movhi	r8,0
     b5c:	20c00217 	ldw	r3,8(r4)
     b60:	01c00034 	movhi	r7,0
     b64:	01800034 	movhi	r6,0
     b68:	01400034 	movhi	r5,0
     b6c:	42098204 	addi	r8,r8,9736
     b70:	39c99904 	addi	r7,r7,9828
     b74:	3189b904 	addi	r6,r6,9956
     b78:	2949d004 	addi	r5,r5,10048
     b7c:	02400074 	movhi	r9,1
     b80:	10001915 	stw	zero,100(r2)
     b84:	10000015 	stw	zero,0(r2)
     b88:	10000115 	stw	zero,4(r2)
     b8c:	10000215 	stw	zero,8(r2)
     b90:	10000415 	stw	zero,16(r2)
     b94:	10000515 	stw	zero,20(r2)
     b98:	10000615 	stw	zero,24(r2)
     b9c:	10800715 	stw	r2,28(r2)
     ba0:	12000815 	stw	r8,32(r2)
     ba4:	11c00915 	stw	r7,36(r2)
     ba8:	11800a15 	stw	r6,40(r2)
     bac:	11400b15 	stw	r5,44(r2)
     bb0:	4a400284 	addi	r9,r9,10
     bb4:	1a400315 	stw	r9,12(r3)
     bb8:	18001915 	stw	zero,100(r3)
     bbc:	18000015 	stw	zero,0(r3)
     bc0:	18000115 	stw	zero,4(r3)
     bc4:	18000215 	stw	zero,8(r3)
     bc8:	18000415 	stw	zero,16(r3)
     bcc:	18001705 	stb	zero,92(r3)
     bd0:	18001745 	stb	zero,93(r3)
     bd4:	18001785 	stb	zero,94(r3)
     bd8:	180017c5 	stb	zero,95(r3)
     bdc:	18001805 	stb	zero,96(r3)
     be0:	18001845 	stb	zero,97(r3)
     be4:	18001885 	stb	zero,98(r3)
     be8:	180018c5 	stb	zero,99(r3)
     bec:	20800317 	ldw	r2,12(r4)
     bf0:	024000b4 	movhi	r9,2
     bf4:	18000515 	stw	zero,20(r3)
     bf8:	18000615 	stw	zero,24(r3)
     bfc:	18c00715 	stw	r3,28(r3)
     c00:	1a000815 	stw	r8,32(r3)
     c04:	19c00915 	stw	r7,36(r3)
     c08:	19800a15 	stw	r6,40(r3)
     c0c:	19400b15 	stw	r5,44(r3)
     c10:	4a400484 	addi	r9,r9,18
     c14:	10001915 	stw	zero,100(r2)
     c18:	10000015 	stw	zero,0(r2)
     c1c:	10000115 	stw	zero,4(r2)
     c20:	10000215 	stw	zero,8(r2)
     c24:	12400315 	stw	r9,12(r2)
     c28:	10000415 	stw	zero,16(r2)
     c2c:	10000515 	stw	zero,20(r2)
     c30:	10000615 	stw	zero,24(r2)
     c34:	10001705 	stb	zero,92(r2)
     c38:	10001745 	stb	zero,93(r2)
     c3c:	10001785 	stb	zero,94(r2)
     c40:	100017c5 	stb	zero,95(r2)
     c44:	10001805 	stb	zero,96(r2)
     c48:	10001845 	stb	zero,97(r2)
     c4c:	10001885 	stb	zero,98(r2)
     c50:	100018c5 	stb	zero,99(r2)
     c54:	10800715 	stw	r2,28(r2)
     c58:	12000815 	stw	r8,32(r2)
     c5c:	11c00915 	stw	r7,36(r2)
     c60:	11800a15 	stw	r6,40(r2)
     c64:	11400b15 	stw	r5,44(r2)
     c68:	00800044 	movi	r2,1
     c6c:	20800e15 	stw	r2,56(r4)
     c70:	f800283a 	ret

00000c74 <__sfmoreglue>:
     c74:	defffc04 	addi	sp,sp,-16
     c78:	dc400115 	stw	r17,4(sp)
     c7c:	2c7fffc4 	addi	r17,r5,-1
     c80:	8c401a24 	muli	r17,r17,104
     c84:	dc800215 	stw	r18,8(sp)
     c88:	2825883a 	mov	r18,r5
     c8c:	89401d04 	addi	r5,r17,116
     c90:	dc000015 	stw	r16,0(sp)
     c94:	dfc00315 	stw	ra,12(sp)
     c98:	00014700 	call	1470 <_malloc_r>
     c9c:	1021883a 	mov	r16,r2
     ca0:	10000726 	beq	r2,zero,cc0 <__sfmoreglue+0x4c>
     ca4:	11000304 	addi	r4,r2,12
     ca8:	10000015 	stw	zero,0(r2)
     cac:	14800115 	stw	r18,4(r2)
     cb0:	11000215 	stw	r4,8(r2)
     cb4:	89801a04 	addi	r6,r17,104
     cb8:	000b883a 	mov	r5,zero
     cbc:	0001f4c0 	call	1f4c <memset>
     cc0:	8005883a 	mov	r2,r16
     cc4:	dfc00317 	ldw	ra,12(sp)
     cc8:	dc800217 	ldw	r18,8(sp)
     ccc:	dc400117 	ldw	r17,4(sp)
     cd0:	dc000017 	ldw	r16,0(sp)
     cd4:	dec00404 	addi	sp,sp,16
     cd8:	f800283a 	ret

00000cdc <__sfp>:
     cdc:	defffb04 	addi	sp,sp,-20
     ce0:	00800074 	movhi	r2,1
     ce4:	dc400115 	stw	r17,4(sp)
     ce8:	14458c17 	ldw	r17,5680(r2)
     cec:	dc800215 	stw	r18,8(sp)
     cf0:	dfc00415 	stw	ra,16(sp)
     cf4:	88800e17 	ldw	r2,56(r17)
     cf8:	dcc00315 	stw	r19,12(sp)
     cfc:	dc000015 	stw	r16,0(sp)
     d00:	2025883a 	mov	r18,r4
     d04:	10002f26 	beq	r2,zero,dc4 <__sfp+0xe8>
     d08:	8c40b804 	addi	r17,r17,736
     d0c:	04c00104 	movi	r19,4
     d10:	88800117 	ldw	r2,4(r17)
     d14:	8c000217 	ldw	r16,8(r17)
     d18:	10bfffc4 	addi	r2,r2,-1
     d1c:	1000030e 	bge	r2,zero,d2c <__sfp+0x50>
     d20:	00002406 	br	db4 <__sfp+0xd8>
     d24:	84001a04 	addi	r16,r16,104
     d28:	28002226 	beq	r5,zero,db4 <__sfp+0xd8>
     d2c:	80c0030f 	ldh	r3,12(r16)
     d30:	10bfffc4 	addi	r2,r2,-1
     d34:	117fffd8 	cmpnei	r5,r2,-1
     d38:	183ffa1e 	bne	r3,zero,d24 <__sfp+0x48>
     d3c:	00bffff4 	movhi	r2,65535
     d40:	10800044 	addi	r2,r2,1
     d44:	80001915 	stw	zero,100(r16)
     d48:	80000015 	stw	zero,0(r16)
     d4c:	80000115 	stw	zero,4(r16)
     d50:	80000215 	stw	zero,8(r16)
     d54:	80800315 	stw	r2,12(r16)
     d58:	80000415 	stw	zero,16(r16)
     d5c:	80000515 	stw	zero,20(r16)
     d60:	80000615 	stw	zero,24(r16)
     d64:	80001705 	stb	zero,92(r16)
     d68:	80001745 	stb	zero,93(r16)
     d6c:	80001785 	stb	zero,94(r16)
     d70:	800017c5 	stb	zero,95(r16)
     d74:	80001805 	stb	zero,96(r16)
     d78:	80001845 	stb	zero,97(r16)
     d7c:	80001885 	stb	zero,98(r16)
     d80:	800018c5 	stb	zero,99(r16)
     d84:	80000c15 	stw	zero,48(r16)
     d88:	80000d15 	stw	zero,52(r16)
     d8c:	80001115 	stw	zero,68(r16)
     d90:	80001215 	stw	zero,72(r16)
     d94:	8005883a 	mov	r2,r16
     d98:	dfc00417 	ldw	ra,16(sp)
     d9c:	dcc00317 	ldw	r19,12(sp)
     da0:	dc800217 	ldw	r18,8(sp)
     da4:	dc400117 	ldw	r17,4(sp)
     da8:	dc000017 	ldw	r16,0(sp)
     dac:	dec00504 	addi	sp,sp,20
     db0:	f800283a 	ret
     db4:	8c000017 	ldw	r16,0(r17)
     db8:	80000526 	beq	r16,zero,dd0 <__sfp+0xf4>
     dbc:	8023883a 	mov	r17,r16
     dc0:	003fd306 	br	d10 <__sfp+0x34>
     dc4:	8809883a 	mov	r4,r17
     dc8:	0000b0c0 	call	b0c <__sinit.part.0>
     dcc:	003fce06 	br	d08 <__sfp+0x2c>
     dd0:	01406b04 	movi	r5,428
     dd4:	9009883a 	mov	r4,r18
     dd8:	00014700 	call	1470 <_malloc_r>
     ddc:	1021883a 	mov	r16,r2
     de0:	10000926 	beq	r2,zero,e08 <__sfp+0x12c>
     de4:	11000304 	addi	r4,r2,12
     de8:	10000015 	stw	zero,0(r2)
     dec:	14c00115 	stw	r19,4(r2)
     df0:	11000215 	stw	r4,8(r2)
     df4:	01806804 	movi	r6,416
     df8:	000b883a 	mov	r5,zero
     dfc:	0001f4c0 	call	1f4c <memset>
     e00:	8c000015 	stw	r16,0(r17)
     e04:	003fed06 	br	dbc <__sfp+0xe0>
     e08:	88000015 	stw	zero,0(r17)
     e0c:	00800304 	movi	r2,12
     e10:	90800015 	stw	r2,0(r18)
     e14:	003fdf06 	br	d94 <__sfp+0xb8>

00000e18 <_cleanup>:
     e18:	00800074 	movhi	r2,1
     e1c:	11058c17 	ldw	r4,5680(r2)
     e20:	01400034 	movhi	r5,0
     e24:	294a5a04 	addi	r5,r5,10600
     e28:	00013c81 	jmpi	13c8 <_fwalk_reent>

00000e2c <__sinit>:
     e2c:	20800e17 	ldw	r2,56(r4)
     e30:	10000126 	beq	r2,zero,e38 <__sinit+0xc>
     e34:	f800283a 	ret
     e38:	0000b0c1 	jmpi	b0c <__sinit.part.0>

00000e3c <__sfp_lock_acquire>:
     e3c:	f800283a 	ret

00000e40 <__sfp_lock_release>:
     e40:	f800283a 	ret

00000e44 <__sinit_lock_acquire>:
     e44:	f800283a 	ret

00000e48 <__sinit_lock_release>:
     e48:	f800283a 	ret

00000e4c <__fp_lock_all>:
     e4c:	00800074 	movhi	r2,1
     e50:	11058d17 	ldw	r4,5684(r2)
     e54:	01400034 	movhi	r5,0
     e58:	2942bc04 	addi	r5,r5,2800
     e5c:	00013301 	jmpi	1330 <_fwalk>

00000e60 <__fp_unlock_all>:
     e60:	00800074 	movhi	r2,1
     e64:	11058d17 	ldw	r4,5684(r2)
     e68:	01400034 	movhi	r5,0
     e6c:	2942c104 	addi	r5,r5,2820
     e70:	00013301 	jmpi	1330 <_fwalk>

00000e74 <__sfvwrite_r>:
     e74:	30800217 	ldw	r2,8(r6)
     e78:	1000c626 	beq	r2,zero,1194 <__sfvwrite_r+0x320>
     e7c:	2a80030b 	ldhu	r10,12(r5)
     e80:	defff404 	addi	sp,sp,-48
     e84:	df000a15 	stw	fp,40(sp)
     e88:	dc800415 	stw	r18,16(sp)
     e8c:	dc000215 	stw	r16,8(sp)
     e90:	dfc00b15 	stw	ra,44(sp)
     e94:	ddc00915 	stw	r23,36(sp)
     e98:	dd800815 	stw	r22,32(sp)
     e9c:	dd400715 	stw	r21,28(sp)
     ea0:	dd000615 	stw	r20,24(sp)
     ea4:	dcc00515 	stw	r19,20(sp)
     ea8:	dc400315 	stw	r17,12(sp)
     eac:	5080020c 	andi	r2,r10,8
     eb0:	3039883a 	mov	fp,r6
     eb4:	2025883a 	mov	r18,r4
     eb8:	2821883a 	mov	r16,r5
     ebc:	10002226 	beq	r2,zero,f48 <__sfvwrite_r+0xd4>
     ec0:	28800417 	ldw	r2,16(r5)
     ec4:	10002026 	beq	r2,zero,f48 <__sfvwrite_r+0xd4>
     ec8:	5080008c 	andi	r2,r10,2
     ecc:	e4400017 	ldw	r17,0(fp)
     ed0:	10002526 	beq	r2,zero,f68 <__sfvwrite_r+0xf4>
     ed4:	80800917 	ldw	r2,36(r16)
     ed8:	81400717 	ldw	r5,28(r16)
     edc:	05600034 	movhi	r21,32768
     ee0:	0029883a 	mov	r20,zero
     ee4:	0027883a 	mov	r19,zero
     ee8:	ad7f0004 	addi	r21,r21,-1024
     eec:	a00d883a 	mov	r6,r20
     ef0:	9009883a 	mov	r4,r18
     ef4:	98001026 	beq	r19,zero,f38 <__sfvwrite_r+0xc4>
     ef8:	980f883a 	mov	r7,r19
     efc:	acc0012e 	bgeu	r21,r19,f04 <__sfvwrite_r+0x90>
     f00:	a80f883a 	mov	r7,r21
     f04:	103ee83a 	callr	r2
     f08:	00809d0e 	bge	zero,r2,1180 <__sfvwrite_r+0x30c>
     f0c:	e0c00217 	ldw	r3,8(fp)
     f10:	a0a9883a 	add	r20,r20,r2
     f14:	98a7c83a 	sub	r19,r19,r2
     f18:	1885c83a 	sub	r2,r3,r2
     f1c:	e0800215 	stw	r2,8(fp)
     f20:	10008626 	beq	r2,zero,113c <__sfvwrite_r+0x2c8>
     f24:	80800917 	ldw	r2,36(r16)
     f28:	81400717 	ldw	r5,28(r16)
     f2c:	a00d883a 	mov	r6,r20
     f30:	9009883a 	mov	r4,r18
     f34:	983ff01e 	bne	r19,zero,ef8 <__sfvwrite_r+0x84>
     f38:	8d000017 	ldw	r20,0(r17)
     f3c:	8cc00117 	ldw	r19,4(r17)
     f40:	8c400204 	addi	r17,r17,8
     f44:	003fe906 	br	eec <__sfvwrite_r+0x78>
     f48:	800b883a 	mov	r5,r16
     f4c:	9009883a 	mov	r4,r18
     f50:	00027ac0 	call	27ac <__swsetup_r>
     f54:	1000f41e 	bne	r2,zero,1328 <__sfvwrite_r+0x4b4>
     f58:	8280030b 	ldhu	r10,12(r16)
     f5c:	e4400017 	ldw	r17,0(fp)
     f60:	5080008c 	andi	r2,r10,2
     f64:	103fdb1e 	bne	r2,zero,ed4 <__sfvwrite_r+0x60>
     f68:	5080004c 	andi	r2,r10,1
     f6c:	1000511e 	bne	r2,zero,10b4 <__sfvwrite_r+0x240>
     f70:	00a00034 	movhi	r2,32768
     f74:	10bfff84 	addi	r2,r2,-2
     f78:	01200034 	movhi	r4,32768
     f7c:	82000017 	ldw	r8,0(r16)
     f80:	80c00217 	ldw	r3,8(r16)
     f84:	d8800015 	stw	r2,0(sp)
     f88:	20bfffc4 	addi	r2,r4,-1
     f8c:	002b883a 	mov	r21,zero
     f90:	002d883a 	mov	r22,zero
     f94:	d8800115 	stw	r2,4(sp)
     f98:	4009883a 	mov	r4,r8
     f9c:	1827883a 	mov	r19,r3
     fa0:	b0004026 	beq	r22,zero,10a4 <__sfvwrite_r+0x230>
     fa4:	5080800c 	andi	r2,r10,512
     fa8:	10009426 	beq	r2,zero,11fc <__sfvwrite_r+0x388>
     fac:	1829883a 	mov	r20,r3
     fb0:	b0c0b836 	bltu	r22,r3,1294 <__sfvwrite_r+0x420>
     fb4:	5081200c 	andi	r2,r10,1152
     fb8:	10002426 	beq	r2,zero,104c <__sfvwrite_r+0x1d8>
     fbc:	80800517 	ldw	r2,20(r16)
     fc0:	81000417 	ldw	r4,16(r16)
     fc4:	108000e4 	muli	r2,r2,3
     fc8:	412fc83a 	sub	r23,r8,r4
     fcc:	b8c00044 	addi	r3,r23,1
     fd0:	100ed7fa 	srli	r7,r2,31
     fd4:	1d87883a 	add	r3,r3,r22
     fd8:	388f883a 	add	r7,r7,r2
     fdc:	3827d07a 	srai	r19,r7,1
     fe0:	980b883a 	mov	r5,r19
     fe4:	98c0022e 	bgeu	r19,r3,ff0 <__sfvwrite_r+0x17c>
     fe8:	1827883a 	mov	r19,r3
     fec:	180b883a 	mov	r5,r3
     ff0:	5281000c 	andi	r10,r10,1024
     ff4:	5000ba26 	beq	r10,zero,12e0 <__sfvwrite_r+0x46c>
     ff8:	9009883a 	mov	r4,r18
     ffc:	00014700 	call	1470 <_malloc_r>
    1000:	1000c526 	beq	r2,zero,1318 <__sfvwrite_r+0x4a4>
    1004:	81400417 	ldw	r5,16(r16)
    1008:	1009883a 	mov	r4,r2
    100c:	b80d883a 	mov	r6,r23
    1010:	0001d200 	call	1d20 <memcpy>
    1014:	1007883a 	mov	r3,r2
    1018:	8080030b 	ldhu	r2,12(r16)
    101c:	013edfc4 	movi	r4,-1153
    1020:	1104703a 	and	r2,r2,r4
    1024:	10802014 	ori	r2,r2,128
    1028:	8080030d 	sth	r2,12(r16)
    102c:	9dd1c83a 	sub	r8,r19,r23
    1030:	1dc9883a 	add	r4,r3,r23
    1034:	84c00515 	stw	r19,20(r16)
    1038:	80c00415 	stw	r3,16(r16)
    103c:	81000015 	stw	r4,0(r16)
    1040:	b027883a 	mov	r19,r22
    1044:	82000215 	stw	r8,8(r16)
    1048:	b029883a 	mov	r20,r22
    104c:	a00d883a 	mov	r6,r20
    1050:	a80b883a 	mov	r5,r21
    1054:	0001e200 	call	1e20 <memmove>
    1058:	80c00217 	ldw	r3,8(r16)
    105c:	82000017 	ldw	r8,0(r16)
    1060:	b02f883a 	mov	r23,r22
    1064:	1cc7c83a 	sub	r3,r3,r19
    1068:	450d883a 	add	r6,r8,r20
    106c:	80c00215 	stw	r3,8(r16)
    1070:	81800015 	stw	r6,0(r16)
    1074:	002d883a 	mov	r22,zero
    1078:	e0800217 	ldw	r2,8(fp)
    107c:	adeb883a 	add	r21,r21,r23
    1080:	15c5c83a 	sub	r2,r2,r23
    1084:	e0800215 	stw	r2,8(fp)
    1088:	10002c26 	beq	r2,zero,113c <__sfvwrite_r+0x2c8>
    108c:	82000017 	ldw	r8,0(r16)
    1090:	80c00217 	ldw	r3,8(r16)
    1094:	8280030b 	ldhu	r10,12(r16)
    1098:	4009883a 	mov	r4,r8
    109c:	1827883a 	mov	r19,r3
    10a0:	b03fc01e 	bne	r22,zero,fa4 <__sfvwrite_r+0x130>
    10a4:	8d400017 	ldw	r21,0(r17)
    10a8:	8d800117 	ldw	r22,4(r17)
    10ac:	8c400204 	addi	r17,r17,8
    10b0:	003fb906 	br	f98 <__sfvwrite_r+0x124>
    10b4:	002f883a 	mov	r23,zero
    10b8:	0005883a 	mov	r2,zero
    10bc:	002d883a 	mov	r22,zero
    10c0:	0029883a 	mov	r20,zero
    10c4:	a0003526 	beq	r20,zero,119c <__sfvwrite_r+0x328>
    10c8:	10003926 	beq	r2,zero,11b0 <__sfvwrite_r+0x33c>
    10cc:	b805883a 	mov	r2,r23
    10d0:	a02b883a 	mov	r21,r20
    10d4:	1500012e 	bgeu	r2,r20,10dc <__sfvwrite_r+0x268>
    10d8:	102b883a 	mov	r21,r2
    10dc:	81000017 	ldw	r4,0(r16)
    10e0:	80800417 	ldw	r2,16(r16)
    10e4:	84c00217 	ldw	r19,8(r16)
    10e8:	81c00517 	ldw	r7,20(r16)
    10ec:	1100022e 	bgeu	r2,r4,10f8 <__sfvwrite_r+0x284>
    10f0:	99e7883a 	add	r19,r19,r7
    10f4:	9d403616 	blt	r19,r21,11d0 <__sfvwrite_r+0x35c>
    10f8:	a9c06916 	blt	r21,r7,12a0 <__sfvwrite_r+0x42c>
    10fc:	80800917 	ldw	r2,36(r16)
    1100:	81400717 	ldw	r5,28(r16)
    1104:	b00d883a 	mov	r6,r22
    1108:	9009883a 	mov	r4,r18
    110c:	103ee83a 	callr	r2
    1110:	1027883a 	mov	r19,r2
    1114:	00801a0e 	bge	zero,r2,1180 <__sfvwrite_r+0x30c>
    1118:	bcefc83a 	sub	r23,r23,r19
    111c:	b8001426 	beq	r23,zero,1170 <__sfvwrite_r+0x2fc>
    1120:	00800044 	movi	r2,1
    1124:	e0c00217 	ldw	r3,8(fp)
    1128:	b4ed883a 	add	r22,r22,r19
    112c:	a4e9c83a 	sub	r20,r20,r19
    1130:	1cc7c83a 	sub	r3,r3,r19
    1134:	e0c00215 	stw	r3,8(fp)
    1138:	183fe21e 	bne	r3,zero,10c4 <__sfvwrite_r+0x250>
    113c:	0005883a 	mov	r2,zero
    1140:	dfc00b17 	ldw	ra,44(sp)
    1144:	df000a17 	ldw	fp,40(sp)
    1148:	ddc00917 	ldw	r23,36(sp)
    114c:	dd800817 	ldw	r22,32(sp)
    1150:	dd400717 	ldw	r21,28(sp)
    1154:	dd000617 	ldw	r20,24(sp)
    1158:	dcc00517 	ldw	r19,20(sp)
    115c:	dc800417 	ldw	r18,16(sp)
    1160:	dc400317 	ldw	r17,12(sp)
    1164:	dc000217 	ldw	r16,8(sp)
    1168:	dec00c04 	addi	sp,sp,48
    116c:	f800283a 	ret
    1170:	800b883a 	mov	r5,r16
    1174:	9009883a 	mov	r4,r18
    1178:	0002c980 	call	2c98 <_fflush_r>
    117c:	103fe926 	beq	r2,zero,1124 <__sfvwrite_r+0x2b0>
    1180:	8080030b 	ldhu	r2,12(r16)
    1184:	10801014 	ori	r2,r2,64
    1188:	8080030d 	sth	r2,12(r16)
    118c:	00bfffc4 	movi	r2,-1
    1190:	003feb06 	br	1140 <__sfvwrite_r+0x2cc>
    1194:	0005883a 	mov	r2,zero
    1198:	f800283a 	ret
    119c:	8d000117 	ldw	r20,4(r17)
    11a0:	8805883a 	mov	r2,r17
    11a4:	8c400204 	addi	r17,r17,8
    11a8:	a03ffc26 	beq	r20,zero,119c <__sfvwrite_r+0x328>
    11ac:	15800017 	ldw	r22,0(r2)
    11b0:	a00d883a 	mov	r6,r20
    11b4:	01400284 	movi	r5,10
    11b8:	b009883a 	mov	r4,r22
    11bc:	0001c540 	call	1c54 <memchr>
    11c0:	10004426 	beq	r2,zero,12d4 <__sfvwrite_r+0x460>
    11c4:	10800044 	addi	r2,r2,1
    11c8:	15afc83a 	sub	r23,r2,r22
    11cc:	003fbf06 	br	10cc <__sfvwrite_r+0x258>
    11d0:	b00b883a 	mov	r5,r22
    11d4:	980d883a 	mov	r6,r19
    11d8:	0001e200 	call	1e20 <memmove>
    11dc:	80800017 	ldw	r2,0(r16)
    11e0:	800b883a 	mov	r5,r16
    11e4:	9009883a 	mov	r4,r18
    11e8:	14c5883a 	add	r2,r2,r19
    11ec:	80800015 	stw	r2,0(r16)
    11f0:	0002c980 	call	2c98 <_fflush_r>
    11f4:	103fc826 	beq	r2,zero,1118 <__sfvwrite_r+0x2a4>
    11f8:	003fe106 	br	1180 <__sfvwrite_r+0x30c>
    11fc:	80800417 	ldw	r2,16(r16)
    1200:	12001136 	bltu	r2,r8,1248 <__sfvwrite_r+0x3d4>
    1204:	85c00517 	ldw	r23,20(r16)
    1208:	b5c00f36 	bltu	r22,r23,1248 <__sfvwrite_r+0x3d4>
    120c:	d8800017 	ldw	r2,0(sp)
    1210:	15802e2e 	bgeu	r2,r22,12cc <__sfvwrite_r+0x458>
    1214:	d9000117 	ldw	r4,4(sp)
    1218:	b80b883a 	mov	r5,r23
    121c:	00035540 	call	3554 <__divsi3>
    1220:	15cf383a 	mul	r7,r2,r23
    1224:	80c00917 	ldw	r3,36(r16)
    1228:	81400717 	ldw	r5,28(r16)
    122c:	a80d883a 	mov	r6,r21
    1230:	9009883a 	mov	r4,r18
    1234:	183ee83a 	callr	r3
    1238:	102f883a 	mov	r23,r2
    123c:	00bfd00e 	bge	zero,r2,1180 <__sfvwrite_r+0x30c>
    1240:	b5edc83a 	sub	r22,r22,r23
    1244:	003f8c06 	br	1078 <__sfvwrite_r+0x204>
    1248:	182f883a 	mov	r23,r3
    124c:	b0c0012e 	bgeu	r22,r3,1254 <__sfvwrite_r+0x3e0>
    1250:	b02f883a 	mov	r23,r22
    1254:	4009883a 	mov	r4,r8
    1258:	b80d883a 	mov	r6,r23
    125c:	a80b883a 	mov	r5,r21
    1260:	0001e200 	call	1e20 <memmove>
    1264:	80c00217 	ldw	r3,8(r16)
    1268:	82000017 	ldw	r8,0(r16)
    126c:	1dc7c83a 	sub	r3,r3,r23
    1270:	45d1883a 	add	r8,r8,r23
    1274:	80c00215 	stw	r3,8(r16)
    1278:	82000015 	stw	r8,0(r16)
    127c:	183ff01e 	bne	r3,zero,1240 <__sfvwrite_r+0x3cc>
    1280:	800b883a 	mov	r5,r16
    1284:	9009883a 	mov	r4,r18
    1288:	0002c980 	call	2c98 <_fflush_r>
    128c:	103fec26 	beq	r2,zero,1240 <__sfvwrite_r+0x3cc>
    1290:	003fbb06 	br	1180 <__sfvwrite_r+0x30c>
    1294:	b027883a 	mov	r19,r22
    1298:	b029883a 	mov	r20,r22
    129c:	003f6b06 	br	104c <__sfvwrite_r+0x1d8>
    12a0:	a80d883a 	mov	r6,r21
    12a4:	b00b883a 	mov	r5,r22
    12a8:	0001e200 	call	1e20 <memmove>
    12ac:	80c00217 	ldw	r3,8(r16)
    12b0:	80800017 	ldw	r2,0(r16)
    12b4:	a827883a 	mov	r19,r21
    12b8:	1d47c83a 	sub	r3,r3,r21
    12bc:	1545883a 	add	r2,r2,r21
    12c0:	80c00215 	stw	r3,8(r16)
    12c4:	80800015 	stw	r2,0(r16)
    12c8:	003f9306 	br	1118 <__sfvwrite_r+0x2a4>
    12cc:	b009883a 	mov	r4,r22
    12d0:	003fd106 	br	1218 <__sfvwrite_r+0x3a4>
    12d4:	a0800044 	addi	r2,r20,1
    12d8:	102f883a 	mov	r23,r2
    12dc:	003f7c06 	br	10d0 <__sfvwrite_r+0x25c>
    12e0:	280d883a 	mov	r6,r5
    12e4:	200b883a 	mov	r5,r4
    12e8:	9009883a 	mov	r4,r18
    12ec:	00020400 	call	2040 <_realloc_r>
    12f0:	1007883a 	mov	r3,r2
    12f4:	103f4d1e 	bne	r2,zero,102c <__sfvwrite_r+0x1b8>
    12f8:	81400417 	ldw	r5,16(r16)
    12fc:	9009883a 	mov	r4,r18
    1300:	0002e980 	call	2e98 <_free_r>
    1304:	8080030b 	ldhu	r2,12(r16)
    1308:	00c00304 	movi	r3,12
    130c:	90c00015 	stw	r3,0(r18)
    1310:	10bfdfcc 	andi	r2,r2,65407
    1314:	003f9b06 	br	1184 <__sfvwrite_r+0x310>
    1318:	00c00304 	movi	r3,12
    131c:	8080030b 	ldhu	r2,12(r16)
    1320:	90c00015 	stw	r3,0(r18)
    1324:	003f9706 	br	1184 <__sfvwrite_r+0x310>
    1328:	00bfffc4 	movi	r2,-1
    132c:	003f8406 	br	1140 <__sfvwrite_r+0x2cc>

00001330 <_fwalk>:
    1330:	defffa04 	addi	sp,sp,-24
    1334:	dd000415 	stw	r20,16(sp)
    1338:	dcc00315 	stw	r19,12(sp)
    133c:	dc800215 	stw	r18,8(sp)
    1340:	dfc00515 	stw	ra,20(sp)
    1344:	dc400115 	stw	r17,4(sp)
    1348:	dc000015 	stw	r16,0(sp)
    134c:	2827883a 	mov	r19,r5
    1350:	2480b804 	addi	r18,r4,736
    1354:	0029883a 	mov	r20,zero
    1358:	94400117 	ldw	r17,4(r18)
    135c:	94000217 	ldw	r16,8(r18)
    1360:	8c7fffc4 	addi	r17,r17,-1
    1364:	88000d16 	blt	r17,zero,139c <_fwalk+0x6c>
    1368:	8080030b 	ldhu	r2,12(r16)
    136c:	8c7fffc4 	addi	r17,r17,-1
    1370:	108000b0 	cmpltui	r2,r2,2
    1374:	1000061e 	bne	r2,zero,1390 <_fwalk+0x60>
    1378:	8080038f 	ldh	r2,14(r16)
    137c:	8009883a 	mov	r4,r16
    1380:	10bfffe0 	cmpeqi	r2,r2,-1
    1384:	1000021e 	bne	r2,zero,1390 <_fwalk+0x60>
    1388:	983ee83a 	callr	r19
    138c:	a0a8b03a 	or	r20,r20,r2
    1390:	88bfffd8 	cmpnei	r2,r17,-1
    1394:	84001a04 	addi	r16,r16,104
    1398:	103ff31e 	bne	r2,zero,1368 <_fwalk+0x38>
    139c:	94800017 	ldw	r18,0(r18)
    13a0:	903fed1e 	bne	r18,zero,1358 <_fwalk+0x28>
    13a4:	a005883a 	mov	r2,r20
    13a8:	dfc00517 	ldw	ra,20(sp)
    13ac:	dd000417 	ldw	r20,16(sp)
    13b0:	dcc00317 	ldw	r19,12(sp)
    13b4:	dc800217 	ldw	r18,8(sp)
    13b8:	dc400117 	ldw	r17,4(sp)
    13bc:	dc000017 	ldw	r16,0(sp)
    13c0:	dec00604 	addi	sp,sp,24
    13c4:	f800283a 	ret

000013c8 <_fwalk_reent>:
    13c8:	defff904 	addi	sp,sp,-28
    13cc:	dd400515 	stw	r21,20(sp)
    13d0:	dd000415 	stw	r20,16(sp)
    13d4:	dcc00315 	stw	r19,12(sp)
    13d8:	dc800215 	stw	r18,8(sp)
    13dc:	dfc00615 	stw	ra,24(sp)
    13e0:	dc400115 	stw	r17,4(sp)
    13e4:	dc000015 	stw	r16,0(sp)
    13e8:	202b883a 	mov	r21,r4
    13ec:	2827883a 	mov	r19,r5
    13f0:	2480b804 	addi	r18,r4,736
    13f4:	0029883a 	mov	r20,zero
    13f8:	94400117 	ldw	r17,4(r18)
    13fc:	94000217 	ldw	r16,8(r18)
    1400:	8c7fffc4 	addi	r17,r17,-1
    1404:	88000e16 	blt	r17,zero,1440 <_fwalk_reent+0x78>
    1408:	8080030b 	ldhu	r2,12(r16)
    140c:	8c7fffc4 	addi	r17,r17,-1
    1410:	108000b0 	cmpltui	r2,r2,2
    1414:	1000071e 	bne	r2,zero,1434 <_fwalk_reent+0x6c>
    1418:	8080038f 	ldh	r2,14(r16)
    141c:	800b883a 	mov	r5,r16
    1420:	a809883a 	mov	r4,r21
    1424:	10bfffe0 	cmpeqi	r2,r2,-1
    1428:	1000021e 	bne	r2,zero,1434 <_fwalk_reent+0x6c>
    142c:	983ee83a 	callr	r19
    1430:	a0a8b03a 	or	r20,r20,r2
    1434:	88bfffd8 	cmpnei	r2,r17,-1
    1438:	84001a04 	addi	r16,r16,104
    143c:	103ff21e 	bne	r2,zero,1408 <_fwalk_reent+0x40>
    1440:	94800017 	ldw	r18,0(r18)
    1444:	903fec1e 	bne	r18,zero,13f8 <_fwalk_reent+0x30>
    1448:	a005883a 	mov	r2,r20
    144c:	dfc00617 	ldw	ra,24(sp)
    1450:	dd400517 	ldw	r21,20(sp)
    1454:	dd000417 	ldw	r20,16(sp)
    1458:	dcc00317 	ldw	r19,12(sp)
    145c:	dc800217 	ldw	r18,8(sp)
    1460:	dc400117 	ldw	r17,4(sp)
    1464:	dc000017 	ldw	r16,0(sp)
    1468:	dec00704 	addi	sp,sp,28
    146c:	f800283a 	ret

00001470 <_malloc_r>:
    1470:	defff604 	addi	sp,sp,-40
    1474:	dc400115 	stw	r17,4(sp)
    1478:	2c4002c4 	addi	r17,r5,11
    147c:	dc800215 	stw	r18,8(sp)
    1480:	dfc00915 	stw	ra,36(sp)
    1484:	df000815 	stw	fp,32(sp)
    1488:	ddc00715 	stw	r23,28(sp)
    148c:	dd800615 	stw	r22,24(sp)
    1490:	dd400515 	stw	r21,20(sp)
    1494:	dd000415 	stw	r20,16(sp)
    1498:	dcc00315 	stw	r19,12(sp)
    149c:	dc000015 	stw	r16,0(sp)
    14a0:	888005e8 	cmpgeui	r2,r17,23
    14a4:	2025883a 	mov	r18,r4
    14a8:	10001b1e 	bne	r2,zero,1518 <_malloc_r+0xa8>
    14ac:	29400468 	cmpgeui	r5,r5,17
    14b0:	2800821e 	bne	r5,zero,16bc <_malloc_r+0x24c>
    14b4:	00041640 	call	4164 <__malloc_lock>
    14b8:	04400404 	movi	r17,16
    14bc:	00800604 	movi	r2,24
    14c0:	01c00084 	movi	r7,2
    14c4:	04c00074 	movhi	r19,1
    14c8:	9cffc604 	addi	r19,r19,-232
    14cc:	9885883a 	add	r2,r19,r2
    14d0:	14000117 	ldw	r16,4(r2)
    14d4:	10fffe04 	addi	r3,r2,-8
    14d8:	80c08b26 	beq	r16,r3,1708 <_malloc_r+0x298>
    14dc:	80800117 	ldw	r2,4(r16)
    14e0:	81000317 	ldw	r4,12(r16)
    14e4:	00ffff04 	movi	r3,-4
    14e8:	10c4703a 	and	r2,r2,r3
    14ec:	81400217 	ldw	r5,8(r16)
    14f0:	8085883a 	add	r2,r16,r2
    14f4:	10c00117 	ldw	r3,4(r2)
    14f8:	29000315 	stw	r4,12(r5)
    14fc:	21400215 	stw	r5,8(r4)
    1500:	18c00054 	ori	r3,r3,1
    1504:	10c00115 	stw	r3,4(r2)
    1508:	9009883a 	mov	r4,r18
    150c:	000428c0 	call	428c <__malloc_unlock>
    1510:	80800204 	addi	r2,r16,8
    1514:	00006c06 	br	16c8 <_malloc_r+0x258>
    1518:	00bffe04 	movi	r2,-8
    151c:	88a2703a 	and	r17,r17,r2
    1520:	88006616 	blt	r17,zero,16bc <_malloc_r+0x24c>
    1524:	89406536 	bltu	r17,r5,16bc <_malloc_r+0x24c>
    1528:	00041640 	call	4164 <__malloc_lock>
    152c:	88807e28 	cmpgeui	r2,r17,504
    1530:	10012326 	beq	r2,zero,19c0 <_malloc_r+0x550>
    1534:	8804d27a 	srli	r2,r17,9
    1538:	10006f26 	beq	r2,zero,16f8 <_malloc_r+0x288>
    153c:	10c00168 	cmpgeui	r3,r2,5
    1540:	1800ff1e 	bne	r3,zero,1940 <_malloc_r+0x4d0>
    1544:	8804d1ba 	srli	r2,r17,6
    1548:	11c00e44 	addi	r7,r2,57
    154c:	380890fa 	slli	r4,r7,3
    1550:	12000e04 	addi	r8,r2,56
    1554:	04c00074 	movhi	r19,1
    1558:	9cffc604 	addi	r19,r19,-232
    155c:	9909883a 	add	r4,r19,r4
    1560:	24000117 	ldw	r16,4(r4)
    1564:	213ffe04 	addi	r4,r4,-8
    1568:	24000b26 	beq	r4,r16,1598 <_malloc_r+0x128>
    156c:	01bfff04 	movi	r6,-4
    1570:	00000306 	br	1580 <_malloc_r+0x110>
    1574:	1800d70e 	bge	r3,zero,18d4 <_malloc_r+0x464>
    1578:	84000317 	ldw	r16,12(r16)
    157c:	24000626 	beq	r4,r16,1598 <_malloc_r+0x128>
    1580:	80800117 	ldw	r2,4(r16)
    1584:	1184703a 	and	r2,r2,r6
    1588:	1447c83a 	sub	r3,r2,r17
    158c:	19400408 	cmpgei	r5,r3,16
    1590:	283ff826 	beq	r5,zero,1574 <_malloc_r+0x104>
    1594:	400f883a 	mov	r7,r8
    1598:	9c000417 	ldw	r16,16(r19)
    159c:	02400074 	movhi	r9,1
    15a0:	4a7fc804 	addi	r9,r9,-224
    15a4:	82405f26 	beq	r16,r9,1724 <_malloc_r+0x2b4>
    15a8:	80800117 	ldw	r2,4(r16)
    15ac:	00ffff04 	movi	r3,-4
    15b0:	10c4703a 	and	r2,r2,r3
    15b4:	1447c83a 	sub	r3,r2,r17
    15b8:	19000410 	cmplti	r4,r3,16
    15bc:	20010b26 	beq	r4,zero,19ec <_malloc_r+0x57c>
    15c0:	9a400515 	stw	r9,20(r19)
    15c4:	9a400415 	stw	r9,16(r19)
    15c8:	1801000e 	bge	r3,zero,19cc <_malloc_r+0x55c>
    15cc:	10c08028 	cmpgeui	r3,r2,512
    15d0:	1800c21e 	bne	r3,zero,18dc <_malloc_r+0x46c>
    15d4:	1006d0fa 	srli	r3,r2,3
    15d8:	1008d17a 	srli	r4,r2,5
    15dc:	00800044 	movi	r2,1
    15e0:	18c00044 	addi	r3,r3,1
    15e4:	180690fa 	slli	r3,r3,3
    15e8:	99400117 	ldw	r5,4(r19)
    15ec:	1104983a 	sll	r2,r2,r4
    15f0:	98c7883a 	add	r3,r19,r3
    15f4:	19000017 	ldw	r4,0(r3)
    15f8:	1144b03a 	or	r2,r2,r5
    15fc:	197ffe04 	addi	r5,r3,-8
    1600:	81400315 	stw	r5,12(r16)
    1604:	81000215 	stw	r4,8(r16)
    1608:	98800115 	stw	r2,4(r19)
    160c:	1c000015 	stw	r16,0(r3)
    1610:	24000315 	stw	r16,12(r4)
    1614:	3807d0ba 	srai	r3,r7,2
    1618:	01000044 	movi	r4,1
    161c:	20c8983a 	sll	r4,r4,r3
    1620:	11004536 	bltu	r2,r4,1738 <_malloc_r+0x2c8>
    1624:	2086703a 	and	r3,r4,r2
    1628:	18000a1e 	bne	r3,zero,1654 <_malloc_r+0x1e4>
    162c:	2109883a 	add	r4,r4,r4
    1630:	00ffff04 	movi	r3,-4
    1634:	38c6703a 	and	r3,r7,r3
    1638:	208a703a 	and	r5,r4,r2
    163c:	19c00104 	addi	r7,r3,4
    1640:	2800041e 	bne	r5,zero,1654 <_malloc_r+0x1e4>
    1644:	2109883a 	add	r4,r4,r4
    1648:	2086703a 	and	r3,r4,r2
    164c:	39c00104 	addi	r7,r7,4
    1650:	183ffc26 	beq	r3,zero,1644 <_malloc_r+0x1d4>
    1654:	02bfff04 	movi	r10,-4
    1658:	381690fa 	slli	r11,r7,3
    165c:	3819883a 	mov	r12,r7
    1660:	9ad7883a 	add	r11,r19,r11
    1664:	5811883a 	mov	r8,r11
    1668:	40800317 	ldw	r2,12(r8)
    166c:	4080bd26 	beq	r8,r2,1964 <_malloc_r+0x4f4>
    1670:	10c00117 	ldw	r3,4(r2)
    1674:	1021883a 	mov	r16,r2
    1678:	10800317 	ldw	r2,12(r2)
    167c:	1a86703a 	and	r3,r3,r10
    1680:	1c4bc83a 	sub	r5,r3,r17
    1684:	29800410 	cmplti	r6,r5,16
    1688:	3000bb26 	beq	r6,zero,1978 <_malloc_r+0x508>
    168c:	283ff716 	blt	r5,zero,166c <_malloc_r+0x1fc>
    1690:	80c7883a 	add	r3,r16,r3
    1694:	19400117 	ldw	r5,4(r3)
    1698:	81800217 	ldw	r6,8(r16)
    169c:	9009883a 	mov	r4,r18
    16a0:	29400054 	ori	r5,r5,1
    16a4:	19400115 	stw	r5,4(r3)
    16a8:	30800315 	stw	r2,12(r6)
    16ac:	11800215 	stw	r6,8(r2)
    16b0:	000428c0 	call	428c <__malloc_unlock>
    16b4:	80800204 	addi	r2,r16,8
    16b8:	00000306 	br	16c8 <_malloc_r+0x258>
    16bc:	00800304 	movi	r2,12
    16c0:	90800015 	stw	r2,0(r18)
    16c4:	0005883a 	mov	r2,zero
    16c8:	dfc00917 	ldw	ra,36(sp)
    16cc:	df000817 	ldw	fp,32(sp)
    16d0:	ddc00717 	ldw	r23,28(sp)
    16d4:	dd800617 	ldw	r22,24(sp)
    16d8:	dd400517 	ldw	r21,20(sp)
    16dc:	dd000417 	ldw	r20,16(sp)
    16e0:	dcc00317 	ldw	r19,12(sp)
    16e4:	dc800217 	ldw	r18,8(sp)
    16e8:	dc400117 	ldw	r17,4(sp)
    16ec:	dc000017 	ldw	r16,0(sp)
    16f0:	dec00a04 	addi	sp,sp,40
    16f4:	f800283a 	ret
    16f8:	01008004 	movi	r4,512
    16fc:	01c01004 	movi	r7,64
    1700:	02000fc4 	movi	r8,63
    1704:	003f9306 	br	1554 <_malloc_r+0xe4>
    1708:	14000317 	ldw	r16,12(r2)
    170c:	39c00084 	addi	r7,r7,2
    1710:	143f721e 	bne	r2,r16,14dc <_malloc_r+0x6c>
    1714:	9c000417 	ldw	r16,16(r19)
    1718:	02400074 	movhi	r9,1
    171c:	4a7fc804 	addi	r9,r9,-224
    1720:	827fa11e 	bne	r16,r9,15a8 <_malloc_r+0x138>
    1724:	3807d0ba 	srai	r3,r7,2
    1728:	01000044 	movi	r4,1
    172c:	98800117 	ldw	r2,4(r19)
    1730:	20c8983a 	sll	r4,r4,r3
    1734:	113fbb2e 	bgeu	r2,r4,1624 <_malloc_r+0x1b4>
    1738:	9c000217 	ldw	r16,8(r19)
    173c:	00bfff04 	movi	r2,-4
    1740:	85800117 	ldw	r22,4(r16)
    1744:	b0ac703a 	and	r22,r22,r2
    1748:	b4400336 	bltu	r22,r17,1758 <_malloc_r+0x2e8>
    174c:	b445c83a 	sub	r2,r22,r17
    1750:	10c00408 	cmpgei	r3,r2,16
    1754:	1800551e 	bne	r3,zero,18ac <_malloc_r+0x43c>
    1758:	00800074 	movhi	r2,1
    175c:	10858e17 	ldw	r2,5688(r2)
    1760:	00c00074 	movhi	r3,1
    1764:	1d50c017 	ldw	r21,17152(r3)
    1768:	10bfffd8 	cmpnei	r2,r2,-1
    176c:	85b9883a 	add	fp,r16,r22
    1770:	8d6b883a 	add	r21,r17,r21
    1774:	1000d726 	beq	r2,zero,1ad4 <_malloc_r+0x664>
    1778:	ad4403c4 	addi	r21,r21,4111
    177c:	00bc0004 	movi	r2,-4096
    1780:	a8aa703a 	and	r21,r21,r2
    1784:	a80b883a 	mov	r5,r21
    1788:	9009883a 	mov	r4,r18
    178c:	00025b00 	call	25b0 <_sbrk_r>
    1790:	102f883a 	mov	r23,r2
    1794:	10bfffd8 	cmpnei	r2,r2,-1
    1798:	1000a926 	beq	r2,zero,1a40 <_malloc_r+0x5d0>
    179c:	bf00a736 	bltu	r23,fp,1a3c <_malloc_r+0x5cc>
    17a0:	008000b4 	movhi	r2,2
    17a4:	1520e217 	ldw	r20,-31864(r2)
    17a8:	ad29883a 	add	r20,r21,r20
    17ac:	1520e215 	stw	r20,-31864(r2)
    17b0:	a007883a 	mov	r3,r20
    17b4:	e5c0ed26 	beq	fp,r23,1b6c <_malloc_r+0x6fc>
    17b8:	00800074 	movhi	r2,1
    17bc:	10858e17 	ldw	r2,5688(r2)
    17c0:	10bfffd8 	cmpnei	r2,r2,-1
    17c4:	1000f026 	beq	r2,zero,1b88 <_malloc_r+0x718>
    17c8:	bf05c83a 	sub	r2,r23,fp
    17cc:	10c5883a 	add	r2,r2,r3
    17d0:	00c000b4 	movhi	r3,2
    17d4:	18a0e215 	stw	r2,-31864(r3)
    17d8:	bf0001cc 	andi	fp,r23,7
    17dc:	e000c626 	beq	fp,zero,1af8 <_malloc_r+0x688>
    17e0:	bf2fc83a 	sub	r23,r23,fp
    17e4:	bdc00204 	addi	r23,r23,8
    17e8:	05040204 	movi	r20,4104
    17ec:	a729c83a 	sub	r20,r20,fp
    17f0:	bd6b883a 	add	r21,r23,r21
    17f4:	a569c83a 	sub	r20,r20,r21
    17f8:	a503ffcc 	andi	r20,r20,4095
    17fc:	a00b883a 	mov	r5,r20
    1800:	9009883a 	mov	r4,r18
    1804:	00025b00 	call	25b0 <_sbrk_r>
    1808:	10ffffe0 	cmpeqi	r3,r2,-1
    180c:	1800f41e 	bne	r3,zero,1be0 <_malloc_r+0x770>
    1810:	15c5c83a 	sub	r2,r2,r23
    1814:	152b883a 	add	r21,r2,r20
    1818:	008000b4 	movhi	r2,2
    181c:	10a0e217 	ldw	r2,-31864(r2)
    1820:	9dc00215 	stw	r23,8(r19)
    1824:	ad400054 	ori	r21,r21,1
    1828:	a0a9883a 	add	r20,r20,r2
    182c:	008000b4 	movhi	r2,2
    1830:	1520e215 	stw	r20,-31864(r2)
    1834:	bd400115 	stw	r21,4(r23)
    1838:	84c0d626 	beq	r16,r19,1b94 <_malloc_r+0x724>
    183c:	b0800428 	cmpgeui	r2,r22,16
    1840:	1000d626 	beq	r2,zero,1b9c <_malloc_r+0x72c>
    1844:	80c00117 	ldw	r3,4(r16)
    1848:	013ffe04 	movi	r4,-8
    184c:	b0bffd04 	addi	r2,r22,-12
    1850:	1104703a 	and	r2,r2,r4
    1854:	18c0004c 	andi	r3,r3,1
    1858:	1886b03a 	or	r3,r3,r2
    185c:	80c00115 	stw	r3,4(r16)
    1860:	01000144 	movi	r4,5
    1864:	8087883a 	add	r3,r16,r2
    1868:	19000115 	stw	r4,4(r3)
    186c:	19000215 	stw	r4,8(r3)
    1870:	10800428 	cmpgeui	r2,r2,16
    1874:	1000df1e 	bne	r2,zero,1bf4 <_malloc_r+0x784>
    1878:	bd400117 	ldw	r21,4(r23)
    187c:	b821883a 	mov	r16,r23
    1880:	00800074 	movhi	r2,1
    1884:	1090bf17 	ldw	r2,17148(r2)
    1888:	1500022e 	bgeu	r2,r20,1894 <_malloc_r+0x424>
    188c:	00800074 	movhi	r2,1
    1890:	1510bf15 	stw	r20,17148(r2)
    1894:	00800074 	movhi	r2,1
    1898:	1090be17 	ldw	r2,17144(r2)
    189c:	15006a2e 	bgeu	r2,r20,1a48 <_malloc_r+0x5d8>
    18a0:	00800074 	movhi	r2,1
    18a4:	1510be15 	stw	r20,17144(r2)
    18a8:	00006706 	br	1a48 <_malloc_r+0x5d8>
    18ac:	88c00054 	ori	r3,r17,1
    18b0:	80c00115 	stw	r3,4(r16)
    18b4:	8463883a 	add	r17,r16,r17
    18b8:	10800054 	ori	r2,r2,1
    18bc:	9c400215 	stw	r17,8(r19)
    18c0:	88800115 	stw	r2,4(r17)
    18c4:	9009883a 	mov	r4,r18
    18c8:	000428c0 	call	428c <__malloc_unlock>
    18cc:	80800204 	addi	r2,r16,8
    18d0:	003f7d06 	br	16c8 <_malloc_r+0x258>
    18d4:	81000317 	ldw	r4,12(r16)
    18d8:	003f0406 	br	14ec <_malloc_r+0x7c>
    18dc:	1006d27a 	srli	r3,r2,9
    18e0:	19000168 	cmpgeui	r4,r3,5
    18e4:	20005026 	beq	r4,zero,1a28 <_malloc_r+0x5b8>
    18e8:	19000568 	cmpgeui	r4,r3,21
    18ec:	20008c1e 	bne	r4,zero,1b20 <_malloc_r+0x6b0>
    18f0:	19401704 	addi	r5,r3,92
    18f4:	280a90fa 	slli	r5,r5,3
    18f8:	190016c4 	addi	r4,r3,91
    18fc:	994b883a 	add	r5,r19,r5
    1900:	28c00017 	ldw	r3,0(r5)
    1904:	297ffe04 	addi	r5,r5,-8
    1908:	28c07426 	beq	r5,r3,1adc <_malloc_r+0x66c>
    190c:	01bfff04 	movi	r6,-4
    1910:	19000117 	ldw	r4,4(r3)
    1914:	2188703a 	and	r4,r4,r6
    1918:	1100022e 	bgeu	r2,r4,1924 <_malloc_r+0x4b4>
    191c:	18c00217 	ldw	r3,8(r3)
    1920:	28fffb1e 	bne	r5,r3,1910 <_malloc_r+0x4a0>
    1924:	19400317 	ldw	r5,12(r3)
    1928:	98800117 	ldw	r2,4(r19)
    192c:	81400315 	stw	r5,12(r16)
    1930:	80c00215 	stw	r3,8(r16)
    1934:	2c000215 	stw	r16,8(r5)
    1938:	1c000315 	stw	r16,12(r3)
    193c:	003f3506 	br	1614 <_malloc_r+0x1a4>
    1940:	10c00568 	cmpgeui	r3,r2,21
    1944:	18004a26 	beq	r3,zero,1a70 <_malloc_r+0x600>
    1948:	10c01568 	cmpgeui	r3,r2,85
    194c:	18007b1e 	bne	r3,zero,1b3c <_malloc_r+0x6cc>
    1950:	8804d33a 	srli	r2,r17,12
    1954:	11c01bc4 	addi	r7,r2,111
    1958:	380890fa 	slli	r4,r7,3
    195c:	12001b84 	addi	r8,r2,110
    1960:	003efc06 	br	1554 <_malloc_r+0xe4>
    1964:	63000044 	addi	r12,r12,1
    1968:	608000cc 	andi	r2,r12,3
    196c:	42000204 	addi	r8,r8,8
    1970:	103f3d1e 	bne	r2,zero,1668 <_malloc_r+0x1f8>
    1974:	00004506 	br	1a8c <_malloc_r+0x61c>
    1978:	81000217 	ldw	r4,8(r16)
    197c:	89800054 	ori	r6,r17,1
    1980:	81800115 	stw	r6,4(r16)
    1984:	20800315 	stw	r2,12(r4)
    1988:	11000215 	stw	r4,8(r2)
    198c:	8463883a 	add	r17,r16,r17
    1990:	9c400515 	stw	r17,20(r19)
    1994:	9c400415 	stw	r17,16(r19)
    1998:	28800054 	ori	r2,r5,1
    199c:	88800115 	stw	r2,4(r17)
    19a0:	8a400315 	stw	r9,12(r17)
    19a4:	8a400215 	stw	r9,8(r17)
    19a8:	80c7883a 	add	r3,r16,r3
    19ac:	19400015 	stw	r5,0(r3)
    19b0:	9009883a 	mov	r4,r18
    19b4:	000428c0 	call	428c <__malloc_unlock>
    19b8:	80800204 	addi	r2,r16,8
    19bc:	003f4206 	br	16c8 <_malloc_r+0x258>
    19c0:	880ed0fa 	srli	r7,r17,3
    19c4:	88800204 	addi	r2,r17,8
    19c8:	003ebe06 	br	14c4 <_malloc_r+0x54>
    19cc:	8085883a 	add	r2,r16,r2
    19d0:	10c00117 	ldw	r3,4(r2)
    19d4:	9009883a 	mov	r4,r18
    19d8:	18c00054 	ori	r3,r3,1
    19dc:	10c00115 	stw	r3,4(r2)
    19e0:	000428c0 	call	428c <__malloc_unlock>
    19e4:	80800204 	addi	r2,r16,8
    19e8:	003f3706 	br	16c8 <_malloc_r+0x258>
    19ec:	89000054 	ori	r4,r17,1
    19f0:	81000115 	stw	r4,4(r16)
    19f4:	8463883a 	add	r17,r16,r17
    19f8:	9c400515 	stw	r17,20(r19)
    19fc:	9c400415 	stw	r17,16(r19)
    1a00:	19000054 	ori	r4,r3,1
    1a04:	89000115 	stw	r4,4(r17)
    1a08:	8085883a 	add	r2,r16,r2
    1a0c:	8a400315 	stw	r9,12(r17)
    1a10:	8a400215 	stw	r9,8(r17)
    1a14:	10c00015 	stw	r3,0(r2)
    1a18:	9009883a 	mov	r4,r18
    1a1c:	000428c0 	call	428c <__malloc_unlock>
    1a20:	80800204 	addi	r2,r16,8
    1a24:	003f2806 	br	16c8 <_malloc_r+0x258>
    1a28:	1006d1ba 	srli	r3,r2,6
    1a2c:	19400e44 	addi	r5,r3,57
    1a30:	280a90fa 	slli	r5,r5,3
    1a34:	19000e04 	addi	r4,r3,56
    1a38:	003fb006 	br	18fc <_malloc_r+0x48c>
    1a3c:	84c04626 	beq	r16,r19,1b58 <_malloc_r+0x6e8>
    1a40:	9c000217 	ldw	r16,8(r19)
    1a44:	85400117 	ldw	r21,4(r16)
    1a48:	00bfff04 	movi	r2,-4
    1a4c:	a8aa703a 	and	r21,r21,r2
    1a50:	ac45c83a 	sub	r2,r21,r17
    1a54:	ac400236 	bltu	r21,r17,1a60 <_malloc_r+0x5f0>
    1a58:	10c00408 	cmpgei	r3,r2,16
    1a5c:	183f931e 	bne	r3,zero,18ac <_malloc_r+0x43c>
    1a60:	9009883a 	mov	r4,r18
    1a64:	000428c0 	call	428c <__malloc_unlock>
    1a68:	0005883a 	mov	r2,zero
    1a6c:	003f1606 	br	16c8 <_malloc_r+0x258>
    1a70:	11c01704 	addi	r7,r2,92
    1a74:	380890fa 	slli	r4,r7,3
    1a78:	120016c4 	addi	r8,r2,91
    1a7c:	003eb506 	br	1554 <_malloc_r+0xe4>
    1a80:	58800217 	ldw	r2,8(r11)
    1a84:	39ffffc4 	addi	r7,r7,-1
    1a88:	12c0701e 	bne	r2,r11,1c4c <_malloc_r+0x7dc>
    1a8c:	388000cc 	andi	r2,r7,3
    1a90:	5afffe04 	addi	r11,r11,-8
    1a94:	103ffa1e 	bne	r2,zero,1a80 <_malloc_r+0x610>
    1a98:	98c00117 	ldw	r3,4(r19)
    1a9c:	0104303a 	nor	r2,zero,r4
    1aa0:	10c4703a 	and	r2,r2,r3
    1aa4:	98800115 	stw	r2,4(r19)
    1aa8:	2109883a 	add	r4,r4,r4
    1aac:	113f2236 	bltu	r2,r4,1738 <_malloc_r+0x2c8>
    1ab0:	203f2126 	beq	r4,zero,1738 <_malloc_r+0x2c8>
    1ab4:	2086703a 	and	r3,r4,r2
    1ab8:	1800041e 	bne	r3,zero,1acc <_malloc_r+0x65c>
    1abc:	2109883a 	add	r4,r4,r4
    1ac0:	2086703a 	and	r3,r4,r2
    1ac4:	63000104 	addi	r12,r12,4
    1ac8:	183ffc26 	beq	r3,zero,1abc <_malloc_r+0x64c>
    1acc:	600f883a 	mov	r7,r12
    1ad0:	003ee106 	br	1658 <_malloc_r+0x1e8>
    1ad4:	ad400404 	addi	r21,r21,16
    1ad8:	003f2a06 	br	1784 <_malloc_r+0x314>
    1adc:	2009d0ba 	srai	r4,r4,2
    1ae0:	00800044 	movi	r2,1
    1ae4:	99800117 	ldw	r6,4(r19)
    1ae8:	1104983a 	sll	r2,r2,r4
    1aec:	1184b03a 	or	r2,r2,r6
    1af0:	98800115 	stw	r2,4(r19)
    1af4:	003f8d06 	br	192c <_malloc_r+0x4bc>
    1af8:	bd69883a 	add	r20,r23,r21
    1afc:	0529c83a 	sub	r20,zero,r20
    1b00:	a503ffcc 	andi	r20,r20,4095
    1b04:	a00b883a 	mov	r5,r20
    1b08:	9009883a 	mov	r4,r18
    1b0c:	00025b00 	call	25b0 <_sbrk_r>
    1b10:	10ffffe0 	cmpeqi	r3,r2,-1
    1b14:	183f3e26 	beq	r3,zero,1810 <_malloc_r+0x3a0>
    1b18:	0029883a 	mov	r20,zero
    1b1c:	003f3e06 	br	1818 <_malloc_r+0x3a8>
    1b20:	19001568 	cmpgeui	r4,r3,85
    1b24:	2000201e 	bne	r4,zero,1ba8 <_malloc_r+0x738>
    1b28:	1006d33a 	srli	r3,r2,12
    1b2c:	19401bc4 	addi	r5,r3,111
    1b30:	280a90fa 	slli	r5,r5,3
    1b34:	19001b84 	addi	r4,r3,110
    1b38:	003f7006 	br	18fc <_malloc_r+0x48c>
    1b3c:	10c05568 	cmpgeui	r3,r2,341
    1b40:	1800201e 	bne	r3,zero,1bc4 <_malloc_r+0x754>
    1b44:	8804d3fa 	srli	r2,r17,15
    1b48:	11c01e04 	addi	r7,r2,120
    1b4c:	380890fa 	slli	r4,r7,3
    1b50:	12001dc4 	addi	r8,r2,119
    1b54:	003e7f06 	br	1554 <_malloc_r+0xe4>
    1b58:	008000b4 	movhi	r2,2
    1b5c:	10e0e217 	ldw	r3,-31864(r2)
    1b60:	a8c7883a 	add	r3,r21,r3
    1b64:	10e0e215 	stw	r3,-31864(r2)
    1b68:	003f1306 	br	17b8 <_malloc_r+0x348>
    1b6c:	e083ffcc 	andi	r2,fp,4095
    1b70:	103f111e 	bne	r2,zero,17b8 <_malloc_r+0x348>
    1b74:	9c000217 	ldw	r16,8(r19)
    1b78:	b56b883a 	add	r21,r22,r21
    1b7c:	ad400054 	ori	r21,r21,1
    1b80:	85400115 	stw	r21,4(r16)
    1b84:	003f3e06 	br	1880 <_malloc_r+0x410>
    1b88:	00800074 	movhi	r2,1
    1b8c:	15c58e15 	stw	r23,5688(r2)
    1b90:	003f1106 	br	17d8 <_malloc_r+0x368>
    1b94:	b821883a 	mov	r16,r23
    1b98:	003f3906 	br	1880 <_malloc_r+0x410>
    1b9c:	00800044 	movi	r2,1
    1ba0:	b8800115 	stw	r2,4(r23)
    1ba4:	003fae06 	br	1a60 <_malloc_r+0x5f0>
    1ba8:	19005568 	cmpgeui	r4,r3,341
    1bac:	2000191e 	bne	r4,zero,1c14 <_malloc_r+0x7a4>
    1bb0:	1006d3fa 	srli	r3,r2,15
    1bb4:	19401e04 	addi	r5,r3,120
    1bb8:	280a90fa 	slli	r5,r5,3
    1bbc:	19001dc4 	addi	r4,r3,119
    1bc0:	003f4e06 	br	18fc <_malloc_r+0x48c>
    1bc4:	10815568 	cmpgeui	r2,r2,1365
    1bc8:	1000191e 	bne	r2,zero,1c30 <_malloc_r+0x7c0>
    1bcc:	8804d4ba 	srli	r2,r17,18
    1bd0:	11c01f44 	addi	r7,r2,125
    1bd4:	380890fa 	slli	r4,r7,3
    1bd8:	12001f04 	addi	r8,r2,124
    1bdc:	003e5d06 	br	1554 <_malloc_r+0xe4>
    1be0:	e73ffe04 	addi	fp,fp,-8
    1be4:	af2b883a 	add	r21,r21,fp
    1be8:	adebc83a 	sub	r21,r21,r23
    1bec:	0029883a 	mov	r20,zero
    1bf0:	003f0906 	br	1818 <_malloc_r+0x3a8>
    1bf4:	81400204 	addi	r5,r16,8
    1bf8:	9009883a 	mov	r4,r18
    1bfc:	0002e980 	call	2e98 <_free_r>
    1c00:	9c000217 	ldw	r16,8(r19)
    1c04:	008000b4 	movhi	r2,2
    1c08:	1520e217 	ldw	r20,-31864(r2)
    1c0c:	85400117 	ldw	r21,4(r16)
    1c10:	003f1b06 	br	1880 <_malloc_r+0x410>
    1c14:	18c15568 	cmpgeui	r3,r3,1365
    1c18:	1800091e 	bne	r3,zero,1c40 <_malloc_r+0x7d0>
    1c1c:	1006d4ba 	srli	r3,r2,18
    1c20:	19401f44 	addi	r5,r3,125
    1c24:	280a90fa 	slli	r5,r5,3
    1c28:	19001f04 	addi	r4,r3,124
    1c2c:	003f3306 	br	18fc <_malloc_r+0x48c>
    1c30:	0100fe04 	movi	r4,1016
    1c34:	01c01fc4 	movi	r7,127
    1c38:	02001f84 	movi	r8,126
    1c3c:	003e4506 	br	1554 <_malloc_r+0xe4>
    1c40:	0140fe04 	movi	r5,1016
    1c44:	01001f84 	movi	r4,126
    1c48:	003f2c06 	br	18fc <_malloc_r+0x48c>
    1c4c:	98800117 	ldw	r2,4(r19)
    1c50:	003f9506 	br	1aa8 <_malloc_r+0x638>

00001c54 <memchr>:
    1c54:	208000cc 	andi	r2,r4,3
    1c58:	280f883a 	mov	r7,r5
    1c5c:	10000e26 	beq	r2,zero,1c98 <memchr+0x44>
    1c60:	30bfffc4 	addi	r2,r6,-1
    1c64:	30001726 	beq	r6,zero,1cc4 <memchr+0x70>
    1c68:	29803fcc 	andi	r6,r5,255
    1c6c:	00000606 	br	1c88 <memchr+0x34>
    1c70:	21000044 	addi	r4,r4,1
    1c74:	20c000cc 	andi	r3,r4,3
    1c78:	18000826 	beq	r3,zero,1c9c <memchr+0x48>
    1c7c:	10bfffc4 	addi	r2,r2,-1
    1c80:	10ffffe0 	cmpeqi	r3,r2,-1
    1c84:	18000f1e 	bne	r3,zero,1cc4 <memchr+0x70>
    1c88:	20c00003 	ldbu	r3,0(r4)
    1c8c:	19bff81e 	bne	r3,r6,1c70 <memchr+0x1c>
    1c90:	2005883a 	mov	r2,r4
    1c94:	f800283a 	ret
    1c98:	3005883a 	mov	r2,r6
    1c9c:	10c00130 	cmpltui	r3,r2,4
    1ca0:	18000a26 	beq	r3,zero,1ccc <memchr+0x78>
    1ca4:	10000726 	beq	r2,zero,1cc4 <memchr+0x70>
    1ca8:	2087883a 	add	r3,r4,r2
    1cac:	39803fcc 	andi	r6,r7,255
    1cb0:	2005883a 	mov	r2,r4
    1cb4:	11000003 	ldbu	r4,0(r2)
    1cb8:	21800326 	beq	r4,r6,1cc8 <memchr+0x74>
    1cbc:	10800044 	addi	r2,r2,1
    1cc0:	18bffc1e 	bne	r3,r2,1cb4 <memchr+0x60>
    1cc4:	0005883a 	mov	r2,zero
    1cc8:	f800283a 	ret
    1ccc:	29403fcc 	andi	r5,r5,255
    1cd0:	2806923a 	slli	r3,r5,8
    1cd4:	027fbff4 	movhi	r9,65279
    1cd8:	02202074 	movhi	r8,32897
    1cdc:	1946b03a 	or	r3,r3,r5
    1ce0:	180c943a 	slli	r6,r3,16
    1ce4:	4a7fbfc4 	addi	r9,r9,-257
    1ce8:	42202004 	addi	r8,r8,-32640
    1cec:	30ccb03a 	or	r6,r6,r3
    1cf0:	20c00017 	ldw	r3,0(r4)
    1cf4:	30c6f03a 	xor	r3,r6,r3
    1cf8:	1a4b883a 	add	r5,r3,r9
    1cfc:	00c6303a 	nor	r3,zero,r3
    1d00:	28c6703a 	and	r3,r5,r3
    1d04:	1a06703a 	and	r3,r3,r8
    1d08:	183fe71e 	bne	r3,zero,1ca8 <memchr+0x54>
    1d0c:	10bfff04 	addi	r2,r2,-4
    1d10:	10c00128 	cmpgeui	r3,r2,4
    1d14:	21000104 	addi	r4,r4,4
    1d18:	183ff51e 	bne	r3,zero,1cf0 <memchr+0x9c>
    1d1c:	003fe106 	br	1ca4 <memchr+0x50>

00001d20 <memcpy>:
    1d20:	30c00430 	cmpltui	r3,r6,16
    1d24:	2005883a 	mov	r2,r4
    1d28:	18002d1e 	bne	r3,zero,1de0 <memcpy+0xc0>
    1d2c:	2146b03a 	or	r3,r4,r5
    1d30:	18c000cc 	andi	r3,r3,3
    1d34:	1800351e 	bne	r3,zero,1e0c <memcpy+0xec>
    1d38:	32fffc04 	addi	r11,r6,-16
    1d3c:	5816d13a 	srli	r11,r11,4
    1d40:	280f883a 	mov	r7,r5
    1d44:	2007883a 	mov	r3,r4
    1d48:	5ac00044 	addi	r11,r11,1
    1d4c:	5816913a 	slli	r11,r11,4
    1d50:	22d5883a 	add	r10,r4,r11
    1d54:	39000117 	ldw	r4,4(r7)
    1d58:	3a400017 	ldw	r9,0(r7)
    1d5c:	3a000217 	ldw	r8,8(r7)
    1d60:	19000115 	stw	r4,4(r3)
    1d64:	39000317 	ldw	r4,12(r7)
    1d68:	1a400015 	stw	r9,0(r3)
    1d6c:	1a000215 	stw	r8,8(r3)
    1d70:	19000315 	stw	r4,12(r3)
    1d74:	18c00404 	addi	r3,r3,16
    1d78:	39c00404 	addi	r7,r7,16
    1d7c:	50fff51e 	bne	r10,r3,1d54 <memcpy+0x34>
    1d80:	3100030c 	andi	r4,r6,12
    1d84:	2acb883a 	add	r5,r5,r11
    1d88:	320003cc 	andi	r8,r6,15
    1d8c:	20002226 	beq	r4,zero,1e18 <memcpy+0xf8>
    1d90:	280f883a 	mov	r7,r5
    1d94:	1813883a 	mov	r9,r3
    1d98:	39c00104 	addi	r7,r7,4
    1d9c:	3abfff17 	ldw	r10,-4(r7)
    1da0:	41c9c83a 	sub	r4,r8,r7
    1da4:	2909883a 	add	r4,r5,r4
    1da8:	4a800015 	stw	r10,0(r9)
    1dac:	21000128 	cmpgeui	r4,r4,4
    1db0:	4a400104 	addi	r9,r9,4
    1db4:	203ff81e 	bne	r4,zero,1d98 <memcpy+0x78>
    1db8:	413fff04 	addi	r4,r8,-4
    1dbc:	2008d0ba 	srli	r4,r4,2
    1dc0:	318000cc 	andi	r6,r6,3
    1dc4:	31ffffc4 	addi	r7,r6,-1
    1dc8:	21000044 	addi	r4,r4,1
    1dcc:	200890ba 	slli	r4,r4,2
    1dd0:	1907883a 	add	r3,r3,r4
    1dd4:	290b883a 	add	r5,r5,r4
    1dd8:	3000041e 	bne	r6,zero,1dec <memcpy+0xcc>
    1ddc:	f800283a 	ret
    1de0:	2007883a 	mov	r3,r4
    1de4:	31ffffc4 	addi	r7,r6,-1
    1de8:	303ffc26 	beq	r6,zero,1ddc <memcpy+0xbc>
    1dec:	39c00044 	addi	r7,r7,1
    1df0:	19cf883a 	add	r7,r3,r7
    1df4:	29800003 	ldbu	r6,0(r5)
    1df8:	18c00044 	addi	r3,r3,1
    1dfc:	29400044 	addi	r5,r5,1
    1e00:	19bfffc5 	stb	r6,-1(r3)
    1e04:	38fffb1e 	bne	r7,r3,1df4 <memcpy+0xd4>
    1e08:	f800283a 	ret
    1e0c:	31ffffc4 	addi	r7,r6,-1
    1e10:	2007883a 	mov	r3,r4
    1e14:	003ff506 	br	1dec <memcpy+0xcc>
    1e18:	400d883a 	mov	r6,r8
    1e1c:	003ff106 	br	1de4 <memcpy+0xc4>

00001e20 <memmove>:
    1e20:	2005883a 	mov	r2,r4
    1e24:	29000a2e 	bgeu	r5,r4,1e50 <memmove+0x30>
    1e28:	2989883a 	add	r4,r5,r6
    1e2c:	1100082e 	bgeu	r2,r4,1e50 <memmove+0x30>
    1e30:	1187883a 	add	r3,r2,r6
    1e34:	30003e26 	beq	r6,zero,1f30 <memmove+0x110>
    1e38:	217fffc3 	ldbu	r5,-1(r4)
    1e3c:	18ffffc4 	addi	r3,r3,-1
    1e40:	213fffc4 	addi	r4,r4,-1
    1e44:	19400005 	stb	r5,0(r3)
    1e48:	10fffb1e 	bne	r2,r3,1e38 <memmove+0x18>
    1e4c:	f800283a 	ret
    1e50:	30c00430 	cmpltui	r3,r6,16
    1e54:	18000b26 	beq	r3,zero,1e84 <memmove+0x64>
    1e58:	1007883a 	mov	r3,r2
    1e5c:	31ffffc4 	addi	r7,r6,-1
    1e60:	30003726 	beq	r6,zero,1f40 <memmove+0x120>
    1e64:	39c00044 	addi	r7,r7,1
    1e68:	29cf883a 	add	r7,r5,r7
    1e6c:	29800003 	ldbu	r6,0(r5)
    1e70:	29400044 	addi	r5,r5,1
    1e74:	18c00044 	addi	r3,r3,1
    1e78:	19bfffc5 	stb	r6,-1(r3)
    1e7c:	29fffb1e 	bne	r5,r7,1e6c <memmove+0x4c>
    1e80:	f800283a 	ret
    1e84:	1146b03a 	or	r3,r2,r5
    1e88:	18c000cc 	andi	r3,r3,3
    1e8c:	1800291e 	bne	r3,zero,1f34 <memmove+0x114>
    1e90:	327ffc04 	addi	r9,r6,-16
    1e94:	4812d13a 	srli	r9,r9,4
    1e98:	280f883a 	mov	r7,r5
    1e9c:	1007883a 	mov	r3,r2
    1ea0:	4a400044 	addi	r9,r9,1
    1ea4:	4812913a 	slli	r9,r9,4
    1ea8:	1251883a 	add	r8,r2,r9
    1eac:	39000017 	ldw	r4,0(r7)
    1eb0:	39c00404 	addi	r7,r7,16
    1eb4:	18c00404 	addi	r3,r3,16
    1eb8:	193ffc15 	stw	r4,-16(r3)
    1ebc:	393ffd17 	ldw	r4,-12(r7)
    1ec0:	193ffd15 	stw	r4,-12(r3)
    1ec4:	393ffe17 	ldw	r4,-8(r7)
    1ec8:	193ffe15 	stw	r4,-8(r3)
    1ecc:	393fff17 	ldw	r4,-4(r7)
    1ed0:	193fff15 	stw	r4,-4(r3)
    1ed4:	40fff51e 	bne	r8,r3,1eac <memmove+0x8c>
    1ed8:	3100030c 	andi	r4,r6,12
    1edc:	2a4b883a 	add	r5,r5,r9
    1ee0:	320003cc 	andi	r8,r6,15
    1ee4:	20001726 	beq	r4,zero,1f44 <memmove+0x124>
    1ee8:	2813883a 	mov	r9,r5
    1eec:	180f883a 	mov	r7,r3
    1ef0:	4a800017 	ldw	r10,0(r9)
    1ef4:	39c00104 	addi	r7,r7,4
    1ef8:	41c9c83a 	sub	r4,r8,r7
    1efc:	1909883a 	add	r4,r3,r4
    1f00:	21000128 	cmpgeui	r4,r4,4
    1f04:	3abfff15 	stw	r10,-4(r7)
    1f08:	4a400104 	addi	r9,r9,4
    1f0c:	203ff81e 	bne	r4,zero,1ef0 <memmove+0xd0>
    1f10:	413fff04 	addi	r4,r8,-4
    1f14:	2008d0ba 	srli	r4,r4,2
    1f18:	318000cc 	andi	r6,r6,3
    1f1c:	21000044 	addi	r4,r4,1
    1f20:	200890ba 	slli	r4,r4,2
    1f24:	1907883a 	add	r3,r3,r4
    1f28:	290b883a 	add	r5,r5,r4
    1f2c:	003fcb06 	br	1e5c <memmove+0x3c>
    1f30:	f800283a 	ret
    1f34:	31ffffc4 	addi	r7,r6,-1
    1f38:	1007883a 	mov	r3,r2
    1f3c:	003fc906 	br	1e64 <memmove+0x44>
    1f40:	f800283a 	ret
    1f44:	400d883a 	mov	r6,r8
    1f48:	003fc406 	br	1e5c <memmove+0x3c>

00001f4c <memset>:
    1f4c:	20c000cc 	andi	r3,r4,3
    1f50:	2005883a 	mov	r2,r4
    1f54:	18003726 	beq	r3,zero,2034 <memset+0xe8>
    1f58:	31ffffc4 	addi	r7,r6,-1
    1f5c:	30003326 	beq	r6,zero,202c <memset+0xe0>
    1f60:	2811883a 	mov	r8,r5
    1f64:	2007883a 	mov	r3,r4
    1f68:	00000306 	br	1f78 <memset+0x2c>
    1f6c:	39ffffc4 	addi	r7,r7,-1
    1f70:	39bfffe0 	cmpeqi	r6,r7,-1
    1f74:	30002d1e 	bne	r6,zero,202c <memset+0xe0>
    1f78:	18c00044 	addi	r3,r3,1
    1f7c:	198000cc 	andi	r6,r3,3
    1f80:	1a3fffc5 	stb	r8,-1(r3)
    1f84:	303ff91e 	bne	r6,zero,1f6c <memset+0x20>
    1f88:	39000128 	cmpgeui	r4,r7,4
    1f8c:	20002226 	beq	r4,zero,2018 <memset+0xcc>
    1f90:	29803fcc 	andi	r6,r5,255
    1f94:	3008923a 	slli	r4,r6,8
    1f98:	3a000430 	cmpltui	r8,r7,16
    1f9c:	2188b03a 	or	r4,r4,r6
    1fa0:	200c943a 	slli	r6,r4,16
    1fa4:	310cb03a 	or	r6,r6,r4
    1fa8:	40000e1e 	bne	r8,zero,1fe4 <memset+0x98>
    1fac:	393ffc04 	addi	r4,r7,-16
    1fb0:	2008d13a 	srli	r4,r4,4
    1fb4:	21000044 	addi	r4,r4,1
    1fb8:	2008913a 	slli	r4,r4,4
    1fbc:	1909883a 	add	r4,r3,r4
    1fc0:	19800015 	stw	r6,0(r3)
    1fc4:	19800115 	stw	r6,4(r3)
    1fc8:	19800215 	stw	r6,8(r3)
    1fcc:	19800315 	stw	r6,12(r3)
    1fd0:	18c00404 	addi	r3,r3,16
    1fd4:	20fffa1e 	bne	r4,r3,1fc0 <memset+0x74>
    1fd8:	3900030c 	andi	r4,r7,12
    1fdc:	39c003cc 	andi	r7,r7,15
    1fe0:	20000d26 	beq	r4,zero,2018 <memset+0xcc>
    1fe4:	1811883a 	mov	r8,r3
    1fe8:	42000104 	addi	r8,r8,4
    1fec:	3a09c83a 	sub	r4,r7,r8
    1ff0:	1909883a 	add	r4,r3,r4
    1ff4:	21000128 	cmpgeui	r4,r4,4
    1ff8:	41bfff15 	stw	r6,-4(r8)
    1ffc:	203ffa1e 	bne	r4,zero,1fe8 <memset+0x9c>
    2000:	393fff04 	addi	r4,r7,-4
    2004:	2008d0ba 	srli	r4,r4,2
    2008:	39c000cc 	andi	r7,r7,3
    200c:	21000044 	addi	r4,r4,1
    2010:	200890ba 	slli	r4,r4,2
    2014:	1907883a 	add	r3,r3,r4
    2018:	38000526 	beq	r7,zero,2030 <memset+0xe4>
    201c:	19cf883a 	add	r7,r3,r7
    2020:	18c00044 	addi	r3,r3,1
    2024:	197fffc5 	stb	r5,-1(r3)
    2028:	38fffd1e 	bne	r7,r3,2020 <memset+0xd4>
    202c:	f800283a 	ret
    2030:	f800283a 	ret
    2034:	2007883a 	mov	r3,r4
    2038:	300f883a 	mov	r7,r6
    203c:	003fd206 	br	1f88 <memset+0x3c>

00002040 <_realloc_r>:
    2040:	defff504 	addi	sp,sp,-44
    2044:	dcc00415 	stw	r19,16(sp)
    2048:	dfc00a15 	stw	ra,40(sp)
    204c:	df000915 	stw	fp,36(sp)
    2050:	ddc00815 	stw	r23,32(sp)
    2054:	dd800715 	stw	r22,28(sp)
    2058:	dd400615 	stw	r21,24(sp)
    205c:	dd000515 	stw	r20,20(sp)
    2060:	dc800315 	stw	r18,12(sp)
    2064:	dc400215 	stw	r17,8(sp)
    2068:	dc000115 	stw	r16,4(sp)
    206c:	3027883a 	mov	r19,r6
    2070:	28008b26 	beq	r5,zero,22a0 <_realloc_r+0x260>
    2074:	2821883a 	mov	r16,r5
    2078:	202b883a 	mov	r21,r4
    207c:	9c4002c4 	addi	r17,r19,11
    2080:	00041640 	call	4164 <__malloc_lock>
    2084:	888005f0 	cmpltui	r2,r17,23
    2088:	84bfff17 	ldw	r18,-4(r16)
    208c:	1000511e 	bne	r2,zero,21d4 <_realloc_r+0x194>
    2090:	00bffe04 	movi	r2,-8
    2094:	88a2703a 	and	r17,r17,r2
    2098:	880b883a 	mov	r5,r17
    209c:	88005016 	blt	r17,zero,21e0 <_realloc_r+0x1a0>
    20a0:	8cc04f36 	bltu	r17,r19,21e0 <_realloc_r+0x1a0>
    20a4:	00ffff04 	movi	r3,-4
    20a8:	90e8703a 	and	r20,r18,r3
    20ac:	85bffe04 	addi	r22,r16,-8
    20b0:	a1403a0e 	bge	r20,r5,219c <_realloc_r+0x15c>
    20b4:	07000074 	movhi	fp,1
    20b8:	e73fc604 	addi	fp,fp,-232
    20bc:	e2000217 	ldw	r8,8(fp)
    20c0:	b50d883a 	add	r6,r22,r20
    20c4:	30800117 	ldw	r2,4(r6)
    20c8:	41808e26 	beq	r8,r6,2304 <_realloc_r+0x2c4>
    20cc:	013fff84 	movi	r4,-2
    20d0:	1108703a 	and	r4,r2,r4
    20d4:	3109883a 	add	r4,r6,r4
    20d8:	21000117 	ldw	r4,4(r4)
    20dc:	2100004c 	andi	r4,r4,1
    20e0:	20004f1e 	bne	r4,zero,2220 <_realloc_r+0x1e0>
    20e4:	10c4703a 	and	r2,r2,r3
    20e8:	a087883a 	add	r3,r20,r2
    20ec:	1940bd0e 	bge	r3,r5,23e4 <_realloc_r+0x3a4>
    20f0:	9480004c 	andi	r18,r18,1
    20f4:	90004c1e 	bne	r18,zero,2228 <_realloc_r+0x1e8>
    20f8:	81fffe17 	ldw	r7,-8(r16)
    20fc:	00ffff04 	movi	r3,-4
    2100:	b1cfc83a 	sub	r7,r22,r7
    2104:	3c800117 	ldw	r18,4(r7)
    2108:	90c6703a 	and	r3,r18,r3
    210c:	30000426 	beq	r6,zero,2120 <_realloc_r+0xe0>
    2110:	a0c9883a 	add	r4,r20,r3
    2114:	20af883a 	add	r23,r4,r2
    2118:	4180bc26 	beq	r8,r6,240c <_realloc_r+0x3cc>
    211c:	b940930e 	bge	r23,r5,236c <_realloc_r+0x32c>
    2120:	38004126 	beq	r7,zero,2228 <_realloc_r+0x1e8>
    2124:	a0ef883a 	add	r23,r20,r3
    2128:	b9403f16 	blt	r23,r5,2228 <_realloc_r+0x1e8>
    212c:	38800317 	ldw	r2,12(r7)
    2130:	38c00217 	ldw	r3,8(r7)
    2134:	a1bfff04 	addi	r6,r20,-4
    2138:	31400968 	cmpgeui	r5,r6,37
    213c:	18800315 	stw	r2,12(r3)
    2140:	10c00215 	stw	r3,8(r2)
    2144:	39000204 	addi	r4,r7,8
    2148:	2800e11e 	bne	r5,zero,24d0 <_realloc_r+0x490>
    214c:	30800530 	cmpltui	r2,r6,20
    2150:	1000dd1e 	bne	r2,zero,24c8 <_realloc_r+0x488>
    2154:	80c00017 	ldw	r3,0(r16)
    2158:	30800728 	cmpgeui	r2,r6,28
    215c:	38c00215 	stw	r3,8(r7)
    2160:	80c00117 	ldw	r3,4(r16)
    2164:	38c00315 	stw	r3,12(r7)
    2168:	1000e21e 	bne	r2,zero,24f4 <_realloc_r+0x4b4>
    216c:	84000204 	addi	r16,r16,8
    2170:	38800404 	addi	r2,r7,16
    2174:	80c00017 	ldw	r3,0(r16)
    2178:	b829883a 	mov	r20,r23
    217c:	382d883a 	mov	r22,r7
    2180:	10c00015 	stw	r3,0(r2)
    2184:	80c00117 	ldw	r3,4(r16)
    2188:	10c00115 	stw	r3,4(r2)
    218c:	80c00217 	ldw	r3,8(r16)
    2190:	2021883a 	mov	r16,r4
    2194:	10c00215 	stw	r3,8(r2)
    2198:	3c800117 	ldw	r18,4(r7)
    219c:	a447c83a 	sub	r3,r20,r17
    21a0:	19000430 	cmpltui	r4,r3,16
    21a4:	9480004c 	andi	r18,r18,1
    21a8:	b505883a 	add	r2,r22,r20
    21ac:	20004926 	beq	r4,zero,22d4 <_realloc_r+0x294>
    21b0:	a4a4b03a 	or	r18,r20,r18
    21b4:	b4800115 	stw	r18,4(r22)
    21b8:	10c00117 	ldw	r3,4(r2)
    21bc:	18c00054 	ori	r3,r3,1
    21c0:	10c00115 	stw	r3,4(r2)
    21c4:	a809883a 	mov	r4,r21
    21c8:	000428c0 	call	428c <__malloc_unlock>
    21cc:	8027883a 	mov	r19,r16
    21d0:	00000606 	br	21ec <_realloc_r+0x1ac>
    21d4:	04400404 	movi	r17,16
    21d8:	01400404 	movi	r5,16
    21dc:	8cffb12e 	bgeu	r17,r19,20a4 <_realloc_r+0x64>
    21e0:	00800304 	movi	r2,12
    21e4:	a8800015 	stw	r2,0(r21)
    21e8:	0027883a 	mov	r19,zero
    21ec:	9805883a 	mov	r2,r19
    21f0:	dfc00a17 	ldw	ra,40(sp)
    21f4:	df000917 	ldw	fp,36(sp)
    21f8:	ddc00817 	ldw	r23,32(sp)
    21fc:	dd800717 	ldw	r22,28(sp)
    2200:	dd400617 	ldw	r21,24(sp)
    2204:	dd000517 	ldw	r20,20(sp)
    2208:	dcc00417 	ldw	r19,16(sp)
    220c:	dc800317 	ldw	r18,12(sp)
    2210:	dc400217 	ldw	r17,8(sp)
    2214:	dc000117 	ldw	r16,4(sp)
    2218:	dec00b04 	addi	sp,sp,44
    221c:	f800283a 	ret
    2220:	9480004c 	andi	r18,r18,1
    2224:	90006a26 	beq	r18,zero,23d0 <_realloc_r+0x390>
    2228:	980b883a 	mov	r5,r19
    222c:	a809883a 	mov	r4,r21
    2230:	00014700 	call	1470 <_malloc_r>
    2234:	1027883a 	mov	r19,r2
    2238:	10001626 	beq	r2,zero,2294 <_realloc_r+0x254>
    223c:	84bfff17 	ldw	r18,-4(r16)
    2240:	10fffe04 	addi	r3,r2,-8
    2244:	00bfff84 	movi	r2,-2
    2248:	9084703a 	and	r2,r18,r2
    224c:	b085883a 	add	r2,r22,r2
    2250:	10c05a26 	beq	r2,r3,23bc <_realloc_r+0x37c>
    2254:	a1bfff04 	addi	r6,r20,-4
    2258:	30800968 	cmpgeui	r2,r6,37
    225c:	1000671e 	bne	r2,zero,23fc <_realloc_r+0x3bc>
    2260:	30800530 	cmpltui	r2,r6,20
    2264:	10003826 	beq	r2,zero,2348 <_realloc_r+0x308>
    2268:	9805883a 	mov	r2,r19
    226c:	8007883a 	mov	r3,r16
    2270:	19000017 	ldw	r4,0(r3)
    2274:	11000015 	stw	r4,0(r2)
    2278:	19000117 	ldw	r4,4(r3)
    227c:	11000115 	stw	r4,4(r2)
    2280:	18c00217 	ldw	r3,8(r3)
    2284:	10c00215 	stw	r3,8(r2)
    2288:	800b883a 	mov	r5,r16
    228c:	a809883a 	mov	r4,r21
    2290:	0002e980 	call	2e98 <_free_r>
    2294:	a809883a 	mov	r4,r21
    2298:	000428c0 	call	428c <__malloc_unlock>
    229c:	003fd306 	br	21ec <_realloc_r+0x1ac>
    22a0:	300b883a 	mov	r5,r6
    22a4:	dfc00a17 	ldw	ra,40(sp)
    22a8:	df000917 	ldw	fp,36(sp)
    22ac:	ddc00817 	ldw	r23,32(sp)
    22b0:	dd800717 	ldw	r22,28(sp)
    22b4:	dd400617 	ldw	r21,24(sp)
    22b8:	dd000517 	ldw	r20,20(sp)
    22bc:	dcc00417 	ldw	r19,16(sp)
    22c0:	dc800317 	ldw	r18,12(sp)
    22c4:	dc400217 	ldw	r17,8(sp)
    22c8:	dc000117 	ldw	r16,4(sp)
    22cc:	dec00b04 	addi	sp,sp,44
    22d0:	00014701 	jmpi	1470 <_malloc_r>
    22d4:	9464b03a 	or	r18,r18,r17
    22d8:	b4800115 	stw	r18,4(r22)
    22dc:	b44b883a 	add	r5,r22,r17
    22e0:	18c00054 	ori	r3,r3,1
    22e4:	28c00115 	stw	r3,4(r5)
    22e8:	10c00117 	ldw	r3,4(r2)
    22ec:	29400204 	addi	r5,r5,8
    22f0:	a809883a 	mov	r4,r21
    22f4:	18c00054 	ori	r3,r3,1
    22f8:	10c00115 	stw	r3,4(r2)
    22fc:	0002e980 	call	2e98 <_free_r>
    2300:	003fb006 	br	21c4 <_realloc_r+0x184>
    2304:	10c4703a 	and	r2,r2,r3
    2308:	a087883a 	add	r3,r20,r2
    230c:	89000404 	addi	r4,r17,16
    2310:	193f7716 	blt	r3,r4,20f0 <_realloc_r+0xb0>
    2314:	b46d883a 	add	r22,r22,r17
    2318:	1c45c83a 	sub	r2,r3,r17
    231c:	e5800215 	stw	r22,8(fp)
    2320:	10800054 	ori	r2,r2,1
    2324:	b0800115 	stw	r2,4(r22)
    2328:	80bfff17 	ldw	r2,-4(r16)
    232c:	a809883a 	mov	r4,r21
    2330:	8027883a 	mov	r19,r16
    2334:	1080004c 	andi	r2,r2,1
    2338:	1444b03a 	or	r2,r2,r17
    233c:	80bfff15 	stw	r2,-4(r16)
    2340:	000428c0 	call	428c <__malloc_unlock>
    2344:	003fa906 	br	21ec <_realloc_r+0x1ac>
    2348:	80c00017 	ldw	r3,0(r16)
    234c:	30800728 	cmpgeui	r2,r6,28
    2350:	98c00015 	stw	r3,0(r19)
    2354:	80c00117 	ldw	r3,4(r16)
    2358:	98c00115 	stw	r3,4(r19)
    235c:	1000511e 	bne	r2,zero,24a4 <_realloc_r+0x464>
    2360:	80c00204 	addi	r3,r16,8
    2364:	98800204 	addi	r2,r19,8
    2368:	003fc106 	br	2270 <_realloc_r+0x230>
    236c:	30800317 	ldw	r2,12(r6)
    2370:	30c00217 	ldw	r3,8(r6)
    2374:	a1bfff04 	addi	r6,r20,-4
    2378:	31400968 	cmpgeui	r5,r6,37
    237c:	18800315 	stw	r2,12(r3)
    2380:	10c00215 	stw	r3,8(r2)
    2384:	38c00217 	ldw	r3,8(r7)
    2388:	38800317 	ldw	r2,12(r7)
    238c:	39000204 	addi	r4,r7,8
    2390:	18800315 	stw	r2,12(r3)
    2394:	10c00215 	stw	r3,8(r2)
    2398:	283f6c26 	beq	r5,zero,214c <_realloc_r+0x10c>
    239c:	800b883a 	mov	r5,r16
    23a0:	d9c00015 	stw	r7,0(sp)
    23a4:	0001e200 	call	1e20 <memmove>
    23a8:	d9c00017 	ldw	r7,0(sp)
    23ac:	1021883a 	mov	r16,r2
    23b0:	b829883a 	mov	r20,r23
    23b4:	382d883a 	mov	r22,r7
    23b8:	003f7806 	br	219c <_realloc_r+0x15c>
    23bc:	98bfff17 	ldw	r2,-4(r19)
    23c0:	00ffff04 	movi	r3,-4
    23c4:	10c4703a 	and	r2,r2,r3
    23c8:	a0a9883a 	add	r20,r20,r2
    23cc:	003f7306 	br	219c <_realloc_r+0x15c>
    23d0:	81fffe17 	ldw	r7,-8(r16)
    23d4:	b1cfc83a 	sub	r7,r22,r7
    23d8:	38800117 	ldw	r2,4(r7)
    23dc:	10c6703a 	and	r3,r2,r3
    23e0:	003f4f06 	br	2120 <_realloc_r+0xe0>
    23e4:	30800317 	ldw	r2,12(r6)
    23e8:	31000217 	ldw	r4,8(r6)
    23ec:	1829883a 	mov	r20,r3
    23f0:	20800315 	stw	r2,12(r4)
    23f4:	11000215 	stw	r4,8(r2)
    23f8:	003f6806 	br	219c <_realloc_r+0x15c>
    23fc:	800b883a 	mov	r5,r16
    2400:	9809883a 	mov	r4,r19
    2404:	0001e200 	call	1e20 <memmove>
    2408:	003f9f06 	br	2288 <_realloc_r+0x248>
    240c:	88800404 	addi	r2,r17,16
    2410:	b8bf4316 	blt	r23,r2,2120 <_realloc_r+0xe0>
    2414:	38800317 	ldw	r2,12(r7)
    2418:	38c00217 	ldw	r3,8(r7)
    241c:	a1bfff04 	addi	r6,r20,-4
    2420:	31000968 	cmpgeui	r4,r6,37
    2424:	18800315 	stw	r2,12(r3)
    2428:	10c00215 	stw	r3,8(r2)
    242c:	3cc00204 	addi	r19,r7,8
    2430:	2000421e 	bne	r4,zero,253c <_realloc_r+0x4fc>
    2434:	30800530 	cmpltui	r2,r6,20
    2438:	10003e1e 	bne	r2,zero,2534 <_realloc_r+0x4f4>
    243c:	80c00017 	ldw	r3,0(r16)
    2440:	30800728 	cmpgeui	r2,r6,28
    2444:	38c00215 	stw	r3,8(r7)
    2448:	80c00117 	ldw	r3,4(r16)
    244c:	38c00315 	stw	r3,12(r7)
    2450:	1000471e 	bne	r2,zero,2570 <_realloc_r+0x530>
    2454:	84000204 	addi	r16,r16,8
    2458:	38800404 	addi	r2,r7,16
    245c:	80c00017 	ldw	r3,0(r16)
    2460:	10c00015 	stw	r3,0(r2)
    2464:	80c00117 	ldw	r3,4(r16)
    2468:	10c00115 	stw	r3,4(r2)
    246c:	80c00217 	ldw	r3,8(r16)
    2470:	10c00215 	stw	r3,8(r2)
    2474:	3c47883a 	add	r3,r7,r17
    2478:	bc45c83a 	sub	r2,r23,r17
    247c:	e0c00215 	stw	r3,8(fp)
    2480:	10800054 	ori	r2,r2,1
    2484:	18800115 	stw	r2,4(r3)
    2488:	38800117 	ldw	r2,4(r7)
    248c:	a809883a 	mov	r4,r21
    2490:	1080004c 	andi	r2,r2,1
    2494:	1444b03a 	or	r2,r2,r17
    2498:	38800115 	stw	r2,4(r7)
    249c:	000428c0 	call	428c <__malloc_unlock>
    24a0:	003f5206 	br	21ec <_realloc_r+0x1ac>
    24a4:	80800217 	ldw	r2,8(r16)
    24a8:	31800920 	cmpeqi	r6,r6,36
    24ac:	98800215 	stw	r2,8(r19)
    24b0:	80800317 	ldw	r2,12(r16)
    24b4:	98800315 	stw	r2,12(r19)
    24b8:	3000171e 	bne	r6,zero,2518 <_realloc_r+0x4d8>
    24bc:	80c00404 	addi	r3,r16,16
    24c0:	98800404 	addi	r2,r19,16
    24c4:	003f6a06 	br	2270 <_realloc_r+0x230>
    24c8:	2005883a 	mov	r2,r4
    24cc:	003f2906 	br	2174 <_realloc_r+0x134>
    24d0:	800b883a 	mov	r5,r16
    24d4:	d9c00015 	stw	r7,0(sp)
    24d8:	0001e200 	call	1e20 <memmove>
    24dc:	d9c00017 	ldw	r7,0(sp)
    24e0:	1021883a 	mov	r16,r2
    24e4:	b829883a 	mov	r20,r23
    24e8:	3c800117 	ldw	r18,4(r7)
    24ec:	382d883a 	mov	r22,r7
    24f0:	003f2a06 	br	219c <_realloc_r+0x15c>
    24f4:	80800217 	ldw	r2,8(r16)
    24f8:	31800920 	cmpeqi	r6,r6,36
    24fc:	38800415 	stw	r2,16(r7)
    2500:	80800317 	ldw	r2,12(r16)
    2504:	38800515 	stw	r2,20(r7)
    2508:	3000121e 	bne	r6,zero,2554 <_realloc_r+0x514>
    250c:	84000404 	addi	r16,r16,16
    2510:	38800604 	addi	r2,r7,24
    2514:	003f1706 	br	2174 <_realloc_r+0x134>
    2518:	81000417 	ldw	r4,16(r16)
    251c:	80c00604 	addi	r3,r16,24
    2520:	98800604 	addi	r2,r19,24
    2524:	99000415 	stw	r4,16(r19)
    2528:	81000517 	ldw	r4,20(r16)
    252c:	99000515 	stw	r4,20(r19)
    2530:	003f4f06 	br	2270 <_realloc_r+0x230>
    2534:	9805883a 	mov	r2,r19
    2538:	003fc806 	br	245c <_realloc_r+0x41c>
    253c:	800b883a 	mov	r5,r16
    2540:	9809883a 	mov	r4,r19
    2544:	d9c00015 	stw	r7,0(sp)
    2548:	0001e200 	call	1e20 <memmove>
    254c:	d9c00017 	ldw	r7,0(sp)
    2550:	003fc806 	br	2474 <_realloc_r+0x434>
    2554:	80c00417 	ldw	r3,16(r16)
    2558:	84000604 	addi	r16,r16,24
    255c:	38800804 	addi	r2,r7,32
    2560:	38c00615 	stw	r3,24(r7)
    2564:	80ffff17 	ldw	r3,-4(r16)
    2568:	38c00715 	stw	r3,28(r7)
    256c:	003f0106 	br	2174 <_realloc_r+0x134>
    2570:	80800217 	ldw	r2,8(r16)
    2574:	31800920 	cmpeqi	r6,r6,36
    2578:	38800415 	stw	r2,16(r7)
    257c:	80800317 	ldw	r2,12(r16)
    2580:	38800515 	stw	r2,20(r7)
    2584:	3000031e 	bne	r6,zero,2594 <_realloc_r+0x554>
    2588:	84000404 	addi	r16,r16,16
    258c:	38800604 	addi	r2,r7,24
    2590:	003fb206 	br	245c <_realloc_r+0x41c>
    2594:	80c00417 	ldw	r3,16(r16)
    2598:	84000604 	addi	r16,r16,24
    259c:	38800804 	addi	r2,r7,32
    25a0:	38c00615 	stw	r3,24(r7)
    25a4:	80ffff17 	ldw	r3,-4(r16)
    25a8:	38c00715 	stw	r3,28(r7)
    25ac:	003fab06 	br	245c <_realloc_r+0x41c>

000025b0 <_sbrk_r>:
    25b0:	defffe04 	addi	sp,sp,-8
    25b4:	dc000015 	stw	r16,0(sp)
    25b8:	00800074 	movhi	r2,1
    25bc:	2021883a 	mov	r16,r4
    25c0:	2809883a 	mov	r4,r5
    25c4:	dfc00115 	stw	ra,4(sp)
    25c8:	1010c115 	stw	zero,17156(r2)
    25cc:	0003e580 	call	3e58 <sbrk>
    25d0:	10ffffd8 	cmpnei	r3,r2,-1
    25d4:	18000426 	beq	r3,zero,25e8 <_sbrk_r+0x38>
    25d8:	dfc00117 	ldw	ra,4(sp)
    25dc:	dc000017 	ldw	r16,0(sp)
    25e0:	dec00204 	addi	sp,sp,8
    25e4:	f800283a 	ret
    25e8:	00c00074 	movhi	r3,1
    25ec:	18d0c117 	ldw	r3,17156(r3)
    25f0:	183ff926 	beq	r3,zero,25d8 <_sbrk_r+0x28>
    25f4:	80c00015 	stw	r3,0(r16)
    25f8:	dfc00117 	ldw	ra,4(sp)
    25fc:	dc000017 	ldw	r16,0(sp)
    2600:	dec00204 	addi	sp,sp,8
    2604:	f800283a 	ret

00002608 <__sread>:
    2608:	defffe04 	addi	sp,sp,-8
    260c:	dc000015 	stw	r16,0(sp)
    2610:	2821883a 	mov	r16,r5
    2614:	2940038f 	ldh	r5,14(r5)
    2618:	dfc00115 	stw	ra,4(sp)
    261c:	00034380 	call	3438 <_read_r>
    2620:	10000716 	blt	r2,zero,2640 <__sread+0x38>
    2624:	80c01417 	ldw	r3,80(r16)
    2628:	1887883a 	add	r3,r3,r2
    262c:	80c01415 	stw	r3,80(r16)
    2630:	dfc00117 	ldw	ra,4(sp)
    2634:	dc000017 	ldw	r16,0(sp)
    2638:	dec00204 	addi	sp,sp,8
    263c:	f800283a 	ret
    2640:	80c0030b 	ldhu	r3,12(r16)
    2644:	18fbffcc 	andi	r3,r3,61439
    2648:	80c0030d 	sth	r3,12(r16)
    264c:	dfc00117 	ldw	ra,4(sp)
    2650:	dc000017 	ldw	r16,0(sp)
    2654:	dec00204 	addi	sp,sp,8
    2658:	f800283a 	ret

0000265c <__seofread>:
    265c:	0005883a 	mov	r2,zero
    2660:	f800283a 	ret

00002664 <__swrite>:
    2664:	2880030b 	ldhu	r2,12(r5)
    2668:	defffb04 	addi	sp,sp,-20
    266c:	dcc00315 	stw	r19,12(sp)
    2670:	dc800215 	stw	r18,8(sp)
    2674:	dc400115 	stw	r17,4(sp)
    2678:	dc000015 	stw	r16,0(sp)
    267c:	dfc00415 	stw	ra,16(sp)
    2680:	10c0400c 	andi	r3,r2,256
    2684:	2821883a 	mov	r16,r5
    2688:	2023883a 	mov	r17,r4
    268c:	3025883a 	mov	r18,r6
    2690:	3827883a 	mov	r19,r7
    2694:	18000d1e 	bne	r3,zero,26cc <__swrite+0x68>
    2698:	8140038f 	ldh	r5,14(r16)
    269c:	10bbffcc 	andi	r2,r2,61439
    26a0:	980f883a 	mov	r7,r19
    26a4:	900d883a 	mov	r6,r18
    26a8:	8809883a 	mov	r4,r17
    26ac:	8080030d 	sth	r2,12(r16)
    26b0:	dfc00417 	ldw	ra,16(sp)
    26b4:	dcc00317 	ldw	r19,12(sp)
    26b8:	dc800217 	ldw	r18,8(sp)
    26bc:	dc400117 	ldw	r17,4(sp)
    26c0:	dc000017 	ldw	r16,0(sp)
    26c4:	dec00504 	addi	sp,sp,20
    26c8:	00027481 	jmpi	2748 <_write_r>
    26cc:	2940038f 	ldh	r5,14(r5)
    26d0:	01c00084 	movi	r7,2
    26d4:	000d883a 	mov	r6,zero
    26d8:	00031940 	call	3194 <_lseek_r>
    26dc:	8080030b 	ldhu	r2,12(r16)
    26e0:	003fed06 	br	2698 <__swrite+0x34>

000026e4 <__sseek>:
    26e4:	defffe04 	addi	sp,sp,-8
    26e8:	dc000015 	stw	r16,0(sp)
    26ec:	2821883a 	mov	r16,r5
    26f0:	2940038f 	ldh	r5,14(r5)
    26f4:	dfc00115 	stw	ra,4(sp)
    26f8:	00031940 	call	3194 <_lseek_r>
    26fc:	10ffffd8 	cmpnei	r3,r2,-1
    2700:	18000826 	beq	r3,zero,2724 <__sseek+0x40>
    2704:	80c0030b 	ldhu	r3,12(r16)
    2708:	80801415 	stw	r2,80(r16)
    270c:	18c40014 	ori	r3,r3,4096
    2710:	80c0030d 	sth	r3,12(r16)
    2714:	dfc00117 	ldw	ra,4(sp)
    2718:	dc000017 	ldw	r16,0(sp)
    271c:	dec00204 	addi	sp,sp,8
    2720:	f800283a 	ret
    2724:	80c0030b 	ldhu	r3,12(r16)
    2728:	18fbffcc 	andi	r3,r3,61439
    272c:	80c0030d 	sth	r3,12(r16)
    2730:	dfc00117 	ldw	ra,4(sp)
    2734:	dc000017 	ldw	r16,0(sp)
    2738:	dec00204 	addi	sp,sp,8
    273c:	f800283a 	ret

00002740 <__sclose>:
    2740:	2940038f 	ldh	r5,14(r5)
    2744:	00029101 	jmpi	2910 <_close_r>

00002748 <_write_r>:
    2748:	2807883a 	mov	r3,r5
    274c:	defffe04 	addi	sp,sp,-8
    2750:	dc000015 	stw	r16,0(sp)
    2754:	300b883a 	mov	r5,r6
    2758:	00800074 	movhi	r2,1
    275c:	380d883a 	mov	r6,r7
    2760:	2021883a 	mov	r16,r4
    2764:	1809883a 	mov	r4,r3
    2768:	dfc00115 	stw	ra,4(sp)
    276c:	1010c115 	stw	zero,17156(r2)
    2770:	0003f4c0 	call	3f4c <write>
    2774:	10ffffd8 	cmpnei	r3,r2,-1
    2778:	18000426 	beq	r3,zero,278c <_write_r+0x44>
    277c:	dfc00117 	ldw	ra,4(sp)
    2780:	dc000017 	ldw	r16,0(sp)
    2784:	dec00204 	addi	sp,sp,8
    2788:	f800283a 	ret
    278c:	00c00074 	movhi	r3,1
    2790:	18d0c117 	ldw	r3,17156(r3)
    2794:	183ff926 	beq	r3,zero,277c <_write_r+0x34>
    2798:	80c00015 	stw	r3,0(r16)
    279c:	dfc00117 	ldw	ra,4(sp)
    27a0:	dc000017 	ldw	r16,0(sp)
    27a4:	dec00204 	addi	sp,sp,8
    27a8:	f800283a 	ret

000027ac <__swsetup_r>:
    27ac:	00800074 	movhi	r2,1
    27b0:	10858d17 	ldw	r2,5684(r2)
    27b4:	defffd04 	addi	sp,sp,-12
    27b8:	dc400115 	stw	r17,4(sp)
    27bc:	dc000015 	stw	r16,0(sp)
    27c0:	dfc00215 	stw	ra,8(sp)
    27c4:	2023883a 	mov	r17,r4
    27c8:	2821883a 	mov	r16,r5
    27cc:	10000226 	beq	r2,zero,27d8 <__swsetup_r+0x2c>
    27d0:	10c00e17 	ldw	r3,56(r2)
    27d4:	18001f26 	beq	r3,zero,2854 <__swsetup_r+0xa8>
    27d8:	8180030b 	ldhu	r6,12(r16)
    27dc:	30c0020c 	andi	r3,r6,8
    27e0:	3005883a 	mov	r2,r6
    27e4:	18002126 	beq	r3,zero,286c <__swsetup_r+0xc0>
    27e8:	80c00417 	ldw	r3,16(r16)
    27ec:	18002826 	beq	r3,zero,2890 <__swsetup_r+0xe4>
    27f0:	1100004c 	andi	r4,r2,1
    27f4:	20000b1e 	bne	r4,zero,2824 <__swsetup_r+0x78>
    27f8:	1100008c 	andi	r4,r2,2
    27fc:	20002e1e 	bne	r4,zero,28b8 <__swsetup_r+0x10c>
    2800:	81000517 	ldw	r4,20(r16)
    2804:	81000215 	stw	r4,8(r16)
    2808:	18000b26 	beq	r3,zero,2838 <__swsetup_r+0x8c>
    280c:	0005883a 	mov	r2,zero
    2810:	dfc00217 	ldw	ra,8(sp)
    2814:	dc400117 	ldw	r17,4(sp)
    2818:	dc000017 	ldw	r16,0(sp)
    281c:	dec00304 	addi	sp,sp,12
    2820:	f800283a 	ret
    2824:	81000517 	ldw	r4,20(r16)
    2828:	80000215 	stw	zero,8(r16)
    282c:	0109c83a 	sub	r4,zero,r4
    2830:	81000615 	stw	r4,24(r16)
    2834:	183ff51e 	bne	r3,zero,280c <__swsetup_r+0x60>
    2838:	10c0200c 	andi	r3,r2,128
    283c:	0005883a 	mov	r2,zero
    2840:	183ff326 	beq	r3,zero,2810 <__swsetup_r+0x64>
    2844:	31801014 	ori	r6,r6,64
    2848:	8180030d 	sth	r6,12(r16)
    284c:	00bfffc4 	movi	r2,-1
    2850:	003fef06 	br	2810 <__swsetup_r+0x64>
    2854:	1009883a 	mov	r4,r2
    2858:	0000e2c0 	call	e2c <__sinit>
    285c:	8180030b 	ldhu	r6,12(r16)
    2860:	30c0020c 	andi	r3,r6,8
    2864:	3005883a 	mov	r2,r6
    2868:	183fdf1e 	bne	r3,zero,27e8 <__swsetup_r+0x3c>
    286c:	3080040c 	andi	r2,r6,16
    2870:	10002126 	beq	r2,zero,28f8 <__swsetup_r+0x14c>
    2874:	3080010c 	andi	r2,r6,4
    2878:	1000111e 	bne	r2,zero,28c0 <__swsetup_r+0x114>
    287c:	80c00417 	ldw	r3,16(r16)
    2880:	30800214 	ori	r2,r6,8
    2884:	8080030d 	sth	r2,12(r16)
    2888:	100d883a 	mov	r6,r2
    288c:	183fd81e 	bne	r3,zero,27f0 <__swsetup_r+0x44>
    2890:	1100a00c 	andi	r4,r2,640
    2894:	21008020 	cmpeqi	r4,r4,512
    2898:	203fd51e 	bne	r4,zero,27f0 <__swsetup_r+0x44>
    289c:	800b883a 	mov	r5,r16
    28a0:	8809883a 	mov	r4,r17
    28a4:	00031f80 	call	31f8 <__smakebuf_r>
    28a8:	8180030b 	ldhu	r6,12(r16)
    28ac:	80c00417 	ldw	r3,16(r16)
    28b0:	3005883a 	mov	r2,r6
    28b4:	003fce06 	br	27f0 <__swsetup_r+0x44>
    28b8:	0009883a 	mov	r4,zero
    28bc:	003fd106 	br	2804 <__swsetup_r+0x58>
    28c0:	81400c17 	ldw	r5,48(r16)
    28c4:	28000626 	beq	r5,zero,28e0 <__swsetup_r+0x134>
    28c8:	80801004 	addi	r2,r16,64
    28cc:	28800326 	beq	r5,r2,28dc <__swsetup_r+0x130>
    28d0:	8809883a 	mov	r4,r17
    28d4:	0002e980 	call	2e98 <_free_r>
    28d8:	8180030b 	ldhu	r6,12(r16)
    28dc:	80000c15 	stw	zero,48(r16)
    28e0:	80c00417 	ldw	r3,16(r16)
    28e4:	00bff6c4 	movi	r2,-37
    28e8:	118c703a 	and	r6,r2,r6
    28ec:	80000115 	stw	zero,4(r16)
    28f0:	80c00015 	stw	r3,0(r16)
    28f4:	003fe206 	br	2880 <__swsetup_r+0xd4>
    28f8:	00800244 	movi	r2,9
    28fc:	88800015 	stw	r2,0(r17)
    2900:	31801014 	ori	r6,r6,64
    2904:	8180030d 	sth	r6,12(r16)
    2908:	00bfffc4 	movi	r2,-1
    290c:	003fc006 	br	2810 <__swsetup_r+0x64>

00002910 <_close_r>:
    2910:	defffe04 	addi	sp,sp,-8
    2914:	dc000015 	stw	r16,0(sp)
    2918:	00800074 	movhi	r2,1
    291c:	2021883a 	mov	r16,r4
    2920:	2809883a 	mov	r4,r5
    2924:	dfc00115 	stw	ra,4(sp)
    2928:	1010c115 	stw	zero,17156(r2)
    292c:	00037440 	call	3744 <close>
    2930:	10ffffd8 	cmpnei	r3,r2,-1
    2934:	18000426 	beq	r3,zero,2948 <_close_r+0x38>
    2938:	dfc00117 	ldw	ra,4(sp)
    293c:	dc000017 	ldw	r16,0(sp)
    2940:	dec00204 	addi	sp,sp,8
    2944:	f800283a 	ret
    2948:	00c00074 	movhi	r3,1
    294c:	18d0c117 	ldw	r3,17156(r3)
    2950:	183ff926 	beq	r3,zero,2938 <_close_r+0x28>
    2954:	80c00015 	stw	r3,0(r16)
    2958:	dfc00117 	ldw	ra,4(sp)
    295c:	dc000017 	ldw	r16,0(sp)
    2960:	dec00204 	addi	sp,sp,8
    2964:	f800283a 	ret

00002968 <_fclose_r>:
    2968:	defffc04 	addi	sp,sp,-16
    296c:	dfc00315 	stw	ra,12(sp)
    2970:	dc800215 	stw	r18,8(sp)
    2974:	dc400115 	stw	r17,4(sp)
    2978:	dc000015 	stw	r16,0(sp)
    297c:	28000726 	beq	r5,zero,299c <_fclose_r+0x34>
    2980:	2821883a 	mov	r16,r5
    2984:	2023883a 	mov	r17,r4
    2988:	20000226 	beq	r4,zero,2994 <_fclose_r+0x2c>
    298c:	20800e17 	ldw	r2,56(r4)
    2990:	10002726 	beq	r2,zero,2a30 <_fclose_r+0xc8>
    2994:	8080030f 	ldh	r2,12(r16)
    2998:	1000081e 	bne	r2,zero,29bc <_fclose_r+0x54>
    299c:	0025883a 	mov	r18,zero
    29a0:	9005883a 	mov	r2,r18
    29a4:	dfc00317 	ldw	ra,12(sp)
    29a8:	dc800217 	ldw	r18,8(sp)
    29ac:	dc400117 	ldw	r17,4(sp)
    29b0:	dc000017 	ldw	r16,0(sp)
    29b4:	dec00404 	addi	sp,sp,16
    29b8:	f800283a 	ret
    29bc:	800b883a 	mov	r5,r16
    29c0:	8809883a 	mov	r4,r17
    29c4:	0002a700 	call	2a70 <__sflush_r>
    29c8:	80c00b17 	ldw	r3,44(r16)
    29cc:	1025883a 	mov	r18,r2
    29d0:	18000426 	beq	r3,zero,29e4 <_fclose_r+0x7c>
    29d4:	81400717 	ldw	r5,28(r16)
    29d8:	8809883a 	mov	r4,r17
    29dc:	183ee83a 	callr	r3
    29e0:	10001716 	blt	r2,zero,2a40 <_fclose_r+0xd8>
    29e4:	8080030b 	ldhu	r2,12(r16)
    29e8:	1080200c 	andi	r2,r2,128
    29ec:	1000181e 	bne	r2,zero,2a50 <_fclose_r+0xe8>
    29f0:	81400c17 	ldw	r5,48(r16)
    29f4:	28000526 	beq	r5,zero,2a0c <_fclose_r+0xa4>
    29f8:	80801004 	addi	r2,r16,64
    29fc:	28800226 	beq	r5,r2,2a08 <_fclose_r+0xa0>
    2a00:	8809883a 	mov	r4,r17
    2a04:	0002e980 	call	2e98 <_free_r>
    2a08:	80000c15 	stw	zero,48(r16)
    2a0c:	81401117 	ldw	r5,68(r16)
    2a10:	28000326 	beq	r5,zero,2a20 <_fclose_r+0xb8>
    2a14:	8809883a 	mov	r4,r17
    2a18:	0002e980 	call	2e98 <_free_r>
    2a1c:	80001115 	stw	zero,68(r16)
    2a20:	0000e3c0 	call	e3c <__sfp_lock_acquire>
    2a24:	8000030d 	sth	zero,12(r16)
    2a28:	0000e400 	call	e40 <__sfp_lock_release>
    2a2c:	003fdc06 	br	29a0 <_fclose_r+0x38>
    2a30:	0000e2c0 	call	e2c <__sinit>
    2a34:	8080030f 	ldh	r2,12(r16)
    2a38:	103fd826 	beq	r2,zero,299c <_fclose_r+0x34>
    2a3c:	003fdf06 	br	29bc <_fclose_r+0x54>
    2a40:	8080030b 	ldhu	r2,12(r16)
    2a44:	04bfffc4 	movi	r18,-1
    2a48:	1080200c 	andi	r2,r2,128
    2a4c:	103fe826 	beq	r2,zero,29f0 <_fclose_r+0x88>
    2a50:	81400417 	ldw	r5,16(r16)
    2a54:	8809883a 	mov	r4,r17
    2a58:	0002e980 	call	2e98 <_free_r>
    2a5c:	003fe406 	br	29f0 <_fclose_r+0x88>

00002a60 <fclose>:
    2a60:	00800074 	movhi	r2,1
    2a64:	200b883a 	mov	r5,r4
    2a68:	11058d17 	ldw	r4,5684(r2)
    2a6c:	00029681 	jmpi	2968 <_fclose_r>

00002a70 <__sflush_r>:
    2a70:	2880030b 	ldhu	r2,12(r5)
    2a74:	defffb04 	addi	sp,sp,-20
    2a78:	dcc00315 	stw	r19,12(sp)
    2a7c:	dc000015 	stw	r16,0(sp)
    2a80:	dfc00415 	stw	ra,16(sp)
    2a84:	dc800215 	stw	r18,8(sp)
    2a88:	dc400115 	stw	r17,4(sp)
    2a8c:	10c0020c 	andi	r3,r2,8
    2a90:	2821883a 	mov	r16,r5
    2a94:	2027883a 	mov	r19,r4
    2a98:	18003f1e 	bne	r3,zero,2b98 <__sflush_r+0x128>
    2a9c:	28c00117 	ldw	r3,4(r5)
    2aa0:	10820014 	ori	r2,r2,2048
    2aa4:	2880030d 	sth	r2,12(r5)
    2aa8:	00c0550e 	bge	zero,r3,2c00 <__sflush_r+0x190>
    2aac:	82000a17 	ldw	r8,40(r16)
    2ab0:	40003126 	beq	r8,zero,2b78 <__sflush_r+0x108>
    2ab4:	9c400017 	ldw	r17,0(r19)
    2ab8:	1104000c 	andi	r4,r2,4096
    2abc:	98000015 	stw	zero,0(r19)
    2ac0:	81400717 	ldw	r5,28(r16)
    2ac4:	1007883a 	mov	r3,r2
    2ac8:	2000521e 	bne	r4,zero,2c14 <__sflush_r+0x1a4>
    2acc:	01c00044 	movi	r7,1
    2ad0:	000d883a 	mov	r6,zero
    2ad4:	9809883a 	mov	r4,r19
    2ad8:	403ee83a 	callr	r8
    2adc:	10ffffd8 	cmpnei	r3,r2,-1
    2ae0:	18005826 	beq	r3,zero,2c44 <__sflush_r+0x1d4>
    2ae4:	80c0030b 	ldhu	r3,12(r16)
    2ae8:	82000a17 	ldw	r8,40(r16)
    2aec:	18c0010c 	andi	r3,r3,4
    2af0:	18000626 	beq	r3,zero,2b0c <__sflush_r+0x9c>
    2af4:	81000117 	ldw	r4,4(r16)
    2af8:	80c00c17 	ldw	r3,48(r16)
    2afc:	1105c83a 	sub	r2,r2,r4
    2b00:	18000226 	beq	r3,zero,2b0c <__sflush_r+0x9c>
    2b04:	80c00f17 	ldw	r3,60(r16)
    2b08:	10c5c83a 	sub	r2,r2,r3
    2b0c:	81400717 	ldw	r5,28(r16)
    2b10:	100d883a 	mov	r6,r2
    2b14:	000f883a 	mov	r7,zero
    2b18:	9809883a 	mov	r4,r19
    2b1c:	403ee83a 	callr	r8
    2b20:	10ffffd8 	cmpnei	r3,r2,-1
    2b24:	18003d1e 	bne	r3,zero,2c1c <__sflush_r+0x1ac>
    2b28:	99000017 	ldw	r4,0(r19)
    2b2c:	80c0030b 	ldhu	r3,12(r16)
    2b30:	20004e26 	beq	r4,zero,2c6c <__sflush_r+0x1fc>
    2b34:	21400760 	cmpeqi	r5,r4,29
    2b38:	2800021e 	bne	r5,zero,2b44 <__sflush_r+0xd4>
    2b3c:	210005a0 	cmpeqi	r4,r4,22
    2b40:	20002c26 	beq	r4,zero,2bf4 <__sflush_r+0x184>
    2b44:	80800417 	ldw	r2,16(r16)
    2b48:	18fdffcc 	andi	r3,r3,63487
    2b4c:	80c0030d 	sth	r3,12(r16)
    2b50:	80000115 	stw	zero,4(r16)
    2b54:	80800015 	stw	r2,0(r16)
    2b58:	81400c17 	ldw	r5,48(r16)
    2b5c:	9c400015 	stw	r17,0(r19)
    2b60:	28000526 	beq	r5,zero,2b78 <__sflush_r+0x108>
    2b64:	80801004 	addi	r2,r16,64
    2b68:	28800226 	beq	r5,r2,2b74 <__sflush_r+0x104>
    2b6c:	9809883a 	mov	r4,r19
    2b70:	0002e980 	call	2e98 <_free_r>
    2b74:	80000c15 	stw	zero,48(r16)
    2b78:	0005883a 	mov	r2,zero
    2b7c:	dfc00417 	ldw	ra,16(sp)
    2b80:	dcc00317 	ldw	r19,12(sp)
    2b84:	dc800217 	ldw	r18,8(sp)
    2b88:	dc400117 	ldw	r17,4(sp)
    2b8c:	dc000017 	ldw	r16,0(sp)
    2b90:	dec00504 	addi	sp,sp,20
    2b94:	f800283a 	ret
    2b98:	2c800417 	ldw	r18,16(r5)
    2b9c:	903ff626 	beq	r18,zero,2b78 <__sflush_r+0x108>
    2ba0:	2c400017 	ldw	r17,0(r5)
    2ba4:	108000cc 	andi	r2,r2,3
    2ba8:	2c800015 	stw	r18,0(r5)
    2bac:	8ca3c83a 	sub	r17,r17,r18
    2bb0:	1000161e 	bne	r2,zero,2c0c <__sflush_r+0x19c>
    2bb4:	28800517 	ldw	r2,20(r5)
    2bb8:	80800215 	stw	r2,8(r16)
    2bbc:	04400316 	blt	zero,r17,2bcc <__sflush_r+0x15c>
    2bc0:	003fed06 	br	2b78 <__sflush_r+0x108>
    2bc4:	90a5883a 	add	r18,r18,r2
    2bc8:	047feb0e 	bge	zero,r17,2b78 <__sflush_r+0x108>
    2bcc:	80800917 	ldw	r2,36(r16)
    2bd0:	81400717 	ldw	r5,28(r16)
    2bd4:	880f883a 	mov	r7,r17
    2bd8:	900d883a 	mov	r6,r18
    2bdc:	9809883a 	mov	r4,r19
    2be0:	103ee83a 	callr	r2
    2be4:	88a3c83a 	sub	r17,r17,r2
    2be8:	00bff616 	blt	zero,r2,2bc4 <__sflush_r+0x154>
    2bec:	80c0030b 	ldhu	r3,12(r16)
    2bf0:	00bfffc4 	movi	r2,-1
    2bf4:	18c01014 	ori	r3,r3,64
    2bf8:	80c0030d 	sth	r3,12(r16)
    2bfc:	003fdf06 	br	2b7c <__sflush_r+0x10c>
    2c00:	28c00f17 	ldw	r3,60(r5)
    2c04:	00ffa916 	blt	zero,r3,2aac <__sflush_r+0x3c>
    2c08:	003fdb06 	br	2b78 <__sflush_r+0x108>
    2c0c:	0005883a 	mov	r2,zero
    2c10:	003fe906 	br	2bb8 <__sflush_r+0x148>
    2c14:	80801417 	ldw	r2,80(r16)
    2c18:	003fb406 	br	2aec <__sflush_r+0x7c>
    2c1c:	80c0030b 	ldhu	r3,12(r16)
    2c20:	81000417 	ldw	r4,16(r16)
    2c24:	80000115 	stw	zero,4(r16)
    2c28:	197dffcc 	andi	r5,r3,63487
    2c2c:	8140030d 	sth	r5,12(r16)
    2c30:	81000015 	stw	r4,0(r16)
    2c34:	18c4000c 	andi	r3,r3,4096
    2c38:	183fc726 	beq	r3,zero,2b58 <__sflush_r+0xe8>
    2c3c:	80801415 	stw	r2,80(r16)
    2c40:	003fc506 	br	2b58 <__sflush_r+0xe8>
    2c44:	98c00017 	ldw	r3,0(r19)
    2c48:	183fa626 	beq	r3,zero,2ae4 <__sflush_r+0x74>
    2c4c:	19000760 	cmpeqi	r4,r3,29
    2c50:	20000e1e 	bne	r4,zero,2c8c <__sflush_r+0x21c>
    2c54:	18c00598 	cmpnei	r3,r3,22
    2c58:	18000c26 	beq	r3,zero,2c8c <__sflush_r+0x21c>
    2c5c:	80c0030b 	ldhu	r3,12(r16)
    2c60:	18c01014 	ori	r3,r3,64
    2c64:	80c0030d 	sth	r3,12(r16)
    2c68:	003fc406 	br	2b7c <__sflush_r+0x10c>
    2c6c:	81000417 	ldw	r4,16(r16)
    2c70:	197dffcc 	andi	r5,r3,63487
    2c74:	8140030d 	sth	r5,12(r16)
    2c78:	80000115 	stw	zero,4(r16)
    2c7c:	81000015 	stw	r4,0(r16)
    2c80:	18c4000c 	andi	r3,r3,4096
    2c84:	183fb426 	beq	r3,zero,2b58 <__sflush_r+0xe8>
    2c88:	003fec06 	br	2c3c <__sflush_r+0x1cc>
    2c8c:	9c400015 	stw	r17,0(r19)
    2c90:	0005883a 	mov	r2,zero
    2c94:	003fb906 	br	2b7c <__sflush_r+0x10c>

00002c98 <_fflush_r>:
    2c98:	defffd04 	addi	sp,sp,-12
    2c9c:	dc000115 	stw	r16,4(sp)
    2ca0:	dfc00215 	stw	ra,8(sp)
    2ca4:	2021883a 	mov	r16,r4
    2ca8:	20000226 	beq	r4,zero,2cb4 <_fflush_r+0x1c>
    2cac:	20800e17 	ldw	r2,56(r4)
    2cb0:	10000726 	beq	r2,zero,2cd0 <_fflush_r+0x38>
    2cb4:	2880030f 	ldh	r2,12(r5)
    2cb8:	10000a1e 	bne	r2,zero,2ce4 <_fflush_r+0x4c>
    2cbc:	0005883a 	mov	r2,zero
    2cc0:	dfc00217 	ldw	ra,8(sp)
    2cc4:	dc000117 	ldw	r16,4(sp)
    2cc8:	dec00304 	addi	sp,sp,12
    2ccc:	f800283a 	ret
    2cd0:	d9400015 	stw	r5,0(sp)
    2cd4:	0000e2c0 	call	e2c <__sinit>
    2cd8:	d9400017 	ldw	r5,0(sp)
    2cdc:	2880030f 	ldh	r2,12(r5)
    2ce0:	103ff626 	beq	r2,zero,2cbc <_fflush_r+0x24>
    2ce4:	8009883a 	mov	r4,r16
    2ce8:	dfc00217 	ldw	ra,8(sp)
    2cec:	dc000117 	ldw	r16,4(sp)
    2cf0:	dec00304 	addi	sp,sp,12
    2cf4:	0002a701 	jmpi	2a70 <__sflush_r>

00002cf8 <fflush>:
    2cf8:	20001726 	beq	r4,zero,2d58 <fflush+0x60>
    2cfc:	00800074 	movhi	r2,1
    2d00:	200b883a 	mov	r5,r4
    2d04:	11058d17 	ldw	r4,5684(r2)
    2d08:	20000226 	beq	r4,zero,2d14 <fflush+0x1c>
    2d0c:	20800e17 	ldw	r2,56(r4)
    2d10:	10000526 	beq	r2,zero,2d28 <fflush+0x30>
    2d14:	2880030f 	ldh	r2,12(r5)
    2d18:	1000021e 	bne	r2,zero,2d24 <fflush+0x2c>
    2d1c:	0005883a 	mov	r2,zero
    2d20:	f800283a 	ret
    2d24:	0002a701 	jmpi	2a70 <__sflush_r>
    2d28:	defffd04 	addi	sp,sp,-12
    2d2c:	d9400115 	stw	r5,4(sp)
    2d30:	d9000015 	stw	r4,0(sp)
    2d34:	dfc00215 	stw	ra,8(sp)
    2d38:	0000e2c0 	call	e2c <__sinit>
    2d3c:	d9400117 	ldw	r5,4(sp)
    2d40:	d9000017 	ldw	r4,0(sp)
    2d44:	2880030f 	ldh	r2,12(r5)
    2d48:	10000826 	beq	r2,zero,2d6c <fflush+0x74>
    2d4c:	dfc00217 	ldw	ra,8(sp)
    2d50:	dec00304 	addi	sp,sp,12
    2d54:	0002a701 	jmpi	2a70 <__sflush_r>
    2d58:	00800074 	movhi	r2,1
    2d5c:	11058c17 	ldw	r4,5680(r2)
    2d60:	01400034 	movhi	r5,0
    2d64:	294b2604 	addi	r5,r5,11416
    2d68:	00013c81 	jmpi	13c8 <_fwalk_reent>
    2d6c:	0005883a 	mov	r2,zero
    2d70:	dfc00217 	ldw	ra,8(sp)
    2d74:	dec00304 	addi	sp,sp,12
    2d78:	f800283a 	ret

00002d7c <_malloc_trim_r>:
    2d7c:	defffb04 	addi	sp,sp,-20
    2d80:	dcc00315 	stw	r19,12(sp)
    2d84:	04c00074 	movhi	r19,1
    2d88:	dc800215 	stw	r18,8(sp)
    2d8c:	dc400115 	stw	r17,4(sp)
    2d90:	dc000015 	stw	r16,0(sp)
    2d94:	dfc00415 	stw	ra,16(sp)
    2d98:	2821883a 	mov	r16,r5
    2d9c:	9cffc604 	addi	r19,r19,-232
    2da0:	2025883a 	mov	r18,r4
    2da4:	00041640 	call	4164 <__malloc_lock>
    2da8:	98800217 	ldw	r2,8(r19)
    2dac:	14400117 	ldw	r17,4(r2)
    2db0:	00bfff04 	movi	r2,-4
    2db4:	88a2703a 	and	r17,r17,r2
    2db8:	8c21c83a 	sub	r16,r17,r16
    2dbc:	8403fbc4 	addi	r16,r16,4079
    2dc0:	8020d33a 	srli	r16,r16,12
    2dc4:	843fffc4 	addi	r16,r16,-1
    2dc8:	8020933a 	slli	r16,r16,12
    2dcc:	80840008 	cmpgei	r2,r16,4096
    2dd0:	10000626 	beq	r2,zero,2dec <_malloc_trim_r+0x70>
    2dd4:	000b883a 	mov	r5,zero
    2dd8:	9009883a 	mov	r4,r18
    2ddc:	00025b00 	call	25b0 <_sbrk_r>
    2de0:	98c00217 	ldw	r3,8(r19)
    2de4:	1c47883a 	add	r3,r3,r17
    2de8:	10c00a26 	beq	r2,r3,2e14 <_malloc_trim_r+0x98>
    2dec:	9009883a 	mov	r4,r18
    2df0:	000428c0 	call	428c <__malloc_unlock>
    2df4:	0005883a 	mov	r2,zero
    2df8:	dfc00417 	ldw	ra,16(sp)
    2dfc:	dcc00317 	ldw	r19,12(sp)
    2e00:	dc800217 	ldw	r18,8(sp)
    2e04:	dc400117 	ldw	r17,4(sp)
    2e08:	dc000017 	ldw	r16,0(sp)
    2e0c:	dec00504 	addi	sp,sp,20
    2e10:	f800283a 	ret
    2e14:	040bc83a 	sub	r5,zero,r16
    2e18:	9009883a 	mov	r4,r18
    2e1c:	00025b00 	call	25b0 <_sbrk_r>
    2e20:	10bfffd8 	cmpnei	r2,r2,-1
    2e24:	10000d26 	beq	r2,zero,2e5c <_malloc_trim_r+0xe0>
    2e28:	008000b4 	movhi	r2,2
    2e2c:	10a0e217 	ldw	r2,-31864(r2)
    2e30:	98c00217 	ldw	r3,8(r19)
    2e34:	8c23c83a 	sub	r17,r17,r16
    2e38:	8c400054 	ori	r17,r17,1
    2e3c:	1405c83a 	sub	r2,r2,r16
    2e40:	1c400115 	stw	r17,4(r3)
    2e44:	9009883a 	mov	r4,r18
    2e48:	00c000b4 	movhi	r3,2
    2e4c:	18a0e215 	stw	r2,-31864(r3)
    2e50:	000428c0 	call	428c <__malloc_unlock>
    2e54:	00800044 	movi	r2,1
    2e58:	003fe706 	br	2df8 <_malloc_trim_r+0x7c>
    2e5c:	000b883a 	mov	r5,zero
    2e60:	9009883a 	mov	r4,r18
    2e64:	00025b00 	call	25b0 <_sbrk_r>
    2e68:	99000217 	ldw	r4,8(r19)
    2e6c:	1107c83a 	sub	r3,r2,r4
    2e70:	19400410 	cmplti	r5,r3,16
    2e74:	283fdd1e 	bne	r5,zero,2dec <_malloc_trim_r+0x70>
    2e78:	01400074 	movhi	r5,1
    2e7c:	29458e17 	ldw	r5,5688(r5)
    2e80:	18c00054 	ori	r3,r3,1
    2e84:	20c00115 	stw	r3,4(r4)
    2e88:	1145c83a 	sub	r2,r2,r5
    2e8c:	014000b4 	movhi	r5,2
    2e90:	28a0e215 	stw	r2,-31864(r5)
    2e94:	003fd506 	br	2dec <_malloc_trim_r+0x70>

00002e98 <_free_r>:
    2e98:	28004f26 	beq	r5,zero,2fd8 <_free_r+0x140>
    2e9c:	defffd04 	addi	sp,sp,-12
    2ea0:	dc400115 	stw	r17,4(sp)
    2ea4:	dc000015 	stw	r16,0(sp)
    2ea8:	2023883a 	mov	r17,r4
    2eac:	2821883a 	mov	r16,r5
    2eb0:	dfc00215 	stw	ra,8(sp)
    2eb4:	00041640 	call	4164 <__malloc_lock>
    2eb8:	81ffff17 	ldw	r7,-4(r16)
    2ebc:	00bfff84 	movi	r2,-2
    2ec0:	80fffe04 	addi	r3,r16,-8
    2ec4:	3884703a 	and	r2,r7,r2
    2ec8:	01000074 	movhi	r4,1
    2ecc:	188d883a 	add	r6,r3,r2
    2ed0:	213fc604 	addi	r4,r4,-232
    2ed4:	31400117 	ldw	r5,4(r6)
    2ed8:	22000217 	ldw	r8,8(r4)
    2edc:	027fff04 	movi	r9,-4
    2ee0:	2a4a703a 	and	r5,r5,r9
    2ee4:	41806426 	beq	r8,r6,3078 <_free_r+0x1e0>
    2ee8:	31400115 	stw	r5,4(r6)
    2eec:	39c0004c 	andi	r7,r7,1
    2ef0:	3151883a 	add	r8,r6,r5
    2ef4:	3800281e 	bne	r7,zero,2f98 <_free_r+0x100>
    2ef8:	82bffe17 	ldw	r10,-8(r16)
    2efc:	42000117 	ldw	r8,4(r8)
    2f00:	01c00074 	movhi	r7,1
    2f04:	1a87c83a 	sub	r3,r3,r10
    2f08:	1a400217 	ldw	r9,8(r3)
    2f0c:	39ffc804 	addi	r7,r7,-224
    2f10:	1285883a 	add	r2,r2,r10
    2f14:	4200004c 	andi	r8,r8,1
    2f18:	49c04c26 	beq	r9,r7,304c <_free_r+0x1b4>
    2f1c:	1a800317 	ldw	r10,12(r3)
    2f20:	4a800315 	stw	r10,12(r9)
    2f24:	52400215 	stw	r9,8(r10)
    2f28:	40007126 	beq	r8,zero,30f0 <_free_r+0x258>
    2f2c:	11400054 	ori	r5,r2,1
    2f30:	19400115 	stw	r5,4(r3)
    2f34:	30800015 	stw	r2,0(r6)
    2f38:	11408028 	cmpgeui	r5,r2,512
    2f3c:	28002c1e 	bne	r5,zero,2ff0 <_free_r+0x158>
    2f40:	100ad0fa 	srli	r5,r2,3
    2f44:	100cd17a 	srli	r6,r2,5
    2f48:	21c00117 	ldw	r7,4(r4)
    2f4c:	28800044 	addi	r2,r5,1
    2f50:	100490fa 	slli	r2,r2,3
    2f54:	01400044 	movi	r5,1
    2f58:	298a983a 	sll	r5,r5,r6
    2f5c:	2085883a 	add	r2,r4,r2
    2f60:	11800017 	ldw	r6,0(r2)
    2f64:	29cab03a 	or	r5,r5,r7
    2f68:	11fffe04 	addi	r7,r2,-8
    2f6c:	19c00315 	stw	r7,12(r3)
    2f70:	19800215 	stw	r6,8(r3)
    2f74:	21400115 	stw	r5,4(r4)
    2f78:	10c00015 	stw	r3,0(r2)
    2f7c:	30c00315 	stw	r3,12(r6)
    2f80:	8809883a 	mov	r4,r17
    2f84:	dfc00217 	ldw	ra,8(sp)
    2f88:	dc400117 	ldw	r17,4(sp)
    2f8c:	dc000017 	ldw	r16,0(sp)
    2f90:	dec00304 	addi	sp,sp,12
    2f94:	000428c1 	jmpi	428c <__malloc_unlock>
    2f98:	41c00117 	ldw	r7,4(r8)
    2f9c:	39c0004c 	andi	r7,r7,1
    2fa0:	38000e1e 	bne	r7,zero,2fdc <_free_r+0x144>
    2fa4:	01c00074 	movhi	r7,1
    2fa8:	1145883a 	add	r2,r2,r5
    2fac:	39ffc804 	addi	r7,r7,-224
    2fb0:	31400217 	ldw	r5,8(r6)
    2fb4:	12400054 	ori	r9,r2,1
    2fb8:	1891883a 	add	r8,r3,r2
    2fbc:	29c05226 	beq	r5,r7,3108 <_free_r+0x270>
    2fc0:	31800317 	ldw	r6,12(r6)
    2fc4:	29800315 	stw	r6,12(r5)
    2fc8:	31400215 	stw	r5,8(r6)
    2fcc:	1a400115 	stw	r9,4(r3)
    2fd0:	40800015 	stw	r2,0(r8)
    2fd4:	003fd806 	br	2f38 <_free_r+0xa0>
    2fd8:	f800283a 	ret
    2fdc:	11400054 	ori	r5,r2,1
    2fe0:	817fff15 	stw	r5,-4(r16)
    2fe4:	30800015 	stw	r2,0(r6)
    2fe8:	11408028 	cmpgeui	r5,r2,512
    2fec:	283fd426 	beq	r5,zero,2f40 <_free_r+0xa8>
    2ff0:	100ad27a 	srli	r5,r2,9
    2ff4:	29800168 	cmpgeui	r6,r5,5
    2ff8:	3000341e 	bne	r6,zero,30cc <_free_r+0x234>
    2ffc:	100ad1ba 	srli	r5,r2,6
    3000:	29800e44 	addi	r6,r5,57
    3004:	300c90fa 	slli	r6,r6,3
    3008:	29c00e04 	addi	r7,r5,56
    300c:	218d883a 	add	r6,r4,r6
    3010:	31400017 	ldw	r5,0(r6)
    3014:	31bffe04 	addi	r6,r6,-8
    3018:	31404226 	beq	r6,r5,3124 <_free_r+0x28c>
    301c:	01ffff04 	movi	r7,-4
    3020:	29000117 	ldw	r4,4(r5)
    3024:	21c8703a 	and	r4,r4,r7
    3028:	1100022e 	bgeu	r2,r4,3034 <_free_r+0x19c>
    302c:	29400217 	ldw	r5,8(r5)
    3030:	317ffb1e 	bne	r6,r5,3020 <_free_r+0x188>
    3034:	29800317 	ldw	r6,12(r5)
    3038:	19800315 	stw	r6,12(r3)
    303c:	19400215 	stw	r5,8(r3)
    3040:	30c00215 	stw	r3,8(r6)
    3044:	28c00315 	stw	r3,12(r5)
    3048:	003fcd06 	br	2f80 <_free_r+0xe8>
    304c:	40004d1e 	bne	r8,zero,3184 <_free_r+0x2ec>
    3050:	31000317 	ldw	r4,12(r6)
    3054:	31800217 	ldw	r6,8(r6)
    3058:	288b883a 	add	r5,r5,r2
    305c:	28800054 	ori	r2,r5,1
    3060:	31000315 	stw	r4,12(r6)
    3064:	21800215 	stw	r6,8(r4)
    3068:	18800115 	stw	r2,4(r3)
    306c:	1947883a 	add	r3,r3,r5
    3070:	19400015 	stw	r5,0(r3)
    3074:	003fc206 	br	2f80 <_free_r+0xe8>
    3078:	39c0004c 	andi	r7,r7,1
    307c:	114b883a 	add	r5,r2,r5
    3080:	3800071e 	bne	r7,zero,30a0 <_free_r+0x208>
    3084:	81fffe17 	ldw	r7,-8(r16)
    3088:	19c7c83a 	sub	r3,r3,r7
    308c:	18800317 	ldw	r2,12(r3)
    3090:	19800217 	ldw	r6,8(r3)
    3094:	29cb883a 	add	r5,r5,r7
    3098:	30800315 	stw	r2,12(r6)
    309c:	11800215 	stw	r6,8(r2)
    30a0:	00800074 	movhi	r2,1
    30a4:	29800054 	ori	r6,r5,1
    30a8:	10858f17 	ldw	r2,5692(r2)
    30ac:	19800115 	stw	r6,4(r3)
    30b0:	20c00215 	stw	r3,8(r4)
    30b4:	28bfb236 	bltu	r5,r2,2f80 <_free_r+0xe8>
    30b8:	00800074 	movhi	r2,1
    30bc:	1150c017 	ldw	r5,17152(r2)
    30c0:	8809883a 	mov	r4,r17
    30c4:	0002d7c0 	call	2d7c <_malloc_trim_r>
    30c8:	003fad06 	br	2f80 <_free_r+0xe8>
    30cc:	29800568 	cmpgeui	r6,r5,21
    30d0:	30000926 	beq	r6,zero,30f8 <_free_r+0x260>
    30d4:	29801568 	cmpgeui	r6,r5,85
    30d8:	3000191e 	bne	r6,zero,3140 <_free_r+0x2a8>
    30dc:	100ad33a 	srli	r5,r2,12
    30e0:	29801bc4 	addi	r6,r5,111
    30e4:	300c90fa 	slli	r6,r6,3
    30e8:	29c01b84 	addi	r7,r5,110
    30ec:	003fc706 	br	300c <_free_r+0x174>
    30f0:	1145883a 	add	r2,r2,r5
    30f4:	003fae06 	br	2fb0 <_free_r+0x118>
    30f8:	29801704 	addi	r6,r5,92
    30fc:	300c90fa 	slli	r6,r6,3
    3100:	29c016c4 	addi	r7,r5,91
    3104:	003fc106 	br	300c <_free_r+0x174>
    3108:	20c00515 	stw	r3,20(r4)
    310c:	20c00415 	stw	r3,16(r4)
    3110:	19c00315 	stw	r7,12(r3)
    3114:	19c00215 	stw	r7,8(r3)
    3118:	1a400115 	stw	r9,4(r3)
    311c:	40800015 	stw	r2,0(r8)
    3120:	003f9706 	br	2f80 <_free_r+0xe8>
    3124:	380fd0ba 	srai	r7,r7,2
    3128:	00800044 	movi	r2,1
    312c:	22000117 	ldw	r8,4(r4)
    3130:	11c4983a 	sll	r2,r2,r7
    3134:	1204b03a 	or	r2,r2,r8
    3138:	20800115 	stw	r2,4(r4)
    313c:	003fbe06 	br	3038 <_free_r+0x1a0>
    3140:	29805568 	cmpgeui	r6,r5,341
    3144:	3000051e 	bne	r6,zero,315c <_free_r+0x2c4>
    3148:	100ad3fa 	srli	r5,r2,15
    314c:	29801e04 	addi	r6,r5,120
    3150:	300c90fa 	slli	r6,r6,3
    3154:	29c01dc4 	addi	r7,r5,119
    3158:	003fac06 	br	300c <_free_r+0x174>
    315c:	29415568 	cmpgeui	r5,r5,1365
    3160:	2800051e 	bne	r5,zero,3178 <_free_r+0x2e0>
    3164:	100ad4ba 	srli	r5,r2,18
    3168:	29801f44 	addi	r6,r5,125
    316c:	300c90fa 	slli	r6,r6,3
    3170:	29c01f04 	addi	r7,r5,124
    3174:	003fa506 	br	300c <_free_r+0x174>
    3178:	0180fe04 	movi	r6,1016
    317c:	01c01f84 	movi	r7,126
    3180:	003fa206 	br	300c <_free_r+0x174>
    3184:	11000054 	ori	r4,r2,1
    3188:	19000115 	stw	r4,4(r3)
    318c:	30800015 	stw	r2,0(r6)
    3190:	003f7b06 	br	2f80 <_free_r+0xe8>

00003194 <_lseek_r>:
    3194:	2807883a 	mov	r3,r5
    3198:	defffe04 	addi	sp,sp,-8
    319c:	dc000015 	stw	r16,0(sp)
    31a0:	300b883a 	mov	r5,r6
    31a4:	00800074 	movhi	r2,1
    31a8:	380d883a 	mov	r6,r7
    31ac:	2021883a 	mov	r16,r4
    31b0:	1809883a 	mov	r4,r3
    31b4:	dfc00115 	stw	ra,4(sp)
    31b8:	1010c115 	stw	zero,17156(r2)
    31bc:	0003b340 	call	3b34 <lseek>
    31c0:	10ffffd8 	cmpnei	r3,r2,-1
    31c4:	18000426 	beq	r3,zero,31d8 <_lseek_r+0x44>
    31c8:	dfc00117 	ldw	ra,4(sp)
    31cc:	dc000017 	ldw	r16,0(sp)
    31d0:	dec00204 	addi	sp,sp,8
    31d4:	f800283a 	ret
    31d8:	00c00074 	movhi	r3,1
    31dc:	18d0c117 	ldw	r3,17156(r3)
    31e0:	183ff926 	beq	r3,zero,31c8 <_lseek_r+0x34>
    31e4:	80c00015 	stw	r3,0(r16)
    31e8:	dfc00117 	ldw	ra,4(sp)
    31ec:	dc000017 	ldw	r16,0(sp)
    31f0:	dec00204 	addi	sp,sp,8
    31f4:	f800283a 	ret

000031f8 <__smakebuf_r>:
    31f8:	2880030b 	ldhu	r2,12(r5)
    31fc:	deffe804 	addi	sp,sp,-96
    3200:	dc001215 	stw	r16,72(sp)
    3204:	dfc01715 	stw	ra,92(sp)
    3208:	dd001615 	stw	r20,88(sp)
    320c:	dcc01515 	stw	r19,84(sp)
    3210:	dc801415 	stw	r18,80(sp)
    3214:	dc401315 	stw	r17,76(sp)
    3218:	10c0008c 	andi	r3,r2,2
    321c:	2821883a 	mov	r16,r5
    3220:	18000d26 	beq	r3,zero,3258 <__smakebuf_r+0x60>
    3224:	288010c4 	addi	r2,r5,67
    3228:	28800015 	stw	r2,0(r5)
    322c:	28800415 	stw	r2,16(r5)
    3230:	00800044 	movi	r2,1
    3234:	28800515 	stw	r2,20(r5)
    3238:	dfc01717 	ldw	ra,92(sp)
    323c:	dd001617 	ldw	r20,88(sp)
    3240:	dcc01517 	ldw	r19,84(sp)
    3244:	dc801417 	ldw	r18,80(sp)
    3248:	dc401317 	ldw	r17,76(sp)
    324c:	dc001217 	ldw	r16,72(sp)
    3250:	dec01804 	addi	sp,sp,96
    3254:	f800283a 	ret
    3258:	2940038f 	ldh	r5,14(r5)
    325c:	2023883a 	mov	r17,r4
    3260:	28002816 	blt	r5,zero,3304 <__smakebuf_r+0x10c>
    3264:	d80d883a 	mov	r6,sp
    3268:	000349c0 	call	349c <_fstat_r>
    326c:	10002416 	blt	r2,zero,3300 <__smakebuf_r+0x108>
    3270:	d8800117 	ldw	r2,4(sp)
    3274:	10bc000c 	andi	r2,r2,61440
    3278:	10880018 	cmpnei	r2,r2,8192
    327c:	1000461e 	bne	r2,zero,3398 <__smakebuf_r+0x1a0>
    3280:	8140038f 	ldh	r5,14(r16)
    3284:	8809883a 	mov	r4,r17
    3288:	00034fc0 	call	34fc <_isatty_r>
    328c:	10003e26 	beq	r2,zero,3388 <__smakebuf_r+0x190>
    3290:	8080030b 	ldhu	r2,12(r16)
    3294:	80c010c4 	addi	r3,r16,67
    3298:	80c00015 	stw	r3,0(r16)
    329c:	10800054 	ori	r2,r2,1
    32a0:	8080030d 	sth	r2,12(r16)
    32a4:	00800044 	movi	r2,1
    32a8:	80c00415 	stw	r3,16(r16)
    32ac:	80800515 	stw	r2,20(r16)
    32b0:	04c00044 	movi	r19,1
    32b4:	05010004 	movi	r20,1024
    32b8:	04820004 	movi	r18,2048
    32bc:	a00b883a 	mov	r5,r20
    32c0:	8809883a 	mov	r4,r17
    32c4:	00014700 	call	1470 <_malloc_r>
    32c8:	10001726 	beq	r2,zero,3328 <__smakebuf_r+0x130>
    32cc:	80c0030b 	ldhu	r3,12(r16)
    32d0:	01000034 	movhi	r4,0
    32d4:	2102be04 	addi	r4,r4,2808
    32d8:	89000f15 	stw	r4,60(r17)
    32dc:	18c02014 	ori	r3,r3,128
    32e0:	80c0030d 	sth	r3,12(r16)
    32e4:	80800015 	stw	r2,0(r16)
    32e8:	80800415 	stw	r2,16(r16)
    32ec:	85000515 	stw	r20,20(r16)
    32f0:	98001d1e 	bne	r19,zero,3368 <__smakebuf_r+0x170>
    32f4:	90e4b03a 	or	r18,r18,r3
    32f8:	8480030d 	sth	r18,12(r16)
    32fc:	003fce06 	br	3238 <__smakebuf_r+0x40>
    3300:	8080030b 	ldhu	r2,12(r16)
    3304:	1080200c 	andi	r2,r2,128
    3308:	0027883a 	mov	r19,zero
    330c:	10001326 	beq	r2,zero,335c <__smakebuf_r+0x164>
    3310:	05001004 	movi	r20,64
    3314:	a00b883a 	mov	r5,r20
    3318:	8809883a 	mov	r4,r17
    331c:	0025883a 	mov	r18,zero
    3320:	00014700 	call	1470 <_malloc_r>
    3324:	103fe91e 	bne	r2,zero,32cc <__smakebuf_r+0xd4>
    3328:	8080030b 	ldhu	r2,12(r16)
    332c:	10c0800c 	andi	r3,r2,512
    3330:	183fc11e 	bne	r3,zero,3238 <__smakebuf_r+0x40>
    3334:	00ffff04 	movi	r3,-4
    3338:	10c4703a 	and	r2,r2,r3
    333c:	10800094 	ori	r2,r2,2
    3340:	80c010c4 	addi	r3,r16,67
    3344:	8080030d 	sth	r2,12(r16)
    3348:	00800044 	movi	r2,1
    334c:	80c00015 	stw	r3,0(r16)
    3350:	80c00415 	stw	r3,16(r16)
    3354:	80800515 	stw	r2,20(r16)
    3358:	003fb706 	br	3238 <__smakebuf_r+0x40>
    335c:	05010004 	movi	r20,1024
    3360:	0025883a 	mov	r18,zero
    3364:	003fd506 	br	32bc <__smakebuf_r+0xc4>
    3368:	8140038f 	ldh	r5,14(r16)
    336c:	8809883a 	mov	r4,r17
    3370:	00034fc0 	call	34fc <_isatty_r>
    3374:	80c0030b 	ldhu	r3,12(r16)
    3378:	103fde26 	beq	r2,zero,32f4 <__smakebuf_r+0xfc>
    337c:	18ffff0c 	andi	r3,r3,65532
    3380:	18c00054 	ori	r3,r3,1
    3384:	003fdb06 	br	32f4 <__smakebuf_r+0xfc>
    3388:	04c00044 	movi	r19,1
    338c:	05010004 	movi	r20,1024
    3390:	04820004 	movi	r18,2048
    3394:	003fc906 	br	32bc <__smakebuf_r+0xc4>
    3398:	0027883a 	mov	r19,zero
    339c:	05010004 	movi	r20,1024
    33a0:	04820004 	movi	r18,2048
    33a4:	003fc506 	br	32bc <__smakebuf_r+0xc4>

000033a8 <__swhatbuf_r>:
    33a8:	deffea04 	addi	sp,sp,-88
    33ac:	dc001215 	stw	r16,72(sp)
    33b0:	2821883a 	mov	r16,r5
    33b4:	2940038f 	ldh	r5,14(r5)
    33b8:	dc801415 	stw	r18,80(sp)
    33bc:	dc401315 	stw	r17,76(sp)
    33c0:	dfc01515 	stw	ra,84(sp)
    33c4:	3023883a 	mov	r17,r6
    33c8:	3825883a 	mov	r18,r7
    33cc:	28001016 	blt	r5,zero,3410 <__swhatbuf_r+0x68>
    33d0:	d80d883a 	mov	r6,sp
    33d4:	000349c0 	call	349c <_fstat_r>
    33d8:	10000d16 	blt	r2,zero,3410 <__swhatbuf_r+0x68>
    33dc:	d8c00117 	ldw	r3,4(sp)
    33e0:	01010004 	movi	r4,1024
    33e4:	00820004 	movi	r2,2048
    33e8:	18fc000c 	andi	r3,r3,61440
    33ec:	18c80020 	cmpeqi	r3,r3,8192
    33f0:	90c00015 	stw	r3,0(r18)
    33f4:	89000015 	stw	r4,0(r17)
    33f8:	dfc01517 	ldw	ra,84(sp)
    33fc:	dc801417 	ldw	r18,80(sp)
    3400:	dc401317 	ldw	r17,76(sp)
    3404:	dc001217 	ldw	r16,72(sp)
    3408:	dec01604 	addi	sp,sp,88
    340c:	f800283a 	ret
    3410:	8080030b 	ldhu	r2,12(r16)
    3414:	0007883a 	mov	r3,zero
    3418:	1080200c 	andi	r2,r2,128
    341c:	10000326 	beq	r2,zero,342c <__swhatbuf_r+0x84>
    3420:	01001004 	movi	r4,64
    3424:	0005883a 	mov	r2,zero
    3428:	003ff106 	br	33f0 <__swhatbuf_r+0x48>
    342c:	01010004 	movi	r4,1024
    3430:	0005883a 	mov	r2,zero
    3434:	003fee06 	br	33f0 <__swhatbuf_r+0x48>

00003438 <_read_r>:
    3438:	2807883a 	mov	r3,r5
    343c:	defffe04 	addi	sp,sp,-8
    3440:	dc000015 	stw	r16,0(sp)
    3444:	300b883a 	mov	r5,r6
    3448:	00800074 	movhi	r2,1
    344c:	380d883a 	mov	r6,r7
    3450:	2021883a 	mov	r16,r4
    3454:	1809883a 	mov	r4,r3
    3458:	dfc00115 	stw	ra,4(sp)
    345c:	1010c115 	stw	zero,17156(r2)
    3460:	0003d040 	call	3d04 <read>
    3464:	10ffffd8 	cmpnei	r3,r2,-1
    3468:	18000426 	beq	r3,zero,347c <_read_r+0x44>
    346c:	dfc00117 	ldw	ra,4(sp)
    3470:	dc000017 	ldw	r16,0(sp)
    3474:	dec00204 	addi	sp,sp,8
    3478:	f800283a 	ret
    347c:	00c00074 	movhi	r3,1
    3480:	18d0c117 	ldw	r3,17156(r3)
    3484:	183ff926 	beq	r3,zero,346c <_read_r+0x34>
    3488:	80c00015 	stw	r3,0(r16)
    348c:	dfc00117 	ldw	ra,4(sp)
    3490:	dc000017 	ldw	r16,0(sp)
    3494:	dec00204 	addi	sp,sp,8
    3498:	f800283a 	ret

0000349c <_fstat_r>:
    349c:	2807883a 	mov	r3,r5
    34a0:	defffe04 	addi	sp,sp,-8
    34a4:	dc000015 	stw	r16,0(sp)
    34a8:	00800074 	movhi	r2,1
    34ac:	300b883a 	mov	r5,r6
    34b0:	2021883a 	mov	r16,r4
    34b4:	1809883a 	mov	r4,r3
    34b8:	dfc00115 	stw	ra,4(sp)
    34bc:	1010c115 	stw	zero,17156(r2)
    34c0:	000387c0 	call	387c <fstat>
    34c4:	10ffffd8 	cmpnei	r3,r2,-1
    34c8:	18000426 	beq	r3,zero,34dc <_fstat_r+0x40>
    34cc:	dfc00117 	ldw	ra,4(sp)
    34d0:	dc000017 	ldw	r16,0(sp)
    34d4:	dec00204 	addi	sp,sp,8
    34d8:	f800283a 	ret
    34dc:	00c00074 	movhi	r3,1
    34e0:	18d0c117 	ldw	r3,17156(r3)
    34e4:	183ff926 	beq	r3,zero,34cc <_fstat_r+0x30>
    34e8:	80c00015 	stw	r3,0(r16)
    34ec:	dfc00117 	ldw	ra,4(sp)
    34f0:	dc000017 	ldw	r16,0(sp)
    34f4:	dec00204 	addi	sp,sp,8
    34f8:	f800283a 	ret

000034fc <_isatty_r>:
    34fc:	defffe04 	addi	sp,sp,-8
    3500:	dc000015 	stw	r16,0(sp)
    3504:	00800074 	movhi	r2,1
    3508:	2021883a 	mov	r16,r4
    350c:	2809883a 	mov	r4,r5
    3510:	dfc00115 	stw	ra,4(sp)
    3514:	1010c115 	stw	zero,17156(r2)
    3518:	00039680 	call	3968 <isatty>
    351c:	10ffffd8 	cmpnei	r3,r2,-1
    3520:	18000426 	beq	r3,zero,3534 <_isatty_r+0x38>
    3524:	dfc00117 	ldw	ra,4(sp)
    3528:	dc000017 	ldw	r16,0(sp)
    352c:	dec00204 	addi	sp,sp,8
    3530:	f800283a 	ret
    3534:	00c00074 	movhi	r3,1
    3538:	18d0c117 	ldw	r3,17156(r3)
    353c:	183ff926 	beq	r3,zero,3524 <_isatty_r+0x28>
    3540:	80c00015 	stw	r3,0(r16)
    3544:	dfc00117 	ldw	ra,4(sp)
    3548:	dc000017 	ldw	r16,0(sp)
    354c:	dec00204 	addi	sp,sp,8
    3550:	f800283a 	ret

00003554 <__divsi3>:
    3554:	20001a16 	blt	r4,zero,35c0 <__divsi3+0x6c>
    3558:	000f883a 	mov	r7,zero
    355c:	2800020e 	bge	r5,zero,3568 <__divsi3+0x14>
    3560:	014bc83a 	sub	r5,zero,r5
    3564:	39c0005c 	xori	r7,r7,1
    3568:	200d883a 	mov	r6,r4
    356c:	00c00044 	movi	r3,1
    3570:	2900092e 	bgeu	r5,r4,3598 <__divsi3+0x44>
    3574:	00800804 	movi	r2,32
    3578:	00c00044 	movi	r3,1
    357c:	00000106 	br	3584 <__divsi3+0x30>
    3580:	10001226 	beq	r2,zero,35cc <__divsi3+0x78>
    3584:	294b883a 	add	r5,r5,r5
    3588:	10bfffc4 	addi	r2,r2,-1
    358c:	18c7883a 	add	r3,r3,r3
    3590:	293ffb36 	bltu	r5,r4,3580 <__divsi3+0x2c>
    3594:	18000d26 	beq	r3,zero,35cc <__divsi3+0x78>
    3598:	0005883a 	mov	r2,zero
    359c:	31400236 	bltu	r6,r5,35a8 <__divsi3+0x54>
    35a0:	314dc83a 	sub	r6,r6,r5
    35a4:	10c4b03a 	or	r2,r2,r3
    35a8:	1806d07a 	srli	r3,r3,1
    35ac:	280ad07a 	srli	r5,r5,1
    35b0:	183ffa1e 	bne	r3,zero,359c <__divsi3+0x48>
    35b4:	38000126 	beq	r7,zero,35bc <__divsi3+0x68>
    35b8:	0085c83a 	sub	r2,zero,r2
    35bc:	f800283a 	ret
    35c0:	0109c83a 	sub	r4,zero,r4
    35c4:	01c00044 	movi	r7,1
    35c8:	003fe406 	br	355c <__divsi3+0x8>
    35cc:	0005883a 	mov	r2,zero
    35d0:	003ff806 	br	35b4 <__divsi3+0x60>

000035d4 <__modsi3>:
    35d4:	20001916 	blt	r4,zero,363c <__modsi3+0x68>
    35d8:	000f883a 	mov	r7,zero
    35dc:	2005883a 	mov	r2,r4
    35e0:	2800010e 	bge	r5,zero,35e8 <__modsi3+0x14>
    35e4:	014bc83a 	sub	r5,zero,r5
    35e8:	00c00044 	movi	r3,1
    35ec:	2900092e 	bgeu	r5,r4,3614 <__modsi3+0x40>
    35f0:	01800804 	movi	r6,32
    35f4:	00c00044 	movi	r3,1
    35f8:	00000106 	br	3600 <__modsi3+0x2c>
    35fc:	30000d26 	beq	r6,zero,3634 <__modsi3+0x60>
    3600:	294b883a 	add	r5,r5,r5
    3604:	31bfffc4 	addi	r6,r6,-1
    3608:	18c7883a 	add	r3,r3,r3
    360c:	293ffb36 	bltu	r5,r4,35fc <__modsi3+0x28>
    3610:	18000826 	beq	r3,zero,3634 <__modsi3+0x60>
    3614:	1806d07a 	srli	r3,r3,1
    3618:	11400136 	bltu	r2,r5,3620 <__modsi3+0x4c>
    361c:	1145c83a 	sub	r2,r2,r5
    3620:	280ad07a 	srli	r5,r5,1
    3624:	183ffb1e 	bne	r3,zero,3614 <__modsi3+0x40>
    3628:	38000126 	beq	r7,zero,3630 <__modsi3+0x5c>
    362c:	0085c83a 	sub	r2,zero,r2
    3630:	f800283a 	ret
    3634:	2005883a 	mov	r2,r4
    3638:	003ffb06 	br	3628 <__modsi3+0x54>
    363c:	0109c83a 	sub	r4,zero,r4
    3640:	01c00044 	movi	r7,1
    3644:	003fe506 	br	35dc <__modsi3+0x8>

00003648 <__udivsi3>:
    3648:	200d883a 	mov	r6,r4
    364c:	2900152e 	bgeu	r5,r4,36a4 <__udivsi3+0x5c>
    3650:	28001416 	blt	r5,zero,36a4 <__udivsi3+0x5c>
    3654:	00800804 	movi	r2,32
    3658:	00c00044 	movi	r3,1
    365c:	00000206 	br	3668 <__udivsi3+0x20>
    3660:	10000e26 	beq	r2,zero,369c <__udivsi3+0x54>
    3664:	28000516 	blt	r5,zero,367c <__udivsi3+0x34>
    3668:	294b883a 	add	r5,r5,r5
    366c:	10bfffc4 	addi	r2,r2,-1
    3670:	18c7883a 	add	r3,r3,r3
    3674:	293ffa36 	bltu	r5,r4,3660 <__udivsi3+0x18>
    3678:	18000826 	beq	r3,zero,369c <__udivsi3+0x54>
    367c:	0005883a 	mov	r2,zero
    3680:	31400236 	bltu	r6,r5,368c <__udivsi3+0x44>
    3684:	314dc83a 	sub	r6,r6,r5
    3688:	10c4b03a 	or	r2,r2,r3
    368c:	1806d07a 	srli	r3,r3,1
    3690:	280ad07a 	srli	r5,r5,1
    3694:	183ffa1e 	bne	r3,zero,3680 <__udivsi3+0x38>
    3698:	f800283a 	ret
    369c:	0005883a 	mov	r2,zero
    36a0:	f800283a 	ret
    36a4:	00c00044 	movi	r3,1
    36a8:	003ff406 	br	367c <__udivsi3+0x34>

000036ac <__umodsi3>:
    36ac:	2005883a 	mov	r2,r4
    36b0:	2900132e 	bgeu	r5,r4,3700 <__umodsi3+0x54>
    36b4:	28001216 	blt	r5,zero,3700 <__umodsi3+0x54>
    36b8:	01800804 	movi	r6,32
    36bc:	00c00044 	movi	r3,1
    36c0:	00000206 	br	36cc <__umodsi3+0x20>
    36c4:	30000c26 	beq	r6,zero,36f8 <__umodsi3+0x4c>
    36c8:	28000516 	blt	r5,zero,36e0 <__umodsi3+0x34>
    36cc:	294b883a 	add	r5,r5,r5
    36d0:	31bfffc4 	addi	r6,r6,-1
    36d4:	18c7883a 	add	r3,r3,r3
    36d8:	293ffa36 	bltu	r5,r4,36c4 <__umodsi3+0x18>
    36dc:	18000626 	beq	r3,zero,36f8 <__umodsi3+0x4c>
    36e0:	1806d07a 	srli	r3,r3,1
    36e4:	11400136 	bltu	r2,r5,36ec <__umodsi3+0x40>
    36e8:	1145c83a 	sub	r2,r2,r5
    36ec:	280ad07a 	srli	r5,r5,1
    36f0:	183ffb1e 	bne	r3,zero,36e0 <__umodsi3+0x34>
    36f4:	f800283a 	ret
    36f8:	2005883a 	mov	r2,r4
    36fc:	f800283a 	ret
    3700:	00c00044 	movi	r3,1
    3704:	003ff606 	br	36e0 <__umodsi3+0x34>

00003708 <alt_get_errno>:
#undef errno

extern int errno;

static ALT_INLINE int* alt_get_errno(void)
{
    3708:	defffe04 	addi	sp,sp,-8
    370c:	dfc00115 	stw	ra,4(sp)
    3710:	df000015 	stw	fp,0(sp)
    3714:	d839883a 	mov	fp,sp
  return ((alt_errno) ? alt_errno() : &errno);
    3718:	d0a00917 	ldw	r2,-32732(gp)
    371c:	10000326 	beq	r2,zero,372c <alt_get_errno+0x24>
    3720:	d0a00917 	ldw	r2,-32732(gp)
    3724:	103ee83a 	callr	r2
    3728:	00000106 	br	3730 <alt_get_errno+0x28>
    372c:	d0ab3504 	addi	r2,gp,-21292
}
    3730:	e037883a 	mov	sp,fp
    3734:	dfc00117 	ldw	ra,4(sp)
    3738:	df000017 	ldw	fp,0(sp)
    373c:	dec00204 	addi	sp,sp,8
    3740:	f800283a 	ret

00003744 <close>:
 *
 * ALT_CLOSE is mapped onto the close() system call in alt_syscall.h
 */
 
int ALT_CLOSE (int fildes)
{
    3744:	defffb04 	addi	sp,sp,-20
    3748:	dfc00415 	stw	ra,16(sp)
    374c:	df000315 	stw	fp,12(sp)
    3750:	df000304 	addi	fp,sp,12
    3754:	e13ffd15 	stw	r4,-12(fp)
   * A common error case is that when the file descriptor was created, the call
   * to open() failed resulting in a negative file descriptor. This is trapped
   * below so that we don't try and process an invalid file descriptor.
   */

  fd = (fildes < 0) ? NULL : &alt_fd_list[fildes];
    3758:	e0bffd17 	ldw	r2,-12(fp)
    375c:	10000616 	blt	r2,zero,3778 <close+0x34>
    3760:	e0bffd17 	ldw	r2,-12(fp)
    3764:	10c00324 	muli	r3,r2,12
    3768:	00800074 	movhi	r2,1
    376c:	1080d204 	addi	r2,r2,840
    3770:	1885883a 	add	r2,r3,r2
    3774:	00000106 	br	377c <close+0x38>
    3778:	0005883a 	mov	r2,zero
    377c:	e0bfff15 	stw	r2,-4(fp)

  if (fd)
    3780:	e0bfff17 	ldw	r2,-4(fp)
    3784:	10001926 	beq	r2,zero,37ec <close+0xa8>
    /*
     * If the associated file system/device has a close function, call it so 
     * that any necessary cleanup code can run.
     */

    rval = (fd->dev->close) ? fd->dev->close(fd) : 0;
    3788:	e0bfff17 	ldw	r2,-4(fp)
    378c:	10800017 	ldw	r2,0(r2)
    3790:	10800417 	ldw	r2,16(r2)
    3794:	10000626 	beq	r2,zero,37b0 <close+0x6c>
    3798:	e0bfff17 	ldw	r2,-4(fp)
    379c:	10800017 	ldw	r2,0(r2)
    37a0:	10800417 	ldw	r2,16(r2)
    37a4:	e13fff17 	ldw	r4,-4(fp)
    37a8:	103ee83a 	callr	r2
    37ac:	00000106 	br	37b4 <close+0x70>
    37b0:	0005883a 	mov	r2,zero
    37b4:	e0bffe15 	stw	r2,-8(fp)

    /* Free the file descriptor structure and return. */

    alt_release_fd (fildes);
    37b8:	e13ffd17 	ldw	r4,-12(fp)
    37bc:	0003e000 	call	3e00 <alt_release_fd>
    if (rval < 0)
    37c0:	e0bffe17 	ldw	r2,-8(fp)
    37c4:	1000070e 	bge	r2,zero,37e4 <close+0xa0>
    {
      ALT_ERRNO = -rval;
    37c8:	00037080 	call	3708 <alt_get_errno>
    37cc:	1007883a 	mov	r3,r2
    37d0:	e0bffe17 	ldw	r2,-8(fp)
    37d4:	0085c83a 	sub	r2,zero,r2
    37d8:	18800015 	stw	r2,0(r3)
      return -1;
    37dc:	00bfffc4 	movi	r2,-1
    37e0:	00000706 	br	3800 <close+0xbc>
    }
    return 0;
    37e4:	0005883a 	mov	r2,zero
    37e8:	00000506 	br	3800 <close+0xbc>
  }
  else
  {
    ALT_ERRNO = EBADFD;
    37ec:	00037080 	call	3708 <alt_get_errno>
    37f0:	1007883a 	mov	r3,r2
    37f4:	00801444 	movi	r2,81
    37f8:	18800015 	stw	r2,0(r3)
    return -1;
    37fc:	00bfffc4 	movi	r2,-1
  }
}
    3800:	e037883a 	mov	sp,fp
    3804:	dfc00117 	ldw	ra,4(sp)
    3808:	df000017 	ldw	fp,0(sp)
    380c:	dec00204 	addi	sp,sp,8
    3810:	f800283a 	ret

00003814 <alt_dev_null_write>:
 * by the alt_dev_null device. It simple discards all data passed to it, and
 * indicates that the data has been successfully transmitted.
 */

static int alt_dev_null_write (alt_fd* fd, const char* ptr, int len)
{
    3814:	defffc04 	addi	sp,sp,-16
    3818:	df000315 	stw	fp,12(sp)
    381c:	df000304 	addi	fp,sp,12
    3820:	e13fff15 	stw	r4,-4(fp)
    3824:	e17ffe15 	stw	r5,-8(fp)
    3828:	e1bffd15 	stw	r6,-12(fp)
  return len;
    382c:	e0bffd17 	ldw	r2,-12(fp)
}
    3830:	e037883a 	mov	sp,fp
    3834:	df000017 	ldw	fp,0(sp)
    3838:	dec00104 	addi	sp,sp,4
    383c:	f800283a 	ret

00003840 <alt_get_errno>:
{
    3840:	defffe04 	addi	sp,sp,-8
    3844:	dfc00115 	stw	ra,4(sp)
    3848:	df000015 	stw	fp,0(sp)
    384c:	d839883a 	mov	fp,sp
  return ((alt_errno) ? alt_errno() : &errno);
    3850:	d0a00917 	ldw	r2,-32732(gp)
    3854:	10000326 	beq	r2,zero,3864 <alt_get_errno+0x24>
    3858:	d0a00917 	ldw	r2,-32732(gp)
    385c:	103ee83a 	callr	r2
    3860:	00000106 	br	3868 <alt_get_errno+0x28>
    3864:	d0ab3504 	addi	r2,gp,-21292
}
    3868:	e037883a 	mov	sp,fp
    386c:	dfc00117 	ldw	ra,4(sp)
    3870:	df000017 	ldw	fp,0(sp)
    3874:	dec00204 	addi	sp,sp,8
    3878:	f800283a 	ret

0000387c <fstat>:
}

#else /* !ALT_USE_DIRECT_DRIVERS */

int ALT_FSTAT (int file, struct stat *st)
{
    387c:	defffb04 	addi	sp,sp,-20
    3880:	dfc00415 	stw	ra,16(sp)
    3884:	df000315 	stw	fp,12(sp)
    3888:	df000304 	addi	fp,sp,12
    388c:	e13ffe15 	stw	r4,-8(fp)
    3890:	e17ffd15 	stw	r5,-12(fp)
   * A common error case is that when the file descriptor was created, the call
   * to open() failed resulting in a negative file descriptor. This is trapped
   * below so that we don't try and process an invalid file descriptor.
   */

  fd = (file < 0) ? NULL : &alt_fd_list[file];
    3894:	e0bffe17 	ldw	r2,-8(fp)
    3898:	10000616 	blt	r2,zero,38b4 <fstat+0x38>
    389c:	e0bffe17 	ldw	r2,-8(fp)
    38a0:	10c00324 	muli	r3,r2,12
    38a4:	00800074 	movhi	r2,1
    38a8:	1080d204 	addi	r2,r2,840
    38ac:	1885883a 	add	r2,r3,r2
    38b0:	00000106 	br	38b8 <fstat+0x3c>
    38b4:	0005883a 	mov	r2,zero
    38b8:	e0bfff15 	stw	r2,-4(fp)
  
  if (fd)
    38bc:	e0bfff17 	ldw	r2,-4(fp)
    38c0:	10001026 	beq	r2,zero,3904 <fstat+0x88>
  {
    /* Call the drivers fstat() function to fill out the "st" structure. */

    if (fd->dev->fstat)
    38c4:	e0bfff17 	ldw	r2,-4(fp)
    38c8:	10800017 	ldw	r2,0(r2)
    38cc:	10800817 	ldw	r2,32(r2)
    38d0:	10000726 	beq	r2,zero,38f0 <fstat+0x74>
    {
      return fd->dev->fstat(fd, st);
    38d4:	e0bfff17 	ldw	r2,-4(fp)
    38d8:	10800017 	ldw	r2,0(r2)
    38dc:	10800817 	ldw	r2,32(r2)
    38e0:	e17ffd17 	ldw	r5,-12(fp)
    38e4:	e13fff17 	ldw	r4,-4(fp)
    38e8:	103ee83a 	callr	r2
    38ec:	00000a06 	br	3918 <fstat+0x9c>
     * device.
     */
 
    else
    {
      st->st_mode = _IFCHR;
    38f0:	e0bffd17 	ldw	r2,-12(fp)
    38f4:	00c80004 	movi	r3,8192
    38f8:	10c00115 	stw	r3,4(r2)
      return 0;
    38fc:	0005883a 	mov	r2,zero
    3900:	00000506 	br	3918 <fstat+0x9c>
    }
  }
  else
  {
    ALT_ERRNO = EBADFD;
    3904:	00038400 	call	3840 <alt_get_errno>
    3908:	1007883a 	mov	r3,r2
    390c:	00801444 	movi	r2,81
    3910:	18800015 	stw	r2,0(r3)
    return -1;
    3914:	00bfffc4 	movi	r2,-1
  }
}
    3918:	e037883a 	mov	sp,fp
    391c:	dfc00117 	ldw	ra,4(sp)
    3920:	df000017 	ldw	fp,0(sp)
    3924:	dec00204 	addi	sp,sp,8
    3928:	f800283a 	ret

0000392c <alt_get_errno>:
{
    392c:	defffe04 	addi	sp,sp,-8
    3930:	dfc00115 	stw	ra,4(sp)
    3934:	df000015 	stw	fp,0(sp)
    3938:	d839883a 	mov	fp,sp
  return ((alt_errno) ? alt_errno() : &errno);
    393c:	d0a00917 	ldw	r2,-32732(gp)
    3940:	10000326 	beq	r2,zero,3950 <alt_get_errno+0x24>
    3944:	d0a00917 	ldw	r2,-32732(gp)
    3948:	103ee83a 	callr	r2
    394c:	00000106 	br	3954 <alt_get_errno+0x28>
    3950:	d0ab3504 	addi	r2,gp,-21292
}
    3954:	e037883a 	mov	sp,fp
    3958:	dfc00117 	ldw	ra,4(sp)
    395c:	df000017 	ldw	fp,0(sp)
    3960:	dec00204 	addi	sp,sp,8
    3964:	f800283a 	ret

00003968 <isatty>:
 *
 * ALT_ISATTY is mapped onto the isatty() system call in alt_syscall.h
 */
 
int ALT_ISATTY (int file)
{
    3968:	deffea04 	addi	sp,sp,-88
    396c:	dfc01515 	stw	ra,84(sp)
    3970:	df001415 	stw	fp,80(sp)
    3974:	df001404 	addi	fp,sp,80
    3978:	e13fec15 	stw	r4,-80(fp)
   * A common error case is that when the file descriptor was created, the call
   * to open() failed resulting in a negative file descriptor. This is trapped
   * below so that we don't try and process an invalid file descriptor.
   */

  fd = (file < 0) ? NULL : &alt_fd_list[file];
    397c:	e0bfec17 	ldw	r2,-80(fp)
    3980:	10000616 	blt	r2,zero,399c <isatty+0x34>
    3984:	e0bfec17 	ldw	r2,-80(fp)
    3988:	10c00324 	muli	r3,r2,12
    398c:	00800074 	movhi	r2,1
    3990:	1080d204 	addi	r2,r2,840
    3994:	1885883a 	add	r2,r3,r2
    3998:	00000106 	br	39a0 <isatty+0x38>
    399c:	0005883a 	mov	r2,zero
    39a0:	e0bfff15 	stw	r2,-4(fp)
  
  if (fd)
    39a4:	e0bfff17 	ldw	r2,-4(fp)
    39a8:	10000e26 	beq	r2,zero,39e4 <isatty+0x7c>
    /*
     * If a device driver does not provide an fstat() function, then it is 
     * treated as a terminal device by default.
     */

    if (!fd->dev->fstat)
    39ac:	e0bfff17 	ldw	r2,-4(fp)
    39b0:	10800017 	ldw	r2,0(r2)
    39b4:	10800817 	ldw	r2,32(r2)
    39b8:	1000021e 	bne	r2,zero,39c4 <isatty+0x5c>
    {
      return 1;
    39bc:	00800044 	movi	r2,1
    39c0:	00000d06 	br	39f8 <isatty+0x90>
     * this is called so that the device can identify itself.
     */ 

    else
    {
      fstat (file, &stat);
    39c4:	e0bfed04 	addi	r2,fp,-76
    39c8:	100b883a 	mov	r5,r2
    39cc:	e13fec17 	ldw	r4,-80(fp)
    39d0:	000387c0 	call	387c <fstat>
      return (stat.st_mode == _IFCHR) ? 1 : 0;
    39d4:	e0bfee17 	ldw	r2,-72(fp)
    39d8:	10880020 	cmpeqi	r2,r2,8192
    39dc:	10803fcc 	andi	r2,r2,255
    39e0:	00000506 	br	39f8 <isatty+0x90>
    }
  }
  else
  {
    ALT_ERRNO = EBADFD;
    39e4:	000392c0 	call	392c <alt_get_errno>
    39e8:	1007883a 	mov	r3,r2
    39ec:	00801444 	movi	r2,81
    39f0:	18800015 	stw	r2,0(r3)
    return 0;
    39f4:	0005883a 	mov	r2,zero
  }
}
    39f8:	e037883a 	mov	sp,fp
    39fc:	dfc00117 	ldw	ra,4(sp)
    3a00:	df000017 	ldw	fp,0(sp)
    3a04:	dec00204 	addi	sp,sp,8
    3a08:	f800283a 	ret

00003a0c <alt_load_section>:
 */

static void ALT_INLINE alt_load_section (alt_u32* from, 
                                         alt_u32* to, 
                                         alt_u32* end)
{
    3a0c:	defffc04 	addi	sp,sp,-16
    3a10:	df000315 	stw	fp,12(sp)
    3a14:	df000304 	addi	fp,sp,12
    3a18:	e13fff15 	stw	r4,-4(fp)
    3a1c:	e17ffe15 	stw	r5,-8(fp)
    3a20:	e1bffd15 	stw	r6,-12(fp)
  if (to != from)
    3a24:	e0fffe17 	ldw	r3,-8(fp)
    3a28:	e0bfff17 	ldw	r2,-4(fp)
    3a2c:	18800c26 	beq	r3,r2,3a60 <alt_load_section+0x54>
  {
    while( to != end )
    3a30:	00000806 	br	3a54 <alt_load_section+0x48>
    {
      *to++ = *from++;
    3a34:	e0ffff17 	ldw	r3,-4(fp)
    3a38:	18800104 	addi	r2,r3,4
    3a3c:	e0bfff15 	stw	r2,-4(fp)
    3a40:	e0bffe17 	ldw	r2,-8(fp)
    3a44:	11000104 	addi	r4,r2,4
    3a48:	e13ffe15 	stw	r4,-8(fp)
    3a4c:	18c00017 	ldw	r3,0(r3)
    3a50:	10c00015 	stw	r3,0(r2)
    while( to != end )
    3a54:	e0fffe17 	ldw	r3,-8(fp)
    3a58:	e0bffd17 	ldw	r2,-12(fp)
    3a5c:	18bff51e 	bne	r3,r2,3a34 <alt_load_section+0x28>
    }
  }
}
    3a60:	0001883a 	nop
    3a64:	e037883a 	mov	sp,fp
    3a68:	df000017 	ldw	fp,0(sp)
    3a6c:	dec00104 	addi	sp,sp,4
    3a70:	f800283a 	ret

00003a74 <alt_load>:
 * there is no bootloader, so this application is responsible for loading to
 * RAM any sections that are required.
 */  

void alt_load (void)
{
    3a74:	defffe04 	addi	sp,sp,-8
    3a78:	dfc00115 	stw	ra,4(sp)
    3a7c:	df000015 	stw	fp,0(sp)
    3a80:	d839883a 	mov	fp,sp
  /* 
   * Copy the .rwdata section. 
   */

  alt_load_section (&__flash_rwdata_start, 
    3a84:	01800074 	movhi	r6,1
    3a88:	3185ba04 	addi	r6,r6,5864
    3a8c:	01400074 	movhi	r5,1
    3a90:	297ab904 	addi	r5,r5,-5404
    3a94:	01000074 	movhi	r4,1
    3a98:	2105ba04 	addi	r4,r4,5864
    3a9c:	0003a0c0 	call	3a0c <alt_load_section>

  /*
   * Copy the exception handler.
   */

  alt_load_section (&__flash_exceptions_start, 
    3aa0:	01800034 	movhi	r6,0
    3aa4:	31808e04 	addi	r6,r6,568
    3aa8:	01400034 	movhi	r5,0
    3aac:	29400804 	addi	r5,r5,32
    3ab0:	01000034 	movhi	r4,0
    3ab4:	21000804 	addi	r4,r4,32
    3ab8:	0003a0c0 	call	3a0c <alt_load_section>

  /*
   * Copy the .rodata section.
   */

  alt_load_section (&__flash_rodata_start, 
    3abc:	01800074 	movhi	r6,1
    3ac0:	31bab904 	addi	r6,r6,-5404
    3ac4:	01400074 	movhi	r5,1
    3ac8:	2979c904 	addi	r5,r5,-6364
    3acc:	01000074 	movhi	r4,1
    3ad0:	2139c904 	addi	r4,r4,-6364
    3ad4:	0003a0c0 	call	3a0c <alt_load_section>
  
  /*
   * Now ensure that the caches are in synch.
   */
  
  alt_dcache_flush_all();
    3ad8:	000d3700 	call	d370 <alt_dcache_flush_all>
  alt_icache_flush_all();
    3adc:	000d5680 	call	d568 <alt_icache_flush_all>
}
    3ae0:	0001883a 	nop
    3ae4:	e037883a 	mov	sp,fp
    3ae8:	dfc00117 	ldw	ra,4(sp)
    3aec:	df000017 	ldw	fp,0(sp)
    3af0:	dec00204 	addi	sp,sp,8
    3af4:	f800283a 	ret

00003af8 <alt_get_errno>:
{
    3af8:	defffe04 	addi	sp,sp,-8
    3afc:	dfc00115 	stw	ra,4(sp)
    3b00:	df000015 	stw	fp,0(sp)
    3b04:	d839883a 	mov	fp,sp
  return ((alt_errno) ? alt_errno() : &errno);
    3b08:	d0a00917 	ldw	r2,-32732(gp)
    3b0c:	10000326 	beq	r2,zero,3b1c <alt_get_errno+0x24>
    3b10:	d0a00917 	ldw	r2,-32732(gp)
    3b14:	103ee83a 	callr	r2
    3b18:	00000106 	br	3b20 <alt_get_errno+0x28>
    3b1c:	d0ab3504 	addi	r2,gp,-21292
}
    3b20:	e037883a 	mov	sp,fp
    3b24:	dfc00117 	ldw	ra,4(sp)
    3b28:	df000017 	ldw	fp,0(sp)
    3b2c:	dec00204 	addi	sp,sp,8
    3b30:	f800283a 	ret

00003b34 <lseek>:
 * ALT_LSEEK is mapped onto the lseek() system call in alt_syscall.h
 *
 */

off_t ALT_LSEEK (int file, off_t ptr, int dir)
{
    3b34:	defff904 	addi	sp,sp,-28
    3b38:	dfc00615 	stw	ra,24(sp)
    3b3c:	df000515 	stw	fp,20(sp)
    3b40:	df000504 	addi	fp,sp,20
    3b44:	e13ffd15 	stw	r4,-12(fp)
    3b48:	e17ffc15 	stw	r5,-16(fp)
    3b4c:	e1bffb15 	stw	r6,-20(fp)
  alt_fd* fd;
  off_t   rc = 0; 
    3b50:	e03fff15 	stw	zero,-4(fp)
   * A common error case is that when the file descriptor was created, the call
   * to open() failed resulting in a negative file descriptor. This is trapped
   * below so that we don't try and process an invalid file descriptor.
   */

  fd = (file < 0) ? NULL : &alt_fd_list[file];
    3b54:	e0bffd17 	ldw	r2,-12(fp)
    3b58:	10000616 	blt	r2,zero,3b74 <lseek+0x40>
    3b5c:	e0bffd17 	ldw	r2,-12(fp)
    3b60:	10c00324 	muli	r3,r2,12
    3b64:	00800074 	movhi	r2,1
    3b68:	1080d204 	addi	r2,r2,840
    3b6c:	1885883a 	add	r2,r3,r2
    3b70:	00000106 	br	3b78 <lseek+0x44>
    3b74:	0005883a 	mov	r2,zero
    3b78:	e0bffe15 	stw	r2,-8(fp)
  
  if (fd) 
    3b7c:	e0bffe17 	ldw	r2,-8(fp)
    3b80:	10001026 	beq	r2,zero,3bc4 <lseek+0x90>
    /*
     * If the device driver provides an implementation of the lseek() function,
     * then call that to process the request.
     */
 
    if (fd->dev->lseek)
    3b84:	e0bffe17 	ldw	r2,-8(fp)
    3b88:	10800017 	ldw	r2,0(r2)
    3b8c:	10800717 	ldw	r2,28(r2)
    3b90:	10000926 	beq	r2,zero,3bb8 <lseek+0x84>
    {
      rc = fd->dev->lseek(fd, ptr, dir);
    3b94:	e0bffe17 	ldw	r2,-8(fp)
    3b98:	10800017 	ldw	r2,0(r2)
    3b9c:	10800717 	ldw	r2,28(r2)
    3ba0:	e1bffb17 	ldw	r6,-20(fp)
    3ba4:	e17ffc17 	ldw	r5,-16(fp)
    3ba8:	e13ffe17 	ldw	r4,-8(fp)
    3bac:	103ee83a 	callr	r2
    3bb0:	e0bfff15 	stw	r2,-4(fp)
    3bb4:	00000506 	br	3bcc <lseek+0x98>
     * Otherwise return an error.
     */

    else
    {
      rc = -ENOTSUP;
    3bb8:	00bfde84 	movi	r2,-134
    3bbc:	e0bfff15 	stw	r2,-4(fp)
    3bc0:	00000206 	br	3bcc <lseek+0x98>
    }
  }
  else  
  {
    rc = -EBADFD;
    3bc4:	00bfebc4 	movi	r2,-81
    3bc8:	e0bfff15 	stw	r2,-4(fp)
  }

  if (rc < 0)
    3bcc:	e0bfff17 	ldw	r2,-4(fp)
    3bd0:	1000070e 	bge	r2,zero,3bf0 <lseek+0xbc>
  {
    ALT_ERRNO = -rc;
    3bd4:	0003af80 	call	3af8 <alt_get_errno>
    3bd8:	1007883a 	mov	r3,r2
    3bdc:	e0bfff17 	ldw	r2,-4(fp)
    3be0:	0085c83a 	sub	r2,zero,r2
    3be4:	18800015 	stw	r2,0(r3)
    rc = -1;
    3be8:	00bfffc4 	movi	r2,-1
    3bec:	e0bfff15 	stw	r2,-4(fp)
  }

  return rc;
    3bf0:	e0bfff17 	ldw	r2,-4(fp)
}
    3bf4:	e037883a 	mov	sp,fp
    3bf8:	dfc00117 	ldw	ra,4(sp)
    3bfc:	df000017 	ldw	fp,0(sp)
    3c00:	dec00204 	addi	sp,sp,8
    3c04:	f800283a 	ret

00003c08 <alt_main>:
 * devices/filesystems/components in the system; and call the entry point for
 * the users application, i.e. main().
 */

void alt_main (void)
{
    3c08:	defffb04 	addi	sp,sp,-20
    3c0c:	dfc00415 	stw	ra,16(sp)
    3c10:	df000315 	stw	fp,12(sp)
    3c14:	df000304 	addi	fp,sp,12
#endif

  /* ALT LOG - please see HAL/sys/alt_log_printf.h for details */
  ALT_LOG_PRINT_BOOT("[alt_main.c] Entering alt_main, calling alt_irq_init.\r\n");
  /* Initialize the interrupt controller. */
  alt_irq_init (NULL);
    3c18:	0009883a 	mov	r4,zero
    3c1c:	000be440 	call	be44 <alt_irq_init>

  /* Initialize the operating system */
  ALT_LOG_PRINT_BOOT("[alt_main.c] Done alt_irq_init, calling alt_os_init.\r\n");
  ALT_OS_INIT();
    3c20:	0004bac0 	call	4bac <OSInit>
    3c24:	01000044 	movi	r4,1
    3c28:	00095b40 	call	95b4 <OSSemCreate>
    3c2c:	d0ab3a15 	stw	r2,-21272(gp)
    3c30:	01000044 	movi	r4,1
    3c34:	00095b40 	call	95b4 <OSSemCreate>
    3c38:	d0ab3c15 	stw	r2,-21264(gp)
    3c3c:	d0ab3604 	addi	r2,gp,-21288
    3c40:	e0bffe15 	stw	r2,-8(fp)
    3c44:	00800044 	movi	r2,1
    3c48:	e0bffd8d 	sth	r2,-10(fp)
 */

static ALT_INLINE int ALT_ALWAYS_INLINE alt_sem_create (OS_EVENT** sem, 
              INT16U value)
{
  *sem = OSSemCreate (value);
    3c4c:	e0bffd8b 	ldhu	r2,-10(fp)
    3c50:	1009883a 	mov	r4,r2
    3c54:	00095b40 	call	95b4 <OSSemCreate>
    3c58:	1007883a 	mov	r3,r2
    3c5c:	e0bffe17 	ldw	r2,-8(fp)
    3c60:	10c00015 	stw	r3,0(r2)
  return *sem ? 0 : -1;
    3c64:	0001883a 	nop
  ALT_LOG_PRINT_BOOT("[alt_main.c] Done OS Init, calling alt_sem_create.\r\n");
  ALT_SEM_CREATE (&alt_fd_list_lock, 1);

  /* Initialize the device drivers/software components. */
  ALT_LOG_PRINT_BOOT("[alt_main.c] Calling alt_sys_init.\r\n");
  alt_sys_init();
    3c68:	000be800 	call	be80 <alt_sys_init>
   * devices be present (not equal to /dev/null) and if direct drivers
   * aren't being used.
   */

    ALT_LOG_PRINT_BOOT("[alt_main.c] Redirecting IO.\r\n");
    alt_io_redirect(ALT_STDOUT, ALT_STDIN, ALT_STDERR);
    3c6c:	01800074 	movhi	r6,1
    3c70:	31ba4904 	addi	r6,r6,-5852
    3c74:	01400074 	movhi	r5,1
    3c78:	297a4904 	addi	r5,r5,-5852
    3c7c:	01000074 	movhi	r4,1
    3c80:	213a4904 	addi	r4,r4,-5852
    3c84:	000d8e40 	call	d8e4 <alt_io_redirect>
  /* 
   * Call the C++ constructors 
   */

  ALT_LOG_PRINT_BOOT("[alt_main.c] Calling C++ constructors.\r\n");
  _do_ctors ();
    3c88:	000d4a00 	call	d4a0 <_do_ctors>
   * redefined as _exit()). This is in the interest of reducing code footprint,
   * in that the atexit() overhead is removed when it's not needed.
   */

  ALT_LOG_PRINT_BOOT("[alt_main.c] Calling atexit.\r\n");
  atexit (_do_dtors);
    3c8c:	01000074 	movhi	r4,1
    3c90:	21354104 	addi	r4,r4,-11004
    3c94:	000e47c0 	call	e47c <atexit>
  ALT_LOG_PRINT_BOOT("[alt_main.c] Calling main.\r\n");

#ifdef ALT_NO_EXIT
  main (alt_argc, alt_argv, alt_envp);
#else
  result = main (alt_argc, alt_argv, alt_envp);
    3c98:	d0ab3717 	ldw	r2,-21284(gp)
    3c9c:	d0eb3817 	ldw	r3,-21280(gp)
    3ca0:	d12b3917 	ldw	r4,-21276(gp)
    3ca4:	200d883a 	mov	r6,r4
    3ca8:	180b883a 	mov	r5,r3
    3cac:	1009883a 	mov	r4,r2
    3cb0:	00004100 	call	410 <main>
    3cb4:	e0bfff15 	stw	r2,-4(fp)
  close(STDOUT_FILENO);
    3cb8:	01000044 	movi	r4,1
    3cbc:	00037440 	call	3744 <close>
  exit (result);
    3cc0:	e13fff17 	ldw	r4,-4(fp)
    3cc4:	000e4900 	call	e490 <exit>

00003cc8 <alt_get_errno>:
{
    3cc8:	defffe04 	addi	sp,sp,-8
    3ccc:	dfc00115 	stw	ra,4(sp)
    3cd0:	df000015 	stw	fp,0(sp)
    3cd4:	d839883a 	mov	fp,sp
  return ((alt_errno) ? alt_errno() : &errno);
    3cd8:	d0a00917 	ldw	r2,-32732(gp)
    3cdc:	10000326 	beq	r2,zero,3cec <alt_get_errno+0x24>
    3ce0:	d0a00917 	ldw	r2,-32732(gp)
    3ce4:	103ee83a 	callr	r2
    3ce8:	00000106 	br	3cf0 <alt_get_errno+0x28>
    3cec:	d0ab3504 	addi	r2,gp,-21292
}
    3cf0:	e037883a 	mov	sp,fp
    3cf4:	dfc00117 	ldw	ra,4(sp)
    3cf8:	df000017 	ldw	fp,0(sp)
    3cfc:	dec00204 	addi	sp,sp,8
    3d00:	f800283a 	ret

00003d04 <read>:
}

#else /* !ALT_USE_DIRECT_DRIVERS */

int ALT_READ (int file, void *ptr, size_t len)
{
    3d04:	defff904 	addi	sp,sp,-28
    3d08:	dfc00615 	stw	ra,24(sp)
    3d0c:	df000515 	stw	fp,20(sp)
    3d10:	df000504 	addi	fp,sp,20
    3d14:	e13ffd15 	stw	r4,-12(fp)
    3d18:	e17ffc15 	stw	r5,-16(fp)
    3d1c:	e1bffb15 	stw	r6,-20(fp)
   * A common error case is that when the file descriptor was created, the call
   * to open() failed resulting in a negative file descriptor. This is trapped
   * below so that we don't try and process an invalid file descriptor.
   */

  fd = (file < 0) ? NULL : &alt_fd_list[file];
    3d20:	e0bffd17 	ldw	r2,-12(fp)
    3d24:	10000616 	blt	r2,zero,3d40 <read+0x3c>
    3d28:	e0bffd17 	ldw	r2,-12(fp)
    3d2c:	10c00324 	muli	r3,r2,12
    3d30:	00800074 	movhi	r2,1
    3d34:	1080d204 	addi	r2,r2,840
    3d38:	1885883a 	add	r2,r3,r2
    3d3c:	00000106 	br	3d44 <read+0x40>
    3d40:	0005883a 	mov	r2,zero
    3d44:	e0bfff15 	stw	r2,-4(fp)
  
  if (fd)
    3d48:	e0bfff17 	ldw	r2,-4(fp)
    3d4c:	10002226 	beq	r2,zero,3dd8 <read+0xd4>
     * If the file has not been opened with read access, or if the driver does
     * not provide an implementation of read(), generate an error. Otherwise
     * call the drivers read() function to process the request.
     */

    if (((fd->fd_flags & O_ACCMODE) != O_WRONLY) && 
    3d50:	e0bfff17 	ldw	r2,-4(fp)
    3d54:	10800217 	ldw	r2,8(r2)
    3d58:	108000cc 	andi	r2,r2,3
    3d5c:	10800060 	cmpeqi	r2,r2,1
    3d60:	1000181e 	bne	r2,zero,3dc4 <read+0xc0>
        (fd->dev->read))
    3d64:	e0bfff17 	ldw	r2,-4(fp)
    3d68:	10800017 	ldw	r2,0(r2)
    3d6c:	10800517 	ldw	r2,20(r2)
    if (((fd->fd_flags & O_ACCMODE) != O_WRONLY) && 
    3d70:	10001426 	beq	r2,zero,3dc4 <read+0xc0>
      {
        if ((rval = fd->dev->read(fd, ptr, len)) < 0)
    3d74:	e0bfff17 	ldw	r2,-4(fp)
    3d78:	10800017 	ldw	r2,0(r2)
    3d7c:	10800517 	ldw	r2,20(r2)
    3d80:	e0fffb17 	ldw	r3,-20(fp)
    3d84:	180d883a 	mov	r6,r3
    3d88:	e17ffc17 	ldw	r5,-16(fp)
    3d8c:	e13fff17 	ldw	r4,-4(fp)
    3d90:	103ee83a 	callr	r2
    3d94:	e0bffe15 	stw	r2,-8(fp)
    3d98:	e0bffe17 	ldw	r2,-8(fp)
    3d9c:	1000070e 	bge	r2,zero,3dbc <read+0xb8>
        {
          ALT_ERRNO = -rval;
    3da0:	0003cc80 	call	3cc8 <alt_get_errno>
    3da4:	1007883a 	mov	r3,r2
    3da8:	e0bffe17 	ldw	r2,-8(fp)
    3dac:	0085c83a 	sub	r2,zero,r2
    3db0:	18800015 	stw	r2,0(r3)
          return -1;
    3db4:	00bfffc4 	movi	r2,-1
    3db8:	00000c06 	br	3dec <read+0xe8>
        }
        return rval;
    3dbc:	e0bffe17 	ldw	r2,-8(fp)
    3dc0:	00000a06 	br	3dec <read+0xe8>
      }
      else
      {
        ALT_ERRNO = EACCES;
    3dc4:	0003cc80 	call	3cc8 <alt_get_errno>
    3dc8:	1007883a 	mov	r3,r2
    3dcc:	00800344 	movi	r2,13
    3dd0:	18800015 	stw	r2,0(r3)
    3dd4:	00000406 	br	3de8 <read+0xe4>
      }
    }
  else
  {
    ALT_ERRNO = EBADFD;
    3dd8:	0003cc80 	call	3cc8 <alt_get_errno>
    3ddc:	1007883a 	mov	r3,r2
    3de0:	00801444 	movi	r2,81
    3de4:	18800015 	stw	r2,0(r3)
  }
  return -1;
    3de8:	00bfffc4 	movi	r2,-1
}
    3dec:	e037883a 	mov	sp,fp
    3df0:	dfc00117 	ldw	ra,4(sp)
    3df4:	df000017 	ldw	fp,0(sp)
    3df8:	dec00204 	addi	sp,sp,8
    3dfc:	f800283a 	ret

00003e00 <alt_release_fd>:
 * File descriptors correcponding to standard in, standard out and standard 
 * error cannont be released backed to the pool. They are always reserved.
 */

void alt_release_fd (int fd)
{
    3e00:	defffe04 	addi	sp,sp,-8
    3e04:	df000115 	stw	fp,4(sp)
    3e08:	df000104 	addi	fp,sp,4
    3e0c:	e13fff15 	stw	r4,-4(fp)
  if (fd > 2)
    3e10:	e0bfff17 	ldw	r2,-4(fp)
    3e14:	108000d0 	cmplti	r2,r2,3
    3e18:	10000a1e 	bne	r2,zero,3e44 <alt_release_fd+0x44>
  {
    alt_fd_list[fd].fd_flags = 0;
    3e1c:	e0bfff17 	ldw	r2,-4(fp)
    3e20:	10c00324 	muli	r3,r2,12
    3e24:	00800074 	movhi	r2,1
    3e28:	1885883a 	add	r2,r3,r2
    3e2c:	1000d415 	stw	zero,848(r2)
    alt_fd_list[fd].dev      = 0;
    3e30:	e0bfff17 	ldw	r2,-4(fp)
    3e34:	10c00324 	muli	r3,r2,12
    3e38:	00800074 	movhi	r2,1
    3e3c:	1885883a 	add	r2,r3,r2
    3e40:	1000d215 	stw	zero,840(r2)
  }
}
    3e44:	0001883a 	nop
    3e48:	e037883a 	mov	sp,fp
    3e4c:	df000017 	ldw	fp,0(sp)
    3e50:	dec00104 	addi	sp,sp,4
    3e54:	f800283a 	ret

00003e58 <sbrk>:
#endif
 
caddr_t ALT_SBRK (int incr) __attribute__ ((no_instrument_function ));

caddr_t ALT_SBRK (int incr)
{ 
    3e58:	defff904 	addi	sp,sp,-28
    3e5c:	df000615 	stw	fp,24(sp)
    3e60:	df000604 	addi	fp,sp,24
    3e64:	e13ffa15 	stw	r4,-24(fp)
  NIOS2_READ_STATUS (context);
    3e68:	0005303a 	rdctl	r2,status
    3e6c:	e0bffd15 	stw	r2,-12(fp)
  NIOS2_WRITE_STATUS (context & ~NIOS2_STATUS_PIE_MSK);
    3e70:	e0fffd17 	ldw	r3,-12(fp)
    3e74:	00bfff84 	movi	r2,-2
    3e78:	1884703a 	and	r2,r3,r2
    3e7c:	1001703a 	wrctl	status,r2
  return context;
    3e80:	e0bffd17 	ldw	r2,-12(fp)
  alt_irq_context context;
  char *prev_heap_end; 

  context = alt_irq_disable_all();
    3e84:	e0bfff15 	stw	r2,-4(fp)

  /* Always return data aligned on a word boundary */
  heap_end = (char *)(((unsigned int)heap_end + 3) & ~3);
    3e88:	d0a00a17 	ldw	r2,-32728(gp)
    3e8c:	10c000c4 	addi	r3,r2,3
    3e90:	00bfff04 	movi	r2,-4
    3e94:	1884703a 	and	r2,r3,r2
    3e98:	d0a00a15 	stw	r2,-32728(gp)
  if (((heap_end + incr) - __alt_heap_start) > ALT_MAX_HEAP_BYTES) {
    alt_irq_enable_all(context);
    return (caddr_t)-1;
  }
#else
  if ((heap_end + incr) > __alt_heap_limit) {
    3e9c:	d0e00a17 	ldw	r3,-32728(gp)
    3ea0:	e0bffa17 	ldw	r2,-24(fp)
    3ea4:	1887883a 	add	r3,r3,r2
    3ea8:	00810034 	movhi	r2,1024
    3eac:	10800004 	addi	r2,r2,0
    3eb0:	10c0072e 	bgeu	r2,r3,3ed0 <sbrk+0x78>
    3eb4:	e0bfff17 	ldw	r2,-4(fp)
    3eb8:	e0bffc15 	stw	r2,-16(fp)
  NIOS2_WRITE_STATUS (context);
    3ebc:	e0bffc17 	ldw	r2,-16(fp)
    3ec0:	1001703a 	wrctl	status,r2
}
    3ec4:	0001883a 	nop
    alt_irq_enable_all(context);
    return (caddr_t)-1;
    3ec8:	00bfffc4 	movi	r2,-1
    3ecc:	00000c06 	br	3f00 <sbrk+0xa8>
  }
#endif

  prev_heap_end = heap_end; 
    3ed0:	d0a00a17 	ldw	r2,-32728(gp)
    3ed4:	e0bffe15 	stw	r2,-8(fp)
  heap_end += incr; 
    3ed8:	d0e00a17 	ldw	r3,-32728(gp)
    3edc:	e0bffa17 	ldw	r2,-24(fp)
    3ee0:	1885883a 	add	r2,r3,r2
    3ee4:	d0a00a15 	stw	r2,-32728(gp)
    3ee8:	e0bfff17 	ldw	r2,-4(fp)
    3eec:	e0bffb15 	stw	r2,-20(fp)
  NIOS2_WRITE_STATUS (context);
    3ef0:	e0bffb17 	ldw	r2,-20(fp)
    3ef4:	1001703a 	wrctl	status,r2
}
    3ef8:	0001883a 	nop

#endif

  alt_irq_enable_all(context);

  return (caddr_t) prev_heap_end; 
    3efc:	e0bffe17 	ldw	r2,-8(fp)
} 
    3f00:	e037883a 	mov	sp,fp
    3f04:	df000017 	ldw	fp,0(sp)
    3f08:	dec00104 	addi	sp,sp,4
    3f0c:	f800283a 	ret

00003f10 <alt_get_errno>:
{
    3f10:	defffe04 	addi	sp,sp,-8
    3f14:	dfc00115 	stw	ra,4(sp)
    3f18:	df000015 	stw	fp,0(sp)
    3f1c:	d839883a 	mov	fp,sp
  return ((alt_errno) ? alt_errno() : &errno);
    3f20:	d0a00917 	ldw	r2,-32732(gp)
    3f24:	10000326 	beq	r2,zero,3f34 <alt_get_errno+0x24>
    3f28:	d0a00917 	ldw	r2,-32732(gp)
    3f2c:	103ee83a 	callr	r2
    3f30:	00000106 	br	3f38 <alt_get_errno+0x28>
    3f34:	d0ab3504 	addi	r2,gp,-21292
}
    3f38:	e037883a 	mov	sp,fp
    3f3c:	dfc00117 	ldw	ra,4(sp)
    3f40:	df000017 	ldw	fp,0(sp)
    3f44:	dec00204 	addi	sp,sp,8
    3f48:	f800283a 	ret

00003f4c <write>:
}

#else /* !ALT_USE_DIRECT_DRIVERS */

int ALT_WRITE (int file, const void *ptr, size_t len)
{
    3f4c:	defff904 	addi	sp,sp,-28
    3f50:	dfc00615 	stw	ra,24(sp)
    3f54:	df000515 	stw	fp,20(sp)
    3f58:	df000504 	addi	fp,sp,20
    3f5c:	e13ffd15 	stw	r4,-12(fp)
    3f60:	e17ffc15 	stw	r5,-16(fp)
    3f64:	e1bffb15 	stw	r6,-20(fp)
   * A common error case is that when the file descriptor was created, the call
   * to open() failed resulting in a negative file descriptor. This is trapped
   * below so that we don't try and process an invalid file descriptor.
   */

  fd = (file < 0) ? NULL : &alt_fd_list[file];
    3f68:	e0bffd17 	ldw	r2,-12(fp)
    3f6c:	10000616 	blt	r2,zero,3f88 <write+0x3c>
    3f70:	e0bffd17 	ldw	r2,-12(fp)
    3f74:	10c00324 	muli	r3,r2,12
    3f78:	00800074 	movhi	r2,1
    3f7c:	1080d204 	addi	r2,r2,840
    3f80:	1885883a 	add	r2,r3,r2
    3f84:	00000106 	br	3f8c <write+0x40>
    3f88:	0005883a 	mov	r2,zero
    3f8c:	e0bfff15 	stw	r2,-4(fp)
  
  if (fd)
    3f90:	e0bfff17 	ldw	r2,-4(fp)
    3f94:	10002126 	beq	r2,zero,401c <write+0xd0>
     * If the file has not been opened with write access, or if the driver does
     * not provide an implementation of write(), generate an error. Otherwise
     * call the drivers write() function to process the request.
     */

    if (((fd->fd_flags & O_ACCMODE) != O_RDONLY) && fd->dev->write)
    3f98:	e0bfff17 	ldw	r2,-4(fp)
    3f9c:	10800217 	ldw	r2,8(r2)
    3fa0:	108000cc 	andi	r2,r2,3
    3fa4:	10001826 	beq	r2,zero,4008 <write+0xbc>
    3fa8:	e0bfff17 	ldw	r2,-4(fp)
    3fac:	10800017 	ldw	r2,0(r2)
    3fb0:	10800617 	ldw	r2,24(r2)
    3fb4:	10001426 	beq	r2,zero,4008 <write+0xbc>
    {
      
      /* ALT_LOG - see altera_hal/HAL/inc/sys/alt_log_printf.h */
      ALT_LOG_WRITE_FUNCTION(ptr,len);

      if ((rval = fd->dev->write(fd, ptr, len)) < 0)
    3fb8:	e0bfff17 	ldw	r2,-4(fp)
    3fbc:	10800017 	ldw	r2,0(r2)
    3fc0:	10800617 	ldw	r2,24(r2)
    3fc4:	e0fffb17 	ldw	r3,-20(fp)
    3fc8:	180d883a 	mov	r6,r3
    3fcc:	e17ffc17 	ldw	r5,-16(fp)
    3fd0:	e13fff17 	ldw	r4,-4(fp)
    3fd4:	103ee83a 	callr	r2
    3fd8:	e0bffe15 	stw	r2,-8(fp)
    3fdc:	e0bffe17 	ldw	r2,-8(fp)
    3fe0:	1000070e 	bge	r2,zero,4000 <write+0xb4>
      {
        ALT_ERRNO = -rval;
    3fe4:	0003f100 	call	3f10 <alt_get_errno>
    3fe8:	1007883a 	mov	r3,r2
    3fec:	e0bffe17 	ldw	r2,-8(fp)
    3ff0:	0085c83a 	sub	r2,zero,r2
    3ff4:	18800015 	stw	r2,0(r3)
        return -1;
    3ff8:	00bfffc4 	movi	r2,-1
    3ffc:	00000c06 	br	4030 <write+0xe4>
      }
      return rval;
    4000:	e0bffe17 	ldw	r2,-8(fp)
    4004:	00000a06 	br	4030 <write+0xe4>
    }
    else
    {
      ALT_ERRNO = EACCES;
    4008:	0003f100 	call	3f10 <alt_get_errno>
    400c:	1007883a 	mov	r3,r2
    4010:	00800344 	movi	r2,13
    4014:	18800015 	stw	r2,0(r3)
    4018:	00000406 	br	402c <write+0xe0>
    }
  }
  else  
  {
    ALT_ERRNO = EBADFD;
    401c:	0003f100 	call	3f10 <alt_get_errno>
    4020:	1007883a 	mov	r3,r2
    4024:	00801444 	movi	r2,81
    4028:	18800015 	stw	r2,0(r3)
  }
  return -1;
    402c:	00bfffc4 	movi	r2,-1
}
    4030:	e037883a 	mov	sp,fp
    4034:	dfc00117 	ldw	ra,4(sp)
    4038:	df000017 	ldw	fp,0(sp)
    403c:	dec00204 	addi	sp,sp,8
    4040:	f800283a 	ret

00004044 <__env_lock>:
/*
 *
 */

void __env_lock ( struct _reent *_r )
{
    4044:	deffc404 	addi	sp,sp,-240
    4048:	dfc03b15 	stw	ra,236(sp)
    404c:	df003a15 	stw	fp,232(sp)
    4050:	df003a04 	addi	fp,sp,232
    4054:	e13fc615 	stw	r4,-232(fp)
  INT8U err;
  int id;

  /* use our priority as a task id */

  err = OSTaskQuery( OS_PRIO_SELF, &tcb );
    4058:	e0bfc904 	addi	r2,fp,-220
    405c:	100b883a 	mov	r5,r2
    4060:	01003fc4 	movi	r4,255
    4064:	000b4940 	call	b494 <OSTaskQuery>
    4068:	e0bfc745 	stb	r2,-227(fp)
  if (err != OS_ERR_NONE)
    406c:	e0bfc743 	ldbu	r2,-227(fp)
    4070:	10803fcc 	andi	r2,r2,255
    4074:	10001d1e 	bne	r2,zero,40ec <__env_lock+0xa8>
    return;

  id = tcb.OSTCBPrio;
    4078:	e0bfd783 	ldbu	r2,-162(fp)
    407c:	10803fcc 	andi	r2,r2,255
    4080:	e0bfff15 	stw	r2,-4(fp)
   
  /* see if we own the environment already */

  OSSemQuery( alt_envsem, &semdata );
    4084:	d0ab3a17 	ldw	r2,-21272(gp)
    4088:	e0ffc784 	addi	r3,fp,-226
    408c:	180b883a 	mov	r5,r3
    4090:	1009883a 	mov	r4,r2
    4094:	0009d500 	call	9d50 <OSSemQuery>
  if( semdata.OSEventGrp && id == lockid ) 
    4098:	e0bfc8c3 	ldbu	r2,-221(fp)
    409c:	10803fcc 	andi	r2,r2,255
    40a0:	10000726 	beq	r2,zero,40c0 <__env_lock+0x7c>
    40a4:	d0a00b17 	ldw	r2,-32724(gp)
    40a8:	e0ffff17 	ldw	r3,-4(fp)
    40ac:	1880041e 	bne	r3,r2,40c0 <__env_lock+0x7c>
  {
    /* we do; just count the recursion */

    locks++;
    40b0:	d0ab3b17 	ldw	r2,-21268(gp)
    40b4:	10800044 	addi	r2,r2,1
    40b8:	d0ab3b15 	stw	r2,-21268(gp)
    locks  = 1;
    lockid = id;
  }

#endif /* OS_THREAD_SAFE_NEWLIB */
  return;
    40bc:	00000c06 	br	40f0 <__env_lock+0xac>
    OSSemPend( alt_envsem, 0, &err );
    40c0:	d0ab3a17 	ldw	r2,-21272(gp)
    40c4:	e0ffc744 	addi	r3,fp,-227
    40c8:	180d883a 	mov	r6,r3
    40cc:	000b883a 	mov	r5,zero
    40d0:	1009883a 	mov	r4,r2
    40d4:	00098c40 	call	98c4 <OSSemPend>
    locks  = 1;
    40d8:	00800044 	movi	r2,1
    40dc:	d0ab3b15 	stw	r2,-21268(gp)
    lockid = id;
    40e0:	e0bfff17 	ldw	r2,-4(fp)
    40e4:	d0a00b15 	stw	r2,-32724(gp)
  return;
    40e8:	00000106 	br	40f0 <__env_lock+0xac>
    return;
    40ec:	0001883a 	nop
}
    40f0:	e037883a 	mov	sp,fp
    40f4:	dfc00117 	ldw	ra,4(sp)
    40f8:	df000017 	ldw	fp,0(sp)
    40fc:	dec00204 	addi	sp,sp,8
    4100:	f800283a 	ret

00004104 <__env_unlock>:
/*
 *
 */

void __env_unlock ( struct _reent *_r )
{
    4104:	defffd04 	addi	sp,sp,-12
    4108:	dfc00215 	stw	ra,8(sp)
    410c:	df000115 	stw	fp,4(sp)
    4110:	df000104 	addi	fp,sp,4
    4114:	e13fff15 	stw	r4,-4(fp)
#if OS_THREAD_SAFE_NEWLIB
  if (locks == 0)
    4118:	d0ab3b17 	ldw	r2,-21268(gp)
    411c:	10000b26 	beq	r2,zero,414c <__env_unlock+0x48>
   /* 
    * release the environment once the number of locks == the number 
    * of unlocks 
    */

  if( (--locks) == 0 ) 
    4120:	d0ab3b17 	ldw	r2,-21268(gp)
    4124:	10bfffc4 	addi	r2,r2,-1
    4128:	d0ab3b15 	stw	r2,-21268(gp)
    412c:	d0ab3b17 	ldw	r2,-21268(gp)
    4130:	1000071e 	bne	r2,zero,4150 <__env_unlock+0x4c>
  {
    lockid = -1;
    4134:	00bfffc4 	movi	r2,-1
    4138:	d0a00b15 	stw	r2,-32724(gp)
    OSSemPost( alt_envsem );
    413c:	d0ab3a17 	ldw	r2,-21272(gp)
    4140:	1009883a 	mov	r4,r2
    4144:	0009c340 	call	9c34 <OSSemPost>
    4148:	00000106 	br	4150 <__env_unlock+0x4c>
    return;
    414c:	0001883a 	nop
  }
#endif /* OS_THREAD_SAFE_NEWLIB */
}
    4150:	e037883a 	mov	sp,fp
    4154:	dfc00117 	ldw	ra,4(sp)
    4158:	df000017 	ldw	fp,0(sp)
    415c:	dec00204 	addi	sp,sp,8
    4160:	f800283a 	ret

00004164 <__malloc_lock>:
/*
 *
 */

void __malloc_lock ( struct _reent *_r )
{
    4164:	deffc004 	addi	sp,sp,-256
    4168:	dfc03f15 	stw	ra,252(sp)
    416c:	df003e15 	stw	fp,248(sp)
    4170:	df003e04 	addi	fp,sp,248
    4174:	e13fc215 	stw	r4,-248(fp)
  OS_TCB tcb;
  OS_SEM_DATA semdata;
  INT8U err;
  int id;
#if OS_CRITICAL_METHOD == 3                      /* Allocate storage for CPU status register           */
    OS_CPU_SR  cpu_sr = 0;
    4178:	e03fff15 	stw	zero,-4(fp)
#endif  
  
  if (OSRunning != OS_TRUE)
    417c:	d0ab4643 	ldbu	r2,-21223(gp)
    4180:	10803fcc 	andi	r2,r2,255
    4184:	10800060 	cmpeqi	r2,r2,1
    4188:	10003826 	beq	r2,zero,426c <__malloc_lock+0x108>
      return;

  /* use our priority as a task id */

  err = OSTaskQuery( OS_PRIO_SELF, &tcb );
    418c:	e0bfc504 	addi	r2,fp,-236
    4190:	100b883a 	mov	r5,r2
    4194:	01003fc4 	movi	r4,255
    4198:	000b4940 	call	b494 <OSTaskQuery>
    419c:	e0bfc345 	stb	r2,-243(fp)
  if (err != OS_ERR_NONE)
    41a0:	e0bfc343 	ldbu	r2,-243(fp)
    41a4:	10803fcc 	andi	r2,r2,255
    41a8:	1000321e 	bne	r2,zero,4274 <__malloc_lock+0x110>
    return;

  id = tcb.OSTCBPrio;
    41ac:	e0bfd383 	ldbu	r2,-178(fp)
    41b0:	10803fcc 	andi	r2,r2,255
    41b4:	e0bffe15 	stw	r2,-8(fp)
   
  /* see if we own the heap already */

  OSSemQuery( alt_heapsem, &semdata );
    41b8:	d0ab3c17 	ldw	r2,-21264(gp)
    41bc:	e0ffc384 	addi	r3,fp,-242
    41c0:	180b883a 	mov	r5,r3
    41c4:	1009883a 	mov	r4,r2
    41c8:	0009d500 	call	9d50 <OSSemQuery>
  NIOS2_READ_STATUS (context);
    41cc:	0005303a 	rdctl	r2,status
    41d0:	e0bffd15 	stw	r2,-12(fp)
  NIOS2_WRITE_STATUS (context & ~NIOS2_STATUS_PIE_MSK);
    41d4:	e0fffd17 	ldw	r3,-12(fp)
    41d8:	00bfff84 	movi	r2,-2
    41dc:	1884703a 	and	r2,r3,r2
    41e0:	1001703a 	wrctl	status,r2
  return context;
    41e4:	e0bffd17 	ldw	r2,-12(fp)
  
  OS_ENTER_CRITICAL();
    41e8:	e0bfff15 	stw	r2,-4(fp)

  if( !semdata.OSCnt && id == lockid ) 
    41ec:	e0bfc38b 	ldhu	r2,-242(fp)
    41f0:	10bfffcc 	andi	r2,r2,65535
    41f4:	10000d1e 	bne	r2,zero,422c <__malloc_lock+0xc8>
    41f8:	d0a00c17 	ldw	r2,-32720(gp)
    41fc:	e0fffe17 	ldw	r3,-8(fp)
    4200:	18800a1e 	bne	r3,r2,422c <__malloc_lock+0xc8>
  {
    /* we do; just count the recursion */
    locks++;
    4204:	d0ab3d17 	ldw	r2,-21260(gp)
    4208:	10800044 	addi	r2,r2,1
    420c:	d0ab3d15 	stw	r2,-21260(gp)
    4210:	e0bfff17 	ldw	r2,-4(fp)
    4214:	e0bffc15 	stw	r2,-16(fp)
  NIOS2_WRITE_STATUS (context);
    4218:	e0bffc17 	ldw	r2,-16(fp)
    421c:	1001703a 	wrctl	status,r2
}
    4220:	0001883a 	nop
    OS_EXIT_CRITICAL();
    4224:	0001883a 	nop
    locks  = 1;
    lockid = id;
  }

#endif /* OS_THREAD_SAFE_NEWLIB */
  return;
    4228:	00001306 	br	4278 <__malloc_lock+0x114>
    422c:	e0bfff17 	ldw	r2,-4(fp)
    4230:	e0bffb15 	stw	r2,-20(fp)
  NIOS2_WRITE_STATUS (context);
    4234:	e0bffb17 	ldw	r2,-20(fp)
    4238:	1001703a 	wrctl	status,r2
}
    423c:	0001883a 	nop
    OSSemPend( alt_heapsem, 0, &err );
    4240:	d0ab3c17 	ldw	r2,-21264(gp)
    4244:	e0ffc344 	addi	r3,fp,-243
    4248:	180d883a 	mov	r6,r3
    424c:	000b883a 	mov	r5,zero
    4250:	1009883a 	mov	r4,r2
    4254:	00098c40 	call	98c4 <OSSemPend>
    locks  = 1;
    4258:	00800044 	movi	r2,1
    425c:	d0ab3d15 	stw	r2,-21260(gp)
    lockid = id;
    4260:	e0bffe17 	ldw	r2,-8(fp)
    4264:	d0a00c15 	stw	r2,-32720(gp)
  return;
    4268:	00000306 	br	4278 <__malloc_lock+0x114>
      return;
    426c:	0001883a 	nop
    4270:	00000106 	br	4278 <__malloc_lock+0x114>
    return;
    4274:	0001883a 	nop
}
    4278:	e037883a 	mov	sp,fp
    427c:	dfc00117 	ldw	ra,4(sp)
    4280:	df000017 	ldw	fp,0(sp)
    4284:	dec00204 	addi	sp,sp,8
    4288:	f800283a 	ret

0000428c <__malloc_unlock>:
/*
 *
 */

void __malloc_unlock ( struct _reent *_r )
{
    428c:	defff804 	addi	sp,sp,-32
    4290:	dfc00715 	stw	ra,28(sp)
    4294:	df000615 	stw	fp,24(sp)
    4298:	df000604 	addi	fp,sp,24
    429c:	e13ffa15 	stw	r4,-24(fp)
#if OS_THREAD_SAFE_NEWLIB

#if OS_CRITICAL_METHOD == 3                      /* Allocate storage for CPU status register           */
    OS_CPU_SR  cpu_sr = 0;
    42a0:	e03fff15 	stw	zero,-4(fp)
#endif 

  if (OSRunning != OS_TRUE)
    42a4:	d0ab4643 	ldbu	r2,-21223(gp)
    42a8:	10803fcc 	andi	r2,r2,255
    42ac:	10800060 	cmpeqi	r2,r2,1
    42b0:	10002526 	beq	r2,zero,4348 <__malloc_unlock+0xbc>
  NIOS2_READ_STATUS (context);
    42b4:	0005303a 	rdctl	r2,status
    42b8:	e0bffe15 	stw	r2,-8(fp)
  NIOS2_WRITE_STATUS (context & ~NIOS2_STATUS_PIE_MSK);
    42bc:	e0fffe17 	ldw	r3,-8(fp)
    42c0:	00bfff84 	movi	r2,-2
    42c4:	1884703a 	and	r2,r3,r2
    42c8:	1001703a 	wrctl	status,r2
  return context;
    42cc:	e0bffe17 	ldw	r2,-8(fp)
      return;

  OS_ENTER_CRITICAL();
    42d0:	e0bfff15 	stw	r2,-4(fp)
  if (locks == 0)
    42d4:	d0ab3d17 	ldw	r2,-21260(gp)
    42d8:	1000061e 	bne	r2,zero,42f4 <__malloc_unlock+0x68>
    42dc:	e0bfff17 	ldw	r2,-4(fp)
    42e0:	e0bffd15 	stw	r2,-12(fp)
  NIOS2_WRITE_STATUS (context);
    42e4:	e0bffd17 	ldw	r2,-12(fp)
    42e8:	1001703a 	wrctl	status,r2
}
    42ec:	0001883a 	nop
  {
      OS_EXIT_CRITICAL();
      return;
    42f0:	00001606 	br	434c <__malloc_unlock+0xc0>
  }

  /* release the heap once the number of locks == the number of unlocks */
  if( (--locks) == 0 ) 
    42f4:	d0ab3d17 	ldw	r2,-21260(gp)
    42f8:	10bfffc4 	addi	r2,r2,-1
    42fc:	d0ab3d15 	stw	r2,-21260(gp)
    4300:	d0ab3d17 	ldw	r2,-21260(gp)
    4304:	10000b1e 	bne	r2,zero,4334 <__malloc_unlock+0xa8>
  {
    lockid = -1;
    4308:	00bfffc4 	movi	r2,-1
    430c:	d0a00c15 	stw	r2,-32720(gp)
    4310:	e0bfff17 	ldw	r2,-4(fp)
    4314:	e0bffc15 	stw	r2,-16(fp)
  NIOS2_WRITE_STATUS (context);
    4318:	e0bffc17 	ldw	r2,-16(fp)
    431c:	1001703a 	wrctl	status,r2
}
    4320:	0001883a 	nop
    OS_EXIT_CRITICAL();
    OSSemPost( alt_heapsem );
    4324:	d0ab3c17 	ldw	r2,-21264(gp)
    4328:	1009883a 	mov	r4,r2
    432c:	0009c340 	call	9c34 <OSSemPost>
    4330:	00000606 	br	434c <__malloc_unlock+0xc0>
    4334:	e0bfff17 	ldw	r2,-4(fp)
    4338:	e0bffb15 	stw	r2,-20(fp)
  NIOS2_WRITE_STATUS (context);
    433c:	e0bffb17 	ldw	r2,-20(fp)
    4340:	1001703a 	wrctl	status,r2
}
    4344:	00000106 	br	434c <__malloc_unlock+0xc0>
      return;
    4348:	0001883a 	nop
  {
      OS_EXIT_CRITICAL();
  }
  
#endif /* OS_THREAD_SAFE_NEWLIB */
}
    434c:	e037883a 	mov	sp,fp
    4350:	dfc00117 	ldw	ra,4(sp)
    4354:	df000017 	ldw	fp,0(sp)
    4358:	dec00204 	addi	sp,sp,8
    435c:	f800283a 	ret

00004360 <OSEventNameGet>:

#if (OS_EVENT_EN) && (OS_EVENT_NAME_EN > 0u)
INT8U  OSEventNameGet (OS_EVENT   *pevent,
                       INT8U     **pname,
                       INT8U      *perr)
{
    4360:	defff704 	addi	sp,sp,-36
    4364:	dfc00815 	stw	ra,32(sp)
    4368:	df000715 	stw	fp,28(sp)
    436c:	df000704 	addi	fp,sp,28
    4370:	e13ffb15 	stw	r4,-20(fp)
    4374:	e17ffa15 	stw	r5,-24(fp)
    4378:	e1bff915 	stw	r6,-28(fp)
    INT8U      len;
#if OS_CRITICAL_METHOD == 3u                     /* Allocate storage for CPU status register           */
    OS_CPU_SR  cpu_sr = 0u;
    437c:	e03fff15 	stw	zero,-4(fp)
        return (0u);
    }
#endif

#if OS_ARG_CHK_EN > 0u
    if (pevent == (OS_EVENT *)0) {               /* Is 'pevent' a NULL pointer?                        */
    4380:	e0bffb17 	ldw	r2,-20(fp)
    4384:	1000051e 	bne	r2,zero,439c <OSEventNameGet+0x3c>
        *perr = OS_ERR_PEVENT_NULL;
    4388:	e0bff917 	ldw	r2,-28(fp)
    438c:	00c00104 	movi	r3,4
    4390:	10c00005 	stb	r3,0(r2)
        return (0u);
    4394:	0005883a 	mov	r2,zero
    4398:	00003406 	br	446c <OSEventNameGet+0x10c>
    }
    if (pname == (INT8U **)0) {                   /* Is 'pname' a NULL pointer?                         */
    439c:	e0bffa17 	ldw	r2,-24(fp)
    43a0:	1000051e 	bne	r2,zero,43b8 <OSEventNameGet+0x58>
        *perr = OS_ERR_PNAME_NULL;
    43a4:	e0bff917 	ldw	r2,-28(fp)
    43a8:	00c00304 	movi	r3,12
    43ac:	10c00005 	stb	r3,0(r2)
        return (0u);
    43b0:	0005883a 	mov	r2,zero
    43b4:	00002d06 	br	446c <OSEventNameGet+0x10c>
    }
#endif
    if (OSIntNesting > 0u) {                     /* See if trying to call from an ISR                  */
    43b8:	d0ab4443 	ldbu	r2,-21231(gp)
    43bc:	10803fcc 	andi	r2,r2,255
    43c0:	10000526 	beq	r2,zero,43d8 <OSEventNameGet+0x78>
        *perr  = OS_ERR_NAME_GET_ISR;
    43c4:	e0bff917 	ldw	r2,-28(fp)
    43c8:	00c00444 	movi	r3,17
    43cc:	10c00005 	stb	r3,0(r2)
        return (0u);
    43d0:	0005883a 	mov	r2,zero
    43d4:	00002506 	br	446c <OSEventNameGet+0x10c>
    }
    switch (pevent->OSEventType) {
    43d8:	e0bffb17 	ldw	r2,-20(fp)
    43dc:	10800003 	ldbu	r2,0(r2)
    43e0:	10803fcc 	andi	r2,r2,255
    43e4:	10bfffc4 	addi	r2,r2,-1
    43e8:	10800128 	cmpgeui	r2,r2,4
    43ec:	10000526 	beq	r2,zero,4404 <OSEventNameGet+0xa4>
        case OS_EVENT_TYPE_MBOX:
        case OS_EVENT_TYPE_Q:
             break;

        default:
             *perr = OS_ERR_EVENT_TYPE;
    43f0:	e0bff917 	ldw	r2,-28(fp)
    43f4:	00c00044 	movi	r3,1
    43f8:	10c00005 	stb	r3,0(r2)
             return (0u);
    43fc:	0005883a 	mov	r2,zero
    4400:	00001a06 	br	446c <OSEventNameGet+0x10c>
             break;
    4404:	0001883a 	nop
  NIOS2_READ_STATUS (context);
    4408:	0005303a 	rdctl	r2,status
    440c:	e0bffc15 	stw	r2,-16(fp)
  NIOS2_WRITE_STATUS (context & ~NIOS2_STATUS_PIE_MSK);
    4410:	e0fffc17 	ldw	r3,-16(fp)
    4414:	00bfff84 	movi	r2,-2
    4418:	1884703a 	and	r2,r3,r2
    441c:	1001703a 	wrctl	status,r2
  return context;
    4420:	e0bffc17 	ldw	r2,-16(fp)
    }
    OS_ENTER_CRITICAL();
    4424:	e0bfff15 	stw	r2,-4(fp)
    *pname = pevent->OSEventName;
    4428:	e0bffb17 	ldw	r2,-20(fp)
    442c:	10c00417 	ldw	r3,16(r2)
    4430:	e0bffa17 	ldw	r2,-24(fp)
    4434:	10c00015 	stw	r3,0(r2)
    len    = OS_StrLen(*pname);
    4438:	e0bffa17 	ldw	r2,-24(fp)
    443c:	10800017 	ldw	r2,0(r2)
    4440:	1009883a 	mov	r4,r2
    4444:	0005dd00 	call	5dd0 <OS_StrLen>
    4448:	e0bffec5 	stb	r2,-5(fp)
    444c:	e0bfff17 	ldw	r2,-4(fp)
    4450:	e0bffd15 	stw	r2,-12(fp)
  NIOS2_WRITE_STATUS (context);
    4454:	e0bffd17 	ldw	r2,-12(fp)
    4458:	1001703a 	wrctl	status,r2
}
    445c:	0001883a 	nop
    OS_EXIT_CRITICAL();
    *perr  = OS_ERR_NONE;
    4460:	e0bff917 	ldw	r2,-28(fp)
    4464:	10000005 	stb	zero,0(r2)
    return (len);
    4468:	e0bffec3 	ldbu	r2,-5(fp)
}
    446c:	e037883a 	mov	sp,fp
    4470:	dfc00117 	ldw	ra,4(sp)
    4474:	df000017 	ldw	fp,0(sp)
    4478:	dec00204 	addi	sp,sp,8
    447c:	f800283a 	ret

00004480 <OSEventNameSet>:

#if (OS_EVENT_EN) && (OS_EVENT_NAME_EN > 0u)
void  OSEventNameSet (OS_EVENT  *pevent,
                      INT8U     *pname,
                      INT8U     *perr)
{
    4480:	defff904 	addi	sp,sp,-28
    4484:	df000615 	stw	fp,24(sp)
    4488:	df000604 	addi	fp,sp,24
    448c:	e13ffc15 	stw	r4,-16(fp)
    4490:	e17ffb15 	stw	r5,-20(fp)
    4494:	e1bffa15 	stw	r6,-24(fp)
#if OS_CRITICAL_METHOD == 3u                     /* Allocate storage for CPU status register           */
    OS_CPU_SR  cpu_sr = 0u;
    4498:	e03fff15 	stw	zero,-4(fp)
        return;
    }
#endif

#if OS_ARG_CHK_EN > 0u
    if (pevent == (OS_EVENT *)0) {               /* Is 'pevent' a NULL pointer?                        */
    449c:	e0bffc17 	ldw	r2,-16(fp)
    44a0:	1000041e 	bne	r2,zero,44b4 <OSEventNameSet+0x34>
        *perr = OS_ERR_PEVENT_NULL;
    44a4:	e0bffa17 	ldw	r2,-24(fp)
    44a8:	00c00104 	movi	r3,4
    44ac:	10c00005 	stb	r3,0(r2)
        return;
    44b0:	00002a06 	br	455c <OSEventNameSet+0xdc>
    }
    if (pname == (INT8U *)0) {                   /* Is 'pname' a NULL pointer?                         */
    44b4:	e0bffb17 	ldw	r2,-20(fp)
    44b8:	1000041e 	bne	r2,zero,44cc <OSEventNameSet+0x4c>
        *perr = OS_ERR_PNAME_NULL;
    44bc:	e0bffa17 	ldw	r2,-24(fp)
    44c0:	00c00304 	movi	r3,12
    44c4:	10c00005 	stb	r3,0(r2)
        return;
    44c8:	00002406 	br	455c <OSEventNameSet+0xdc>
    }
#endif
    if (OSIntNesting > 0u) {                     /* See if trying to call from an ISR                  */
    44cc:	d0ab4443 	ldbu	r2,-21231(gp)
    44d0:	10803fcc 	andi	r2,r2,255
    44d4:	10000426 	beq	r2,zero,44e8 <OSEventNameSet+0x68>
        *perr = OS_ERR_NAME_SET_ISR;
    44d8:	e0bffa17 	ldw	r2,-24(fp)
    44dc:	00c00484 	movi	r3,18
    44e0:	10c00005 	stb	r3,0(r2)
        return;
    44e4:	00001d06 	br	455c <OSEventNameSet+0xdc>
    }
    switch (pevent->OSEventType) {
    44e8:	e0bffc17 	ldw	r2,-16(fp)
    44ec:	10800003 	ldbu	r2,0(r2)
    44f0:	10803fcc 	andi	r2,r2,255
    44f4:	10bfffc4 	addi	r2,r2,-1
    44f8:	10800128 	cmpgeui	r2,r2,4
    44fc:	10000426 	beq	r2,zero,4510 <OSEventNameSet+0x90>
        case OS_EVENT_TYPE_MBOX:
        case OS_EVENT_TYPE_Q:
             break;

        default:
             *perr = OS_ERR_EVENT_TYPE;
    4500:	e0bffa17 	ldw	r2,-24(fp)
    4504:	00c00044 	movi	r3,1
    4508:	10c00005 	stb	r3,0(r2)
             return;
    450c:	00001306 	br	455c <OSEventNameSet+0xdc>
             break;
    4510:	0001883a 	nop
  NIOS2_READ_STATUS (context);
    4514:	0005303a 	rdctl	r2,status
    4518:	e0bffd15 	stw	r2,-12(fp)
  NIOS2_WRITE_STATUS (context & ~NIOS2_STATUS_PIE_MSK);
    451c:	e0fffd17 	ldw	r3,-12(fp)
    4520:	00bfff84 	movi	r2,-2
    4524:	1884703a 	and	r2,r3,r2
    4528:	1001703a 	wrctl	status,r2
  return context;
    452c:	e0bffd17 	ldw	r2,-12(fp)
    }
    OS_ENTER_CRITICAL();
    4530:	e0bfff15 	stw	r2,-4(fp)
    pevent->OSEventName = pname;
    4534:	e0bffc17 	ldw	r2,-16(fp)
    4538:	e0fffb17 	ldw	r3,-20(fp)
    453c:	10c00415 	stw	r3,16(r2)
    4540:	e0bfff17 	ldw	r2,-4(fp)
    4544:	e0bffe15 	stw	r2,-8(fp)
  NIOS2_WRITE_STATUS (context);
    4548:	e0bffe17 	ldw	r2,-8(fp)
    454c:	1001703a 	wrctl	status,r2
}
    4550:	0001883a 	nop
    OS_EXIT_CRITICAL();
    OS_TRACE_EVENT_NAME_SET(pevent, pname);
    *perr = OS_ERR_NONE;
    4554:	e0bffa17 	ldw	r2,-24(fp)
    4558:	10000005 	stb	zero,0(r2)
}
    455c:	e037883a 	mov	sp,fp
    4560:	df000017 	ldw	fp,0(sp)
    4564:	dec00104 	addi	sp,sp,4
    4568:	f800283a 	ret

0000456c <OSEventPendMulti>:
INT16U  OSEventPendMulti (OS_EVENT  **pevents_pend,
                          OS_EVENT  **pevents_rdy,
                          void      **pmsgs_rdy,
                          INT32U      timeout,
                          INT8U      *perr)
{
    456c:	deffed04 	addi	sp,sp,-76
    4570:	dfc01215 	stw	ra,72(sp)
    4574:	df001115 	stw	fp,68(sp)
    4578:	df001104 	addi	fp,sp,68
    457c:	e13ff215 	stw	r4,-56(fp)
    4580:	e17ff115 	stw	r5,-60(fp)
    4584:	e1bff015 	stw	r6,-64(fp)
    4588:	e1ffef15 	stw	r7,-68(fp)
#endif
    BOOLEAN     events_rdy;
    INT16U      events_rdy_nbr;
    INT8U       events_stat;
#if (OS_CRITICAL_METHOD == 3u)                          /* Allocate storage for CPU status register    */
    OS_CPU_SR   cpu_sr = 0u;
    458c:	e03ffb15 	stw	zero,-20(fp)
        return (0u);
    }
#endif

#if (OS_ARG_CHK_EN > 0u)
    if (pevents_pend == (OS_EVENT **)0) {               /* Validate 'pevents_pend'                     */
    4590:	e0bff217 	ldw	r2,-56(fp)
    4594:	1000051e 	bne	r2,zero,45ac <OSEventPendMulti+0x40>
       *perr =  OS_ERR_PEVENT_NULL;
    4598:	e0800217 	ldw	r2,8(fp)
    459c:	00c00104 	movi	r3,4
    45a0:	10c00005 	stb	r3,0(r2)
        return (0u);
    45a4:	0005883a 	mov	r2,zero
    45a8:	00017b06 	br	4b98 <OSEventPendMulti+0x62c>
    }
    if (*pevents_pend  == (OS_EVENT *)0) {              /* Validate 'pevents_pend'                     */
    45ac:	e0bff217 	ldw	r2,-56(fp)
    45b0:	10800017 	ldw	r2,0(r2)
    45b4:	1000051e 	bne	r2,zero,45cc <OSEventPendMulti+0x60>
       *perr =  OS_ERR_PEVENT_NULL;
    45b8:	e0800217 	ldw	r2,8(fp)
    45bc:	00c00104 	movi	r3,4
    45c0:	10c00005 	stb	r3,0(r2)
        return (0u);
    45c4:	0005883a 	mov	r2,zero
    45c8:	00017306 	br	4b98 <OSEventPendMulti+0x62c>
    }
    if (pevents_rdy  == (OS_EVENT **)0) {               /* Validate 'pevents_rdy'                      */
    45cc:	e0bff117 	ldw	r2,-60(fp)
    45d0:	1000051e 	bne	r2,zero,45e8 <OSEventPendMulti+0x7c>
       *perr =  OS_ERR_PEVENT_NULL;
    45d4:	e0800217 	ldw	r2,8(fp)
    45d8:	00c00104 	movi	r3,4
    45dc:	10c00005 	stb	r3,0(r2)
        return (0u);
    45e0:	0005883a 	mov	r2,zero
    45e4:	00016c06 	br	4b98 <OSEventPendMulti+0x62c>
    }
    if (pmsgs_rdy == (void **)0) {                      /* Validate 'pmsgs_rdy'                        */
    45e8:	e0bff017 	ldw	r2,-64(fp)
    45ec:	1000051e 	bne	r2,zero,4604 <OSEventPendMulti+0x98>
       *perr =  OS_ERR_PEVENT_NULL;
    45f0:	e0800217 	ldw	r2,8(fp)
    45f4:	00c00104 	movi	r3,4
    45f8:	10c00005 	stb	r3,0(r2)
        return (0u);
    45fc:	0005883a 	mov	r2,zero
    4600:	00016506 	br	4b98 <OSEventPendMulti+0x62c>
    }
#endif

   *pevents_rdy = (OS_EVENT *)0;                        /* Init array to NULL in case of errors        */
    4604:	e0bff117 	ldw	r2,-60(fp)
    4608:	10000015 	stw	zero,0(r2)

    pevents     =  pevents_pend;
    460c:	e0bff217 	ldw	r2,-56(fp)
    4610:	e0bfff15 	stw	r2,-4(fp)
    pevent      = *pevents;
    4614:	e0bfff17 	ldw	r2,-4(fp)
    4618:	10800017 	ldw	r2,0(r2)
    461c:	e0bffe15 	stw	r2,-8(fp)
    while  (pevent != (OS_EVENT *)0) {
    4620:	00001b06 	br	4690 <OSEventPendMulti+0x124>
        switch (pevent->OSEventType) {                  /* Validate event block types                  */
    4624:	e0bffe17 	ldw	r2,-8(fp)
    4628:	10800003 	ldbu	r2,0(r2)
    462c:	10803fcc 	andi	r2,r2,255
    4630:	10c000e0 	cmpeqi	r3,r2,3
    4634:	18000b1e 	bne	r3,zero,4664 <OSEventPendMulti+0xf8>
    4638:	10c00108 	cmpgei	r3,r2,4
    463c:	1800041e 	bne	r3,zero,4650 <OSEventPendMulti+0xe4>
    4640:	10c00060 	cmpeqi	r3,r2,1
    4644:	1800091e 	bne	r3,zero,466c <OSEventPendMulti+0x100>
    4648:	108000a0 	cmpeqi	r2,r2,2
    464c:	1000091e 	bne	r2,zero,4674 <OSEventPendMulti+0x108>
#endif

            case OS_EVENT_TYPE_MUTEX:
            case OS_EVENT_TYPE_FLAG:
            default:
                *perr = OS_ERR_EVENT_TYPE;
    4650:	e0800217 	ldw	r2,8(fp)
    4654:	00c00044 	movi	r3,1
    4658:	10c00005 	stb	r3,0(r2)
                 return (0u);
    465c:	0005883a 	mov	r2,zero
    4660:	00014d06 	br	4b98 <OSEventPendMulti+0x62c>
                 break;
    4664:	0001883a 	nop
    4668:	00000306 	br	4678 <OSEventPendMulti+0x10c>
                 break;
    466c:	0001883a 	nop
    4670:	00000106 	br	4678 <OSEventPendMulti+0x10c>
                 break;
    4674:	0001883a 	nop
        }
        pevents++;
    4678:	e0bfff17 	ldw	r2,-4(fp)
    467c:	10800104 	addi	r2,r2,4
    4680:	e0bfff15 	stw	r2,-4(fp)
        pevent = *pevents;
    4684:	e0bfff17 	ldw	r2,-4(fp)
    4688:	10800017 	ldw	r2,0(r2)
    468c:	e0bffe15 	stw	r2,-8(fp)
    while  (pevent != (OS_EVENT *)0) {
    4690:	e0bffe17 	ldw	r2,-8(fp)
    4694:	103fe31e 	bne	r2,zero,4624 <OSEventPendMulti+0xb8>
    }

    if (OSIntNesting  > 0u) {                           /* See if called from ISR ...                  */
    4698:	d0ab4443 	ldbu	r2,-21231(gp)
    469c:	10803fcc 	andi	r2,r2,255
    46a0:	10000526 	beq	r2,zero,46b8 <OSEventPendMulti+0x14c>
       *perr =  OS_ERR_PEND_ISR;                        /* ... can't PEND from an ISR                  */
    46a4:	e0800217 	ldw	r2,8(fp)
    46a8:	00c00084 	movi	r3,2
    46ac:	10c00005 	stb	r3,0(r2)
        return (0u);
    46b0:	0005883a 	mov	r2,zero
    46b4:	00013806 	br	4b98 <OSEventPendMulti+0x62c>
    }
    if (OSLockNesting > 0u) {                           /* See if called with scheduler locked ...     */
    46b8:	d0ab4483 	ldbu	r2,-21230(gp)
    46bc:	10803fcc 	andi	r2,r2,255
    46c0:	10000526 	beq	r2,zero,46d8 <OSEventPendMulti+0x16c>
       *perr =  OS_ERR_PEND_LOCKED;                     /* ... can't PEND when locked                  */
    46c4:	e0800217 	ldw	r2,8(fp)
    46c8:	00c00344 	movi	r3,13
    46cc:	10c00005 	stb	r3,0(r2)
        return (0u);
    46d0:	0005883a 	mov	r2,zero
    46d4:	00013006 	br	4b98 <OSEventPendMulti+0x62c>
    }

    events_rdy     =  OS_FALSE;
    46d8:	e03ffdc5 	stb	zero,-9(fp)
    events_rdy_nbr =  0u;
    46dc:	e03ffd0d 	sth	zero,-12(fp)
    events_stat    =  OS_STAT_RDY;
    46e0:	e03ffcc5 	stb	zero,-13(fp)
    pevents        =  pevents_pend;
    46e4:	e0bff217 	ldw	r2,-56(fp)
    46e8:	e0bfff15 	stw	r2,-4(fp)
    pevent         = *pevents;
    46ec:	e0bfff17 	ldw	r2,-4(fp)
    46f0:	10800017 	ldw	r2,0(r2)
    46f4:	e0bffe15 	stw	r2,-8(fp)
  NIOS2_READ_STATUS (context);
    46f8:	0005303a 	rdctl	r2,status
    46fc:	e0bff915 	stw	r2,-28(fp)
  NIOS2_WRITE_STATUS (context & ~NIOS2_STATUS_PIE_MSK);
    4700:	e0fff917 	ldw	r3,-28(fp)
    4704:	00bfff84 	movi	r2,-2
    4708:	1884703a 	and	r2,r3,r2
    470c:	1001703a 	wrctl	status,r2
  return context;
    4710:	e0bff917 	ldw	r2,-28(fp)
    OS_ENTER_CRITICAL();
    4714:	e0bffb15 	stw	r2,-20(fp)
    while (pevent != (OS_EVENT *)0) {                   /* See if any events already available         */
    4718:	00008406 	br	492c <OSEventPendMulti+0x3c0>
        switch (pevent->OSEventType) {
    471c:	e0bffe17 	ldw	r2,-8(fp)
    4720:	10800003 	ldbu	r2,0(r2)
    4724:	10803fcc 	andi	r2,r2,255
    4728:	10c000e0 	cmpeqi	r3,r2,3
    472c:	1800071e 	bne	r3,zero,474c <OSEventPendMulti+0x1e0>
    4730:	10c00108 	cmpgei	r3,r2,4
    4734:	18006b1e 	bne	r3,zero,48e4 <OSEventPendMulti+0x378>
    4738:	10c00060 	cmpeqi	r3,r2,1
    473c:	1800201e 	bne	r3,zero,47c0 <OSEventPendMulti+0x254>
    4740:	108000a0 	cmpeqi	r2,r2,2
    4744:	1000381e 	bne	r2,zero,4828 <OSEventPendMulti+0x2bc>
    4748:	00006606 	br	48e4 <OSEventPendMulti+0x378>
#if (OS_SEM_EN > 0u)
            case OS_EVENT_TYPE_SEM:
                 if (pevent->OSEventCnt > 0u) {         /* If semaphore count > 0, resource available; */
    474c:	e0bffe17 	ldw	r2,-8(fp)
    4750:	1080020b 	ldhu	r2,8(r2)
    4754:	10bfffcc 	andi	r2,r2,65535
    4758:	10001526 	beq	r2,zero,47b0 <OSEventPendMulti+0x244>
                     pevent->OSEventCnt--;              /* ... decrement semaphore,                ... */
    475c:	e0bffe17 	ldw	r2,-8(fp)
    4760:	1080020b 	ldhu	r2,8(r2)
    4764:	10bfffc4 	addi	r2,r2,-1
    4768:	1007883a 	mov	r3,r2
    476c:	e0bffe17 	ldw	r2,-8(fp)
    4770:	10c0020d 	sth	r3,8(r2)
                    *pevents_rdy++ =  pevent;           /* ... and return available semaphore event    */
    4774:	e0bff117 	ldw	r2,-60(fp)
    4778:	10c00104 	addi	r3,r2,4
    477c:	e0fff115 	stw	r3,-60(fp)
    4780:	e0fffe17 	ldw	r3,-8(fp)
    4784:	10c00015 	stw	r3,0(r2)
                      events_rdy   =  OS_TRUE;
    4788:	00800044 	movi	r2,1
    478c:	e0bffdc5 	stb	r2,-9(fp)
                    *pmsgs_rdy++   = (void *)0;         /* NO message returned  for semaphores         */
    4790:	e0bff017 	ldw	r2,-64(fp)
    4794:	10c00104 	addi	r3,r2,4
    4798:	e0fff015 	stw	r3,-64(fp)
    479c:	10000015 	stw	zero,0(r2)
                      events_rdy_nbr++;
    47a0:	e0bffd0b 	ldhu	r2,-12(fp)
    47a4:	10800044 	addi	r2,r2,1
    47a8:	e0bffd0d 	sth	r2,-12(fp)

                 } else {
                      events_stat |=  OS_STAT_SEM;      /* Configure multi-pend for semaphore events   */
                 }
                 break;
    47ac:	00005906 	br	4914 <OSEventPendMulti+0x3a8>
                      events_stat |=  OS_STAT_SEM;      /* Configure multi-pend for semaphore events   */
    47b0:	e0bffcc3 	ldbu	r2,-13(fp)
    47b4:	10800054 	ori	r2,r2,1
    47b8:	e0bffcc5 	stb	r2,-13(fp)
                 break;
    47bc:	00005506 	br	4914 <OSEventPendMulti+0x3a8>
#endif

#if (OS_MBOX_EN > 0u)
            case OS_EVENT_TYPE_MBOX:
                 if (pevent->OSEventPtr != (void *)0) { /* If mailbox NOT empty;                   ... */
    47c0:	e0bffe17 	ldw	r2,-8(fp)
    47c4:	10800117 	ldw	r2,4(r2)
    47c8:	10001326 	beq	r2,zero,4818 <OSEventPendMulti+0x2ac>
                                                        /* ... return available message,           ... */
                    *pmsgs_rdy++         = (void *)pevent->OSEventPtr;
    47cc:	e0bff017 	ldw	r2,-64(fp)
    47d0:	10c00104 	addi	r3,r2,4
    47d4:	e0fff015 	stw	r3,-64(fp)
    47d8:	e0fffe17 	ldw	r3,-8(fp)
    47dc:	18c00117 	ldw	r3,4(r3)
    47e0:	10c00015 	stw	r3,0(r2)
                     pevent->OSEventPtr  = (void *)0;
    47e4:	e0bffe17 	ldw	r2,-8(fp)
    47e8:	10000115 	stw	zero,4(r2)
                    *pevents_rdy++       =  pevent;     /* ... and return available mailbox event      */
    47ec:	e0bff117 	ldw	r2,-60(fp)
    47f0:	10c00104 	addi	r3,r2,4
    47f4:	e0fff115 	stw	r3,-60(fp)
    47f8:	e0fffe17 	ldw	r3,-8(fp)
    47fc:	10c00015 	stw	r3,0(r2)
                      events_rdy         =  OS_TRUE;
    4800:	00800044 	movi	r2,1
    4804:	e0bffdc5 	stb	r2,-9(fp)
                      events_rdy_nbr++;
    4808:	e0bffd0b 	ldhu	r2,-12(fp)
    480c:	10800044 	addi	r2,r2,1
    4810:	e0bffd0d 	sth	r2,-12(fp)

                 } else {
                      events_stat |= OS_STAT_MBOX;      /* Configure multi-pend for mailbox events     */
                 }
                 break;
    4814:	00003f06 	br	4914 <OSEventPendMulti+0x3a8>
                      events_stat |= OS_STAT_MBOX;      /* Configure multi-pend for mailbox events     */
    4818:	e0bffcc3 	ldbu	r2,-13(fp)
    481c:	10800094 	ori	r2,r2,2
    4820:	e0bffcc5 	stb	r2,-13(fp)
                 break;
    4824:	00003b06 	br	4914 <OSEventPendMulti+0x3a8>
#endif

#if ((OS_Q_EN > 0u) && (OS_MAX_QS > 0u))
            case OS_EVENT_TYPE_Q:
                 pq = (OS_Q *)pevent->OSEventPtr;
    4828:	e0bffe17 	ldw	r2,-8(fp)
    482c:	10800117 	ldw	r2,4(r2)
    4830:	e0bffa15 	stw	r2,-24(fp)
                 if (pq->OSQEntries > 0u) {             /* If queue NOT empty;                     ... */
    4834:	e0bffa17 	ldw	r2,-24(fp)
    4838:	1080058b 	ldhu	r2,22(r2)
    483c:	10bfffcc 	andi	r2,r2,65535
    4840:	10002426 	beq	r2,zero,48d4 <OSEventPendMulti+0x368>
                                                        /* ... return available message,           ... */
                    *pmsgs_rdy++ = (void *)*pq->OSQOut++;
    4844:	e0bffa17 	ldw	r2,-24(fp)
    4848:	10c00417 	ldw	r3,16(r2)
    484c:	19000104 	addi	r4,r3,4
    4850:	e0bffa17 	ldw	r2,-24(fp)
    4854:	11000415 	stw	r4,16(r2)
    4858:	e0bff017 	ldw	r2,-64(fp)
    485c:	11000104 	addi	r4,r2,4
    4860:	e13ff015 	stw	r4,-64(fp)
    4864:	18c00017 	ldw	r3,0(r3)
    4868:	10c00015 	stw	r3,0(r2)
                     if (pq->OSQOut == pq->OSQEnd) {    /* If OUT ptr at queue end, ...                */
    486c:	e0bffa17 	ldw	r2,-24(fp)
    4870:	10c00417 	ldw	r3,16(r2)
    4874:	e0bffa17 	ldw	r2,-24(fp)
    4878:	10800217 	ldw	r2,8(r2)
    487c:	1880041e 	bne	r3,r2,4890 <OSEventPendMulti+0x324>
                         pq->OSQOut  = pq->OSQStart;    /* ... wrap   to queue start                   */
    4880:	e0bffa17 	ldw	r2,-24(fp)
    4884:	10c00117 	ldw	r3,4(r2)
    4888:	e0bffa17 	ldw	r2,-24(fp)
    488c:	10c00415 	stw	r3,16(r2)
                     }
                     pq->OSQEntries--;                  /* Update number of queue entries              */
    4890:	e0bffa17 	ldw	r2,-24(fp)
    4894:	1080058b 	ldhu	r2,22(r2)
    4898:	10bfffc4 	addi	r2,r2,-1
    489c:	1007883a 	mov	r3,r2
    48a0:	e0bffa17 	ldw	r2,-24(fp)
    48a4:	10c0058d 	sth	r3,22(r2)
                    *pevents_rdy++ = pevent;            /* ... and return available queue event        */
    48a8:	e0bff117 	ldw	r2,-60(fp)
    48ac:	10c00104 	addi	r3,r2,4
    48b0:	e0fff115 	stw	r3,-60(fp)
    48b4:	e0fffe17 	ldw	r3,-8(fp)
    48b8:	10c00015 	stw	r3,0(r2)
                      events_rdy   = OS_TRUE;
    48bc:	00800044 	movi	r2,1
    48c0:	e0bffdc5 	stb	r2,-9(fp)
                      events_rdy_nbr++;
    48c4:	e0bffd0b 	ldhu	r2,-12(fp)
    48c8:	10800044 	addi	r2,r2,1
    48cc:	e0bffd0d 	sth	r2,-12(fp)

                 } else {
                      events_stat |= OS_STAT_Q;         /* Configure multi-pend for queue events       */
                 }
                 break;
    48d0:	00001006 	br	4914 <OSEventPendMulti+0x3a8>
                      events_stat |= OS_STAT_Q;         /* Configure multi-pend for queue events       */
    48d4:	e0bffcc3 	ldbu	r2,-13(fp)
    48d8:	10800114 	ori	r2,r2,4
    48dc:	e0bffcc5 	stb	r2,-13(fp)
                 break;
    48e0:	00000c06 	br	4914 <OSEventPendMulti+0x3a8>
    48e4:	e0bffb17 	ldw	r2,-20(fp)
    48e8:	e0bff815 	stw	r2,-32(fp)
  NIOS2_WRITE_STATUS (context);
    48ec:	e0bff817 	ldw	r2,-32(fp)
    48f0:	1001703a 	wrctl	status,r2
}
    48f4:	0001883a 	nop

            case OS_EVENT_TYPE_MUTEX:
            case OS_EVENT_TYPE_FLAG:
            default:
                 OS_EXIT_CRITICAL();
                *pevents_rdy = (OS_EVENT *)0;           /* NULL terminate return event array           */
    48f8:	e0bff117 	ldw	r2,-60(fp)
    48fc:	10000015 	stw	zero,0(r2)
                *perr        =  OS_ERR_EVENT_TYPE;
    4900:	e0800217 	ldw	r2,8(fp)
    4904:	00c00044 	movi	r3,1
    4908:	10c00005 	stb	r3,0(r2)
                 return (events_rdy_nbr);
    490c:	e0bffd0b 	ldhu	r2,-12(fp)
    4910:	0000a106 	br	4b98 <OSEventPendMulti+0x62c>
        }
        pevents++;
    4914:	e0bfff17 	ldw	r2,-4(fp)
    4918:	10800104 	addi	r2,r2,4
    491c:	e0bfff15 	stw	r2,-4(fp)
        pevent = *pevents;
    4920:	e0bfff17 	ldw	r2,-4(fp)
    4924:	10800017 	ldw	r2,0(r2)
    4928:	e0bffe15 	stw	r2,-8(fp)
    while (pevent != (OS_EVENT *)0) {                   /* See if any events already available         */
    492c:	e0bffe17 	ldw	r2,-8(fp)
    4930:	103f7a1e 	bne	r2,zero,471c <OSEventPendMulti+0x1b0>
    }

    if ( events_rdy == OS_TRUE) {                       /* Return any events already available         */
    4934:	e0bffdc3 	ldbu	r2,-9(fp)
    4938:	10800058 	cmpnei	r2,r2,1
    493c:	10000b1e 	bne	r2,zero,496c <OSEventPendMulti+0x400>
       *pevents_rdy = (OS_EVENT *)0;                    /* NULL terminate return event array           */
    4940:	e0bff117 	ldw	r2,-60(fp)
    4944:	10000015 	stw	zero,0(r2)
    4948:	e0bffb17 	ldw	r2,-20(fp)
    494c:	e0bff715 	stw	r2,-36(fp)
  NIOS2_WRITE_STATUS (context);
    4950:	e0bff717 	ldw	r2,-36(fp)
    4954:	1001703a 	wrctl	status,r2
}
    4958:	0001883a 	nop
        OS_EXIT_CRITICAL();
       *perr        =  OS_ERR_NONE;
    495c:	e0800217 	ldw	r2,8(fp)
    4960:	10000005 	stb	zero,0(r2)
        return (events_rdy_nbr);
    4964:	e0bffd0b 	ldhu	r2,-12(fp)
    4968:	00008b06 	br	4b98 <OSEventPendMulti+0x62c>
    }

                                                        /* Otherwise, must wait until any event occurs */
    OSTCBCur->OSTCBStat     |= events_stat  |           /* Resource not available, ...                 */
    496c:	d0ab4817 	ldw	r2,-21216(gp)
    4970:	10800e03 	ldbu	r2,56(r2)
    4974:	e0fffcc3 	ldbu	r3,-13(fp)
    4978:	1884b03a 	or	r2,r3,r2
    497c:	1009883a 	mov	r4,r2
    4980:	d0ab4817 	ldw	r2,-21216(gp)
    4984:	00ffe004 	movi	r3,-128
    4988:	20c6b03a 	or	r3,r4,r3
    498c:	10c00e05 	stb	r3,56(r2)
                               OS_STAT_MULTI;           /* ... pend on multiple events                 */
    OSTCBCur->OSTCBStatPend  = OS_STAT_PEND_OK;
    4990:	d0ab4817 	ldw	r2,-21216(gp)
    4994:	10000e45 	stb	zero,57(r2)
    OSTCBCur->OSTCBDly       = timeout;                 /* Store pend timeout in TCB                   */
    4998:	d0ab4817 	ldw	r2,-21216(gp)
    499c:	e0ffef17 	ldw	r3,-68(fp)
    49a0:	10c00d15 	stw	r3,52(r2)
    OS_EventTaskWaitMulti(pevents_pend);                /* Suspend task until events or timeout occurs */
    49a4:	e13ff217 	ldw	r4,-56(fp)
    49a8:	00054d40 	call	54d4 <OS_EventTaskWaitMulti>
    49ac:	e0bffb17 	ldw	r2,-20(fp)
    49b0:	e0bff515 	stw	r2,-44(fp)
  NIOS2_WRITE_STATUS (context);
    49b4:	e0bff517 	ldw	r2,-44(fp)
    49b8:	1001703a 	wrctl	status,r2
}
    49bc:	0001883a 	nop

    OS_EXIT_CRITICAL();
    OS_Sched();                                         /* Find next highest priority task ready       */
    49c0:	0005c980 	call	5c98 <OS_Sched>
  NIOS2_READ_STATUS (context);
    49c4:	0005303a 	rdctl	r2,status
    49c8:	e0bff615 	stw	r2,-40(fp)
  NIOS2_WRITE_STATUS (context & ~NIOS2_STATUS_PIE_MSK);
    49cc:	e0fff617 	ldw	r3,-40(fp)
    49d0:	00bfff84 	movi	r2,-2
    49d4:	1884703a 	and	r2,r3,r2
    49d8:	1001703a 	wrctl	status,r2
  return context;
    49dc:	e0bff617 	ldw	r2,-40(fp)
    OS_ENTER_CRITICAL();
    49e0:	e0bffb15 	stw	r2,-20(fp)

    switch (OSTCBCur->OSTCBStatPend) {                  /* Handle event posted, aborted, or timed-out  */
    49e4:	d0ab4817 	ldw	r2,-21216(gp)
    49e8:	10800e43 	ldbu	r2,57(r2)
    49ec:	10803fcc 	andi	r2,r2,255
    49f0:	10000226 	beq	r2,zero,49fc <OSEventPendMulti+0x490>
    49f4:	10800098 	cmpnei	r2,r2,2
    49f8:	1000171e 	bne	r2,zero,4a58 <OSEventPendMulti+0x4ec>
        case OS_STAT_PEND_OK:
        case OS_STAT_PEND_ABORT:
             pevent = OSTCBCur->OSTCBEventMultiRdy;
    49fc:	d0ab4817 	ldw	r2,-21216(gp)
    4a00:	10800917 	ldw	r2,36(r2)
    4a04:	e0bffe15 	stw	r2,-8(fp)
             if (pevent != (OS_EVENT *)0) {             /* If task event ptr != NULL, ...              */
    4a08:	e0bffe17 	ldw	r2,-8(fp)
    4a0c:	10000a26 	beq	r2,zero,4a38 <OSEventPendMulti+0x4cc>
                *pevents_rdy++   =  pevent;             /* ... return available event ...              */
    4a10:	e0bff117 	ldw	r2,-60(fp)
    4a14:	10c00104 	addi	r3,r2,4
    4a18:	e0fff115 	stw	r3,-60(fp)
    4a1c:	e0fffe17 	ldw	r3,-8(fp)
    4a20:	10c00015 	stw	r3,0(r2)
                *pevents_rdy     = (OS_EVENT *)0;       /* ... & NULL terminate return event array     */
    4a24:	e0bff117 	ldw	r2,-60(fp)
    4a28:	10000015 	stw	zero,0(r2)
                  events_rdy_nbr =  1;
    4a2c:	00800044 	movi	r2,1
    4a30:	e0bffd0d 	sth	r2,-12(fp)

             } else {                                   /* Else NO event available, handle as timeout  */
                 OSTCBCur->OSTCBStatPend = OS_STAT_PEND_TO;
                 OS_EventTaskRemoveMulti(OSTCBCur, pevents_pend);
             }
             break;
    4a34:	00000d06 	br	4a6c <OSEventPendMulti+0x500>
                 OSTCBCur->OSTCBStatPend = OS_STAT_PEND_TO;
    4a38:	d0ab4817 	ldw	r2,-21216(gp)
    4a3c:	00c00044 	movi	r3,1
    4a40:	10c00e45 	stb	r3,57(r2)
                 OS_EventTaskRemoveMulti(OSTCBCur, pevents_pend);
    4a44:	d0ab4817 	ldw	r2,-21216(gp)
    4a48:	e17ff217 	ldw	r5,-56(fp)
    4a4c:	1009883a 	mov	r4,r2
    4a50:	00056cc0 	call	56cc <OS_EventTaskRemoveMulti>
             break;
    4a54:	00000506 	br	4a6c <OSEventPendMulti+0x500>

        case OS_STAT_PEND_TO:                           /* If events timed out, ...                    */
        default:                                        /* ... remove task from events' wait lists     */
             OS_EventTaskRemoveMulti(OSTCBCur, pevents_pend);
    4a58:	d0ab4817 	ldw	r2,-21216(gp)
    4a5c:	e17ff217 	ldw	r5,-56(fp)
    4a60:	1009883a 	mov	r4,r2
    4a64:	00056cc0 	call	56cc <OS_EventTaskRemoveMulti>
             break;
    4a68:	0001883a 	nop
    }

    switch (OSTCBCur->OSTCBStatPend) {
    4a6c:	d0ab4817 	ldw	r2,-21216(gp)
    4a70:	10800e43 	ldbu	r2,57(r2)
    4a74:	10803fcc 	andi	r2,r2,255
    4a78:	10000326 	beq	r2,zero,4a88 <OSEventPendMulti+0x51c>
    4a7c:	108000a0 	cmpeqi	r2,r2,2
    4a80:	1000251e 	bne	r2,zero,4b18 <OSEventPendMulti+0x5ac>
    4a84:	00002c06 	br	4b38 <OSEventPendMulti+0x5cc>
        case OS_STAT_PEND_OK:
             switch (pevent->OSEventType) {             /* Return event's message                      */
    4a88:	e0bffe17 	ldw	r2,-8(fp)
    4a8c:	10800003 	ldbu	r2,0(r2)
    4a90:	10803fcc 	andi	r2,r2,255
    4a94:	10c000c8 	cmpgei	r3,r2,3
    4a98:	1800021e 	bne	r3,zero,4aa4 <OSEventPendMulti+0x538>
    4a9c:	00800816 	blt	zero,r2,4ac0 <OSEventPendMulti+0x554>
    4aa0:	00000e06 	br	4adc <OSEventPendMulti+0x570>
    4aa4:	108000d8 	cmpnei	r2,r2,3
    4aa8:	10000c1e 	bne	r2,zero,4adc <OSEventPendMulti+0x570>
#if (OS_SEM_EN > 0u)
                 case OS_EVENT_TYPE_SEM:
                     *pmsgs_rdy++ = (void *)0;          /* NO message returned for semaphores          */
    4aac:	e0bff017 	ldw	r2,-64(fp)
    4ab0:	10c00104 	addi	r3,r2,4
    4ab4:	e0fff015 	stw	r3,-64(fp)
    4ab8:	10000015 	stw	zero,0(r2)
                      break;
    4abc:	00001306 	br	4b0c <OSEventPendMulti+0x5a0>

#if ((OS_MBOX_EN > 0u) ||                 \
    ((OS_Q_EN    > 0u) && (OS_MAX_QS > 0u)))
                 case OS_EVENT_TYPE_MBOX:
                 case OS_EVENT_TYPE_Q:
                     *pmsgs_rdy++ = (void *)OSTCBCur->OSTCBMsg;     /* Return received message         */
    4ac0:	d0eb4817 	ldw	r3,-21216(gp)
    4ac4:	e0bff017 	ldw	r2,-64(fp)
    4ac8:	11000104 	addi	r4,r2,4
    4acc:	e13ff015 	stw	r4,-64(fp)
    4ad0:	18c00a17 	ldw	r3,40(r3)
    4ad4:	10c00015 	stw	r3,0(r2)
                      break;
    4ad8:	00000c06 	br	4b0c <OSEventPendMulti+0x5a0>
    4adc:	e0bffb17 	ldw	r2,-20(fp)
    4ae0:	e0bff415 	stw	r2,-48(fp)
  NIOS2_WRITE_STATUS (context);
    4ae4:	e0bff417 	ldw	r2,-48(fp)
    4ae8:	1001703a 	wrctl	status,r2
}
    4aec:	0001883a 	nop

                 case OS_EVENT_TYPE_MUTEX:
                 case OS_EVENT_TYPE_FLAG:
                 default:
                      OS_EXIT_CRITICAL();
                     *pevents_rdy = (OS_EVENT *)0;      /* NULL terminate return event array           */
    4af0:	e0bff117 	ldw	r2,-60(fp)
    4af4:	10000015 	stw	zero,0(r2)
                     *perr        =  OS_ERR_EVENT_TYPE;
    4af8:	e0800217 	ldw	r2,8(fp)
    4afc:	00c00044 	movi	r3,1
    4b00:	10c00005 	stb	r3,0(r2)
                      return (events_rdy_nbr);
    4b04:	e0bffd0b 	ldhu	r2,-12(fp)
    4b08:	00002306 	br	4b98 <OSEventPendMulti+0x62c>
             }
            *perr = OS_ERR_NONE;
    4b0c:	e0800217 	ldw	r2,8(fp)
    4b10:	10000005 	stb	zero,0(r2)
             break;
    4b14:	00001006 	br	4b58 <OSEventPendMulti+0x5ec>

        case OS_STAT_PEND_ABORT:
            *pmsgs_rdy++ = (void *)0;                   /* NO message returned for abort               */
    4b18:	e0bff017 	ldw	r2,-64(fp)
    4b1c:	10c00104 	addi	r3,r2,4
    4b20:	e0fff015 	stw	r3,-64(fp)
    4b24:	10000015 	stw	zero,0(r2)
            *perr        =  OS_ERR_PEND_ABORT;          /* Indicate that event  aborted                */
    4b28:	e0800217 	ldw	r2,8(fp)
    4b2c:	00c00384 	movi	r3,14
    4b30:	10c00005 	stb	r3,0(r2)
             break;
    4b34:	00000806 	br	4b58 <OSEventPendMulti+0x5ec>

        case OS_STAT_PEND_TO:
        default:
            *pmsgs_rdy++ = (void *)0;                   /* NO message returned for timeout             */
    4b38:	e0bff017 	ldw	r2,-64(fp)
    4b3c:	10c00104 	addi	r3,r2,4
    4b40:	e0fff015 	stw	r3,-64(fp)
    4b44:	10000015 	stw	zero,0(r2)
            *perr        =  OS_ERR_TIMEOUT;             /* Indicate that events timed out              */
    4b48:	e0800217 	ldw	r2,8(fp)
    4b4c:	00c00284 	movi	r3,10
    4b50:	10c00005 	stb	r3,0(r2)
             break;
    4b54:	0001883a 	nop
    }

    OSTCBCur->OSTCBStat          =  OS_STAT_RDY;        /* Set   task  status to ready                 */
    4b58:	d0ab4817 	ldw	r2,-21216(gp)
    4b5c:	10000e05 	stb	zero,56(r2)
    OSTCBCur->OSTCBStatPend      =  OS_STAT_PEND_OK;    /* Clear pend  status                          */
    4b60:	d0ab4817 	ldw	r2,-21216(gp)
    4b64:	10000e45 	stb	zero,57(r2)
    OSTCBCur->OSTCBEventMultiPtr = (OS_EVENT **)0;      /* Clear event pointers                        */
    4b68:	d0ab4817 	ldw	r2,-21216(gp)
    4b6c:	10000815 	stw	zero,32(r2)
    OSTCBCur->OSTCBEventMultiRdy = (OS_EVENT  *)0;
    4b70:	d0ab4817 	ldw	r2,-21216(gp)
    4b74:	10000915 	stw	zero,36(r2)
#if ((OS_MBOX_EN > 0u) ||                 \
    ((OS_Q_EN    > 0u) && (OS_MAX_QS > 0u)))
    OSTCBCur->OSTCBMsg           = (void      *)0;      /* Clear task  message                         */
    4b78:	d0ab4817 	ldw	r2,-21216(gp)
    4b7c:	10000a15 	stw	zero,40(r2)
    4b80:	e0bffb17 	ldw	r2,-20(fp)
    4b84:	e0bff315 	stw	r2,-52(fp)
  NIOS2_WRITE_STATUS (context);
    4b88:	e0bff317 	ldw	r2,-52(fp)
    4b8c:	1001703a 	wrctl	status,r2
}
    4b90:	0001883a 	nop
#endif
    OS_EXIT_CRITICAL();

    return (events_rdy_nbr);
    4b94:	e0bffd0b 	ldhu	r2,-12(fp)
}
    4b98:	e037883a 	mov	sp,fp
    4b9c:	dfc00117 	ldw	ra,4(sp)
    4ba0:	df000017 	ldw	fp,0(sp)
    4ba4:	dec00204 	addi	sp,sp,8
    4ba8:	f800283a 	ret

00004bac <OSInit>:
* Returns    : none
*********************************************************************************************************
*/

void  OSInit (void)
{
    4bac:	defffe04 	addi	sp,sp,-8
    4bb0:	dfc00115 	stw	ra,4(sp)
    4bb4:	df000015 	stw	fp,0(sp)
    4bb8:	d839883a 	mov	fp,sp
#if defined(OS_TLS_TBL_SIZE) && (OS_TLS_TBL_SIZE > 0u)
    INT8U  err;
#endif
#endif

    OSInitHookBegin();                                           /* Call port specific initialization code   */
    4bbc:	000e0600 	call	e060 <OSInitHookBegin>

    OS_InitMisc();                                               /* Initialize miscellaneous variables       */
    4bc0:	000591c0 	call	591c <OS_InitMisc>

    OS_InitRdyList();                                            /* Initialize the Ready List                */
    4bc4:	00059680 	call	5968 <OS_InitRdyList>

    OS_InitTCBList();                                            /* Initialize the free list of OS_TCBs      */
    4bc8:	0005ad40 	call	5ad4 <OS_InitTCBList>

    OS_InitEventList();                                          /* Initialize the free list of OS_EVENTs    */
    4bcc:	00058200 	call	5820 <OS_InitEventList>

#if (OS_FLAG_EN > 0u) && (OS_MAX_FLAGS > 0u)
    OS_FlagInit();                                               /* Initialize the event flag structures     */
    4bd0:	0007a1c0 	call	7a1c <OS_FlagInit>
#endif

#if (OS_MEM_EN > 0u) && (OS_MAX_MEM_PART > 0u)
    OS_MemInit();                                                /* Initialize the memory manager            */
    4bd4:	00082ec0 	call	82ec <OS_MemInit>
#endif

#if (OS_Q_EN > 0u) && (OS_MAX_QS > 0u)
    OS_QInit();                                                  /* Initialize the message queue structures  */
    4bd8:	00094340 	call	9434 <OS_QInit>
        return;
    }
#endif
#endif

    OS_InitTaskIdle();                                           /* Create the Idle Task                     */
    4bdc:	00059cc0 	call	59cc <OS_InitTaskIdle>
#if OS_TASK_STAT_EN > 0u
    OS_InitTaskStat();                                           /* Create the Statistic Task                */
    4be0:	0005a500 	call	5a50 <OS_InitTaskStat>

#if OS_TMR_EN > 0u
    OSTmr_Init();                                                /* Initialize the Timer Manager             */
#endif

    OSInitHookEnd();                                             /* Call port specific init. code            */
    4be4:	000e0800 	call	e080 <OSInitHookEnd>

#if OS_DEBUG_EN > 0u
    OSDebugInit();
    4be8:	00064200 	call	6420 <OSDebugInit>
#endif
}
    4bec:	0001883a 	nop
    4bf0:	e037883a 	mov	sp,fp
    4bf4:	dfc00117 	ldw	ra,4(sp)
    4bf8:	df000017 	ldw	fp,0(sp)
    4bfc:	dec00204 	addi	sp,sp,8
    4c00:	f800283a 	ret

00004c04 <OSIntEnter>:
*                 OSIntEnter() is always called with interrupts disabled.
*********************************************************************************************************
*/

void  OSIntEnter (void)
{
    4c04:	deffff04 	addi	sp,sp,-4
    4c08:	df000015 	stw	fp,0(sp)
    4c0c:	d839883a 	mov	fp,sp
    if (OSRunning == OS_TRUE) {
    4c10:	d0ab4643 	ldbu	r2,-21223(gp)
    4c14:	10803fcc 	andi	r2,r2,255
    4c18:	10800058 	cmpnei	r2,r2,1
    4c1c:	1000071e 	bne	r2,zero,4c3c <OSIntEnter+0x38>
        if (OSIntNesting < 255u) {
    4c20:	d0ab4443 	ldbu	r2,-21231(gp)
    4c24:	10803fcc 	andi	r2,r2,255
    4c28:	10803fe0 	cmpeqi	r2,r2,255
    4c2c:	1000031e 	bne	r2,zero,4c3c <OSIntEnter+0x38>
            OSIntNesting++;                      /* Increment ISR nesting level                        */
    4c30:	d0ab4443 	ldbu	r2,-21231(gp)
    4c34:	10800044 	addi	r2,r2,1
    4c38:	d0ab4445 	stb	r2,-21231(gp)
        }
        OS_TRACE_ISR_ENTER();
    }
}
    4c3c:	0001883a 	nop
    4c40:	e037883a 	mov	sp,fp
    4c44:	df000017 	ldw	fp,0(sp)
    4c48:	dec00104 	addi	sp,sp,4
    4c4c:	f800283a 	ret

00004c50 <OSIntExit>:
*              2) Rescheduling is prevented when the scheduler is locked (see OS_SchedLock())
*********************************************************************************************************
*/

void  OSIntExit (void)
{
    4c50:	defffb04 	addi	sp,sp,-20
    4c54:	dfc00415 	stw	ra,16(sp)
    4c58:	df000315 	stw	fp,12(sp)
    4c5c:	df000304 	addi	fp,sp,12
#if OS_CRITICAL_METHOD == 3u                               /* Allocate storage for CPU status register */
    OS_CPU_SR  cpu_sr = 0u;
    4c60:	e03fff15 	stw	zero,-4(fp)
#endif



    if (OSRunning == OS_TRUE) {
    4c64:	d0ab4643 	ldbu	r2,-21223(gp)
    4c68:	10803fcc 	andi	r2,r2,255
    4c6c:	10800058 	cmpnei	r2,r2,1
    4c70:	10002e1e 	bne	r2,zero,4d2c <OSIntExit+0xdc>
  NIOS2_READ_STATUS (context);
    4c74:	0005303a 	rdctl	r2,status
    4c78:	e0bffe15 	stw	r2,-8(fp)
  NIOS2_WRITE_STATUS (context & ~NIOS2_STATUS_PIE_MSK);
    4c7c:	e0fffe17 	ldw	r3,-8(fp)
    4c80:	00bfff84 	movi	r2,-2
    4c84:	1884703a 	and	r2,r3,r2
    4c88:	1001703a 	wrctl	status,r2
  return context;
    4c8c:	e0bffe17 	ldw	r2,-8(fp)
        OS_ENTER_CRITICAL();
    4c90:	e0bfff15 	stw	r2,-4(fp)
        if (OSIntNesting > 0u) {                           /* Prevent OSIntNesting from wrapping       */
    4c94:	d0ab4443 	ldbu	r2,-21231(gp)
    4c98:	10803fcc 	andi	r2,r2,255
    4c9c:	10000326 	beq	r2,zero,4cac <OSIntExit+0x5c>
            OSIntNesting--;
    4ca0:	d0ab4443 	ldbu	r2,-21231(gp)
    4ca4:	10bfffc4 	addi	r2,r2,-1
    4ca8:	d0ab4445 	stb	r2,-21231(gp)
        }
        if (OSIntNesting == 0u) {                          /* Reschedule only if all ISRs complete ... */
    4cac:	d0ab4443 	ldbu	r2,-21231(gp)
    4cb0:	10803fcc 	andi	r2,r2,255
    4cb4:	1000181e 	bne	r2,zero,4d18 <OSIntExit+0xc8>
            if (OSLockNesting == 0u) {                     /* ... and not locked.                      */
    4cb8:	d0ab4483 	ldbu	r2,-21230(gp)
    4cbc:	10803fcc 	andi	r2,r2,255
    4cc0:	1000151e 	bne	r2,zero,4d18 <OSIntExit+0xc8>
                OS_SchedNew();
    4cc4:	0005d640 	call	5d64 <OS_SchedNew>
                OSTCBHighRdy = OSTCBPrioTbl[OSPrioHighRdy];
    4cc8:	d0ab4503 	ldbu	r2,-21228(gp)
    4ccc:	10803fcc 	andi	r2,r2,255
    4cd0:	100690ba 	slli	r3,r2,2
    4cd4:	008000b4 	movhi	r2,2
    4cd8:	1885883a 	add	r2,r3,r2
    4cdc:	10a66817 	ldw	r2,-26208(r2)
    4ce0:	d0ab4a15 	stw	r2,-21208(gp)
                if (OSPrioHighRdy != OSPrioCur) {          /* No Ctx Sw if current task is highest rdy */
    4ce4:	d0eb4503 	ldbu	r3,-21228(gp)
    4ce8:	d0ab44c3 	ldbu	r2,-21229(gp)
    4cec:	18c03fcc 	andi	r3,r3,255
    4cf0:	10803fcc 	andi	r2,r2,255
    4cf4:	18800826 	beq	r3,r2,4d18 <OSIntExit+0xc8>
#if OS_TASK_PROFILE_EN > 0u
                    OSTCBHighRdy->OSTCBCtxSwCtr++;         /* Inc. # of context switches to this task  */
    4cf8:	d0ab4a17 	ldw	r2,-21208(gp)
    4cfc:	10c01017 	ldw	r3,64(r2)
    4d00:	18c00044 	addi	r3,r3,1
    4d04:	10c01015 	stw	r3,64(r2)
#endif
                    OSCtxSwCtr++;                          /* Keep track of the number of ctx switches */
    4d08:	d0ab3e17 	ldw	r2,-21256(gp)
    4d0c:	10800044 	addi	r2,r2,1
    4d10:	d0ab3e15 	stw	r2,-21256(gp)
                    OS_TLS_TaskSw();
#endif
#endif
                    OS_TRACE_ISR_EXIT_TO_SCHEDULER();

                    OSIntCtxSw();                          /* Perform interrupt level ctx switch       */
    4d14:	000dd9c0 	call	dd9c <OSCtxSw>
    4d18:	e0bfff17 	ldw	r2,-4(fp)
    4d1c:	e0bffd15 	stw	r2,-12(fp)
  NIOS2_WRITE_STATUS (context);
    4d20:	e0bffd17 	ldw	r2,-12(fp)
    4d24:	1001703a 	wrctl	status,r2
}
    4d28:	0001883a 	nop
            OS_TRACE_ISR_EXIT();
        }

        OS_EXIT_CRITICAL();
    }
}
    4d2c:	0001883a 	nop
    4d30:	e037883a 	mov	sp,fp
    4d34:	dfc00117 	ldw	ra,4(sp)
    4d38:	df000017 	ldw	fp,0(sp)
    4d3c:	dec00204 	addi	sp,sp,8
    4d40:	f800283a 	ret

00004d44 <OSSchedLock>:
*********************************************************************************************************
*/

#if OS_SCHED_LOCK_EN > 0u
void  OSSchedLock (void)
{
    4d44:	defffc04 	addi	sp,sp,-16
    4d48:	df000315 	stw	fp,12(sp)
    4d4c:	df000304 	addi	fp,sp,12
#if OS_CRITICAL_METHOD == 3u                     /* Allocate storage for CPU status register           */
    OS_CPU_SR  cpu_sr = 0u;
    4d50:	e03fff15 	stw	zero,-4(fp)
#endif



    if (OSRunning == OS_TRUE) {                  /* Make sure multitasking is running                  */
    4d54:	d0ab4643 	ldbu	r2,-21223(gp)
    4d58:	10803fcc 	andi	r2,r2,255
    4d5c:	10800058 	cmpnei	r2,r2,1
    4d60:	1000171e 	bne	r2,zero,4dc0 <OSSchedLock+0x7c>
  NIOS2_READ_STATUS (context);
    4d64:	0005303a 	rdctl	r2,status
    4d68:	e0bffe15 	stw	r2,-8(fp)
  NIOS2_WRITE_STATUS (context & ~NIOS2_STATUS_PIE_MSK);
    4d6c:	e0fffe17 	ldw	r3,-8(fp)
    4d70:	00bfff84 	movi	r2,-2
    4d74:	1884703a 	and	r2,r3,r2
    4d78:	1001703a 	wrctl	status,r2
  return context;
    4d7c:	e0bffe17 	ldw	r2,-8(fp)
        OS_ENTER_CRITICAL();
    4d80:	e0bfff15 	stw	r2,-4(fp)
        if (OSIntNesting == 0u) {                /* Can't call from an ISR                             */
    4d84:	d0ab4443 	ldbu	r2,-21231(gp)
    4d88:	10803fcc 	andi	r2,r2,255
    4d8c:	1000071e 	bne	r2,zero,4dac <OSSchedLock+0x68>
            if (OSLockNesting < 255u) {          /* Prevent OSLockNesting from wrapping back to 0      */
    4d90:	d0ab4483 	ldbu	r2,-21230(gp)
    4d94:	10803fcc 	andi	r2,r2,255
    4d98:	10803fe0 	cmpeqi	r2,r2,255
    4d9c:	1000031e 	bne	r2,zero,4dac <OSSchedLock+0x68>
                OSLockNesting++;                 /* Increment lock nesting level                       */
    4da0:	d0ab4483 	ldbu	r2,-21230(gp)
    4da4:	10800044 	addi	r2,r2,1
    4da8:	d0ab4485 	stb	r2,-21230(gp)
    4dac:	e0bfff17 	ldw	r2,-4(fp)
    4db0:	e0bffd15 	stw	r2,-12(fp)
  NIOS2_WRITE_STATUS (context);
    4db4:	e0bffd17 	ldw	r2,-12(fp)
    4db8:	1001703a 	wrctl	status,r2
}
    4dbc:	0001883a 	nop
            }
        }
        OS_EXIT_CRITICAL();
    }
}
    4dc0:	0001883a 	nop
    4dc4:	e037883a 	mov	sp,fp
    4dc8:	df000017 	ldw	fp,0(sp)
    4dcc:	dec00104 	addi	sp,sp,4
    4dd0:	f800283a 	ret

00004dd4 <OSSchedUnlock>:
*********************************************************************************************************
*/

#if OS_SCHED_LOCK_EN > 0u
void  OSSchedUnlock (void)
{
    4dd4:	defff804 	addi	sp,sp,-32
    4dd8:	dfc00715 	stw	ra,28(sp)
    4ddc:	df000615 	stw	fp,24(sp)
    4de0:	df000604 	addi	fp,sp,24
#if OS_CRITICAL_METHOD == 3u                               /* Allocate storage for CPU status register */
    OS_CPU_SR  cpu_sr = 0u;
    4de4:	e03fff15 	stw	zero,-4(fp)
#endif



    if (OSRunning == OS_TRUE) {                            /* Make sure multitasking is running        */
    4de8:	d0ab4643 	ldbu	r2,-21223(gp)
    4dec:	10803fcc 	andi	r2,r2,255
    4df0:	10800058 	cmpnei	r2,r2,1
    4df4:	10002a1e 	bne	r2,zero,4ea0 <OSSchedUnlock+0xcc>
  NIOS2_READ_STATUS (context);
    4df8:	0005303a 	rdctl	r2,status
    4dfc:	e0bffe15 	stw	r2,-8(fp)
  NIOS2_WRITE_STATUS (context & ~NIOS2_STATUS_PIE_MSK);
    4e00:	e0fffe17 	ldw	r3,-8(fp)
    4e04:	00bfff84 	movi	r2,-2
    4e08:	1884703a 	and	r2,r3,r2
    4e0c:	1001703a 	wrctl	status,r2
  return context;
    4e10:	e0bffe17 	ldw	r2,-8(fp)
        OS_ENTER_CRITICAL();
    4e14:	e0bfff15 	stw	r2,-4(fp)
        if (OSIntNesting == 0u) {                          /* Can't call from an ISR                   */
    4e18:	d0ab4443 	ldbu	r2,-21231(gp)
    4e1c:	10803fcc 	andi	r2,r2,255
    4e20:	10001a1e 	bne	r2,zero,4e8c <OSSchedUnlock+0xb8>
            if (OSLockNesting > 0u) {                      /* Do not decrement if already 0            */
    4e24:	d0ab4483 	ldbu	r2,-21230(gp)
    4e28:	10803fcc 	andi	r2,r2,255
    4e2c:	10001226 	beq	r2,zero,4e78 <OSSchedUnlock+0xa4>
                OSLockNesting--;                           /* Decrement lock nesting level             */
    4e30:	d0ab4483 	ldbu	r2,-21230(gp)
    4e34:	10bfffc4 	addi	r2,r2,-1
    4e38:	d0ab4485 	stb	r2,-21230(gp)
                if (OSLockNesting == 0u) {                 /* See if scheduler is enabled              */
    4e3c:	d0ab4483 	ldbu	r2,-21230(gp)
    4e40:	10803fcc 	andi	r2,r2,255
    4e44:	1000071e 	bne	r2,zero,4e64 <OSSchedUnlock+0x90>
    4e48:	e0bfff17 	ldw	r2,-4(fp)
    4e4c:	e0bffd15 	stw	r2,-12(fp)
  NIOS2_WRITE_STATUS (context);
    4e50:	e0bffd17 	ldw	r2,-12(fp)
    4e54:	1001703a 	wrctl	status,r2
}
    4e58:	0001883a 	nop
                    OS_EXIT_CRITICAL();
                    OS_Sched();                            /* See if a HPT is ready                    */
    4e5c:	0005c980 	call	5c98 <OS_Sched>
            }
        } else {
            OS_EXIT_CRITICAL();
        }
    }
}
    4e60:	00000f06 	br	4ea0 <OSSchedUnlock+0xcc>
    4e64:	e0bfff17 	ldw	r2,-4(fp)
    4e68:	e0bffc15 	stw	r2,-16(fp)
  NIOS2_WRITE_STATUS (context);
    4e6c:	e0bffc17 	ldw	r2,-16(fp)
    4e70:	1001703a 	wrctl	status,r2
}
    4e74:	00000a06 	br	4ea0 <OSSchedUnlock+0xcc>
    4e78:	e0bfff17 	ldw	r2,-4(fp)
    4e7c:	e0bffb15 	stw	r2,-20(fp)
  NIOS2_WRITE_STATUS (context);
    4e80:	e0bffb17 	ldw	r2,-20(fp)
    4e84:	1001703a 	wrctl	status,r2
}
    4e88:	00000506 	br	4ea0 <OSSchedUnlock+0xcc>
    4e8c:	e0bfff17 	ldw	r2,-4(fp)
    4e90:	e0bffa15 	stw	r2,-24(fp)
  NIOS2_WRITE_STATUS (context);
    4e94:	e0bffa17 	ldw	r2,-24(fp)
    4e98:	1001703a 	wrctl	status,r2
}
    4e9c:	0001883a 	nop
    4ea0:	0001883a 	nop
    4ea4:	e037883a 	mov	sp,fp
    4ea8:	dfc00117 	ldw	ra,4(sp)
    4eac:	df000017 	ldw	fp,0(sp)
    4eb0:	dec00204 	addi	sp,sp,8
    4eb4:	f800283a 	ret

00004eb8 <OSStart>:
*                 d_ Execute the task.
*********************************************************************************************************
*/

void  OSStart (void)
{
    4eb8:	defffe04 	addi	sp,sp,-8
    4ebc:	dfc00115 	stw	ra,4(sp)
    4ec0:	df000015 	stw	fp,0(sp)
    4ec4:	d839883a 	mov	fp,sp
    if (OSRunning == OS_FALSE) {
    4ec8:	d0ab4643 	ldbu	r2,-21223(gp)
    4ecc:	10803fcc 	andi	r2,r2,255
    4ed0:	10000d1e 	bne	r2,zero,4f08 <OSStart+0x50>
        OS_SchedNew();                               /* Find highest priority's task priority number   */
    4ed4:	0005d640 	call	5d64 <OS_SchedNew>
        OSPrioCur     = OSPrioHighRdy;
    4ed8:	d0ab4503 	ldbu	r2,-21228(gp)
    4edc:	d0ab44c5 	stb	r2,-21229(gp)
        OSTCBHighRdy  = OSTCBPrioTbl[OSPrioHighRdy]; /* Point to highest priority task ready to run    */
    4ee0:	d0ab4503 	ldbu	r2,-21228(gp)
    4ee4:	10803fcc 	andi	r2,r2,255
    4ee8:	100690ba 	slli	r3,r2,2
    4eec:	008000b4 	movhi	r2,2
    4ef0:	1885883a 	add	r2,r3,r2
    4ef4:	10a66817 	ldw	r2,-26208(r2)
    4ef8:	d0ab4a15 	stw	r2,-21208(gp)
        OSTCBCur      = OSTCBHighRdy;
    4efc:	d0ab4a17 	ldw	r2,-21208(gp)
    4f00:	d0ab4815 	stw	r2,-21216(gp)
        OSStartHighRdy();                            /* Execute target specific code to start task     */
    4f04:	000de280 	call	de28 <OSStartHighRdy>
    }
}
    4f08:	0001883a 	nop
    4f0c:	e037883a 	mov	sp,fp
    4f10:	dfc00117 	ldw	ra,4(sp)
    4f14:	df000017 	ldw	fp,0(sp)
    4f18:	dec00204 	addi	sp,sp,8
    4f1c:	f800283a 	ret

00004f20 <OSStatInit>:
*********************************************************************************************************
*/

#if OS_TASK_STAT_EN > 0u
void  OSStatInit (void)
{
    4f20:	defff904 	addi	sp,sp,-28
    4f24:	dfc00615 	stw	ra,24(sp)
    4f28:	df000515 	stw	fp,20(sp)
    4f2c:	df000504 	addi	fp,sp,20
#if OS_CRITICAL_METHOD == 3u                     /* Allocate storage for CPU status register           */
    OS_CPU_SR  cpu_sr = 0u;
    4f30:	e03fff15 	stw	zero,-4(fp)
#endif



    OSTimeDly(2u);                               /* Synchronize with clock tick                        */
    4f34:	01000084 	movi	r4,2
    4f38:	000b9300 	call	b930 <OSTimeDly>
  NIOS2_READ_STATUS (context);
    4f3c:	0005303a 	rdctl	r2,status
    4f40:	e0bffb15 	stw	r2,-20(fp)
  NIOS2_WRITE_STATUS (context & ~NIOS2_STATUS_PIE_MSK);
    4f44:	e0fffb17 	ldw	r3,-20(fp)
    4f48:	00bfff84 	movi	r2,-2
    4f4c:	1884703a 	and	r2,r3,r2
    4f50:	1001703a 	wrctl	status,r2
  return context;
    4f54:	e0bffb17 	ldw	r2,-20(fp)
    OS_ENTER_CRITICAL();
    4f58:	e0bfff15 	stw	r2,-4(fp)
    OSIdleCtr    = 0uL;                          /* Clear idle counter                                 */
    4f5c:	d02b4715 	stw	zero,-21220(gp)
    4f60:	e0bfff17 	ldw	r2,-4(fp)
    4f64:	e0bffc15 	stw	r2,-16(fp)
  NIOS2_WRITE_STATUS (context);
    4f68:	e0bffc17 	ldw	r2,-16(fp)
    4f6c:	1001703a 	wrctl	status,r2
}
    4f70:	0001883a 	nop
    OS_EXIT_CRITICAL();
    OSTimeDly(OS_TICKS_PER_SEC / 10u);           /* Determine MAX. idle counter value for 1/10 second  */
    4f74:	01001904 	movi	r4,100
    4f78:	000b9300 	call	b930 <OSTimeDly>
  NIOS2_READ_STATUS (context);
    4f7c:	0005303a 	rdctl	r2,status
    4f80:	e0bffd15 	stw	r2,-12(fp)
  NIOS2_WRITE_STATUS (context & ~NIOS2_STATUS_PIE_MSK);
    4f84:	e0fffd17 	ldw	r3,-12(fp)
    4f88:	00bfff84 	movi	r2,-2
    4f8c:	1884703a 	and	r2,r3,r2
    4f90:	1001703a 	wrctl	status,r2
  return context;
    4f94:	e0bffd17 	ldw	r2,-12(fp)
    OS_ENTER_CRITICAL();
    4f98:	e0bfff15 	stw	r2,-4(fp)
    OSIdleCtrMax = OSIdleCtr;                    /* Store maximum idle counter count in 1/10 second    */
    4f9c:	d0ab4717 	ldw	r2,-21220(gp)
    4fa0:	d0ab4215 	stw	r2,-21240(gp)
    OSStatRdy    = OS_TRUE;
    4fa4:	00800044 	movi	r2,1
    4fa8:	d0ab4405 	stb	r2,-21232(gp)
    4fac:	e0bfff17 	ldw	r2,-4(fp)
    4fb0:	e0bffe15 	stw	r2,-8(fp)
  NIOS2_WRITE_STATUS (context);
    4fb4:	e0bffe17 	ldw	r2,-8(fp)
    4fb8:	1001703a 	wrctl	status,r2
}
    4fbc:	0001883a 	nop
    OS_EXIT_CRITICAL();
}
    4fc0:	0001883a 	nop
    4fc4:	e037883a 	mov	sp,fp
    4fc8:	dfc00117 	ldw	ra,4(sp)
    4fcc:	df000017 	ldw	fp,0(sp)
    4fd0:	dec00204 	addi	sp,sp,8
    4fd4:	f800283a 	ret

00004fd8 <OSTimeTick>:
* Returns    : none
*********************************************************************************************************
*/

void  OSTimeTick (void)
{
    4fd8:	defff704 	addi	sp,sp,-36
    4fdc:	dfc00815 	stw	ra,32(sp)
    4fe0:	df000715 	stw	fp,28(sp)
    4fe4:	df000704 	addi	fp,sp,28
    OS_TCB    *ptcb;
#if OS_TICK_STEP_EN > 0u
    BOOLEAN    step;
#endif
#if OS_CRITICAL_METHOD == 3u                               /* Allocate storage for CPU status register     */
    OS_CPU_SR  cpu_sr = 0u;
    4fe8:	e03ffd15 	stw	zero,-12(fp)
#endif



#if OS_TIME_TICK_HOOK_EN > 0u
    OSTimeTickHook();                                      /* Call user definable hook                     */
    4fec:	000e0400 	call	e040 <OSTimeTickHook>
  NIOS2_READ_STATUS (context);
    4ff0:	0005303a 	rdctl	r2,status
    4ff4:	e0bffb15 	stw	r2,-20(fp)
  NIOS2_WRITE_STATUS (context & ~NIOS2_STATUS_PIE_MSK);
    4ff8:	e0fffb17 	ldw	r3,-20(fp)
    4ffc:	00bfff84 	movi	r2,-2
    5000:	1884703a 	and	r2,r3,r2
    5004:	1001703a 	wrctl	status,r2
  return context;
    5008:	e0bffb17 	ldw	r2,-20(fp)
#endif
#if OS_TIME_GET_SET_EN > 0u
    OS_ENTER_CRITICAL();                                   /* Update the 32-bit tick counter               */
    500c:	e0bffd15 	stw	r2,-12(fp)
    OSTime++;
    5010:	d0ab5017 	ldw	r2,-21184(gp)
    5014:	10800044 	addi	r2,r2,1
    5018:	d0ab5015 	stw	r2,-21184(gp)
    501c:	e0bffd17 	ldw	r2,-12(fp)
    5020:	e0bffc15 	stw	r2,-16(fp)
  NIOS2_WRITE_STATUS (context);
    5024:	e0bffc17 	ldw	r2,-16(fp)
    5028:	1001703a 	wrctl	status,r2
}
    502c:	0001883a 	nop
    OS_TRACE_TICK_INCREMENT(OSTime);
    OS_EXIT_CRITICAL();
#endif
    if (OSRunning == OS_TRUE) {
    5030:	d0ab4643 	ldbu	r2,-21223(gp)
    5034:	10803fcc 	andi	r2,r2,255
    5038:	10800058 	cmpnei	r2,r2,1
    503c:	10006b1e 	bne	r2,zero,51ec <OSTimeTick+0x214>
#if OS_TICK_STEP_EN > 0u
        switch (OSTickStepState) {                         /* Determine whether we need to process a tick  */
    5040:	d0ab4c03 	ldbu	r2,-21200(gp)
    5044:	10803fcc 	andi	r2,r2,255
    5048:	10c000a0 	cmpeqi	r3,r2,2
    504c:	18000b1e 	bne	r3,zero,507c <OSTimeTick+0xa4>
    5050:	10c000c8 	cmpgei	r3,r2,3
    5054:	18000e1e 	bne	r3,zero,5090 <OSTimeTick+0xb8>
    5058:	10000326 	beq	r2,zero,5068 <OSTimeTick+0x90>
    505c:	10800060 	cmpeqi	r2,r2,1
    5060:	1000041e 	bne	r2,zero,5074 <OSTimeTick+0x9c>
    5064:	00000a06 	br	5090 <OSTimeTick+0xb8>
            case OS_TICK_STEP_DIS:                         /* Yes, stepping is disabled                    */
                 step = OS_TRUE;
    5068:	00800044 	movi	r2,1
    506c:	e0bffec5 	stb	r2,-5(fp)
                 break;
    5070:	00000b06 	br	50a0 <OSTimeTick+0xc8>

            case OS_TICK_STEP_WAIT:                        /* No,  waiting for uC/OS-View to set ...       */
                 step = OS_FALSE;                          /*      .. OSTickStepState to OS_TICK_STEP_ONCE */
    5074:	e03ffec5 	stb	zero,-5(fp)
                 break;
    5078:	00000906 	br	50a0 <OSTimeTick+0xc8>

            case OS_TICK_STEP_ONCE:                        /* Yes, process tick once and wait for next ... */
                 step            = OS_TRUE;                /*      ... step command from uC/OS-View        */
    507c:	00800044 	movi	r2,1
    5080:	e0bffec5 	stb	r2,-5(fp)
                 OSTickStepState = OS_TICK_STEP_WAIT;
    5084:	00800044 	movi	r2,1
    5088:	d0ab4c05 	stb	r2,-21200(gp)
                 break;
    508c:	00000406 	br	50a0 <OSTimeTick+0xc8>

            default:                                       /* Invalid case, correct situation              */
                 step            = OS_TRUE;
    5090:	00800044 	movi	r2,1
    5094:	e0bffec5 	stb	r2,-5(fp)
                 OSTickStepState = OS_TICK_STEP_DIS;
    5098:	d02b4c05 	stb	zero,-21200(gp)
                 break;
    509c:	0001883a 	nop
        }
        if (step == OS_FALSE) {                            /* Return if waiting for step command           */
    50a0:	e0bffec3 	ldbu	r2,-5(fp)
    50a4:	10005026 	beq	r2,zero,51e8 <OSTimeTick+0x210>
            return;
        }
#endif
        ptcb = OSTCBList;                                  /* Point at first TCB in TCB list               */
    50a8:	d0ab4b17 	ldw	r2,-21204(gp)
    50ac:	e0bfff15 	stw	r2,-4(fp)
        while (ptcb->OSTCBPrio != OS_TASK_IDLE_PRIO) {     /* Go through all TCBs in TCB list              */
    50b0:	00004706 	br	51d0 <OSTimeTick+0x1f8>
  NIOS2_READ_STATUS (context);
    50b4:	0005303a 	rdctl	r2,status
    50b8:	e0bffa15 	stw	r2,-24(fp)
  NIOS2_WRITE_STATUS (context & ~NIOS2_STATUS_PIE_MSK);
    50bc:	e0fffa17 	ldw	r3,-24(fp)
    50c0:	00bfff84 	movi	r2,-2
    50c4:	1884703a 	and	r2,r3,r2
    50c8:	1001703a 	wrctl	status,r2
  return context;
    50cc:	e0bffa17 	ldw	r2,-24(fp)
            OS_ENTER_CRITICAL();
    50d0:	e0bffd15 	stw	r2,-12(fp)
            if (ptcb->OSTCBDly != 0u) {                    /* No, Delayed or waiting for event with TO     */
    50d4:	e0bfff17 	ldw	r2,-4(fp)
    50d8:	10800d17 	ldw	r2,52(r2)
    50dc:	10003426 	beq	r2,zero,51b0 <OSTimeTick+0x1d8>
                ptcb->OSTCBDly--;                          /* Decrement nbr of ticks to end of delay       */
    50e0:	e0bfff17 	ldw	r2,-4(fp)
    50e4:	10800d17 	ldw	r2,52(r2)
    50e8:	10ffffc4 	addi	r3,r2,-1
    50ec:	e0bfff17 	ldw	r2,-4(fp)
    50f0:	10c00d15 	stw	r3,52(r2)
                if (ptcb->OSTCBDly == 0u) {                /* Check for timeout                            */
    50f4:	e0bfff17 	ldw	r2,-4(fp)
    50f8:	10800d17 	ldw	r2,52(r2)
    50fc:	10002c1e 	bne	r2,zero,51b0 <OSTimeTick+0x1d8>

                    if ((ptcb->OSTCBStat & OS_STAT_PEND_ANY) != OS_STAT_RDY) {
    5100:	e0bfff17 	ldw	r2,-4(fp)
    5104:	10800e03 	ldbu	r2,56(r2)
    5108:	10803fcc 	andi	r2,r2,255
    510c:	10800dcc 	andi	r2,r2,55
    5110:	10000b26 	beq	r2,zero,5140 <OSTimeTick+0x168>
                        ptcb->OSTCBStat  &= (INT8U)~(INT8U)OS_STAT_PEND_ANY;   /* Yes, Clear status flag   */
    5114:	e0bfff17 	ldw	r2,-4(fp)
    5118:	10c00e03 	ldbu	r3,56(r2)
    511c:	00bff204 	movi	r2,-56
    5120:	1884703a 	and	r2,r3,r2
    5124:	1007883a 	mov	r3,r2
    5128:	e0bfff17 	ldw	r2,-4(fp)
    512c:	10c00e05 	stb	r3,56(r2)
                        ptcb->OSTCBStatPend = OS_STAT_PEND_TO;                 /* Indicate PEND timeout    */
    5130:	e0bfff17 	ldw	r2,-4(fp)
    5134:	00c00044 	movi	r3,1
    5138:	10c00e45 	stb	r3,57(r2)
    513c:	00000206 	br	5148 <OSTimeTick+0x170>
                    } else {
                        ptcb->OSTCBStatPend = OS_STAT_PEND_OK;
    5140:	e0bfff17 	ldw	r2,-4(fp)
    5144:	10000e45 	stb	zero,57(r2)
                    }

                    if ((ptcb->OSTCBStat & OS_STAT_SUSPEND) == OS_STAT_RDY) {  /* Is task suspended?       */
    5148:	e0bfff17 	ldw	r2,-4(fp)
    514c:	10800e03 	ldbu	r2,56(r2)
    5150:	10803fcc 	andi	r2,r2,255
    5154:	1080020c 	andi	r2,r2,8
    5158:	1000151e 	bne	r2,zero,51b0 <OSTimeTick+0x1d8>
                        OSRdyGrp               |= ptcb->OSTCBBitY;             /* No,  Make ready          */
    515c:	e0bfff17 	ldw	r2,-4(fp)
    5160:	10c00f83 	ldbu	r3,62(r2)
    5164:	d0ab4543 	ldbu	r2,-21227(gp)
    5168:	1884b03a 	or	r2,r3,r2
    516c:	d0ab4545 	stb	r2,-21227(gp)
                        OSRdyTbl[ptcb->OSTCBY] |= ptcb->OSTCBBitX;
    5170:	e0bfff17 	ldw	r2,-4(fp)
    5174:	10800f03 	ldbu	r2,60(r2)
    5178:	10c03fcc 	andi	r3,r2,255
    517c:	d0ab4584 	addi	r2,gp,-21226
    5180:	1885883a 	add	r2,r3,r2
    5184:	11000003 	ldbu	r4,0(r2)
    5188:	e0bfff17 	ldw	r2,-4(fp)
    518c:	10800f43 	ldbu	r2,61(r2)
    5190:	e0ffff17 	ldw	r3,-4(fp)
    5194:	18c00f03 	ldbu	r3,60(r3)
    5198:	18c03fcc 	andi	r3,r3,255
    519c:	2084b03a 	or	r2,r4,r2
    51a0:	1009883a 	mov	r4,r2
    51a4:	d0ab4584 	addi	r2,gp,-21226
    51a8:	1885883a 	add	r2,r3,r2
    51ac:	11000005 	stb	r4,0(r2)
                        OS_TRACE_TASK_READY(ptcb);
                    }
                }
            }
            ptcb = ptcb->OSTCBNext;                        /* Point at next TCB in TCB list                */
    51b0:	e0bfff17 	ldw	r2,-4(fp)
    51b4:	10800517 	ldw	r2,20(r2)
    51b8:	e0bfff15 	stw	r2,-4(fp)
    51bc:	e0bffd17 	ldw	r2,-12(fp)
    51c0:	e0bff915 	stw	r2,-28(fp)
  NIOS2_WRITE_STATUS (context);
    51c4:	e0bff917 	ldw	r2,-28(fp)
    51c8:	1001703a 	wrctl	status,r2
}
    51cc:	0001883a 	nop
        while (ptcb->OSTCBPrio != OS_TASK_IDLE_PRIO) {     /* Go through all TCBs in TCB list              */
    51d0:	e0bfff17 	ldw	r2,-4(fp)
    51d4:	10800e83 	ldbu	r2,58(r2)
    51d8:	10803fcc 	andi	r2,r2,255
    51dc:	10800518 	cmpnei	r2,r2,20
    51e0:	103fb41e 	bne	r2,zero,50b4 <OSTimeTick+0xdc>
    51e4:	00000106 	br	51ec <OSTimeTick+0x214>
            return;
    51e8:	0001883a 	nop
            OS_EXIT_CRITICAL();
        }
    }
}
    51ec:	e037883a 	mov	sp,fp
    51f0:	dfc00117 	ldw	ra,4(sp)
    51f4:	df000017 	ldw	fp,0(sp)
    51f8:	dec00204 	addi	sp,sp,8
    51fc:	f800283a 	ret

00005200 <OSVersion>:
* Returns    : The version number of uC/OS-II multiplied by 10000.
*********************************************************************************************************
*/

INT16U  OSVersion (void)
{
    5200:	deffff04 	addi	sp,sp,-4
    5204:	df000015 	stw	fp,0(sp)
    5208:	d839883a 	mov	fp,sp
    return (OS_VERSION);
    520c:	009c9d04 	movi	r2,29300
}
    5210:	e037883a 	mov	sp,fp
    5214:	df000017 	ldw	fp,0(sp)
    5218:	dec00104 	addi	sp,sp,4
    521c:	f800283a 	ret

00005220 <OS_Dummy>:
*********************************************************************************************************
*/

#if OS_TASK_DEL_EN > 0u
void  OS_Dummy (void)
{
    5220:	deffff04 	addi	sp,sp,-4
    5224:	df000015 	stw	fp,0(sp)
    5228:	d839883a 	mov	fp,sp
}
    522c:	0001883a 	nop
    5230:	e037883a 	mov	sp,fp
    5234:	df000017 	ldw	fp,0(sp)
    5238:	dec00104 	addi	sp,sp,4
    523c:	f800283a 	ret

00005240 <OS_EventTaskRdy>:
#if (OS_EVENT_EN)
INT8U  OS_EventTaskRdy (OS_EVENT  *pevent,
                        void      *pmsg,
                        INT8U      msk,
                        INT8U      pend_stat)
{
    5240:	defff804 	addi	sp,sp,-32
    5244:	dfc00715 	stw	ra,28(sp)
    5248:	df000615 	stw	fp,24(sp)
    524c:	df000604 	addi	fp,sp,24
    5250:	e13ffd15 	stw	r4,-12(fp)
    5254:	e17ffc15 	stw	r5,-16(fp)
    5258:	3005883a 	mov	r2,r6
    525c:	3807883a 	mov	r3,r7
    5260:	e0bffb05 	stb	r2,-20(fp)
    5264:	1805883a 	mov	r2,r3
    5268:	e0bffa05 	stb	r2,-24(fp)
    OS_PRIO  *ptbl;
#endif


#if OS_LOWEST_PRIO <= 63u
    y    = OSUnMapTbl[pevent->OSEventGrp];              /* Find HPT waiting for message                */
    526c:	e0bffd17 	ldw	r2,-12(fp)
    5270:	10800283 	ldbu	r2,10(r2)
    5274:	10c03fcc 	andi	r3,r2,255
    5278:	00800074 	movhi	r2,1
    527c:	1885883a 	add	r2,r3,r2
    5280:	10ba4d03 	ldbu	r2,-5836(r2)
    5284:	e0bfffc5 	stb	r2,-1(fp)
    x    = OSUnMapTbl[pevent->OSEventTbl[y]];
    5288:	e0bfffc3 	ldbu	r2,-1(fp)
    528c:	e0fffd17 	ldw	r3,-12(fp)
    5290:	1885883a 	add	r2,r3,r2
    5294:	108002c3 	ldbu	r2,11(r2)
    5298:	10c03fcc 	andi	r3,r2,255
    529c:	00800074 	movhi	r2,1
    52a0:	1885883a 	add	r2,r3,r2
    52a4:	10ba4d03 	ldbu	r2,-5836(r2)
    52a8:	e0bfff85 	stb	r2,-2(fp)
    prio = (INT8U)((y << 3u) + x);                      /* Find priority of task getting the msg       */
    52ac:	e0bfffc3 	ldbu	r2,-1(fp)
    52b0:	100490fa 	slli	r2,r2,3
    52b4:	1007883a 	mov	r3,r2
    52b8:	e0bfff83 	ldbu	r2,-2(fp)
    52bc:	10c5883a 	add	r2,r2,r3
    52c0:	e0bfff45 	stb	r2,-3(fp)
        x = OSUnMapTbl[(OS_PRIO)(*ptbl >> 8u) & 0xFFu] + 8u;
    }
    prio = (INT8U)((y << 4u) + x);                      /* Find priority of task getting the msg       */
#endif

    ptcb                  =  OSTCBPrioTbl[prio];        /* Point to this task's OS_TCB                 */
    52c4:	e0bfff43 	ldbu	r2,-3(fp)
    52c8:	100690ba 	slli	r3,r2,2
    52cc:	008000b4 	movhi	r2,2
    52d0:	1885883a 	add	r2,r3,r2
    52d4:	10a66817 	ldw	r2,-26208(r2)
    52d8:	e0bffe15 	stw	r2,-8(fp)
    ptcb->OSTCBDly        =  0u;                        /* Prevent OSTimeTick() from readying task     */
    52dc:	e0bffe17 	ldw	r2,-8(fp)
    52e0:	10000d15 	stw	zero,52(r2)
#if ((OS_Q_EN > 0u) && (OS_MAX_QS > 0u)) || (OS_MBOX_EN > 0u)
    ptcb->OSTCBMsg        =  pmsg;                      /* Send message directly to waiting task       */
    52e4:	e0bffe17 	ldw	r2,-8(fp)
    52e8:	e0fffc17 	ldw	r3,-16(fp)
    52ec:	10c00a15 	stw	r3,40(r2)
#else
    pmsg                  =  pmsg;                      /* Prevent compiler warning if not used        */
#endif
    ptcb->OSTCBStat      &= (INT8U)~msk;                /* Clear bit associated with event type        */
    52f0:	e0bffe17 	ldw	r2,-8(fp)
    52f4:	10800e03 	ldbu	r2,56(r2)
    52f8:	e0fffb03 	ldbu	r3,-20(fp)
    52fc:	00c6303a 	nor	r3,zero,r3
    5300:	10c4703a 	and	r2,r2,r3
    5304:	1007883a 	mov	r3,r2
    5308:	e0bffe17 	ldw	r2,-8(fp)
    530c:	10c00e05 	stb	r3,56(r2)
    ptcb->OSTCBStatPend   =  pend_stat;                 /* Set pend status of post or abort            */
    5310:	e0bffe17 	ldw	r2,-8(fp)
    5314:	e0fffa03 	ldbu	r3,-24(fp)
    5318:	10c00e45 	stb	r3,57(r2)
                                                        /* See if task is ready (could be susp'd)      */
    if ((ptcb->OSTCBStat &   OS_STAT_SUSPEND) == OS_STAT_RDY) {
    531c:	e0bffe17 	ldw	r2,-8(fp)
    5320:	10800e03 	ldbu	r2,56(r2)
    5324:	10803fcc 	andi	r2,r2,255
    5328:	1080020c 	andi	r2,r2,8
    532c:	1000111e 	bne	r2,zero,5374 <OS_EventTaskRdy+0x134>
        OSRdyGrp         |=  ptcb->OSTCBBitY;           /* Put task in the ready to run list           */
    5330:	e0bffe17 	ldw	r2,-8(fp)
    5334:	10c00f83 	ldbu	r3,62(r2)
    5338:	d0ab4543 	ldbu	r2,-21227(gp)
    533c:	1884b03a 	or	r2,r3,r2
    5340:	d0ab4545 	stb	r2,-21227(gp)
        OSRdyTbl[y]      |=  ptcb->OSTCBBitX;
    5344:	e0ffffc3 	ldbu	r3,-1(fp)
    5348:	d0ab4584 	addi	r2,gp,-21226
    534c:	1885883a 	add	r2,r3,r2
    5350:	11000003 	ldbu	r4,0(r2)
    5354:	e0bffe17 	ldw	r2,-8(fp)
    5358:	10800f43 	ldbu	r2,61(r2)
    535c:	e0ffffc3 	ldbu	r3,-1(fp)
    5360:	2084b03a 	or	r2,r4,r2
    5364:	1009883a 	mov	r4,r2
    5368:	d0ab4584 	addi	r2,gp,-21226
    536c:	1885883a 	add	r2,r3,r2
    5370:	11000005 	stb	r4,0(r2)
        OS_TRACE_TASK_READY(ptcb);
    }

    OS_EventTaskRemove(ptcb, pevent);                   /* Remove this task from event   wait list     */
    5374:	e17ffd17 	ldw	r5,-12(fp)
    5378:	e13ffe17 	ldw	r4,-8(fp)
    537c:	000561c0 	call	561c <OS_EventTaskRemove>
#if (OS_EVENT_MULTI_EN > 0u)
    if (ptcb->OSTCBEventMultiPtr != (OS_EVENT **)0) {   /* Remove this task from events' wait lists    */
    5380:	e0bffe17 	ldw	r2,-8(fp)
    5384:	10800817 	ldw	r2,32(r2)
    5388:	10000a26 	beq	r2,zero,53b4 <OS_EventTaskRdy+0x174>
        OS_EventTaskRemoveMulti(ptcb, ptcb->OSTCBEventMultiPtr);
    538c:	e0bffe17 	ldw	r2,-8(fp)
    5390:	10800817 	ldw	r2,32(r2)
    5394:	100b883a 	mov	r5,r2
    5398:	e13ffe17 	ldw	r4,-8(fp)
    539c:	00056cc0 	call	56cc <OS_EventTaskRemoveMulti>
        ptcb->OSTCBEventMultiPtr  = (OS_EVENT **)0;     /* No longer pending on multi list             */
    53a0:	e0bffe17 	ldw	r2,-8(fp)
    53a4:	10000815 	stw	zero,32(r2)
        ptcb->OSTCBEventMultiRdy  = (OS_EVENT  *)pevent;/* Return event as first multi-pend event ready*/
    53a8:	e0bffe17 	ldw	r2,-8(fp)
    53ac:	e0fffd17 	ldw	r3,-12(fp)
    53b0:	10c00915 	stw	r3,36(r2)
    }
#endif

    return (prio);
    53b4:	e0bfff43 	ldbu	r2,-3(fp)
}
    53b8:	e037883a 	mov	sp,fp
    53bc:	dfc00117 	ldw	ra,4(sp)
    53c0:	df000017 	ldw	fp,0(sp)
    53c4:	dec00204 	addi	sp,sp,8
    53c8:	f800283a 	ret

000053cc <OS_EventTaskWait>:
* Note       : This function is INTERNAL to uC/OS-II and your application should not call it.
*********************************************************************************************************
*/
#if (OS_EVENT_EN)
void  OS_EventTaskWait (OS_EVENT *pevent)
{
    53cc:	defffd04 	addi	sp,sp,-12
    53d0:	df000215 	stw	fp,8(sp)
    53d4:	df000204 	addi	fp,sp,8
    53d8:	e13ffe15 	stw	r4,-8(fp)
    INT8U  y;


    OSTCBCur->OSTCBEventPtr               = pevent;                 /* Store ptr to ECB in TCB         */
    53dc:	d0ab4817 	ldw	r2,-21216(gp)
    53e0:	e0fffe17 	ldw	r3,-8(fp)
    53e4:	10c00715 	stw	r3,28(r2)

    pevent->OSEventTbl[OSTCBCur->OSTCBY] |= OSTCBCur->OSTCBBitX;    /* Put task in waiting list        */
    53e8:	d0ab4817 	ldw	r2,-21216(gp)
    53ec:	10800f03 	ldbu	r2,60(r2)
    53f0:	10803fcc 	andi	r2,r2,255
    53f4:	e0fffe17 	ldw	r3,-8(fp)
    53f8:	1885883a 	add	r2,r3,r2
    53fc:	110002c3 	ldbu	r4,11(r2)
    5400:	d0ab4817 	ldw	r2,-21216(gp)
    5404:	10c00f43 	ldbu	r3,61(r2)
    5408:	d0ab4817 	ldw	r2,-21216(gp)
    540c:	10800f03 	ldbu	r2,60(r2)
    5410:	10803fcc 	andi	r2,r2,255
    5414:	20c6b03a 	or	r3,r4,r3
    5418:	1809883a 	mov	r4,r3
    541c:	e0fffe17 	ldw	r3,-8(fp)
    5420:	1885883a 	add	r2,r3,r2
    5424:	110002c5 	stb	r4,11(r2)
    pevent->OSEventGrp                   |= OSTCBCur->OSTCBBitY;
    5428:	e0bffe17 	ldw	r2,-8(fp)
    542c:	10c00283 	ldbu	r3,10(r2)
    5430:	d0ab4817 	ldw	r2,-21216(gp)
    5434:	10800f83 	ldbu	r2,62(r2)
    5438:	1884b03a 	or	r2,r3,r2
    543c:	1007883a 	mov	r3,r2
    5440:	e0bffe17 	ldw	r2,-8(fp)
    5444:	10c00285 	stb	r3,10(r2)

    y             =  OSTCBCur->OSTCBY;            /* Task no longer ready                              */
    5448:	d0ab4817 	ldw	r2,-21216(gp)
    544c:	10800f03 	ldbu	r2,60(r2)
    5450:	e0bfffc5 	stb	r2,-1(fp)
    OSRdyTbl[y]  &= (OS_PRIO)~OSTCBCur->OSTCBBitX;
    5454:	e0ffffc3 	ldbu	r3,-1(fp)
    5458:	d0ab4584 	addi	r2,gp,-21226
    545c:	1885883a 	add	r2,r3,r2
    5460:	10800003 	ldbu	r2,0(r2)
    5464:	d0eb4817 	ldw	r3,-21216(gp)
    5468:	18c00f43 	ldbu	r3,61(r3)
    546c:	00c6303a 	nor	r3,zero,r3
    5470:	1809883a 	mov	r4,r3
    5474:	e0ffffc3 	ldbu	r3,-1(fp)
    5478:	1104703a 	and	r2,r2,r4
    547c:	1009883a 	mov	r4,r2
    5480:	d0ab4584 	addi	r2,gp,-21226
    5484:	1885883a 	add	r2,r3,r2
    5488:	11000005 	stb	r4,0(r2)
    OS_TRACE_TASK_SUSPENDED(OSTCBCur);
    if (OSRdyTbl[y] == 0u) {                      /* Clear event grp bit if this was only task pending */
    548c:	e0ffffc3 	ldbu	r3,-1(fp)
    5490:	d0ab4584 	addi	r2,gp,-21226
    5494:	1885883a 	add	r2,r3,r2
    5498:	10800003 	ldbu	r2,0(r2)
    549c:	10803fcc 	andi	r2,r2,255
    54a0:	1000071e 	bne	r2,zero,54c0 <OS_EventTaskWait+0xf4>
        OSRdyGrp &= (OS_PRIO)~OSTCBCur->OSTCBBitY;
    54a4:	d0ab4817 	ldw	r2,-21216(gp)
    54a8:	10800f83 	ldbu	r2,62(r2)
    54ac:	0084303a 	nor	r2,zero,r2
    54b0:	1007883a 	mov	r3,r2
    54b4:	d0ab4543 	ldbu	r2,-21227(gp)
    54b8:	1884703a 	and	r2,r3,r2
    54bc:	d0ab4545 	stb	r2,-21227(gp)
    }
}
    54c0:	0001883a 	nop
    54c4:	e037883a 	mov	sp,fp
    54c8:	df000017 	ldw	fp,0(sp)
    54cc:	dec00104 	addi	sp,sp,4
    54d0:	f800283a 	ret

000054d4 <OS_EventTaskWaitMulti>:
* Note       : This function is INTERNAL to uC/OS-II and your application should not call it.
*********************************************************************************************************
*/
#if ((OS_EVENT_EN) && (OS_EVENT_MULTI_EN > 0u))
void  OS_EventTaskWaitMulti (OS_EVENT **pevents_wait)
{
    54d4:	defffb04 	addi	sp,sp,-20
    54d8:	df000415 	stw	fp,16(sp)
    54dc:	df000404 	addi	fp,sp,16
    54e0:	e13ffc15 	stw	r4,-16(fp)
    OS_EVENT **pevents;
    OS_EVENT  *pevent;
    INT8U      y;


    OSTCBCur->OSTCBEventMultiPtr = (OS_EVENT **)pevents_wait;       /* Store ptr to ECBs in TCB        */
    54e4:	d0ab4817 	ldw	r2,-21216(gp)
    54e8:	e0fffc17 	ldw	r3,-16(fp)
    54ec:	10c00815 	stw	r3,32(r2)
    OSTCBCur->OSTCBEventMultiRdy = (OS_EVENT  *)0;
    54f0:	d0ab4817 	ldw	r2,-21216(gp)
    54f4:	10000915 	stw	zero,36(r2)

    pevents =  pevents_wait;
    54f8:	e0bffc17 	ldw	r2,-16(fp)
    54fc:	e0bfff15 	stw	r2,-4(fp)
    pevent  = *pevents;
    5500:	e0bfff17 	ldw	r2,-4(fp)
    5504:	10800017 	ldw	r2,0(r2)
    5508:	e0bffe15 	stw	r2,-8(fp)
    while (pevent != (OS_EVENT *)0) {                               /* Put task in waiting lists       */
    550c:	00001e06 	br	5588 <OS_EventTaskWaitMulti+0xb4>
        pevent->OSEventTbl[OSTCBCur->OSTCBY] |= OSTCBCur->OSTCBBitX;
    5510:	d0ab4817 	ldw	r2,-21216(gp)
    5514:	10800f03 	ldbu	r2,60(r2)
    5518:	10803fcc 	andi	r2,r2,255
    551c:	e0fffe17 	ldw	r3,-8(fp)
    5520:	1885883a 	add	r2,r3,r2
    5524:	110002c3 	ldbu	r4,11(r2)
    5528:	d0ab4817 	ldw	r2,-21216(gp)
    552c:	10c00f43 	ldbu	r3,61(r2)
    5530:	d0ab4817 	ldw	r2,-21216(gp)
    5534:	10800f03 	ldbu	r2,60(r2)
    5538:	10803fcc 	andi	r2,r2,255
    553c:	20c6b03a 	or	r3,r4,r3
    5540:	1809883a 	mov	r4,r3
    5544:	e0fffe17 	ldw	r3,-8(fp)
    5548:	1885883a 	add	r2,r3,r2
    554c:	110002c5 	stb	r4,11(r2)
        pevent->OSEventGrp                   |= OSTCBCur->OSTCBBitY;
    5550:	e0bffe17 	ldw	r2,-8(fp)
    5554:	10c00283 	ldbu	r3,10(r2)
    5558:	d0ab4817 	ldw	r2,-21216(gp)
    555c:	10800f83 	ldbu	r2,62(r2)
    5560:	1884b03a 	or	r2,r3,r2
    5564:	1007883a 	mov	r3,r2
    5568:	e0bffe17 	ldw	r2,-8(fp)
    556c:	10c00285 	stb	r3,10(r2)
        pevents++;
    5570:	e0bfff17 	ldw	r2,-4(fp)
    5574:	10800104 	addi	r2,r2,4
    5578:	e0bfff15 	stw	r2,-4(fp)
        pevent = *pevents;
    557c:	e0bfff17 	ldw	r2,-4(fp)
    5580:	10800017 	ldw	r2,0(r2)
    5584:	e0bffe15 	stw	r2,-8(fp)
    while (pevent != (OS_EVENT *)0) {                               /* Put task in waiting lists       */
    5588:	e0bffe17 	ldw	r2,-8(fp)
    558c:	103fe01e 	bne	r2,zero,5510 <OS_EventTaskWaitMulti+0x3c>
    }

    y             =  OSTCBCur->OSTCBY;            /* Task no longer ready                              */
    5590:	d0ab4817 	ldw	r2,-21216(gp)
    5594:	10800f03 	ldbu	r2,60(r2)
    5598:	e0bffdc5 	stb	r2,-9(fp)
    OSRdyTbl[y]  &= (OS_PRIO)~OSTCBCur->OSTCBBitX;
    559c:	e0fffdc3 	ldbu	r3,-9(fp)
    55a0:	d0ab4584 	addi	r2,gp,-21226
    55a4:	1885883a 	add	r2,r3,r2
    55a8:	10800003 	ldbu	r2,0(r2)
    55ac:	d0eb4817 	ldw	r3,-21216(gp)
    55b0:	18c00f43 	ldbu	r3,61(r3)
    55b4:	00c6303a 	nor	r3,zero,r3
    55b8:	1809883a 	mov	r4,r3
    55bc:	e0fffdc3 	ldbu	r3,-9(fp)
    55c0:	1104703a 	and	r2,r2,r4
    55c4:	1009883a 	mov	r4,r2
    55c8:	d0ab4584 	addi	r2,gp,-21226
    55cc:	1885883a 	add	r2,r3,r2
    55d0:	11000005 	stb	r4,0(r2)
    OS_TRACE_TASK_SUSPENDED(OSTCBCur);
    if (OSRdyTbl[y] == 0u) {                      /* Clear event grp bit if this was only task pending */
    55d4:	e0fffdc3 	ldbu	r3,-9(fp)
    55d8:	d0ab4584 	addi	r2,gp,-21226
    55dc:	1885883a 	add	r2,r3,r2
    55e0:	10800003 	ldbu	r2,0(r2)
    55e4:	10803fcc 	andi	r2,r2,255
    55e8:	1000071e 	bne	r2,zero,5608 <OS_EventTaskWaitMulti+0x134>
        OSRdyGrp &= (OS_PRIO)~OSTCBCur->OSTCBBitY;
    55ec:	d0ab4817 	ldw	r2,-21216(gp)
    55f0:	10800f83 	ldbu	r2,62(r2)
    55f4:	0084303a 	nor	r2,zero,r2
    55f8:	1007883a 	mov	r3,r2
    55fc:	d0ab4543 	ldbu	r2,-21227(gp)
    5600:	1884703a 	and	r2,r3,r2
    5604:	d0ab4545 	stb	r2,-21227(gp)
    }
}
    5608:	0001883a 	nop
    560c:	e037883a 	mov	sp,fp
    5610:	df000017 	ldw	fp,0(sp)
    5614:	dec00104 	addi	sp,sp,4
    5618:	f800283a 	ret

0000561c <OS_EventTaskRemove>:
*********************************************************************************************************
*/
#if (OS_EVENT_EN)
void  OS_EventTaskRemove (OS_TCB   *ptcb,
                          OS_EVENT *pevent)
{
    561c:	defffc04 	addi	sp,sp,-16
    5620:	df000315 	stw	fp,12(sp)
    5624:	df000304 	addi	fp,sp,12
    5628:	e13ffe15 	stw	r4,-8(fp)
    562c:	e17ffd15 	stw	r5,-12(fp)
    INT8U  y;


    y                       =  ptcb->OSTCBY;
    5630:	e0bffe17 	ldw	r2,-8(fp)
    5634:	10800f03 	ldbu	r2,60(r2)
    5638:	e0bfffc5 	stb	r2,-1(fp)
    pevent->OSEventTbl[y]  &= (OS_PRIO)~ptcb->OSTCBBitX;    /* Remove task from wait list              */
    563c:	e0bfffc3 	ldbu	r2,-1(fp)
    5640:	e0fffd17 	ldw	r3,-12(fp)
    5644:	1885883a 	add	r2,r3,r2
    5648:	10c002c3 	ldbu	r3,11(r2)
    564c:	e0bffe17 	ldw	r2,-8(fp)
    5650:	10800f43 	ldbu	r2,61(r2)
    5654:	0084303a 	nor	r2,zero,r2
    5658:	1009883a 	mov	r4,r2
    565c:	e0bfffc3 	ldbu	r2,-1(fp)
    5660:	1906703a 	and	r3,r3,r4
    5664:	1809883a 	mov	r4,r3
    5668:	e0fffd17 	ldw	r3,-12(fp)
    566c:	1885883a 	add	r2,r3,r2
    5670:	110002c5 	stb	r4,11(r2)
    if (pevent->OSEventTbl[y] == 0u) {
    5674:	e0bfffc3 	ldbu	r2,-1(fp)
    5678:	e0fffd17 	ldw	r3,-12(fp)
    567c:	1885883a 	add	r2,r3,r2
    5680:	108002c3 	ldbu	r2,11(r2)
    5684:	10803fcc 	andi	r2,r2,255
    5688:	1000091e 	bne	r2,zero,56b0 <OS_EventTaskRemove+0x94>
        pevent->OSEventGrp &= (OS_PRIO)~ptcb->OSTCBBitY;
    568c:	e0bffd17 	ldw	r2,-12(fp)
    5690:	10800283 	ldbu	r2,10(r2)
    5694:	e0fffe17 	ldw	r3,-8(fp)
    5698:	18c00f83 	ldbu	r3,62(r3)
    569c:	00c6303a 	nor	r3,zero,r3
    56a0:	10c4703a 	and	r2,r2,r3
    56a4:	1007883a 	mov	r3,r2
    56a8:	e0bffd17 	ldw	r2,-12(fp)
    56ac:	10c00285 	stb	r3,10(r2)
    }
    ptcb->OSTCBEventPtr     = (OS_EVENT  *)0;               /* Unlink OS_EVENT from OS_TCB             */
    56b0:	e0bffe17 	ldw	r2,-8(fp)
    56b4:	10000715 	stw	zero,28(r2)
}
    56b8:	0001883a 	nop
    56bc:	e037883a 	mov	sp,fp
    56c0:	df000017 	ldw	fp,0(sp)
    56c4:	dec00104 	addi	sp,sp,4
    56c8:	f800283a 	ret

000056cc <OS_EventTaskRemoveMulti>:
*********************************************************************************************************
*/
#if ((OS_EVENT_EN) && (OS_EVENT_MULTI_EN > 0u))
void  OS_EventTaskRemoveMulti (OS_TCB    *ptcb,
                               OS_EVENT **pevents_multi)
{
    56cc:	defffa04 	addi	sp,sp,-24
    56d0:	df000515 	stw	fp,20(sp)
    56d4:	df000504 	addi	fp,sp,20
    56d8:	e13ffc15 	stw	r4,-16(fp)
    56dc:	e17ffb15 	stw	r5,-20(fp)
    INT8U      y;
    OS_PRIO    bity;
    OS_PRIO    bitx;


    y       =  ptcb->OSTCBY;
    56e0:	e0bffc17 	ldw	r2,-16(fp)
    56e4:	10800f03 	ldbu	r2,60(r2)
    56e8:	e0bffdc5 	stb	r2,-9(fp)
    bity    =  ptcb->OSTCBBitY;
    56ec:	e0bffc17 	ldw	r2,-16(fp)
    56f0:	10800f83 	ldbu	r2,62(r2)
    56f4:	e0bffd85 	stb	r2,-10(fp)
    bitx    =  ptcb->OSTCBBitX;
    56f8:	e0bffc17 	ldw	r2,-16(fp)
    56fc:	10800f43 	ldbu	r2,61(r2)
    5700:	e0bffd45 	stb	r2,-11(fp)
    pevents =  pevents_multi;
    5704:	e0bffb17 	ldw	r2,-20(fp)
    5708:	e0bfff15 	stw	r2,-4(fp)
    pevent  = *pevents;
    570c:	e0bfff17 	ldw	r2,-4(fp)
    5710:	10800017 	ldw	r2,0(r2)
    5714:	e0bffe15 	stw	r2,-8(fp)
    while (pevent != (OS_EVENT *)0) {                   /* Remove task from all events' wait lists     */
    5718:	00002106 	br	57a0 <OS_EventTaskRemoveMulti+0xd4>
        pevent->OSEventTbl[y]  &= (OS_PRIO)~bitx;
    571c:	e0bffdc3 	ldbu	r2,-9(fp)
    5720:	e0fffe17 	ldw	r3,-8(fp)
    5724:	1885883a 	add	r2,r3,r2
    5728:	10c002c3 	ldbu	r3,11(r2)
    572c:	e0bffd43 	ldbu	r2,-11(fp)
    5730:	0084303a 	nor	r2,zero,r2
    5734:	1009883a 	mov	r4,r2
    5738:	e0bffdc3 	ldbu	r2,-9(fp)
    573c:	1906703a 	and	r3,r3,r4
    5740:	1809883a 	mov	r4,r3
    5744:	e0fffe17 	ldw	r3,-8(fp)
    5748:	1885883a 	add	r2,r3,r2
    574c:	110002c5 	stb	r4,11(r2)
        if (pevent->OSEventTbl[y] == 0u) {
    5750:	e0bffdc3 	ldbu	r2,-9(fp)
    5754:	e0fffe17 	ldw	r3,-8(fp)
    5758:	1885883a 	add	r2,r3,r2
    575c:	108002c3 	ldbu	r2,11(r2)
    5760:	10803fcc 	andi	r2,r2,255
    5764:	1000081e 	bne	r2,zero,5788 <OS_EventTaskRemoveMulti+0xbc>
            pevent->OSEventGrp &= (OS_PRIO)~bity;
    5768:	e0bffe17 	ldw	r2,-8(fp)
    576c:	10800283 	ldbu	r2,10(r2)
    5770:	e0fffd83 	ldbu	r3,-10(fp)
    5774:	00c6303a 	nor	r3,zero,r3
    5778:	10c4703a 	and	r2,r2,r3
    577c:	1007883a 	mov	r3,r2
    5780:	e0bffe17 	ldw	r2,-8(fp)
    5784:	10c00285 	stb	r3,10(r2)
        }
        pevents++;
    5788:	e0bfff17 	ldw	r2,-4(fp)
    578c:	10800104 	addi	r2,r2,4
    5790:	e0bfff15 	stw	r2,-4(fp)
        pevent = *pevents;
    5794:	e0bfff17 	ldw	r2,-4(fp)
    5798:	10800017 	ldw	r2,0(r2)
    579c:	e0bffe15 	stw	r2,-8(fp)
    while (pevent != (OS_EVENT *)0) {                   /* Remove task from all events' wait lists     */
    57a0:	e0bffe17 	ldw	r2,-8(fp)
    57a4:	103fdd1e 	bne	r2,zero,571c <OS_EventTaskRemoveMulti+0x50>
    }
}
    57a8:	0001883a 	nop
    57ac:	0001883a 	nop
    57b0:	e037883a 	mov	sp,fp
    57b4:	df000017 	ldw	fp,0(sp)
    57b8:	dec00104 	addi	sp,sp,4
    57bc:	f800283a 	ret

000057c0 <OS_EventWaitListInit>:
* Note       : This function is INTERNAL to uC/OS-II and your application should not call it.
*********************************************************************************************************
*/
#if (OS_EVENT_EN)
void  OS_EventWaitListInit (OS_EVENT *pevent)
{
    57c0:	defffd04 	addi	sp,sp,-12
    57c4:	df000215 	stw	fp,8(sp)
    57c8:	df000204 	addi	fp,sp,8
    57cc:	e13ffe15 	stw	r4,-8(fp)
    INT8U  i;


    pevent->OSEventGrp = 0u;                     /* No task waiting on event                           */
    57d0:	e0bffe17 	ldw	r2,-8(fp)
    57d4:	10000285 	stb	zero,10(r2)
    for (i = 0u; i < OS_EVENT_TBL_SIZE; i++) {
    57d8:	e03fffc5 	stb	zero,-1(fp)
    57dc:	00000706 	br	57fc <OS_EventWaitListInit+0x3c>
        pevent->OSEventTbl[i] = 0u;
    57e0:	e0bfffc3 	ldbu	r2,-1(fp)
    57e4:	e0fffe17 	ldw	r3,-8(fp)
    57e8:	1885883a 	add	r2,r3,r2
    57ec:	100002c5 	stb	zero,11(r2)
    for (i = 0u; i < OS_EVENT_TBL_SIZE; i++) {
    57f0:	e0bfffc3 	ldbu	r2,-1(fp)
    57f4:	10800044 	addi	r2,r2,1
    57f8:	e0bfffc5 	stb	r2,-1(fp)
    57fc:	e0bfffc3 	ldbu	r2,-1(fp)
    5800:	108000f0 	cmpltui	r2,r2,3
    5804:	103ff61e 	bne	r2,zero,57e0 <OS_EventWaitListInit+0x20>
    }
}
    5808:	0001883a 	nop
    580c:	0001883a 	nop
    5810:	e037883a 	mov	sp,fp
    5814:	df000017 	ldw	fp,0(sp)
    5818:	dec00104 	addi	sp,sp,4
    581c:	f800283a 	ret

00005820 <OS_InitEventList>:
* Returns    : none
*********************************************************************************************************
*/

static  void  OS_InitEventList (void)
{
    5820:	defffa04 	addi	sp,sp,-24
    5824:	dfc00515 	stw	ra,20(sp)
    5828:	df000415 	stw	fp,16(sp)
    582c:	df000404 	addi	fp,sp,16
    INT16U     ix_next;
    OS_EVENT  *pevent1;
    OS_EVENT  *pevent2;


    OS_MemClr((INT8U *)&OSEventTbl[0], sizeof(OSEventTbl)); /* Clear the event table                   */
    5830:	01412c04 	movi	r5,1200
    5834:	010000b4 	movhi	r4,2
    5838:	2120ec04 	addi	r4,r4,-31824
    583c:	0005bd40 	call	5bd4 <OS_MemClr>
    for (ix = 0u; ix < (OS_MAX_EVENTS - 1u); ix++) {        /* Init. list of free EVENT control blocks */
    5840:	e03fff8d 	sth	zero,-2(fp)
    5844:	00001b06 	br	58b4 <OS_InitEventList+0x94>
        ix_next = ix + 1u;
    5848:	e0bfff8b 	ldhu	r2,-2(fp)
    584c:	10800044 	addi	r2,r2,1
    5850:	e0bffd8d 	sth	r2,-10(fp)
        pevent1 = &OSEventTbl[ix];
    5854:	e0bfff8b 	ldhu	r2,-2(fp)
    5858:	10c00524 	muli	r3,r2,20
    585c:	008000b4 	movhi	r2,2
    5860:	10a0ec04 	addi	r2,r2,-31824
    5864:	1885883a 	add	r2,r3,r2
    5868:	e0bffe15 	stw	r2,-8(fp)
        pevent2 = &OSEventTbl[ix_next];
    586c:	e0bffd8b 	ldhu	r2,-10(fp)
    5870:	10c00524 	muli	r3,r2,20
    5874:	008000b4 	movhi	r2,2
    5878:	10a0ec04 	addi	r2,r2,-31824
    587c:	1885883a 	add	r2,r3,r2
    5880:	e0bffc15 	stw	r2,-16(fp)
        pevent1->OSEventType    = OS_EVENT_TYPE_UNUSED;
    5884:	e0bffe17 	ldw	r2,-8(fp)
    5888:	10000005 	stb	zero,0(r2)
        pevent1->OSEventPtr     = pevent2;
    588c:	e0bffe17 	ldw	r2,-8(fp)
    5890:	e0fffc17 	ldw	r3,-16(fp)
    5894:	10c00115 	stw	r3,4(r2)
#if OS_EVENT_NAME_EN > 0u
        pevent1->OSEventName    = (INT8U *)(void *)"?";     /* Unknown name                            */
    5898:	e0fffe17 	ldw	r3,-8(fp)
    589c:	00800074 	movhi	r2,1
    58a0:	10ba8d04 	addi	r2,r2,-5580
    58a4:	18800415 	stw	r2,16(r3)
    for (ix = 0u; ix < (OS_MAX_EVENTS - 1u); ix++) {        /* Init. list of free EVENT control blocks */
    58a8:	e0bfff8b 	ldhu	r2,-2(fp)
    58ac:	10800044 	addi	r2,r2,1
    58b0:	e0bfff8d 	sth	r2,-2(fp)
    58b4:	e0bfff8b 	ldhu	r2,-2(fp)
    58b8:	10800ef0 	cmpltui	r2,r2,59
    58bc:	103fe21e 	bne	r2,zero,5848 <OS_InitEventList+0x28>
#endif
    }
    pevent1                         = &OSEventTbl[ix];
    58c0:	e0bfff8b 	ldhu	r2,-2(fp)
    58c4:	10c00524 	muli	r3,r2,20
    58c8:	008000b4 	movhi	r2,2
    58cc:	10a0ec04 	addi	r2,r2,-31824
    58d0:	1885883a 	add	r2,r3,r2
    58d4:	e0bffe15 	stw	r2,-8(fp)
    pevent1->OSEventType            = OS_EVENT_TYPE_UNUSED;
    58d8:	e0bffe17 	ldw	r2,-8(fp)
    58dc:	10000005 	stb	zero,0(r2)
    pevent1->OSEventPtr             = (OS_EVENT *)0;
    58e0:	e0bffe17 	ldw	r2,-8(fp)
    58e4:	10000115 	stw	zero,4(r2)
#if OS_EVENT_NAME_EN > 0u
    pevent1->OSEventName            = (INT8U *)(void *)"?"; /* Unknown name                            */
    58e8:	e0fffe17 	ldw	r3,-8(fp)
    58ec:	00800074 	movhi	r2,1
    58f0:	10ba8d04 	addi	r2,r2,-5580
    58f4:	18800415 	stw	r2,16(r3)
#endif
    OSEventFreeList                 = &OSEventTbl[0];
    58f8:	008000b4 	movhi	r2,2
    58fc:	10a0ec04 	addi	r2,r2,-31824
    5900:	d0ab3f15 	stw	r2,-21252(gp)
#if OS_EVENT_NAME_EN > 0u
    OSEventFreeList->OSEventName    = (INT8U *)"?";         /* Unknown name                            */
#endif
#endif
#endif
}
    5904:	0001883a 	nop
    5908:	e037883a 	mov	sp,fp
    590c:	dfc00117 	ldw	ra,4(sp)
    5910:	df000017 	ldw	fp,0(sp)
    5914:	dec00204 	addi	sp,sp,8
    5918:	f800283a 	ret

0000591c <OS_InitMisc>:
* Returns    : none
*********************************************************************************************************
*/

static  void  OS_InitMisc (void)
{
    591c:	deffff04 	addi	sp,sp,-4
    5920:	df000015 	stw	fp,0(sp)
    5924:	d839883a 	mov	fp,sp
#if OS_TIME_GET_SET_EN > 0u
    OSTime                    = 0uL;                       /* Clear the 32-bit system clock            */
    5928:	d02b5015 	stw	zero,-21184(gp)
#endif

    OSIntNesting              = 0u;                        /* Clear the interrupt nesting counter      */
    592c:	d02b4445 	stb	zero,-21231(gp)
    OSLockNesting             = 0u;                        /* Clear the scheduling lock counter        */
    5930:	d02b4485 	stb	zero,-21230(gp)

    OSTaskCtr                 = 0u;                        /* Clear the number of tasks                */
    5934:	d02b4685 	stb	zero,-21222(gp)

    OSRunning                 = OS_FALSE;                  /* Indicate that multitasking not started   */
    5938:	d02b4645 	stb	zero,-21223(gp)

    OSCtxSwCtr                = 0u;                        /* Clear the context switch counter         */
    593c:	d02b3e15 	stw	zero,-21256(gp)
    OSIdleCtr                 = 0uL;                       /* Clear the 32-bit idle counter            */
    5940:	d02b4715 	stw	zero,-21220(gp)

#if OS_TASK_STAT_EN > 0u
    OSIdleCtrRun              = 0uL;
    5944:	d02b4315 	stw	zero,-21236(gp)
    OSIdleCtrMax              = 0uL;
    5948:	d02b4215 	stw	zero,-21240(gp)
    OSStatRdy                 = OS_FALSE;                  /* Statistic task is not ready              */
    594c:	d02b4405 	stb	zero,-21232(gp)
#ifdef OS_SAFETY_CRITICAL_IEC61508
    OSSafetyCriticalStartFlag = OS_FALSE;                  /* Still allow creation of objects          */
#endif

#if OS_TASK_REG_TBL_SIZE > 0u
    OSTaskRegNextAvailID      = 0u;                        /* Initialize the task register ID          */
    5950:	d02b4f05 	stb	zero,-21188(gp)
#endif
}
    5954:	0001883a 	nop
    5958:	e037883a 	mov	sp,fp
    595c:	df000017 	ldw	fp,0(sp)
    5960:	dec00104 	addi	sp,sp,4
    5964:	f800283a 	ret

00005968 <OS_InitRdyList>:
* Returns    : none
*********************************************************************************************************
*/

static  void  OS_InitRdyList (void)
{
    5968:	defffe04 	addi	sp,sp,-8
    596c:	df000115 	stw	fp,4(sp)
    5970:	df000104 	addi	fp,sp,4
    INT8U  i;


    OSRdyGrp      = 0u;                                    /* Clear the ready list                     */
    5974:	d02b4545 	stb	zero,-21227(gp)
    for (i = 0u; i < OS_RDY_TBL_SIZE; i++) {
    5978:	e03fffc5 	stb	zero,-1(fp)
    597c:	00000706 	br	599c <OS_InitRdyList+0x34>
        OSRdyTbl[i] = 0u;
    5980:	e0ffffc3 	ldbu	r3,-1(fp)
    5984:	d0ab4584 	addi	r2,gp,-21226
    5988:	1885883a 	add	r2,r3,r2
    598c:	10000005 	stb	zero,0(r2)
    for (i = 0u; i < OS_RDY_TBL_SIZE; i++) {
    5990:	e0bfffc3 	ldbu	r2,-1(fp)
    5994:	10800044 	addi	r2,r2,1
    5998:	e0bfffc5 	stb	r2,-1(fp)
    599c:	e0bfffc3 	ldbu	r2,-1(fp)
    59a0:	108000f0 	cmpltui	r2,r2,3
    59a4:	103ff61e 	bne	r2,zero,5980 <OS_InitRdyList+0x18>
    }

    OSPrioCur     = 0u;
    59a8:	d02b44c5 	stb	zero,-21229(gp)
    OSPrioHighRdy = 0u;
    59ac:	d02b4505 	stb	zero,-21228(gp)

    OSTCBHighRdy  = (OS_TCB *)0;
    59b0:	d02b4a15 	stw	zero,-21208(gp)
    OSTCBCur      = (OS_TCB *)0;
    59b4:	d02b4815 	stw	zero,-21216(gp)
}
    59b8:	0001883a 	nop
    59bc:	e037883a 	mov	sp,fp
    59c0:	df000017 	ldw	fp,0(sp)
    59c4:	dec00104 	addi	sp,sp,4
    59c8:	f800283a 	ret

000059cc <OS_InitTaskIdle>:
* Returns    : none
*********************************************************************************************************
*/

static  void  OS_InitTaskIdle (void)
{
    59cc:	defff804 	addi	sp,sp,-32
    59d0:	dfc00715 	stw	ra,28(sp)
    59d4:	df000615 	stw	fp,24(sp)
    59d8:	df000604 	addi	fp,sp,24
#endif


#if OS_TASK_CREATE_EXT_EN > 0u
    #if OS_STK_GROWTH == 1u
    (void)OSTaskCreateExt(OS_TaskIdle,
    59dc:	008000c4 	movi	r2,3
    59e0:	d8800415 	stw	r2,16(sp)
    59e4:	d8000315 	stw	zero,12(sp)
    59e8:	00808004 	movi	r2,512
    59ec:	d8800215 	stw	r2,8(sp)
    59f0:	008000b4 	movhi	r2,2
    59f4:	10a46804 	addi	r2,r2,-28256
    59f8:	d8800115 	stw	r2,4(sp)
    59fc:	00bfffd4 	movui	r2,65535
    5a00:	d8800015 	stw	r2,0(sp)
    5a04:	01c00504 	movi	r7,20
    5a08:	018000b4 	movhi	r6,2
    5a0c:	31a66704 	addi	r6,r6,-26212
    5a10:	000b883a 	mov	r5,zero
    5a14:	01000034 	movhi	r4,0
    5a18:	21178d04 	addi	r4,r4,24116
    5a1c:	000a5b00 	call	a5b0 <OSTaskCreateExt>
                       OS_TASK_IDLE_PRIO);
    #endif
#endif

#if OS_TASK_NAME_EN > 0u
    OSTaskNameSet(OS_TASK_IDLE_PRIO, (INT8U *)(void *)"uC/OS-II Idle", &err);
    5a20:	e0bfffc4 	addi	r2,fp,-1
    5a24:	100d883a 	mov	r6,r2
    5a28:	01400074 	movhi	r5,1
    5a2c:	297a8e04 	addi	r5,r5,-5576
    5a30:	01000504 	movi	r4,20
    5a34:	000adbc0 	call	adbc <OSTaskNameSet>
#endif
}
    5a38:	0001883a 	nop
    5a3c:	e037883a 	mov	sp,fp
    5a40:	dfc00117 	ldw	ra,4(sp)
    5a44:	df000017 	ldw	fp,0(sp)
    5a48:	dec00204 	addi	sp,sp,8
    5a4c:	f800283a 	ret

00005a50 <OS_InitTaskStat>:
*********************************************************************************************************
*/

#if OS_TASK_STAT_EN > 0u
static  void  OS_InitTaskStat (void)
{
    5a50:	defff804 	addi	sp,sp,-32
    5a54:	dfc00715 	stw	ra,28(sp)
    5a58:	df000615 	stw	fp,24(sp)
    5a5c:	df000604 	addi	fp,sp,24
#endif


#if OS_TASK_CREATE_EXT_EN > 0u
    #if OS_STK_GROWTH == 1u
    (void)OSTaskCreateExt(OS_TaskStat,
    5a60:	008000c4 	movi	r2,3
    5a64:	d8800415 	stw	r2,16(sp)
    5a68:	d8000315 	stw	zero,12(sp)
    5a6c:	00808004 	movi	r2,512
    5a70:	d8800215 	stw	r2,8(sp)
    5a74:	008000b4 	movhi	r2,2
    5a78:	10a26804 	addi	r2,r2,-30304
    5a7c:	d8800115 	stw	r2,4(sp)
    5a80:	00bfff94 	movui	r2,65534
    5a84:	d8800015 	stw	r2,0(sp)
    5a88:	01c004c4 	movi	r7,19
    5a8c:	018000b4 	movhi	r6,2
    5a90:	31a46704 	addi	r6,r6,-28260
    5a94:	000b883a 	mov	r5,zero
    5a98:	01000034 	movhi	r4,0
    5a9c:	2117a504 	addi	r4,r4,24212
    5aa0:	000a5b00 	call	a5b0 <OSTaskCreateExt>
                       OS_TASK_STAT_PRIO);                             /* One higher than the idle task  */
    #endif
#endif

#if OS_TASK_NAME_EN > 0u
    OSTaskNameSet(OS_TASK_STAT_PRIO, (INT8U *)(void *)"uC/OS-II Stat", &err);
    5aa4:	e0bfffc4 	addi	r2,fp,-1
    5aa8:	100d883a 	mov	r6,r2
    5aac:	01400074 	movhi	r5,1
    5ab0:	297a9204 	addi	r5,r5,-5560
    5ab4:	010004c4 	movi	r4,19
    5ab8:	000adbc0 	call	adbc <OSTaskNameSet>
#endif
}
    5abc:	0001883a 	nop
    5ac0:	e037883a 	mov	sp,fp
    5ac4:	dfc00117 	ldw	ra,4(sp)
    5ac8:	df000017 	ldw	fp,0(sp)
    5acc:	dec00204 	addi	sp,sp,8
    5ad0:	f800283a 	ret

00005ad4 <OS_InitTCBList>:
* Returns    : none
*********************************************************************************************************
*/

static  void  OS_InitTCBList (void)
{
    5ad4:	defffa04 	addi	sp,sp,-24
    5ad8:	dfc00515 	stw	ra,20(sp)
    5adc:	df000415 	stw	fp,16(sp)
    5ae0:	df000404 	addi	fp,sp,16
    INT8U    ix_next;
    OS_TCB  *ptcb1;
    OS_TCB  *ptcb2;


    OS_MemClr((INT8U *)&OSTCBTbl[0],     sizeof(OSTCBTbl));      /* Clear all the TCBs                 */
    5ae4:	01428804 	movi	r5,2592
    5ae8:	010000b4 	movhi	r4,2
    5aec:	21267d04 	addi	r4,r4,-26124
    5af0:	0005bd40 	call	5bd4 <OS_MemClr>
    OS_MemClr((INT8U *)&OSTCBPrioTbl[0], sizeof(OSTCBPrioTbl));  /* Clear the priority table           */
    5af4:	01401504 	movi	r5,84
    5af8:	010000b4 	movhi	r4,2
    5afc:	21266804 	addi	r4,r4,-26208
    5b00:	0005bd40 	call	5bd4 <OS_MemClr>
    for (ix = 0u; ix < (OS_MAX_TASKS + OS_N_SYS_TASKS - 1u); ix++) {    /* Init. list of free TCBs     */
    5b04:	e03fffc5 	stb	zero,-1(fp)
    5b08:	00001906 	br	5b70 <OS_InitTCBList+0x9c>
        ix_next =  ix + 1u;
    5b0c:	e0bfffc3 	ldbu	r2,-1(fp)
    5b10:	10800044 	addi	r2,r2,1
    5b14:	e0bffdc5 	stb	r2,-9(fp)
        ptcb1   = &OSTCBTbl[ix];
    5b18:	e0bfffc3 	ldbu	r2,-1(fp)
    5b1c:	10c03624 	muli	r3,r2,216
    5b20:	008000b4 	movhi	r2,2
    5b24:	10a67d04 	addi	r2,r2,-26124
    5b28:	1885883a 	add	r2,r3,r2
    5b2c:	e0bffe15 	stw	r2,-8(fp)
        ptcb2   = &OSTCBTbl[ix_next];
    5b30:	e0bffdc3 	ldbu	r2,-9(fp)
    5b34:	10c03624 	muli	r3,r2,216
    5b38:	008000b4 	movhi	r2,2
    5b3c:	10a67d04 	addi	r2,r2,-26124
    5b40:	1885883a 	add	r2,r3,r2
    5b44:	e0bffc15 	stw	r2,-16(fp)
        ptcb1->OSTCBNext = ptcb2;
    5b48:	e0bffe17 	ldw	r2,-8(fp)
    5b4c:	e0fffc17 	ldw	r3,-16(fp)
    5b50:	10c00515 	stw	r3,20(r2)
#if OS_TASK_NAME_EN > 0u
        ptcb1->OSTCBTaskName = (INT8U *)(void *)"?";             /* Unknown name                       */
    5b54:	e0fffe17 	ldw	r3,-8(fp)
    5b58:	00800074 	movhi	r2,1
    5b5c:	10ba8d04 	addi	r2,r2,-5580
    5b60:	18801515 	stw	r2,84(r3)
    for (ix = 0u; ix < (OS_MAX_TASKS + OS_N_SYS_TASKS - 1u); ix++) {    /* Init. list of free TCBs     */
    5b64:	e0bfffc3 	ldbu	r2,-1(fp)
    5b68:	10800044 	addi	r2,r2,1
    5b6c:	e0bfffc5 	stb	r2,-1(fp)
    5b70:	e0bfffc3 	ldbu	r2,-1(fp)
    5b74:	108002f0 	cmpltui	r2,r2,11
    5b78:	103fe41e 	bne	r2,zero,5b0c <OS_InitTCBList+0x38>
#endif
    }
    ptcb1                   = &OSTCBTbl[ix];
    5b7c:	e0bfffc3 	ldbu	r2,-1(fp)
    5b80:	10c03624 	muli	r3,r2,216
    5b84:	008000b4 	movhi	r2,2
    5b88:	10a67d04 	addi	r2,r2,-26124
    5b8c:	1885883a 	add	r2,r3,r2
    5b90:	e0bffe15 	stw	r2,-8(fp)
    ptcb1->OSTCBNext        = (OS_TCB *)0;                       /* Last OS_TCB                        */
    5b94:	e0bffe17 	ldw	r2,-8(fp)
    5b98:	10000515 	stw	zero,20(r2)
#if OS_TASK_NAME_EN > 0u
    ptcb1->OSTCBTaskName    = (INT8U *)(void *)"?";              /* Unknown name                       */
    5b9c:	e0fffe17 	ldw	r3,-8(fp)
    5ba0:	00800074 	movhi	r2,1
    5ba4:	10ba8d04 	addi	r2,r2,-5580
    5ba8:	18801515 	stw	r2,84(r3)
#endif
    OSTCBList               = (OS_TCB *)0;                       /* TCB lists initializations          */
    5bac:	d02b4b15 	stw	zero,-21204(gp)
    OSTCBFreeList           = &OSTCBTbl[0];
    5bb0:	008000b4 	movhi	r2,2
    5bb4:	10a67d04 	addi	r2,r2,-26124
    5bb8:	d0ab4915 	stw	r2,-21212(gp)
}
    5bbc:	0001883a 	nop
    5bc0:	e037883a 	mov	sp,fp
    5bc4:	dfc00117 	ldw	ra,4(sp)
    5bc8:	df000017 	ldw	fp,0(sp)
    5bcc:	dec00204 	addi	sp,sp,8
    5bd0:	f800283a 	ret

00005bd4 <OS_MemClr>:
*********************************************************************************************************
*/

void  OS_MemClr (INT8U  *pdest,
                 INT16U  size)
{
    5bd4:	defffd04 	addi	sp,sp,-12
    5bd8:	df000215 	stw	fp,8(sp)
    5bdc:	df000204 	addi	fp,sp,8
    5be0:	e13fff15 	stw	r4,-4(fp)
    5be4:	2805883a 	mov	r2,r5
    5be8:	e0bffe0d 	sth	r2,-8(fp)
    while (size > 0u) {
    5bec:	00000706 	br	5c0c <OS_MemClr+0x38>
        *pdest++ = (INT8U)0;
    5bf0:	e0bfff17 	ldw	r2,-4(fp)
    5bf4:	10c00044 	addi	r3,r2,1
    5bf8:	e0ffff15 	stw	r3,-4(fp)
    5bfc:	10000005 	stb	zero,0(r2)
        size--;
    5c00:	e0bffe0b 	ldhu	r2,-8(fp)
    5c04:	10bfffc4 	addi	r2,r2,-1
    5c08:	e0bffe0d 	sth	r2,-8(fp)
    while (size > 0u) {
    5c0c:	e0bffe0b 	ldhu	r2,-8(fp)
    5c10:	103ff71e 	bne	r2,zero,5bf0 <OS_MemClr+0x1c>
    }
}
    5c14:	0001883a 	nop
    5c18:	0001883a 	nop
    5c1c:	e037883a 	mov	sp,fp
    5c20:	df000017 	ldw	fp,0(sp)
    5c24:	dec00104 	addi	sp,sp,4
    5c28:	f800283a 	ret

00005c2c <OS_MemCopy>:
*/

void  OS_MemCopy (INT8U  *pdest,
                  INT8U  *psrc,
                  INT16U  size)
{
    5c2c:	defffc04 	addi	sp,sp,-16
    5c30:	df000315 	stw	fp,12(sp)
    5c34:	df000304 	addi	fp,sp,12
    5c38:	e13fff15 	stw	r4,-4(fp)
    5c3c:	e17ffe15 	stw	r5,-8(fp)
    5c40:	3005883a 	mov	r2,r6
    5c44:	e0bffd0d 	sth	r2,-12(fp)
    while (size > 0u) {
    5c48:	00000b06 	br	5c78 <OS_MemCopy+0x4c>
        *pdest++ = *psrc++;
    5c4c:	e0fffe17 	ldw	r3,-8(fp)
    5c50:	18800044 	addi	r2,r3,1
    5c54:	e0bffe15 	stw	r2,-8(fp)
    5c58:	e0bfff17 	ldw	r2,-4(fp)
    5c5c:	11000044 	addi	r4,r2,1
    5c60:	e13fff15 	stw	r4,-4(fp)
    5c64:	18c00003 	ldbu	r3,0(r3)
    5c68:	10c00005 	stb	r3,0(r2)
        size--;
    5c6c:	e0bffd0b 	ldhu	r2,-12(fp)
    5c70:	10bfffc4 	addi	r2,r2,-1
    5c74:	e0bffd0d 	sth	r2,-12(fp)
    while (size > 0u) {
    5c78:	e0bffd0b 	ldhu	r2,-12(fp)
    5c7c:	103ff31e 	bne	r2,zero,5c4c <OS_MemCopy+0x20>
    }
}
    5c80:	0001883a 	nop
    5c84:	0001883a 	nop
    5c88:	e037883a 	mov	sp,fp
    5c8c:	df000017 	ldw	fp,0(sp)
    5c90:	dec00104 	addi	sp,sp,4
    5c94:	f800283a 	ret

00005c98 <OS_Sched>:
*              2) Rescheduling is prevented when the scheduler is locked (see OS_SchedLock())
*********************************************************************************************************
*/

void  OS_Sched (void)
{
    5c98:	defffb04 	addi	sp,sp,-20
    5c9c:	dfc00415 	stw	ra,16(sp)
    5ca0:	df000315 	stw	fp,12(sp)
    5ca4:	df000304 	addi	fp,sp,12
#if OS_CRITICAL_METHOD == 3u                           /* Allocate storage for CPU status register     */
    OS_CPU_SR  cpu_sr = 0u;
    5ca8:	e03fff15 	stw	zero,-4(fp)
  NIOS2_READ_STATUS (context);
    5cac:	0005303a 	rdctl	r2,status
    5cb0:	e0bffe15 	stw	r2,-8(fp)
  NIOS2_WRITE_STATUS (context & ~NIOS2_STATUS_PIE_MSK);
    5cb4:	e0fffe17 	ldw	r3,-8(fp)
    5cb8:	00bfff84 	movi	r2,-2
    5cbc:	1884703a 	and	r2,r3,r2
    5cc0:	1001703a 	wrctl	status,r2
  return context;
    5cc4:	e0bffe17 	ldw	r2,-8(fp)
#endif



    OS_ENTER_CRITICAL();
    5cc8:	e0bfff15 	stw	r2,-4(fp)
    if (OSIntNesting == 0u) {                          /* Schedule only if all ISRs done and ...       */
    5ccc:	d0ab4443 	ldbu	r2,-21231(gp)
    5cd0:	10803fcc 	andi	r2,r2,255
    5cd4:	1000181e 	bne	r2,zero,5d38 <OS_Sched+0xa0>
        if (OSLockNesting == 0u) {                     /* ... scheduler is not locked                  */
    5cd8:	d0ab4483 	ldbu	r2,-21230(gp)
    5cdc:	10803fcc 	andi	r2,r2,255
    5ce0:	1000151e 	bne	r2,zero,5d38 <OS_Sched+0xa0>
            OS_SchedNew();
    5ce4:	0005d640 	call	5d64 <OS_SchedNew>
            OSTCBHighRdy = OSTCBPrioTbl[OSPrioHighRdy];
    5ce8:	d0ab4503 	ldbu	r2,-21228(gp)
    5cec:	10803fcc 	andi	r2,r2,255
    5cf0:	100690ba 	slli	r3,r2,2
    5cf4:	008000b4 	movhi	r2,2
    5cf8:	1885883a 	add	r2,r3,r2
    5cfc:	10a66817 	ldw	r2,-26208(r2)
    5d00:	d0ab4a15 	stw	r2,-21208(gp)
            if (OSPrioHighRdy != OSPrioCur) {          /* No Ctx Sw if current task is highest rdy     */
    5d04:	d0eb4503 	ldbu	r3,-21228(gp)
    5d08:	d0ab44c3 	ldbu	r2,-21229(gp)
    5d0c:	18c03fcc 	andi	r3,r3,255
    5d10:	10803fcc 	andi	r2,r2,255
    5d14:	18800826 	beq	r3,r2,5d38 <OS_Sched+0xa0>
#if OS_TASK_PROFILE_EN > 0u
                OSTCBHighRdy->OSTCBCtxSwCtr++;         /* Inc. # of context switches to this task      */
    5d18:	d0ab4a17 	ldw	r2,-21208(gp)
    5d1c:	10c01017 	ldw	r3,64(r2)
    5d20:	18c00044 	addi	r3,r3,1
    5d24:	10c01015 	stw	r3,64(r2)
#endif
                OSCtxSwCtr++;                          /* Increment context switch counter             */
    5d28:	d0ab3e17 	ldw	r2,-21256(gp)
    5d2c:	10800044 	addi	r2,r2,1
    5d30:	d0ab3e15 	stw	r2,-21256(gp)
#if defined(OS_TLS_TBL_SIZE) && (OS_TLS_TBL_SIZE > 0u)
                OS_TLS_TaskSw();
#endif
#endif

                OS_TASK_SW();                          /* Perform a context switch                     */
    5d34:	000dd9c0 	call	dd9c <OSCtxSw>
    5d38:	e0bfff17 	ldw	r2,-4(fp)
    5d3c:	e0bffd15 	stw	r2,-12(fp)
  NIOS2_WRITE_STATUS (context);
    5d40:	e0bffd17 	ldw	r2,-12(fp)
    5d44:	1001703a 	wrctl	status,r2
}
    5d48:	0001883a 	nop
            }
        }
    }
    OS_EXIT_CRITICAL();
}
    5d4c:	0001883a 	nop
    5d50:	e037883a 	mov	sp,fp
    5d54:	dfc00117 	ldw	ra,4(sp)
    5d58:	df000017 	ldw	fp,0(sp)
    5d5c:	dec00204 	addi	sp,sp,8
    5d60:	f800283a 	ret

00005d64 <OS_SchedNew>:
*              2) Interrupts are assumed to be disabled when this function is called.
*********************************************************************************************************
*/

static  void  OS_SchedNew (void)
{
    5d64:	defffe04 	addi	sp,sp,-8
    5d68:	df000115 	stw	fp,4(sp)
    5d6c:	df000104 	addi	fp,sp,4
#if OS_LOWEST_PRIO <= 63u                        /* See if we support up to 64 tasks                   */
    INT8U   y;


    y             = OSUnMapTbl[OSRdyGrp];
    5d70:	d0ab4543 	ldbu	r2,-21227(gp)
    5d74:	10c03fcc 	andi	r3,r2,255
    5d78:	00800074 	movhi	r2,1
    5d7c:	1885883a 	add	r2,r3,r2
    5d80:	10ba4d03 	ldbu	r2,-5836(r2)
    5d84:	e0bfffc5 	stb	r2,-1(fp)
    OSPrioHighRdy = (INT8U)((y << 3u) + OSUnMapTbl[OSRdyTbl[y]]);
    5d88:	e0bfffc3 	ldbu	r2,-1(fp)
    5d8c:	100490fa 	slli	r2,r2,3
    5d90:	1009883a 	mov	r4,r2
    5d94:	e0ffffc3 	ldbu	r3,-1(fp)
    5d98:	d0ab4584 	addi	r2,gp,-21226
    5d9c:	1885883a 	add	r2,r3,r2
    5da0:	10800003 	ldbu	r2,0(r2)
    5da4:	10c03fcc 	andi	r3,r2,255
    5da8:	00800074 	movhi	r2,1
    5dac:	1885883a 	add	r2,r3,r2
    5db0:	10ba4d03 	ldbu	r2,-5836(r2)
    5db4:	2085883a 	add	r2,r4,r2
    5db8:	d0ab4505 	stb	r2,-21228(gp)
        OSPrioHighRdy = (INT8U)((y << 4u) + OSUnMapTbl[(*ptbl & 0xFFu)]);
    } else {
        OSPrioHighRdy = (INT8U)((y << 4u) + OSUnMapTbl[(OS_PRIO)(*ptbl >> 8u) & 0xFFu] + 8u);
    }
#endif
}
    5dbc:	0001883a 	nop
    5dc0:	e037883a 	mov	sp,fp
    5dc4:	df000017 	ldw	fp,0(sp)
    5dc8:	dec00104 	addi	sp,sp,4
    5dcc:	f800283a 	ret

00005dd0 <OS_StrLen>:
*********************************************************************************************************
*/

#if (OS_EVENT_NAME_EN > 0u) || (OS_FLAG_NAME_EN > 0u) || (OS_MEM_NAME_EN > 0u) || (OS_TASK_NAME_EN > 0u) || (OS_TMR_CFG_NAME_EN > 0u)
INT8U  OS_StrLen (INT8U *psrc)
{
    5dd0:	defffd04 	addi	sp,sp,-12
    5dd4:	df000215 	stw	fp,8(sp)
    5dd8:	df000204 	addi	fp,sp,8
    5ddc:	e13ffe15 	stw	r4,-8(fp)
    INT8U  len;


#if OS_ARG_CHK_EN > 0u
    if (psrc == (INT8U *)0) {
    5de0:	e0bffe17 	ldw	r2,-8(fp)
    5de4:	1000021e 	bne	r2,zero,5df0 <OS_StrLen+0x20>
        return (0u);
    5de8:	0005883a 	mov	r2,zero
    5dec:	00000d06 	br	5e24 <OS_StrLen+0x54>
    }
#endif

    len = 0u;
    5df0:	e03fffc5 	stb	zero,-1(fp)
    while (*psrc != OS_ASCII_NUL) {
    5df4:	00000606 	br	5e10 <OS_StrLen+0x40>
        psrc++;
    5df8:	e0bffe17 	ldw	r2,-8(fp)
    5dfc:	10800044 	addi	r2,r2,1
    5e00:	e0bffe15 	stw	r2,-8(fp)
        len++;
    5e04:	e0bfffc3 	ldbu	r2,-1(fp)
    5e08:	10800044 	addi	r2,r2,1
    5e0c:	e0bfffc5 	stb	r2,-1(fp)
    while (*psrc != OS_ASCII_NUL) {
    5e10:	e0bffe17 	ldw	r2,-8(fp)
    5e14:	10800003 	ldbu	r2,0(r2)
    5e18:	10803fcc 	andi	r2,r2,255
    5e1c:	103ff61e 	bne	r2,zero,5df8 <OS_StrLen+0x28>
    }
    return (len);
    5e20:	e0bfffc3 	ldbu	r2,-1(fp)
}
    5e24:	e037883a 	mov	sp,fp
    5e28:	df000017 	ldw	fp,0(sp)
    5e2c:	dec00104 	addi	sp,sp,4
    5e30:	f800283a 	ret

00005e34 <OS_TaskIdle>:
*                 power.
*********************************************************************************************************
*/

void  OS_TaskIdle (void *p_arg)
{
    5e34:	defffa04 	addi	sp,sp,-24
    5e38:	dfc00515 	stw	ra,20(sp)
    5e3c:	df000415 	stw	fp,16(sp)
    5e40:	df000404 	addi	fp,sp,16
    5e44:	e13ffc15 	stw	r4,-16(fp)
#if OS_CRITICAL_METHOD == 3u                     /* Allocate storage for CPU status register           */
    OS_CPU_SR  cpu_sr = 0u;
    5e48:	e03fff15 	stw	zero,-4(fp)
  NIOS2_READ_STATUS (context);
    5e4c:	0005303a 	rdctl	r2,status
    5e50:	e0bffd15 	stw	r2,-12(fp)
  NIOS2_WRITE_STATUS (context & ~NIOS2_STATUS_PIE_MSK);
    5e54:	e0fffd17 	ldw	r3,-12(fp)
    5e58:	00bfff84 	movi	r2,-2
    5e5c:	1884703a 	and	r2,r3,r2
    5e60:	1001703a 	wrctl	status,r2
  return context;
    5e64:	e0bffd17 	ldw	r2,-12(fp)
#endif

    (void)p_arg;                                 /* Prevent compiler warning for not using 'p_arg'     */
    for (;;) {
        OS_ENTER_CRITICAL();
    5e68:	e0bfff15 	stw	r2,-4(fp)
        OSIdleCtr++;
    5e6c:	d0ab4717 	ldw	r2,-21220(gp)
    5e70:	10800044 	addi	r2,r2,1
    5e74:	d0ab4715 	stw	r2,-21220(gp)
    5e78:	e0bfff17 	ldw	r2,-4(fp)
    5e7c:	e0bffe15 	stw	r2,-8(fp)
  NIOS2_WRITE_STATUS (context);
    5e80:	e0bffe17 	ldw	r2,-8(fp)
    5e84:	1001703a 	wrctl	status,r2
}
    5e88:	0001883a 	nop
        OS_EXIT_CRITICAL();
        OSTaskIdleHook();                        /* Call user definable HOOK                           */
    5e8c:	000e0a00 	call	e0a0 <OSTaskIdleHook>
        OS_ENTER_CRITICAL();
    5e90:	003fee06 	br	5e4c <OS_TaskIdle+0x18>

00005e94 <OS_TaskStat>:
*********************************************************************************************************
*/

#if OS_TASK_STAT_EN > 0u
void  OS_TaskStat (void *p_arg)
{
    5e94:	defff504 	addi	sp,sp,-44
    5e98:	dfc00a15 	stw	ra,40(sp)
    5e9c:	df000915 	stw	fp,36(sp)
    5ea0:	df000904 	addi	fp,sp,36
    5ea4:	e13ff715 	stw	r4,-36(fp)
    INT8S  usage;
#if OS_CRITICAL_METHOD == 3u                     /* Allocate storage for CPU status register           */
    OS_CPU_SR  cpu_sr = 0u;
    5ea8:	e03fff15 	stw	zero,-4(fp)
#endif



    p_arg = p_arg;                               /* Prevent compiler warning for not using 'p_arg'     */
    while (OSStatRdy == OS_FALSE) {
    5eac:	00000206 	br	5eb8 <OS_TaskStat+0x24>
        OSTimeDly(2u * OS_TICKS_PER_SEC / 10u);  /* Wait until statistic task is ready                 */
    5eb0:	01003204 	movi	r4,200
    5eb4:	000b9300 	call	b930 <OSTimeDly>
    while (OSStatRdy == OS_FALSE) {
    5eb8:	d0ab4403 	ldbu	r2,-21232(gp)
    5ebc:	10803fcc 	andi	r2,r2,255
    5ec0:	103ffb26 	beq	r2,zero,5eb0 <OS_TaskStat+0x1c>
    }
    OSIdleCtrMax /= 100uL;
    5ec4:	d0ab4217 	ldw	r2,-21240(gp)
    5ec8:	01401904 	movi	r5,100
    5ecc:	1009883a 	mov	r4,r2
    5ed0:	00036480 	call	3648 <__udivsi3>
    5ed4:	d0ab4215 	stw	r2,-21240(gp)
    if (OSIdleCtrMax == 0uL) {
    5ed8:	d0ab4217 	ldw	r2,-21240(gp)
    5edc:	1000031e 	bne	r2,zero,5eec <OS_TaskStat+0x58>
        OSCPUUsage = 0u;
    5ee0:	d02b4105 	stb	zero,-21244(gp)
#if OS_TASK_SUSPEND_EN > 0u
        (void)OSTaskSuspend(OS_PRIO_SELF);
    5ee4:	01003fc4 	movi	r4,255
    5ee8:	000b2ac0 	call	b2ac <OSTaskSuspend>
  NIOS2_READ_STATUS (context);
    5eec:	0005303a 	rdctl	r2,status
    5ef0:	e0bffc15 	stw	r2,-16(fp)
  NIOS2_WRITE_STATUS (context & ~NIOS2_STATUS_PIE_MSK);
    5ef4:	e0fffc17 	ldw	r3,-16(fp)
    5ef8:	00bfff84 	movi	r2,-2
    5efc:	1884703a 	and	r2,r3,r2
    5f00:	1001703a 	wrctl	status,r2
  return context;
    5f04:	e0bffc17 	ldw	r2,-16(fp)
        for (;;) {
            OSTimeDly(OS_TICKS_PER_SEC);
        }
#endif
    }
    OS_ENTER_CRITICAL();
    5f08:	e0bfff15 	stw	r2,-4(fp)
    OSIdleCtr = OSIdleCtrMax * 100uL;            /* Set initial CPU usage as 0%                        */
    5f0c:	d0ab4217 	ldw	r2,-21240(gp)
    5f10:	10801924 	muli	r2,r2,100
    5f14:	d0ab4715 	stw	r2,-21220(gp)
    5f18:	e0bfff17 	ldw	r2,-4(fp)
    5f1c:	e0bffd15 	stw	r2,-12(fp)
  NIOS2_WRITE_STATUS (context);
    5f20:	e0bffd17 	ldw	r2,-12(fp)
    5f24:	1001703a 	wrctl	status,r2
}
    5f28:	0001883a 	nop
    OS_EXIT_CRITICAL();
    for (;;) {
        OSTimeDly(1);                            /* Synchronize with clock tick                        */
    5f2c:	01000044 	movi	r4,1
    5f30:	000b9300 	call	b930 <OSTimeDly>
  NIOS2_READ_STATUS (context);
    5f34:	0005303a 	rdctl	r2,status
    5f38:	e0bff815 	stw	r2,-32(fp)
  NIOS2_WRITE_STATUS (context & ~NIOS2_STATUS_PIE_MSK);
    5f3c:	e0fff817 	ldw	r3,-32(fp)
    5f40:	00bfff84 	movi	r2,-2
    5f44:	1884703a 	and	r2,r3,r2
    5f48:	1001703a 	wrctl	status,r2
  return context;
    5f4c:	e0bff817 	ldw	r2,-32(fp)

        OS_ENTER_CRITICAL();
    5f50:	e0bfff15 	stw	r2,-4(fp)
        OSIdleCtr = 0uL;                        /* Reset the idle counter for the next second         */
    5f54:	d02b4715 	stw	zero,-21220(gp)
    5f58:	e0bfff17 	ldw	r2,-4(fp)
    5f5c:	e0bff915 	stw	r2,-28(fp)
  NIOS2_WRITE_STATUS (context);
    5f60:	e0bff917 	ldw	r2,-28(fp)
    5f64:	1001703a 	wrctl	status,r2
}
    5f68:	0001883a 	nop
        OS_EXIT_CRITICAL();

        OSTimeDly(OS_TICKS_PER_SEC / 10u);       /* Accumulate OSIdleCtr for the next 1/10 second      */
    5f6c:	01001904 	movi	r4,100
    5f70:	000b9300 	call	b930 <OSTimeDly>
  NIOS2_READ_STATUS (context);
    5f74:	0005303a 	rdctl	r2,status
    5f78:	e0bffa15 	stw	r2,-24(fp)
  NIOS2_WRITE_STATUS (context & ~NIOS2_STATUS_PIE_MSK);
    5f7c:	e0fffa17 	ldw	r3,-24(fp)
    5f80:	00bfff84 	movi	r2,-2
    5f84:	1884703a 	and	r2,r3,r2
    5f88:	1001703a 	wrctl	status,r2
  return context;
    5f8c:	e0bffa17 	ldw	r2,-24(fp)

        OS_ENTER_CRITICAL();
    5f90:	e0bfff15 	stw	r2,-4(fp)
        OSIdleCtrRun = OSIdleCtr;                /* Store number of cycles which elapsed while idle    */
    5f94:	d0ab4717 	ldw	r2,-21220(gp)
    5f98:	d0ab4315 	stw	r2,-21236(gp)
    5f9c:	e0bfff17 	ldw	r2,-4(fp)
    5fa0:	e0bffb15 	stw	r2,-20(fp)
  NIOS2_WRITE_STATUS (context);
    5fa4:	e0bffb17 	ldw	r2,-20(fp)
    5fa8:	1001703a 	wrctl	status,r2
}
    5fac:	0001883a 	nop
        OS_EXIT_CRITICAL();

        usage            = 100 - (INT8S)(OSIdleCtrRun / OSIdleCtrMax);
    5fb0:	d0ab4317 	ldw	r2,-21236(gp)
    5fb4:	d0eb4217 	ldw	r3,-21240(gp)
    5fb8:	180b883a 	mov	r5,r3
    5fbc:	1009883a 	mov	r4,r2
    5fc0:	00036480 	call	3648 <__udivsi3>
    5fc4:	1007883a 	mov	r3,r2
    5fc8:	00801904 	movi	r2,100
    5fcc:	10c5c83a 	sub	r2,r2,r3
    5fd0:	e0bffec5 	stb	r2,-5(fp)
        if (usage >= 0) {                        /* Make sure we don't have a negative percentage      */
    5fd4:	e0bffec7 	ldb	r2,-5(fp)
    5fd8:	10000316 	blt	r2,zero,5fe8 <OS_TaskStat+0x154>
            OSCPUUsage   = (INT8U)usage;
    5fdc:	e0bffec3 	ldbu	r2,-5(fp)
    5fe0:	d0ab4105 	stb	r2,-21244(gp)
    5fe4:	00000606 	br	6000 <OS_TaskStat+0x16c>
        } else {
            OSCPUUsage   = 0u;
    5fe8:	d02b4105 	stb	zero,-21244(gp)
            OSIdleCtrMax = OSIdleCtrRun / 100uL; /* Update max counter value to current one            */
    5fec:	d0ab4317 	ldw	r2,-21236(gp)
    5ff0:	01401904 	movi	r5,100
    5ff4:	1009883a 	mov	r4,r2
    5ff8:	00036480 	call	3648 <__udivsi3>
    5ffc:	d0ab4215 	stw	r2,-21240(gp)
        }

        OSTaskStatHook();                        /* Invoke user definable hook                         */
    6000:	000e0200 	call	e020 <OSTaskStatHook>
#if (OS_TASK_STAT_STK_CHK_EN > 0u) && (OS_TASK_CREATE_EXT_EN > 0u)
        OS_TaskStatStkChk();                     /* Check the stacks for each task                     */
    6004:	000600c0 	call	600c <OS_TaskStatStkChk>
        OSTimeDly(1);                            /* Synchronize with clock tick                        */
    6008:	003fc806 	br	5f2c <OS_TaskStat+0x98>

0000600c <OS_TaskStatStkChk>:
*********************************************************************************************************
*/

#if (OS_TASK_STAT_STK_CHK_EN > 0u) && (OS_TASK_CREATE_EXT_EN > 0u)
void  OS_TaskStatStkChk (void)
{
    600c:	defffa04 	addi	sp,sp,-24
    6010:	dfc00515 	stw	ra,20(sp)
    6014:	df000415 	stw	fp,16(sp)
    6018:	df000404 	addi	fp,sp,16
    OS_STK_DATA  stk_data;
    INT8U        err;
    INT8U        prio;


    for (prio = 0u; prio <= OS_TASK_IDLE_PRIO; prio++) {
    601c:	e03fffc5 	stb	zero,-1(fp)
    6020:	00002106 	br	60a8 <OS_TaskStatStkChk+0x9c>
        err = OSTaskStkChk(prio, &stk_data);
    6024:	e0bfffc3 	ldbu	r2,-1(fp)
    6028:	e0fffc04 	addi	r3,fp,-16
    602c:	180b883a 	mov	r5,r3
    6030:	1009883a 	mov	r4,r2
    6034:	000b0fc0 	call	b0fc <OSTaskStkChk>
    6038:	e0bfff85 	stb	r2,-2(fp)
        if (err == OS_ERR_NONE) {
    603c:	e0bfff83 	ldbu	r2,-2(fp)
    6040:	1000161e 	bne	r2,zero,609c <OS_TaskStatStkChk+0x90>
            ptcb = OSTCBPrioTbl[prio];
    6044:	e0bfffc3 	ldbu	r2,-1(fp)
    6048:	100690ba 	slli	r3,r2,2
    604c:	008000b4 	movhi	r2,2
    6050:	1885883a 	add	r2,r3,r2
    6054:	10a66817 	ldw	r2,-26208(r2)
    6058:	e0bffe15 	stw	r2,-8(fp)
            if (ptcb != (OS_TCB *)0) {                               /* Make sure task 'ptcb' is ...   */
    605c:	e0bffe17 	ldw	r2,-8(fp)
    6060:	10000e26 	beq	r2,zero,609c <OS_TaskStatStkChk+0x90>
                if (ptcb != OS_TCB_RESERVED) {                       /* ... still valid.               */
    6064:	e0bffe17 	ldw	r2,-8(fp)
    6068:	10800060 	cmpeqi	r2,r2,1
    606c:	10000b1e 	bne	r2,zero,609c <OS_TaskStatStkChk+0x90>
#if OS_TASK_PROFILE_EN > 0u
                    #if OS_STK_GROWTH == 1u
                    ptcb->OSTCBStkBase = ptcb->OSTCBStkBottom + ptcb->OSTCBStkSize;
    6070:	e0bffe17 	ldw	r2,-8(fp)
    6074:	10c00217 	ldw	r3,8(r2)
    6078:	e0bffe17 	ldw	r2,-8(fp)
    607c:	10800317 	ldw	r2,12(r2)
    6080:	100490ba 	slli	r2,r2,2
    6084:	1887883a 	add	r3,r3,r2
    6088:	e0bffe17 	ldw	r2,-8(fp)
    608c:	10c01315 	stw	r3,76(r2)
                    #else
                    ptcb->OSTCBStkBase = ptcb->OSTCBStkBottom - ptcb->OSTCBStkSize;
                    #endif
                    ptcb->OSTCBStkUsed = stk_data.OSUsed;            /* Store number of entries used   */
    6090:	e0fffd17 	ldw	r3,-12(fp)
    6094:	e0bffe17 	ldw	r2,-8(fp)
    6098:	10c01415 	stw	r3,80(r2)
    for (prio = 0u; prio <= OS_TASK_IDLE_PRIO; prio++) {
    609c:	e0bfffc3 	ldbu	r2,-1(fp)
    60a0:	10800044 	addi	r2,r2,1
    60a4:	e0bfffc5 	stb	r2,-1(fp)
    60a8:	e0bfffc3 	ldbu	r2,-1(fp)
    60ac:	10800570 	cmpltui	r2,r2,21
    60b0:	103fdc1e 	bne	r2,zero,6024 <OS_TaskStatStkChk+0x18>
#endif
                }
            }
        }
    }
}
    60b4:	0001883a 	nop
    60b8:	0001883a 	nop
    60bc:	e037883a 	mov	sp,fp
    60c0:	dfc00117 	ldw	ra,4(sp)
    60c4:	df000017 	ldw	fp,0(sp)
    60c8:	dec00204 	addi	sp,sp,8
    60cc:	f800283a 	ret

000060d0 <OS_TCBInit>:
                   OS_STK  *pbos,
                   INT16U   id,
                   INT32U   stk_size,
                   void    *pext,
                   INT16U   opt)
{
    60d0:	deffef04 	addi	sp,sp,-68
    60d4:	dfc01015 	stw	ra,64(sp)
    60d8:	df000f15 	stw	fp,60(sp)
    60dc:	df000f04 	addi	fp,sp,60
    60e0:	2007883a 	mov	r3,r4
    60e4:	e17ff415 	stw	r5,-48(fp)
    60e8:	e1bff315 	stw	r6,-52(fp)
    60ec:	3809883a 	mov	r4,r7
    60f0:	e0800417 	ldw	r2,16(fp)
    60f4:	e0fff505 	stb	r3,-44(fp)
    60f8:	2007883a 	mov	r3,r4
    60fc:	e0fff20d 	sth	r3,-56(fp)
    6100:	e0bff10d 	sth	r2,-60(fp)
    OS_TCB    *ptcb;
#if OS_CRITICAL_METHOD == 3u                               /* Allocate storage for CPU status register */
    OS_CPU_SR  cpu_sr = 0u;
    6104:	e03ffe15 	stw	zero,-8(fp)
  NIOS2_READ_STATUS (context);
    6108:	0005303a 	rdctl	r2,status
    610c:	e0bffc15 	stw	r2,-16(fp)
  NIOS2_WRITE_STATUS (context & ~NIOS2_STATUS_PIE_MSK);
    6110:	e0fffc17 	ldw	r3,-16(fp)
    6114:	00bfff84 	movi	r2,-2
    6118:	1884703a 	and	r2,r3,r2
    611c:	1001703a 	wrctl	status,r2
  return context;
    6120:	e0bffc17 	ldw	r2,-16(fp)
    INT8U      j;
#endif
#endif


    OS_ENTER_CRITICAL();
    6124:	e0bffe15 	stw	r2,-8(fp)
    ptcb = OSTCBFreeList;                                  /* Get a free TCB from the free TCB list    */
    6128:	d0ab4917 	ldw	r2,-21212(gp)
    612c:	e0bffd15 	stw	r2,-12(fp)
    if (ptcb != (OS_TCB *)0) {
    6130:	e0bffd17 	ldw	r2,-12(fp)
    6134:	1000af26 	beq	r2,zero,63f4 <OS_TCBInit+0x324>
        OSTCBFreeList            = ptcb->OSTCBNext;        /* Update pointer to free TCB list          */
    6138:	e0bffd17 	ldw	r2,-12(fp)
    613c:	10800517 	ldw	r2,20(r2)
    6140:	d0ab4915 	stw	r2,-21212(gp)
    6144:	e0bffe17 	ldw	r2,-8(fp)
    6148:	e0bffb15 	stw	r2,-20(fp)
  NIOS2_WRITE_STATUS (context);
    614c:	e0bffb17 	ldw	r2,-20(fp)
    6150:	1001703a 	wrctl	status,r2
}
    6154:	0001883a 	nop
        OS_EXIT_CRITICAL();
        ptcb->OSTCBStkPtr        = ptos;                   /* Load Stack pointer in TCB                */
    6158:	e0bffd17 	ldw	r2,-12(fp)
    615c:	e0fff417 	ldw	r3,-48(fp)
    6160:	10c00015 	stw	r3,0(r2)
        ptcb->OSTCBPrio          = prio;                   /* Load task priority into TCB              */
    6164:	e0bffd17 	ldw	r2,-12(fp)
    6168:	e0fff503 	ldbu	r3,-44(fp)
    616c:	10c00e85 	stb	r3,58(r2)
        ptcb->OSTCBStat          = OS_STAT_RDY;            /* Task is ready to run                     */
    6170:	e0bffd17 	ldw	r2,-12(fp)
    6174:	10000e05 	stb	zero,56(r2)
        ptcb->OSTCBStatPend      = OS_STAT_PEND_OK;        /* Clear pend status                        */
    6178:	e0bffd17 	ldw	r2,-12(fp)
    617c:	10000e45 	stb	zero,57(r2)
        ptcb->OSTCBDly           = 0u;                     /* Task is not delayed                      */
    6180:	e0bffd17 	ldw	r2,-12(fp)
    6184:	10000d15 	stw	zero,52(r2)

#if OS_TASK_CREATE_EXT_EN > 0u
        ptcb->OSTCBExtPtr        = pext;                   /* Store pointer to TCB extension           */
    6188:	e0bffd17 	ldw	r2,-12(fp)
    618c:	e0c00317 	ldw	r3,12(fp)
    6190:	10c00115 	stw	r3,4(r2)
        ptcb->OSTCBStkSize       = stk_size;               /* Store stack size                         */
    6194:	e0bffd17 	ldw	r2,-12(fp)
    6198:	e0c00217 	ldw	r3,8(fp)
    619c:	10c00315 	stw	r3,12(r2)
        ptcb->OSTCBStkBottom     = pbos;                   /* Store pointer to bottom of stack         */
    61a0:	e0bffd17 	ldw	r2,-12(fp)
    61a4:	e0fff317 	ldw	r3,-52(fp)
    61a8:	10c00215 	stw	r3,8(r2)
        ptcb->OSTCBOpt           = opt;                    /* Store task options                       */
    61ac:	e0bffd17 	ldw	r2,-12(fp)
    61b0:	e0fff10b 	ldhu	r3,-60(fp)
    61b4:	10c0040d 	sth	r3,16(r2)
        ptcb->OSTCBId            = id;                     /* Store task ID                            */
    61b8:	e0bffd17 	ldw	r2,-12(fp)
    61bc:	e0fff20b 	ldhu	r3,-56(fp)
    61c0:	10c0048d 	sth	r3,18(r2)
        opt                      = opt;
        id                       = id;
#endif

#if OS_TASK_DEL_EN > 0u
        ptcb->OSTCBDelReq        = OS_ERR_NONE;
    61c4:	e0bffd17 	ldw	r2,-12(fp)
    61c8:	10000fc5 	stb	zero,63(r2)
#endif

#if OS_LOWEST_PRIO <= 63u                                         /* Pre-compute X, Y                  */
        ptcb->OSTCBY             = (INT8U)(prio >> 3u);
    61cc:	e0bff503 	ldbu	r2,-44(fp)
    61d0:	1004d0fa 	srli	r2,r2,3
    61d4:	1007883a 	mov	r3,r2
    61d8:	e0bffd17 	ldw	r2,-12(fp)
    61dc:	10c00f05 	stb	r3,60(r2)
        ptcb->OSTCBX             = (INT8U)(prio & 0x07u);
    61e0:	e0bff503 	ldbu	r2,-44(fp)
    61e4:	108001cc 	andi	r2,r2,7
    61e8:	1007883a 	mov	r3,r2
    61ec:	e0bffd17 	ldw	r2,-12(fp)
    61f0:	10c00ec5 	stb	r3,59(r2)
#else                                                             /* Pre-compute X, Y                  */
        ptcb->OSTCBY             = (INT8U)((INT8U)(prio >> 4u) & 0xFFu);
        ptcb->OSTCBX             = (INT8U) (prio & 0x0Fu);
#endif
                                                                  /* Pre-compute BitX and BitY         */
        ptcb->OSTCBBitY          = (OS_PRIO)(1uL << ptcb->OSTCBY);
    61f4:	e0bffd17 	ldw	r2,-12(fp)
    61f8:	10800f03 	ldbu	r2,60(r2)
    61fc:	10803fcc 	andi	r2,r2,255
    6200:	00c00044 	movi	r3,1
    6204:	1884983a 	sll	r2,r3,r2
    6208:	1007883a 	mov	r3,r2
    620c:	e0bffd17 	ldw	r2,-12(fp)
    6210:	10c00f85 	stb	r3,62(r2)
        ptcb->OSTCBBitX          = (OS_PRIO)(1uL << ptcb->OSTCBX);
    6214:	e0bffd17 	ldw	r2,-12(fp)
    6218:	10800ec3 	ldbu	r2,59(r2)
    621c:	10803fcc 	andi	r2,r2,255
    6220:	00c00044 	movi	r3,1
    6224:	1884983a 	sll	r2,r3,r2
    6228:	1007883a 	mov	r3,r2
    622c:	e0bffd17 	ldw	r2,-12(fp)
    6230:	10c00f45 	stb	r3,61(r2)

#if (OS_EVENT_EN)
        ptcb->OSTCBEventPtr      = (OS_EVENT  *)0;         /* Task is not pending on an  event         */
    6234:	e0bffd17 	ldw	r2,-12(fp)
    6238:	10000715 	stw	zero,28(r2)
#if (OS_EVENT_MULTI_EN > 0u)
        ptcb->OSTCBEventMultiPtr = (OS_EVENT **)0;         /* Task is not pending on any events        */
    623c:	e0bffd17 	ldw	r2,-12(fp)
    6240:	10000815 	stw	zero,32(r2)
        ptcb->OSTCBEventMultiRdy = (OS_EVENT  *)0;         /* No events readied for Multipend          */
    6244:	e0bffd17 	ldw	r2,-12(fp)
    6248:	10000915 	stw	zero,36(r2)
#endif
#endif

#if (OS_FLAG_EN > 0u) && (OS_MAX_FLAGS > 0u) && (OS_TASK_DEL_EN > 0u)
        ptcb->OSTCBFlagNode      = (OS_FLAG_NODE *)0;      /* Task is not pending on an event flag     */
    624c:	e0bffd17 	ldw	r2,-12(fp)
    6250:	10000b15 	stw	zero,44(r2)
#endif

#if (OS_MBOX_EN > 0u) || ((OS_Q_EN > 0u) && (OS_MAX_QS > 0u))
        ptcb->OSTCBMsg           = (void *)0;              /* No message received                      */
    6254:	e0bffd17 	ldw	r2,-12(fp)
    6258:	10000a15 	stw	zero,40(r2)
#endif

#if OS_TASK_PROFILE_EN > 0u
        ptcb->OSTCBCtxSwCtr      = 0uL;                    /* Initialize profiling variables           */
    625c:	e0bffd17 	ldw	r2,-12(fp)
    6260:	10001015 	stw	zero,64(r2)
        ptcb->OSTCBCyclesStart   = 0uL;
    6264:	e0bffd17 	ldw	r2,-12(fp)
    6268:	10001215 	stw	zero,72(r2)
        ptcb->OSTCBCyclesTot     = 0uL;
    626c:	e0bffd17 	ldw	r2,-12(fp)
    6270:	10001115 	stw	zero,68(r2)
        ptcb->OSTCBStkBase       = (OS_STK *)0;
    6274:	e0bffd17 	ldw	r2,-12(fp)
    6278:	10001315 	stw	zero,76(r2)
        ptcb->OSTCBStkUsed       = 0uL;
    627c:	e0bffd17 	ldw	r2,-12(fp)
    6280:	10001415 	stw	zero,80(r2)
#endif

#if OS_TASK_NAME_EN > 0u
        ptcb->OSTCBTaskName      = (INT8U *)(void *)"?";
    6284:	e0fffd17 	ldw	r3,-12(fp)
    6288:	00800074 	movhi	r2,1
    628c:	10ba8d04 	addi	r2,r2,-5580
    6290:	18801515 	stw	r2,84(r3)
#endif

#if OS_TASK_REG_TBL_SIZE > 0u                              /* Initialize the task variables            */
        for (i = 0u; i < OS_TASK_REG_TBL_SIZE; i++) {
    6294:	e03fffc5 	stb	zero,-1(fp)
    6298:	00000906 	br	62c0 <OS_TCBInit+0x1f0>
            ptcb->OSTCBRegTbl[i] = 0u;
    629c:	e0bfffc3 	ldbu	r2,-1(fp)
    62a0:	e0fffd17 	ldw	r3,-12(fp)
    62a4:	10800584 	addi	r2,r2,22
    62a8:	100490ba 	slli	r2,r2,2
    62ac:	1885883a 	add	r2,r3,r2
    62b0:	10000015 	stw	zero,0(r2)
        for (i = 0u; i < OS_TASK_REG_TBL_SIZE; i++) {
    62b4:	e0bfffc3 	ldbu	r2,-1(fp)
    62b8:	10800044 	addi	r2,r2,1
    62bc:	e0bfffc5 	stb	r2,-1(fp)
    62c0:	e0bfffc3 	ldbu	r2,-1(fp)
    62c4:	10800830 	cmpltui	r2,r2,32
    62c8:	103ff41e 	bne	r2,zero,629c <OS_TCBInit+0x1cc>
        }
#endif

        OSTCBInitHook(ptcb);
    62cc:	e13ffd17 	ldw	r4,-12(fp)
    62d0:	000e0e40 	call	e0e4 <OSTCBInitHook>
  NIOS2_READ_STATUS (context);
    62d4:	0005303a 	rdctl	r2,status
    62d8:	e0bff815 	stw	r2,-32(fp)
  NIOS2_WRITE_STATUS (context & ~NIOS2_STATUS_PIE_MSK);
    62dc:	e0fff817 	ldw	r3,-32(fp)
    62e0:	00bfff84 	movi	r2,-2
    62e4:	1884703a 	and	r2,r3,r2
    62e8:	1001703a 	wrctl	status,r2
  return context;
    62ec:	e0bff817 	ldw	r2,-32(fp)

        OS_ENTER_CRITICAL();
    62f0:	e0bffe15 	stw	r2,-8(fp)
        OSTCBPrioTbl[prio] = ptcb;
    62f4:	e0bff503 	ldbu	r2,-44(fp)
    62f8:	100890ba 	slli	r4,r2,2
    62fc:	e0fffd17 	ldw	r3,-12(fp)
    6300:	008000b4 	movhi	r2,2
    6304:	2085883a 	add	r2,r4,r2
    6308:	10e66815 	stw	r3,-26208(r2)
    630c:	e0bffe17 	ldw	r2,-8(fp)
    6310:	e0bff915 	stw	r2,-28(fp)
  NIOS2_WRITE_STATUS (context);
    6314:	e0bff917 	ldw	r2,-28(fp)
    6318:	1001703a 	wrctl	status,r2
}
    631c:	0001883a 	nop
        OS_EXIT_CRITICAL();

        OSTaskCreateHook(ptcb);                            /* Call user defined hook                   */
    6320:	e13ffd17 	ldw	r4,-12(fp)
    6324:	000dfb80 	call	dfb8 <OSTaskCreateHook>
  NIOS2_READ_STATUS (context);
    6328:	0005303a 	rdctl	r2,status
    632c:	e0bffa15 	stw	r2,-24(fp)
  NIOS2_WRITE_STATUS (context & ~NIOS2_STATUS_PIE_MSK);
    6330:	e0fffa17 	ldw	r3,-24(fp)
    6334:	00bfff84 	movi	r2,-2
    6338:	1884703a 	and	r2,r3,r2
    633c:	1001703a 	wrctl	status,r2
  return context;
    6340:	e0bffa17 	ldw	r2,-24(fp)
        }
        OS_TLS_TaskCreate(ptcb);                           /* Call TLS hook                            */
#endif
#endif

        OS_ENTER_CRITICAL();
    6344:	e0bffe15 	stw	r2,-8(fp)
        ptcb->OSTCBNext = OSTCBList;                       /* Link into TCB chain                      */
    6348:	d0eb4b17 	ldw	r3,-21204(gp)
    634c:	e0bffd17 	ldw	r2,-12(fp)
    6350:	10c00515 	stw	r3,20(r2)
        ptcb->OSTCBPrev = (OS_TCB *)0;
    6354:	e0bffd17 	ldw	r2,-12(fp)
    6358:	10000615 	stw	zero,24(r2)
        if (OSTCBList != (OS_TCB *)0) {
    635c:	d0ab4b17 	ldw	r2,-21204(gp)
    6360:	10000326 	beq	r2,zero,6370 <OS_TCBInit+0x2a0>
            OSTCBList->OSTCBPrev = ptcb;
    6364:	d0ab4b17 	ldw	r2,-21204(gp)
    6368:	e0fffd17 	ldw	r3,-12(fp)
    636c:	10c00615 	stw	r3,24(r2)
        }
        OSTCBList               = ptcb;
    6370:	e0bffd17 	ldw	r2,-12(fp)
    6374:	d0ab4b15 	stw	r2,-21204(gp)
        OSRdyGrp               |= ptcb->OSTCBBitY;         /* Make task ready to run                   */
    6378:	e0bffd17 	ldw	r2,-12(fp)
    637c:	10c00f83 	ldbu	r3,62(r2)
    6380:	d0ab4543 	ldbu	r2,-21227(gp)
    6384:	1884b03a 	or	r2,r3,r2
    6388:	d0ab4545 	stb	r2,-21227(gp)
        OSRdyTbl[ptcb->OSTCBY] |= ptcb->OSTCBBitX;
    638c:	e0bffd17 	ldw	r2,-12(fp)
    6390:	10800f03 	ldbu	r2,60(r2)
    6394:	10c03fcc 	andi	r3,r2,255
    6398:	d0ab4584 	addi	r2,gp,-21226
    639c:	1885883a 	add	r2,r3,r2
    63a0:	11000003 	ldbu	r4,0(r2)
    63a4:	e0bffd17 	ldw	r2,-12(fp)
    63a8:	10800f43 	ldbu	r2,61(r2)
    63ac:	e0fffd17 	ldw	r3,-12(fp)
    63b0:	18c00f03 	ldbu	r3,60(r3)
    63b4:	18c03fcc 	andi	r3,r3,255
    63b8:	2084b03a 	or	r2,r4,r2
    63bc:	1009883a 	mov	r4,r2
    63c0:	d0ab4584 	addi	r2,gp,-21226
    63c4:	1885883a 	add	r2,r3,r2
    63c8:	11000005 	stb	r4,0(r2)
        OSTaskCtr++;                                       /* Increment the #tasks counter             */
    63cc:	d0ab4683 	ldbu	r2,-21222(gp)
    63d0:	10800044 	addi	r2,r2,1
    63d4:	d0ab4685 	stb	r2,-21222(gp)
    63d8:	e0bffe17 	ldw	r2,-8(fp)
    63dc:	e0bff715 	stw	r2,-36(fp)
  NIOS2_WRITE_STATUS (context);
    63e0:	e0bff717 	ldw	r2,-36(fp)
    63e4:	1001703a 	wrctl	status,r2
}
    63e8:	0001883a 	nop
        OS_TRACE_TASK_READY(ptcb);
        OS_EXIT_CRITICAL();
        return (OS_ERR_NONE);
    63ec:	0005883a 	mov	r2,zero
    63f0:	00000606 	br	640c <OS_TCBInit+0x33c>
    63f4:	e0bffe17 	ldw	r2,-8(fp)
    63f8:	e0bff615 	stw	r2,-40(fp)
  NIOS2_WRITE_STATUS (context);
    63fc:	e0bff617 	ldw	r2,-40(fp)
    6400:	1001703a 	wrctl	status,r2
}
    6404:	0001883a 	nop
    }
    OS_EXIT_CRITICAL();
    return (OS_ERR_TASK_NO_MORE_TCB);
    6408:	00801084 	movi	r2,66
}
    640c:	e037883a 	mov	sp,fp
    6410:	dfc00117 	ldw	ra,4(sp)
    6414:	df000017 	ldw	fp,0(sp)
    6418:	dec00204 	addi	sp,sp,8
    641c:	f800283a 	ret

00006420 <OSDebugInit>:
*********************************************************************************************************
*/

#if OS_DEBUG_EN > 0u
void  OSDebugInit (void)
{
    6420:	defffe04 	addi	sp,sp,-8
    6424:	df000115 	stw	fp,4(sp)
    6428:	df000104 	addi	fp,sp,4
    void  const  *ptemp;


    ptemp = (void const *)&OSDebugEn;
    642c:	d0a00d04 	addi	r2,gp,-32716
    6430:	e0bfff15 	stw	r2,-4(fp)

    ptemp = (void const *)&OSEndiannessTest;
    6434:	d0a00e04 	addi	r2,gp,-32712
    6438:	e0bfff15 	stw	r2,-4(fp)

    ptemp = (void const *)&OSEventMax;
    643c:	d0a00f84 	addi	r2,gp,-32706
    6440:	e0bfff15 	stw	r2,-4(fp)
    ptemp = (void const *)&OSEventNameEn;
    6444:	d0a01004 	addi	r2,gp,-32704
    6448:	e0bfff15 	stw	r2,-4(fp)
    ptemp = (void const *)&OSEventEn;
    644c:	d0a00f04 	addi	r2,gp,-32708
    6450:	e0bfff15 	stw	r2,-4(fp)
    ptemp = (void const *)&OSEventSize;
    6454:	d0a01084 	addi	r2,gp,-32702
    6458:	e0bfff15 	stw	r2,-4(fp)
    ptemp = (void const *)&OSEventTblSize;
    645c:	d0a01104 	addi	r2,gp,-32700
    6460:	e0bfff15 	stw	r2,-4(fp)
    ptemp = (void const *)&OSEventMultiEn;
    6464:	d0a01184 	addi	r2,gp,-32698
    6468:	e0bfff15 	stw	r2,-4(fp)

    ptemp = (void const *)&OSFlagEn;
    646c:	d0a01204 	addi	r2,gp,-32696
    6470:	e0bfff15 	stw	r2,-4(fp)
    ptemp = (void const *)&OSFlagGrpSize;
    6474:	d0a01284 	addi	r2,gp,-32694
    6478:	e0bfff15 	stw	r2,-4(fp)
    ptemp = (void const *)&OSFlagNodeSize;
    647c:	d0a01304 	addi	r2,gp,-32692
    6480:	e0bfff15 	stw	r2,-4(fp)
    ptemp = (void const *)&OSFlagWidth;
    6484:	d0a01384 	addi	r2,gp,-32690
    6488:	e0bfff15 	stw	r2,-4(fp)
    ptemp = (void const *)&OSFlagMax;
    648c:	d0a01404 	addi	r2,gp,-32688
    6490:	e0bfff15 	stw	r2,-4(fp)
    ptemp = (void const *)&OSFlagNameEn;
    6494:	d0a01484 	addi	r2,gp,-32686
    6498:	e0bfff15 	stw	r2,-4(fp)

    ptemp = (void const *)&OSLowestPrio;
    649c:	d0a01504 	addi	r2,gp,-32684
    64a0:	e0bfff15 	stw	r2,-4(fp)

    ptemp = (void const *)&OSMboxEn;
    64a4:	d0a01584 	addi	r2,gp,-32682
    64a8:	e0bfff15 	stw	r2,-4(fp)

    ptemp = (void const *)&OSMemEn;
    64ac:	d0a01604 	addi	r2,gp,-32680
    64b0:	e0bfff15 	stw	r2,-4(fp)
    ptemp = (void const *)&OSMemMax;
    64b4:	d0a01684 	addi	r2,gp,-32678
    64b8:	e0bfff15 	stw	r2,-4(fp)
    ptemp = (void const *)&OSMemNameEn;
    64bc:	d0a01704 	addi	r2,gp,-32676
    64c0:	e0bfff15 	stw	r2,-4(fp)
    ptemp = (void const *)&OSMemSize;
    64c4:	d0a01784 	addi	r2,gp,-32674
    64c8:	e0bfff15 	stw	r2,-4(fp)
    ptemp = (void const *)&OSMemTblSize;
    64cc:	d0a01804 	addi	r2,gp,-32672
    64d0:	e0bfff15 	stw	r2,-4(fp)

    ptemp = (void const *)&OSMutexEn;
    64d4:	d0a01884 	addi	r2,gp,-32670
    64d8:	e0bfff15 	stw	r2,-4(fp)

    ptemp = (void const *)&OSPtrSize;
    64dc:	d0a01904 	addi	r2,gp,-32668
    64e0:	e0bfff15 	stw	r2,-4(fp)

    ptemp = (void const *)&OSQEn;
    64e4:	d0a01984 	addi	r2,gp,-32666
    64e8:	e0bfff15 	stw	r2,-4(fp)
    ptemp = (void const *)&OSQMax;
    64ec:	d0a01a04 	addi	r2,gp,-32664
    64f0:	e0bfff15 	stw	r2,-4(fp)
    ptemp = (void const *)&OSQSize;
    64f4:	d0a01a84 	addi	r2,gp,-32662
    64f8:	e0bfff15 	stw	r2,-4(fp)

    ptemp = (void const *)&OSRdyTblSize;
    64fc:	d0a01b04 	addi	r2,gp,-32660
    6500:	e0bfff15 	stw	r2,-4(fp)

    ptemp = (void const *)&OSSemEn;
    6504:	d0a01b84 	addi	r2,gp,-32658
    6508:	e0bfff15 	stw	r2,-4(fp)

    ptemp = (void const *)&OSStkWidth;
    650c:	d0a01c04 	addi	r2,gp,-32656
    6510:	e0bfff15 	stw	r2,-4(fp)

    ptemp = (void const *)&OSTaskCreateEn;
    6514:	d0a01c84 	addi	r2,gp,-32654
    6518:	e0bfff15 	stw	r2,-4(fp)
    ptemp = (void const *)&OSTaskCreateExtEn;
    651c:	d0a01d04 	addi	r2,gp,-32652
    6520:	e0bfff15 	stw	r2,-4(fp)
    ptemp = (void const *)&OSTaskDelEn;
    6524:	d0a01d84 	addi	r2,gp,-32650
    6528:	e0bfff15 	stw	r2,-4(fp)
    ptemp = (void const *)&OSTaskIdleStkSize;
    652c:	d0a01e04 	addi	r2,gp,-32648
    6530:	e0bfff15 	stw	r2,-4(fp)
    ptemp = (void const *)&OSTaskProfileEn;
    6534:	d0a01e84 	addi	r2,gp,-32646
    6538:	e0bfff15 	stw	r2,-4(fp)
    ptemp = (void const *)&OSTaskMax;
    653c:	d0a01f04 	addi	r2,gp,-32644
    6540:	e0bfff15 	stw	r2,-4(fp)
    ptemp = (void const *)&OSTaskNameEn;
    6544:	d0a01f84 	addi	r2,gp,-32642
    6548:	e0bfff15 	stw	r2,-4(fp)
    ptemp = (void const *)&OSTaskStatEn;
    654c:	d0a02004 	addi	r2,gp,-32640
    6550:	e0bfff15 	stw	r2,-4(fp)
    ptemp = (void const *)&OSTaskStatStkSize;
    6554:	d0a02084 	addi	r2,gp,-32638
    6558:	e0bfff15 	stw	r2,-4(fp)
    ptemp = (void const *)&OSTaskStatStkChkEn;
    655c:	d0a02104 	addi	r2,gp,-32636
    6560:	e0bfff15 	stw	r2,-4(fp)
    ptemp = (void const *)&OSTaskSwHookEn;
    6564:	d0a02184 	addi	r2,gp,-32634
    6568:	e0bfff15 	stw	r2,-4(fp)

    ptemp = (void const *)&OSTCBPrioTblMax;
    656c:	d0a02284 	addi	r2,gp,-32630
    6570:	e0bfff15 	stw	r2,-4(fp)
    ptemp = (void const *)&OSTCBSize;
    6574:	d0a02304 	addi	r2,gp,-32628
    6578:	e0bfff15 	stw	r2,-4(fp)

    ptemp = (void const *)&OSTicksPerSec;
    657c:	d0a02384 	addi	r2,gp,-32626
    6580:	e0bfff15 	stw	r2,-4(fp)
    ptemp = (void const *)&OSTimeTickHookEn;
    6584:	d0a02404 	addi	r2,gp,-32624
    6588:	e0bfff15 	stw	r2,-4(fp)

    ptemp = (void const *)&OSTmrWheelSize;
    ptemp = (void const *)&OSTmrWheelTblSize;
#endif

    ptemp = (void const *)&OSVersionNbr;
    658c:	d0a02484 	addi	r2,gp,-32622
    6590:	e0bfff15 	stw	r2,-4(fp)

    ptemp = (void const *)&OSDataSize;
    6594:	d0a02a04 	addi	r2,gp,-32600
    6598:	e0bfff15 	stw	r2,-4(fp)

    ptemp = ptemp;                             /* Prevent compiler warning for 'ptemp' not being used! */
}
    659c:	0001883a 	nop
    65a0:	e037883a 	mov	sp,fp
    65a4:	df000017 	ldw	fp,0(sp)
    65a8:	dec00104 	addi	sp,sp,4
    65ac:	f800283a 	ret

000065b0 <OSFlagAccept>:
#if OS_FLAG_ACCEPT_EN > 0u
OS_FLAGS  OSFlagAccept (OS_FLAG_GRP  *pgrp,
                        OS_FLAGS      flags,
                        INT8U         wait_type,
                        INT8U        *perr)
{
    65b0:	defff204 	addi	sp,sp,-56
    65b4:	df000d15 	stw	fp,52(sp)
    65b8:	df000d04 	addi	fp,sp,52
    65bc:	e13ff615 	stw	r4,-40(fp)
    65c0:	2805883a 	mov	r2,r5
    65c4:	3007883a 	mov	r3,r6
    65c8:	e1fff315 	stw	r7,-52(fp)
    65cc:	e0bff50d 	sth	r2,-44(fp)
    65d0:	1805883a 	mov	r2,r3
    65d4:	e0bff405 	stb	r2,-48(fp)
    OS_FLAGS      flags_rdy;
    INT8U         result;
    BOOLEAN       consume;
#if OS_CRITICAL_METHOD == 3u                               /* Allocate storage for CPU status register */
    OS_CPU_SR     cpu_sr = 0u;
    65d8:	e03ffe15 	stw	zero,-8(fp)
        return ((OS_FLAGS)0);
    }
#endif

#if OS_ARG_CHK_EN > 0u
    if (pgrp == (OS_FLAG_GRP *)0) {                        /* Validate 'pgrp'                          */
    65dc:	e0bff617 	ldw	r2,-40(fp)
    65e0:	1000051e 	bne	r2,zero,65f8 <OSFlagAccept+0x48>
        *perr = OS_ERR_FLAG_INVALID_PGRP;
    65e4:	e0bff317 	ldw	r2,-52(fp)
    65e8:	00c01b84 	movi	r3,110
    65ec:	10c00005 	stb	r3,0(r2)
        return ((OS_FLAGS)0);
    65f0:	0005883a 	mov	r2,zero
    65f4:	0000ad06 	br	68ac <OSFlagAccept+0x2fc>
    }
#endif
    if (pgrp->OSFlagType != OS_EVENT_TYPE_FLAG) {          /* Validate event block type                */
    65f8:	e0bff617 	ldw	r2,-40(fp)
    65fc:	10800003 	ldbu	r2,0(r2)
    6600:	10803fcc 	andi	r2,r2,255
    6604:	10800160 	cmpeqi	r2,r2,5
    6608:	1000051e 	bne	r2,zero,6620 <OSFlagAccept+0x70>
        *perr = OS_ERR_EVENT_TYPE;
    660c:	e0bff317 	ldw	r2,-52(fp)
    6610:	00c00044 	movi	r3,1
    6614:	10c00005 	stb	r3,0(r2)
        return ((OS_FLAGS)0);
    6618:	0005883a 	mov	r2,zero
    661c:	0000a306 	br	68ac <OSFlagAccept+0x2fc>
    }
    result = (INT8U)(wait_type & OS_FLAG_CONSUME);
    6620:	e0fff403 	ldbu	r3,-48(fp)
    6624:	00bfe004 	movi	r2,-128
    6628:	1884703a 	and	r2,r3,r2
    662c:	e0bffdc5 	stb	r2,-9(fp)
    if (result != (INT8U)0) {                              /* See if we need to consume the flags      */
    6630:	e0bffdc3 	ldbu	r2,-9(fp)
    6634:	10000626 	beq	r2,zero,6650 <OSFlagAccept+0xa0>
        wait_type &= ~OS_FLAG_CONSUME;
    6638:	e0bff403 	ldbu	r2,-48(fp)
    663c:	10801fcc 	andi	r2,r2,127
    6640:	e0bff405 	stb	r2,-48(fp)
        consume    = OS_TRUE;
    6644:	00800044 	movi	r2,1
    6648:	e0bfff45 	stb	r2,-3(fp)
    664c:	00000106 	br	6654 <OSFlagAccept+0xa4>
    } else {
        consume    = OS_FALSE;
    6650:	e03fff45 	stb	zero,-3(fp)
    }

    *perr = OS_ERR_NONE;                                   /* Assume NO error until proven otherwise.  */
    6654:	e0bff317 	ldw	r2,-52(fp)
    6658:	10000005 	stb	zero,0(r2)
  NIOS2_READ_STATUS (context);
    665c:	0005303a 	rdctl	r2,status
    6660:	e0bffc15 	stw	r2,-16(fp)
  NIOS2_WRITE_STATUS (context & ~NIOS2_STATUS_PIE_MSK);
    6664:	e0fffc17 	ldw	r3,-16(fp)
    6668:	00bfff84 	movi	r2,-2
    666c:	1884703a 	and	r2,r3,r2
    6670:	1001703a 	wrctl	status,r2
  return context;
    6674:	e0bffc17 	ldw	r2,-16(fp)
    OS_ENTER_CRITICAL();
    6678:	e0bffe15 	stw	r2,-8(fp)
    switch (wait_type) {
    667c:	e0bff403 	ldbu	r2,-48(fp)
    6680:	10c000e0 	cmpeqi	r3,r2,3
    6684:	1800271e 	bne	r3,zero,6724 <OSFlagAccept+0x174>
    6688:	10c00108 	cmpgei	r3,r2,4
    668c:	18007c1e 	bne	r3,zero,6880 <OSFlagAccept+0x2d0>
    6690:	10c000a0 	cmpeqi	r3,r2,2
    6694:	1800061e 	bne	r3,zero,66b0 <OSFlagAccept+0x100>
    6698:	10c000c8 	cmpgei	r3,r2,3
    669c:	1800781e 	bne	r3,zero,6880 <OSFlagAccept+0x2d0>
    66a0:	10003c26 	beq	r2,zero,6794 <OSFlagAccept+0x1e4>
    66a4:	10800060 	cmpeqi	r2,r2,1
    66a8:	1000581e 	bne	r2,zero,680c <OSFlagAccept+0x25c>
    66ac:	00007406 	br	6880 <OSFlagAccept+0x2d0>
        case OS_FLAG_WAIT_SET_ALL:                         /* See if all required flags are set        */
             flags_rdy = (OS_FLAGS)(pgrp->OSFlagFlags & flags);     /* Extract only the bits we want   */
    66b0:	e0bff617 	ldw	r2,-40(fp)
    66b4:	1080020b 	ldhu	r2,8(r2)
    66b8:	e0fff50b 	ldhu	r3,-44(fp)
    66bc:	1884703a 	and	r2,r3,r2
    66c0:	e0bfff8d 	sth	r2,-2(fp)
             if (flags_rdy == flags) {                     /* Must match ALL the bits that we want     */
    66c4:	e0ffff8b 	ldhu	r3,-2(fp)
    66c8:	e0bff50b 	ldhu	r2,-44(fp)
    66cc:	18800c1e 	bne	r3,r2,6700 <OSFlagAccept+0x150>
                 if (consume == OS_TRUE) {                 /* See if we need to consume the flags      */
    66d0:	e0bfff43 	ldbu	r2,-3(fp)
    66d4:	10800058 	cmpnei	r2,r2,1
    66d8:	10000c1e 	bne	r2,zero,670c <OSFlagAccept+0x15c>
                     pgrp->OSFlagFlags &= (OS_FLAGS)~flags_rdy;     /* Clear ONLY the flags we wanted  */
    66dc:	e0bff617 	ldw	r2,-40(fp)
    66e0:	1080020b 	ldhu	r2,8(r2)
    66e4:	e0ffff8b 	ldhu	r3,-2(fp)
    66e8:	00c6303a 	nor	r3,zero,r3
    66ec:	10c4703a 	and	r2,r2,r3
    66f0:	1007883a 	mov	r3,r2
    66f4:	e0bff617 	ldw	r2,-40(fp)
    66f8:	10c0020d 	sth	r3,8(r2)
    66fc:	00000306 	br	670c <OSFlagAccept+0x15c>
                 }
             } else {
                 *perr = OS_ERR_FLAG_NOT_RDY;
    6700:	e0bff317 	ldw	r2,-52(fp)
    6704:	00c01c04 	movi	r3,112
    6708:	10c00005 	stb	r3,0(r2)
    670c:	e0bffe17 	ldw	r2,-8(fp)
    6710:	e0bffb15 	stw	r2,-20(fp)
  NIOS2_WRITE_STATUS (context);
    6714:	e0bffb17 	ldw	r2,-20(fp)
    6718:	1001703a 	wrctl	status,r2
}
    671c:	0001883a 	nop
             }
             OS_EXIT_CRITICAL();
             break;
    6720:	00006106 	br	68a8 <OSFlagAccept+0x2f8>

        case OS_FLAG_WAIT_SET_ANY:
             flags_rdy = (OS_FLAGS)(pgrp->OSFlagFlags & flags);     /* Extract only the bits we want   */
    6724:	e0bff617 	ldw	r2,-40(fp)
    6728:	1080020b 	ldhu	r2,8(r2)
    672c:	e0fff50b 	ldhu	r3,-44(fp)
    6730:	1884703a 	and	r2,r3,r2
    6734:	e0bfff8d 	sth	r2,-2(fp)
             if (flags_rdy != (OS_FLAGS)0) {               /* See if any flag set                      */
    6738:	e0bfff8b 	ldhu	r2,-2(fp)
    673c:	10000c26 	beq	r2,zero,6770 <OSFlagAccept+0x1c0>
                 if (consume == OS_TRUE) {                 /* See if we need to consume the flags      */
    6740:	e0bfff43 	ldbu	r2,-3(fp)
    6744:	10800058 	cmpnei	r2,r2,1
    6748:	10000c1e 	bne	r2,zero,677c <OSFlagAccept+0x1cc>
                     pgrp->OSFlagFlags &= (OS_FLAGS)~flags_rdy;     /* Clear ONLY the flags we got     */
    674c:	e0bff617 	ldw	r2,-40(fp)
    6750:	1080020b 	ldhu	r2,8(r2)
    6754:	e0ffff8b 	ldhu	r3,-2(fp)
    6758:	00c6303a 	nor	r3,zero,r3
    675c:	10c4703a 	and	r2,r2,r3
    6760:	1007883a 	mov	r3,r2
    6764:	e0bff617 	ldw	r2,-40(fp)
    6768:	10c0020d 	sth	r3,8(r2)
    676c:	00000306 	br	677c <OSFlagAccept+0x1cc>
                 }
             } else {
                 *perr = OS_ERR_FLAG_NOT_RDY;
    6770:	e0bff317 	ldw	r2,-52(fp)
    6774:	00c01c04 	movi	r3,112
    6778:	10c00005 	stb	r3,0(r2)
    677c:	e0bffe17 	ldw	r2,-8(fp)
    6780:	e0bffa15 	stw	r2,-24(fp)
  NIOS2_WRITE_STATUS (context);
    6784:	e0bffa17 	ldw	r2,-24(fp)
    6788:	1001703a 	wrctl	status,r2
}
    678c:	0001883a 	nop
             }
             OS_EXIT_CRITICAL();
             break;
    6790:	00004506 	br	68a8 <OSFlagAccept+0x2f8>

#if OS_FLAG_WAIT_CLR_EN > 0u
        case OS_FLAG_WAIT_CLR_ALL:                         /* See if all required flags are cleared    */
             flags_rdy = (OS_FLAGS)~pgrp->OSFlagFlags & flags;    /* Extract only the bits we want     */
    6794:	e0bff617 	ldw	r2,-40(fp)
    6798:	1080020b 	ldhu	r2,8(r2)
    679c:	0084303a 	nor	r2,zero,r2
    67a0:	1007883a 	mov	r3,r2
    67a4:	e0bff50b 	ldhu	r2,-44(fp)
    67a8:	10c4703a 	and	r2,r2,r3
    67ac:	e0bfff8d 	sth	r2,-2(fp)
             if (flags_rdy == flags) {                     /* Must match ALL the bits that we want     */
    67b0:	e0ffff8b 	ldhu	r3,-2(fp)
    67b4:	e0bff50b 	ldhu	r2,-44(fp)
    67b8:	18800b1e 	bne	r3,r2,67e8 <OSFlagAccept+0x238>
                 if (consume == OS_TRUE) {                 /* See if we need to consume the flags      */
    67bc:	e0bfff43 	ldbu	r2,-3(fp)
    67c0:	10800058 	cmpnei	r2,r2,1
    67c4:	10000b1e 	bne	r2,zero,67f4 <OSFlagAccept+0x244>
                     pgrp->OSFlagFlags |= flags_rdy;       /* Set ONLY the flags that we wanted        */
    67c8:	e0bff617 	ldw	r2,-40(fp)
    67cc:	1080020b 	ldhu	r2,8(r2)
    67d0:	e0ffff8b 	ldhu	r3,-2(fp)
    67d4:	1884b03a 	or	r2,r3,r2
    67d8:	1007883a 	mov	r3,r2
    67dc:	e0bff617 	ldw	r2,-40(fp)
    67e0:	10c0020d 	sth	r3,8(r2)
    67e4:	00000306 	br	67f4 <OSFlagAccept+0x244>
                 }
             } else {
                 *perr = OS_ERR_FLAG_NOT_RDY;
    67e8:	e0bff317 	ldw	r2,-52(fp)
    67ec:	00c01c04 	movi	r3,112
    67f0:	10c00005 	stb	r3,0(r2)
    67f4:	e0bffe17 	ldw	r2,-8(fp)
    67f8:	e0bff915 	stw	r2,-28(fp)
  NIOS2_WRITE_STATUS (context);
    67fc:	e0bff917 	ldw	r2,-28(fp)
    6800:	1001703a 	wrctl	status,r2
}
    6804:	0001883a 	nop
             }
             OS_EXIT_CRITICAL();
             break;
    6808:	00002706 	br	68a8 <OSFlagAccept+0x2f8>

        case OS_FLAG_WAIT_CLR_ANY:
             flags_rdy = (OS_FLAGS)~pgrp->OSFlagFlags & flags;   /* Extract only the bits we want      */
    680c:	e0bff617 	ldw	r2,-40(fp)
    6810:	1080020b 	ldhu	r2,8(r2)
    6814:	0084303a 	nor	r2,zero,r2
    6818:	1007883a 	mov	r3,r2
    681c:	e0bff50b 	ldhu	r2,-44(fp)
    6820:	10c4703a 	and	r2,r2,r3
    6824:	e0bfff8d 	sth	r2,-2(fp)
             if (flags_rdy != (OS_FLAGS)0) {               /* See if any flag cleared                  */
    6828:	e0bfff8b 	ldhu	r2,-2(fp)
    682c:	10000b26 	beq	r2,zero,685c <OSFlagAccept+0x2ac>
                 if (consume == OS_TRUE) {                 /* See if we need to consume the flags      */
    6830:	e0bfff43 	ldbu	r2,-3(fp)
    6834:	10800058 	cmpnei	r2,r2,1
    6838:	10000b1e 	bne	r2,zero,6868 <OSFlagAccept+0x2b8>
                     pgrp->OSFlagFlags |= flags_rdy;       /* Set ONLY the flags that we got           */
    683c:	e0bff617 	ldw	r2,-40(fp)
    6840:	1080020b 	ldhu	r2,8(r2)
    6844:	e0ffff8b 	ldhu	r3,-2(fp)
    6848:	1884b03a 	or	r2,r3,r2
    684c:	1007883a 	mov	r3,r2
    6850:	e0bff617 	ldw	r2,-40(fp)
    6854:	10c0020d 	sth	r3,8(r2)
    6858:	00000306 	br	6868 <OSFlagAccept+0x2b8>
                 }
             } else {
                 *perr = OS_ERR_FLAG_NOT_RDY;
    685c:	e0bff317 	ldw	r2,-52(fp)
    6860:	00c01c04 	movi	r3,112
    6864:	10c00005 	stb	r3,0(r2)
    6868:	e0bffe17 	ldw	r2,-8(fp)
    686c:	e0bff815 	stw	r2,-32(fp)
  NIOS2_WRITE_STATUS (context);
    6870:	e0bff817 	ldw	r2,-32(fp)
    6874:	1001703a 	wrctl	status,r2
}
    6878:	0001883a 	nop
             }
             OS_EXIT_CRITICAL();
             break;
    687c:	00000a06 	br	68a8 <OSFlagAccept+0x2f8>
    6880:	e0bffe17 	ldw	r2,-8(fp)
    6884:	e0bff715 	stw	r2,-36(fp)
  NIOS2_WRITE_STATUS (context);
    6888:	e0bff717 	ldw	r2,-36(fp)
    688c:	1001703a 	wrctl	status,r2
}
    6890:	0001883a 	nop
#endif

        default:
             OS_EXIT_CRITICAL();
             flags_rdy = (OS_FLAGS)0;
    6894:	e03fff8d 	sth	zero,-2(fp)
             *perr     = OS_ERR_FLAG_WAIT_TYPE;
    6898:	e0bff317 	ldw	r2,-52(fp)
    689c:	00c01bc4 	movi	r3,111
    68a0:	10c00005 	stb	r3,0(r2)
             break;
    68a4:	0001883a 	nop
    }
    return (flags_rdy);
    68a8:	e0bfff8b 	ldhu	r2,-2(fp)
}
    68ac:	e037883a 	mov	sp,fp
    68b0:	df000017 	ldw	fp,0(sp)
    68b4:	dec00104 	addi	sp,sp,4
    68b8:	f800283a 	ret

000068bc <OSFlagCreate>:
*********************************************************************************************************
*/

OS_FLAG_GRP  *OSFlagCreate (OS_FLAGS  flags,
                            INT8U    *perr)
{
    68bc:	defff804 	addi	sp,sp,-32
    68c0:	df000715 	stw	fp,28(sp)
    68c4:	df000704 	addi	fp,sp,28
    68c8:	2005883a 	mov	r2,r4
    68cc:	e17ff915 	stw	r5,-28(fp)
    68d0:	e0bffa0d 	sth	r2,-24(fp)
    OS_FLAG_GRP *pgrp;
#if OS_CRITICAL_METHOD == 3u                        /* Allocate storage for CPU status register        */
    OS_CPU_SR    cpu_sr = 0u;
    68d4:	e03fff15 	stw	zero,-4(fp)
        *perr = OS_ERR_ILLEGAL_CREATE_RUN_TIME;
        return ((OS_FLAG_GRP *)0);
    }
#endif

    if (OSIntNesting > 0u) {                        /* See if called from ISR ...                      */
    68d8:	d0ab4443 	ldbu	r2,-21231(gp)
    68dc:	10803fcc 	andi	r2,r2,255
    68e0:	10000526 	beq	r2,zero,68f8 <OSFlagCreate+0x3c>
        *perr = OS_ERR_CREATE_ISR;                  /* ... can't CREATE from an ISR                    */
    68e4:	e0bff917 	ldw	r2,-28(fp)
    68e8:	00c00404 	movi	r3,16
    68ec:	10c00005 	stb	r3,0(r2)
        return ((OS_FLAG_GRP *)0);
    68f0:	0005883a 	mov	r2,zero
    68f4:	00002c06 	br	69a8 <OSFlagCreate+0xec>
  NIOS2_READ_STATUS (context);
    68f8:	0005303a 	rdctl	r2,status
    68fc:	e0bffd15 	stw	r2,-12(fp)
  NIOS2_WRITE_STATUS (context & ~NIOS2_STATUS_PIE_MSK);
    6900:	e0fffd17 	ldw	r3,-12(fp)
    6904:	00bfff84 	movi	r2,-2
    6908:	1884703a 	and	r2,r3,r2
    690c:	1001703a 	wrctl	status,r2
  return context;
    6910:	e0bffd17 	ldw	r2,-12(fp)
    }
    OS_ENTER_CRITICAL();
    6914:	e0bfff15 	stw	r2,-4(fp)
    pgrp = OSFlagFreeList;                          /* Get next free event flag                        */
    6918:	d0ab4017 	ldw	r2,-21248(gp)
    691c:	e0bffe15 	stw	r2,-8(fp)
    if (pgrp != (OS_FLAG_GRP *)0) {                 /* See if we have event flag groups available      */
    6920:	e0bffe17 	ldw	r2,-8(fp)
    6924:	10001726 	beq	r2,zero,6984 <OSFlagCreate+0xc8>
                                                    /* Adjust free list                                */
        OSFlagFreeList       = (OS_FLAG_GRP *)OSFlagFreeList->OSFlagWaitList;
    6928:	d0ab4017 	ldw	r2,-21248(gp)
    692c:	10800117 	ldw	r2,4(r2)
    6930:	d0ab4015 	stw	r2,-21248(gp)
        pgrp->OSFlagType     = OS_EVENT_TYPE_FLAG;  /* Set to event flag group type                    */
    6934:	e0bffe17 	ldw	r2,-8(fp)
    6938:	00c00144 	movi	r3,5
    693c:	10c00005 	stb	r3,0(r2)
        pgrp->OSFlagFlags    = flags;               /* Set to desired initial value                    */
    6940:	e0bffe17 	ldw	r2,-8(fp)
    6944:	e0fffa0b 	ldhu	r3,-24(fp)
    6948:	10c0020d 	sth	r3,8(r2)
        pgrp->OSFlagWaitList = (void *)0;           /* Clear list of tasks waiting on flags            */
    694c:	e0bffe17 	ldw	r2,-8(fp)
    6950:	10000115 	stw	zero,4(r2)
#if OS_FLAG_NAME_EN > 0u
        pgrp->OSFlagName     = (INT8U *)(void *)"?";
    6954:	e0fffe17 	ldw	r3,-8(fp)
    6958:	00800074 	movhi	r2,1
    695c:	10ba9604 	addi	r2,r2,-5544
    6960:	18800315 	stw	r2,12(r3)
    6964:	e0bfff17 	ldw	r2,-4(fp)
    6968:	e0bffc15 	stw	r2,-16(fp)
  NIOS2_WRITE_STATUS (context);
    696c:	e0bffc17 	ldw	r2,-16(fp)
    6970:	1001703a 	wrctl	status,r2
}
    6974:	0001883a 	nop
#endif
        OS_TRACE_FLAG_CREATE(pgrp, pgrp->OSFlagName);
        OS_EXIT_CRITICAL();
        *perr                = OS_ERR_NONE;
    6978:	e0bff917 	ldw	r2,-28(fp)
    697c:	10000005 	stb	zero,0(r2)
    6980:	00000806 	br	69a4 <OSFlagCreate+0xe8>
    6984:	e0bfff17 	ldw	r2,-4(fp)
    6988:	e0bffb15 	stw	r2,-20(fp)
  NIOS2_WRITE_STATUS (context);
    698c:	e0bffb17 	ldw	r2,-20(fp)
    6990:	1001703a 	wrctl	status,r2
}
    6994:	0001883a 	nop
    } else {
        OS_EXIT_CRITICAL();
        *perr                = OS_ERR_FLAG_GRP_DEPLETED;
    6998:	e0bff917 	ldw	r2,-28(fp)
    699c:	00c01c84 	movi	r3,114
    69a0:	10c00005 	stb	r3,0(r2)
    }
    return (pgrp);                                  /* Return pointer to event flag group              */
    69a4:	e0bffe17 	ldw	r2,-8(fp)
}
    69a8:	e037883a 	mov	sp,fp
    69ac:	df000017 	ldw	fp,0(sp)
    69b0:	dec00104 	addi	sp,sp,4
    69b4:	f800283a 	ret

000069b8 <OSFlagDel>:

#if OS_FLAG_DEL_EN > 0u
OS_FLAG_GRP  *OSFlagDel (OS_FLAG_GRP  *pgrp,
                         INT8U         opt,
                         INT8U        *perr)
{
    69b8:	defff204 	addi	sp,sp,-56
    69bc:	dfc00d15 	stw	ra,52(sp)
    69c0:	df000c15 	stw	fp,48(sp)
    69c4:	df000c04 	addi	fp,sp,48
    69c8:	e13ff615 	stw	r4,-40(fp)
    69cc:	2805883a 	mov	r2,r5
    69d0:	e1bff415 	stw	r6,-48(fp)
    69d4:	e0bff505 	stb	r2,-44(fp)
    BOOLEAN       tasks_waiting;
    OS_FLAG_NODE *pnode;
    OS_FLAG_GRP  *pgrp_return;
#if OS_CRITICAL_METHOD == 3u                               /* Allocate storage for CPU status register */
    OS_CPU_SR     cpu_sr = 0u;
    69d8:	e03ffc15 	stw	zero,-16(fp)
        return ((OS_FLAG_GRP *)0);
    }
#endif

#if OS_ARG_CHK_EN > 0u
    if (pgrp == (OS_FLAG_GRP *)0) {                        /* Validate 'pgrp'                          */
    69dc:	e0bff617 	ldw	r2,-40(fp)
    69e0:	1000051e 	bne	r2,zero,69f8 <OSFlagDel+0x40>
        *perr = OS_ERR_FLAG_INVALID_PGRP;
    69e4:	e0bff417 	ldw	r2,-48(fp)
    69e8:	00c01b84 	movi	r3,110
    69ec:	10c00005 	stb	r3,0(r2)
        return (pgrp);
    69f0:	e0bff617 	ldw	r2,-40(fp)
    69f4:	00007c06 	br	6be8 <OSFlagDel+0x230>
    }
#endif

    OS_TRACE_FLAG_DEL_ENTER(pgrp, opt);

    if (OSIntNesting > 0u) {                               /* See if called from ISR ...               */
    69f8:	d0ab4443 	ldbu	r2,-21231(gp)
    69fc:	10803fcc 	andi	r2,r2,255
    6a00:	10000526 	beq	r2,zero,6a18 <OSFlagDel+0x60>
        *perr = OS_ERR_DEL_ISR;                            /* ... can't DELETE from an ISR             */
    6a04:	e0bff417 	ldw	r2,-48(fp)
    6a08:	00c003c4 	movi	r3,15
    6a0c:	10c00005 	stb	r3,0(r2)
        OS_TRACE_FLAG_DEL_EXIT(*perr);
        return (pgrp);
    6a10:	e0bff617 	ldw	r2,-40(fp)
    6a14:	00007406 	br	6be8 <OSFlagDel+0x230>
    }
    if (pgrp->OSFlagType != OS_EVENT_TYPE_FLAG) {          /* Validate event group type                */
    6a18:	e0bff617 	ldw	r2,-40(fp)
    6a1c:	10800003 	ldbu	r2,0(r2)
    6a20:	10803fcc 	andi	r2,r2,255
    6a24:	10800160 	cmpeqi	r2,r2,5
    6a28:	1000051e 	bne	r2,zero,6a40 <OSFlagDel+0x88>
        *perr = OS_ERR_EVENT_TYPE;
    6a2c:	e0bff417 	ldw	r2,-48(fp)
    6a30:	00c00044 	movi	r3,1
    6a34:	10c00005 	stb	r3,0(r2)
        OS_TRACE_FLAG_DEL_EXIT(*perr);
        return (pgrp);
    6a38:	e0bff617 	ldw	r2,-40(fp)
    6a3c:	00006a06 	br	6be8 <OSFlagDel+0x230>
  NIOS2_READ_STATUS (context);
    6a40:	0005303a 	rdctl	r2,status
    6a44:	e0bffb15 	stw	r2,-20(fp)
  NIOS2_WRITE_STATUS (context & ~NIOS2_STATUS_PIE_MSK);
    6a48:	e0fffb17 	ldw	r3,-20(fp)
    6a4c:	00bfff84 	movi	r2,-2
    6a50:	1884703a 	and	r2,r3,r2
    6a54:	1001703a 	wrctl	status,r2
  return context;
    6a58:	e0bffb17 	ldw	r2,-20(fp)
    }
    OS_ENTER_CRITICAL();
    6a5c:	e0bffc15 	stw	r2,-16(fp)
    if (pgrp->OSFlagWaitList != (void *)0) {               /* See if any tasks waiting on event flags  */
    6a60:	e0bff617 	ldw	r2,-40(fp)
    6a64:	10800117 	ldw	r2,4(r2)
    6a68:	10000326 	beq	r2,zero,6a78 <OSFlagDel+0xc0>
        tasks_waiting = OS_TRUE;                           /* Yes                                      */
    6a6c:	00800044 	movi	r2,1
    6a70:	e0bfffc5 	stb	r2,-1(fp)
    6a74:	00000106 	br	6a7c <OSFlagDel+0xc4>
    } else {
        tasks_waiting = OS_FALSE;                          /* No                                       */
    6a78:	e03fffc5 	stb	zero,-1(fp)
    }
    switch (opt) {
    6a7c:	e0bff503 	ldbu	r2,-44(fp)
    6a80:	10000326 	beq	r2,zero,6a90 <OSFlagDel+0xd8>
    6a84:	10800060 	cmpeqi	r2,r2,1
    6a88:	1000241e 	bne	r2,zero,6b1c <OSFlagDel+0x164>
    6a8c:	00004a06 	br	6bb8 <OSFlagDel+0x200>
        case OS_DEL_NO_PEND:                               /* Delete group if no task waiting          */
             if (tasks_waiting == OS_FALSE) {
    6a90:	e0bfffc3 	ldbu	r2,-1(fp)
    6a94:	1000161e 	bne	r2,zero,6af0 <OSFlagDel+0x138>
#if OS_FLAG_NAME_EN > 0u
                 pgrp->OSFlagName     = (INT8U *)(void *)"?";
    6a98:	e0fff617 	ldw	r3,-40(fp)
    6a9c:	00800074 	movhi	r2,1
    6aa0:	10ba9604 	addi	r2,r2,-5544
    6aa4:	18800315 	stw	r2,12(r3)
#endif
                 pgrp->OSFlagType     = OS_EVENT_TYPE_UNUSED;
    6aa8:	e0bff617 	ldw	r2,-40(fp)
    6aac:	10000005 	stb	zero,0(r2)
                 pgrp->OSFlagWaitList = (void *)OSFlagFreeList; /* Return group to free list           */
    6ab0:	d0eb4017 	ldw	r3,-21248(gp)
    6ab4:	e0bff617 	ldw	r2,-40(fp)
    6ab8:	10c00115 	stw	r3,4(r2)
                 pgrp->OSFlagFlags    = (OS_FLAGS)0;
    6abc:	e0bff617 	ldw	r2,-40(fp)
    6ac0:	1000020d 	sth	zero,8(r2)
                 OSFlagFreeList       = pgrp;
    6ac4:	e0bff617 	ldw	r2,-40(fp)
    6ac8:	d0ab4015 	stw	r2,-21248(gp)
    6acc:	e0bffc17 	ldw	r2,-16(fp)
    6ad0:	e0bffa15 	stw	r2,-24(fp)
  NIOS2_WRITE_STATUS (context);
    6ad4:	e0bffa17 	ldw	r2,-24(fp)
    6ad8:	1001703a 	wrctl	status,r2
}
    6adc:	0001883a 	nop
                 OS_EXIT_CRITICAL();
                 *perr                = OS_ERR_NONE;
    6ae0:	e0bff417 	ldw	r2,-48(fp)
    6ae4:	10000005 	stb	zero,0(r2)
                 pgrp_return          = (OS_FLAG_GRP *)0;  /* Event Flag Group has been deleted        */
    6ae8:	e03ffd15 	stw	zero,-12(fp)
             } else {
                 OS_EXIT_CRITICAL();
                 *perr                = OS_ERR_TASK_WAITING;
                 pgrp_return          = pgrp;
             }
             break;
    6aec:	00003d06 	br	6be4 <OSFlagDel+0x22c>
    6af0:	e0bffc17 	ldw	r2,-16(fp)
    6af4:	e0bff915 	stw	r2,-28(fp)
  NIOS2_WRITE_STATUS (context);
    6af8:	e0bff917 	ldw	r2,-28(fp)
    6afc:	1001703a 	wrctl	status,r2
}
    6b00:	0001883a 	nop
                 *perr                = OS_ERR_TASK_WAITING;
    6b04:	e0bff417 	ldw	r2,-48(fp)
    6b08:	00c01244 	movi	r3,73
    6b0c:	10c00005 	stb	r3,0(r2)
                 pgrp_return          = pgrp;
    6b10:	e0bff617 	ldw	r2,-40(fp)
    6b14:	e0bffd15 	stw	r2,-12(fp)
             break;
    6b18:	00003206 	br	6be4 <OSFlagDel+0x22c>

        case OS_DEL_ALWAYS:                                /* Always delete the event flag group       */
             pnode = (OS_FLAG_NODE *)pgrp->OSFlagWaitList;
    6b1c:	e0bff617 	ldw	r2,-40(fp)
    6b20:	10800117 	ldw	r2,4(r2)
    6b24:	e0bffe15 	stw	r2,-8(fp)
             while (pnode != (OS_FLAG_NODE *)0) {          /* Ready ALL tasks waiting for flags        */
    6b28:	00000706 	br	6b48 <OSFlagDel+0x190>
                 (void)OS_FlagTaskRdy(pnode, (OS_FLAGS)0, OS_STAT_PEND_ABORT);
    6b2c:	01800084 	movi	r6,2
    6b30:	000b883a 	mov	r5,zero
    6b34:	e13ffe17 	ldw	r4,-8(fp)
    6b38:	0007b180 	call	7b18 <OS_FlagTaskRdy>
                 pnode = (OS_FLAG_NODE *)pnode->OSFlagNodeNext;
    6b3c:	e0bffe17 	ldw	r2,-8(fp)
    6b40:	10800017 	ldw	r2,0(r2)
    6b44:	e0bffe15 	stw	r2,-8(fp)
             while (pnode != (OS_FLAG_NODE *)0) {          /* Ready ALL tasks waiting for flags        */
    6b48:	e0bffe17 	ldw	r2,-8(fp)
    6b4c:	103ff71e 	bne	r2,zero,6b2c <OSFlagDel+0x174>
             }
#if OS_FLAG_NAME_EN > 0u
             pgrp->OSFlagName     = (INT8U *)(void *)"?";
    6b50:	e0fff617 	ldw	r3,-40(fp)
    6b54:	00800074 	movhi	r2,1
    6b58:	10ba9604 	addi	r2,r2,-5544
    6b5c:	18800315 	stw	r2,12(r3)
#endif
             pgrp->OSFlagType     = OS_EVENT_TYPE_UNUSED;
    6b60:	e0bff617 	ldw	r2,-40(fp)
    6b64:	10000005 	stb	zero,0(r2)
             pgrp->OSFlagWaitList = (void *)OSFlagFreeList;/* Return group to free list                */
    6b68:	d0eb4017 	ldw	r3,-21248(gp)
    6b6c:	e0bff617 	ldw	r2,-40(fp)
    6b70:	10c00115 	stw	r3,4(r2)
             pgrp->OSFlagFlags    = (OS_FLAGS)0;
    6b74:	e0bff617 	ldw	r2,-40(fp)
    6b78:	1000020d 	sth	zero,8(r2)
             OSFlagFreeList       = pgrp;
    6b7c:	e0bff617 	ldw	r2,-40(fp)
    6b80:	d0ab4015 	stw	r2,-21248(gp)
    6b84:	e0bffc17 	ldw	r2,-16(fp)
    6b88:	e0bff815 	stw	r2,-32(fp)
  NIOS2_WRITE_STATUS (context);
    6b8c:	e0bff817 	ldw	r2,-32(fp)
    6b90:	1001703a 	wrctl	status,r2
}
    6b94:	0001883a 	nop
             OS_EXIT_CRITICAL();
             if (tasks_waiting == OS_TRUE) {               /* Reschedule only if task(s) were waiting  */
    6b98:	e0bfffc3 	ldbu	r2,-1(fp)
    6b9c:	10800058 	cmpnei	r2,r2,1
    6ba0:	1000011e 	bne	r2,zero,6ba8 <OSFlagDel+0x1f0>
                 OS_Sched();                               /* Find highest priority task ready to run  */
    6ba4:	0005c980 	call	5c98 <OS_Sched>
             }
             *perr = OS_ERR_NONE;
    6ba8:	e0bff417 	ldw	r2,-48(fp)
    6bac:	10000005 	stb	zero,0(r2)
             pgrp_return          = (OS_FLAG_GRP *)0;      /* Event Flag Group has been deleted        */
    6bb0:	e03ffd15 	stw	zero,-12(fp)
             break;
    6bb4:	00000b06 	br	6be4 <OSFlagDel+0x22c>
    6bb8:	e0bffc17 	ldw	r2,-16(fp)
    6bbc:	e0bff715 	stw	r2,-36(fp)
  NIOS2_WRITE_STATUS (context);
    6bc0:	e0bff717 	ldw	r2,-36(fp)
    6bc4:	1001703a 	wrctl	status,r2
}
    6bc8:	0001883a 	nop

        default:
             OS_EXIT_CRITICAL();
             *perr                = OS_ERR_INVALID_OPT;
    6bcc:	e0bff417 	ldw	r2,-48(fp)
    6bd0:	00c001c4 	movi	r3,7
    6bd4:	10c00005 	stb	r3,0(r2)
             pgrp_return          = pgrp;
    6bd8:	e0bff617 	ldw	r2,-40(fp)
    6bdc:	e0bffd15 	stw	r2,-12(fp)
             break;
    6be0:	0001883a 	nop
    }

    OS_TRACE_FLAG_DEL_EXIT(*perr);

    return (pgrp_return);
    6be4:	e0bffd17 	ldw	r2,-12(fp)
}
    6be8:	e037883a 	mov	sp,fp
    6bec:	dfc00117 	ldw	ra,4(sp)
    6bf0:	df000017 	ldw	fp,0(sp)
    6bf4:	dec00204 	addi	sp,sp,8
    6bf8:	f800283a 	ret

00006bfc <OSFlagNameGet>:

#if OS_FLAG_NAME_EN > 0u
INT8U  OSFlagNameGet (OS_FLAG_GRP   *pgrp,
                      INT8U        **pname,
                      INT8U         *perr)
{
    6bfc:	defff604 	addi	sp,sp,-40
    6c00:	dfc00915 	stw	ra,36(sp)
    6c04:	df000815 	stw	fp,32(sp)
    6c08:	df000804 	addi	fp,sp,32
    6c0c:	e13ffa15 	stw	r4,-24(fp)
    6c10:	e17ff915 	stw	r5,-28(fp)
    6c14:	e1bff815 	stw	r6,-32(fp)
    INT8U      len;
#if OS_CRITICAL_METHOD == 3u                     /* Allocate storage for CPU status register           */
    OS_CPU_SR  cpu_sr = 0u;
    6c18:	e03fff15 	stw	zero,-4(fp)
        return (0u);
    }
#endif

#if OS_ARG_CHK_EN > 0u
    if (pgrp == (OS_FLAG_GRP *)0) {              /* Is 'pgrp' a NULL pointer?                          */
    6c1c:	e0bffa17 	ldw	r2,-24(fp)
    6c20:	1000051e 	bne	r2,zero,6c38 <OSFlagNameGet+0x3c>
        *perr = OS_ERR_FLAG_INVALID_PGRP;
    6c24:	e0bff817 	ldw	r2,-32(fp)
    6c28:	00c01b84 	movi	r3,110
    6c2c:	10c00005 	stb	r3,0(r2)
        return (0u);
    6c30:	0005883a 	mov	r2,zero
    6c34:	00003706 	br	6d14 <OSFlagNameGet+0x118>
    }
    if (pname == (INT8U **)0) {                   /* Is 'pname' a NULL pointer?                         */
    6c38:	e0bff917 	ldw	r2,-28(fp)
    6c3c:	1000051e 	bne	r2,zero,6c54 <OSFlagNameGet+0x58>
        *perr = OS_ERR_PNAME_NULL;
    6c40:	e0bff817 	ldw	r2,-32(fp)
    6c44:	00c00304 	movi	r3,12
    6c48:	10c00005 	stb	r3,0(r2)
        return (0u);
    6c4c:	0005883a 	mov	r2,zero
    6c50:	00003006 	br	6d14 <OSFlagNameGet+0x118>
    }
#endif
    if (OSIntNesting > 0u) {                     /* See if trying to call from an ISR                  */
    6c54:	d0ab4443 	ldbu	r2,-21231(gp)
    6c58:	10803fcc 	andi	r2,r2,255
    6c5c:	10000526 	beq	r2,zero,6c74 <OSFlagNameGet+0x78>
        *perr = OS_ERR_NAME_GET_ISR;
    6c60:	e0bff817 	ldw	r2,-32(fp)
    6c64:	00c00444 	movi	r3,17
    6c68:	10c00005 	stb	r3,0(r2)
        return (0u);
    6c6c:	0005883a 	mov	r2,zero
    6c70:	00002806 	br	6d14 <OSFlagNameGet+0x118>
  NIOS2_READ_STATUS (context);
    6c74:	0005303a 	rdctl	r2,status
    6c78:	e0bffd15 	stw	r2,-12(fp)
  NIOS2_WRITE_STATUS (context & ~NIOS2_STATUS_PIE_MSK);
    6c7c:	e0fffd17 	ldw	r3,-12(fp)
    6c80:	00bfff84 	movi	r2,-2
    6c84:	1884703a 	and	r2,r3,r2
    6c88:	1001703a 	wrctl	status,r2
  return context;
    6c8c:	e0bffd17 	ldw	r2,-12(fp)
    }
    OS_ENTER_CRITICAL();
    6c90:	e0bfff15 	stw	r2,-4(fp)
    if (pgrp->OSFlagType != OS_EVENT_TYPE_FLAG) {
    6c94:	e0bffa17 	ldw	r2,-24(fp)
    6c98:	10800003 	ldbu	r2,0(r2)
    6c9c:	10803fcc 	andi	r2,r2,255
    6ca0:	10800160 	cmpeqi	r2,r2,5
    6ca4:	10000a1e 	bne	r2,zero,6cd0 <OSFlagNameGet+0xd4>
    6ca8:	e0bfff17 	ldw	r2,-4(fp)
    6cac:	e0bffc15 	stw	r2,-16(fp)
  NIOS2_WRITE_STATUS (context);
    6cb0:	e0bffc17 	ldw	r2,-16(fp)
    6cb4:	1001703a 	wrctl	status,r2
}
    6cb8:	0001883a 	nop
        OS_EXIT_CRITICAL();
        *perr = OS_ERR_EVENT_TYPE;
    6cbc:	e0bff817 	ldw	r2,-32(fp)
    6cc0:	00c00044 	movi	r3,1
    6cc4:	10c00005 	stb	r3,0(r2)
        return (0u);
    6cc8:	0005883a 	mov	r2,zero
    6ccc:	00001106 	br	6d14 <OSFlagNameGet+0x118>
    }
    *pname = pgrp->OSFlagName;
    6cd0:	e0bffa17 	ldw	r2,-24(fp)
    6cd4:	10c00317 	ldw	r3,12(r2)
    6cd8:	e0bff917 	ldw	r2,-28(fp)
    6cdc:	10c00015 	stw	r3,0(r2)
    len    = OS_StrLen(*pname);
    6ce0:	e0bff917 	ldw	r2,-28(fp)
    6ce4:	10800017 	ldw	r2,0(r2)
    6ce8:	1009883a 	mov	r4,r2
    6cec:	0005dd00 	call	5dd0 <OS_StrLen>
    6cf0:	e0bffec5 	stb	r2,-5(fp)
    6cf4:	e0bfff17 	ldw	r2,-4(fp)
    6cf8:	e0bffb15 	stw	r2,-20(fp)
  NIOS2_WRITE_STATUS (context);
    6cfc:	e0bffb17 	ldw	r2,-20(fp)
    6d00:	1001703a 	wrctl	status,r2
}
    6d04:	0001883a 	nop
    OS_EXIT_CRITICAL();
    *perr  = OS_ERR_NONE;
    6d08:	e0bff817 	ldw	r2,-32(fp)
    6d0c:	10000005 	stb	zero,0(r2)
    return (len);
    6d10:	e0bffec3 	ldbu	r2,-5(fp)
}
    6d14:	e037883a 	mov	sp,fp
    6d18:	dfc00117 	ldw	ra,4(sp)
    6d1c:	df000017 	ldw	fp,0(sp)
    6d20:	dec00204 	addi	sp,sp,8
    6d24:	f800283a 	ret

00006d28 <OSFlagNameSet>:

#if OS_FLAG_NAME_EN > 0u
void  OSFlagNameSet (OS_FLAG_GRP  *pgrp,
                     INT8U        *pname,
                     INT8U        *perr)
{
    6d28:	defff804 	addi	sp,sp,-32
    6d2c:	df000715 	stw	fp,28(sp)
    6d30:	df000704 	addi	fp,sp,28
    6d34:	e13ffb15 	stw	r4,-20(fp)
    6d38:	e17ffa15 	stw	r5,-24(fp)
    6d3c:	e1bff915 	stw	r6,-28(fp)
#if OS_CRITICAL_METHOD == 3u                     /* Allocate storage for CPU status register           */
    OS_CPU_SR  cpu_sr = 0u;
    6d40:	e03fff15 	stw	zero,-4(fp)
        return;
    }
#endif

#if OS_ARG_CHK_EN > 0u
    if (pgrp == (OS_FLAG_GRP *)0) {              /* Is 'pgrp' a NULL pointer?                          */
    6d44:	e0bffb17 	ldw	r2,-20(fp)
    6d48:	1000041e 	bne	r2,zero,6d5c <OSFlagNameSet+0x34>
        *perr = OS_ERR_FLAG_INVALID_PGRP;
    6d4c:	e0bff917 	ldw	r2,-28(fp)
    6d50:	00c01b84 	movi	r3,110
    6d54:	10c00005 	stb	r3,0(r2)
        return;
    6d58:	00002e06 	br	6e14 <OSFlagNameSet+0xec>
    }
    if (pname == (INT8U *)0) {                   /* Is 'pname' a NULL pointer?                         */
    6d5c:	e0bffa17 	ldw	r2,-24(fp)
    6d60:	1000041e 	bne	r2,zero,6d74 <OSFlagNameSet+0x4c>
        *perr = OS_ERR_PNAME_NULL;
    6d64:	e0bff917 	ldw	r2,-28(fp)
    6d68:	00c00304 	movi	r3,12
    6d6c:	10c00005 	stb	r3,0(r2)
        return;
    6d70:	00002806 	br	6e14 <OSFlagNameSet+0xec>
    }
#endif
    if (OSIntNesting > 0u) {                     /* See if trying to call from an ISR                  */
    6d74:	d0ab4443 	ldbu	r2,-21231(gp)
    6d78:	10803fcc 	andi	r2,r2,255
    6d7c:	10000426 	beq	r2,zero,6d90 <OSFlagNameSet+0x68>
        *perr = OS_ERR_NAME_SET_ISR;
    6d80:	e0bff917 	ldw	r2,-28(fp)
    6d84:	00c00484 	movi	r3,18
    6d88:	10c00005 	stb	r3,0(r2)
        return;
    6d8c:	00002106 	br	6e14 <OSFlagNameSet+0xec>
  NIOS2_READ_STATUS (context);
    6d90:	0005303a 	rdctl	r2,status
    6d94:	e0bffe15 	stw	r2,-8(fp)
  NIOS2_WRITE_STATUS (context & ~NIOS2_STATUS_PIE_MSK);
    6d98:	e0fffe17 	ldw	r3,-8(fp)
    6d9c:	00bfff84 	movi	r2,-2
    6da0:	1884703a 	and	r2,r3,r2
    6da4:	1001703a 	wrctl	status,r2
  return context;
    6da8:	e0bffe17 	ldw	r2,-8(fp)
    }
    OS_ENTER_CRITICAL();
    6dac:	e0bfff15 	stw	r2,-4(fp)
    if (pgrp->OSFlagType != OS_EVENT_TYPE_FLAG) {
    6db0:	e0bffb17 	ldw	r2,-20(fp)
    6db4:	10800003 	ldbu	r2,0(r2)
    6db8:	10803fcc 	andi	r2,r2,255
    6dbc:	10800160 	cmpeqi	r2,r2,5
    6dc0:	1000091e 	bne	r2,zero,6de8 <OSFlagNameSet+0xc0>
    6dc4:	e0bfff17 	ldw	r2,-4(fp)
    6dc8:	e0bffd15 	stw	r2,-12(fp)
  NIOS2_WRITE_STATUS (context);
    6dcc:	e0bffd17 	ldw	r2,-12(fp)
    6dd0:	1001703a 	wrctl	status,r2
}
    6dd4:	0001883a 	nop
        OS_EXIT_CRITICAL();
        *perr = OS_ERR_EVENT_TYPE;
    6dd8:	e0bff917 	ldw	r2,-28(fp)
    6ddc:	00c00044 	movi	r3,1
    6de0:	10c00005 	stb	r3,0(r2)
        return;
    6de4:	00000b06 	br	6e14 <OSFlagNameSet+0xec>
    }
    pgrp->OSFlagName = pname;
    6de8:	e0bffb17 	ldw	r2,-20(fp)
    6dec:	e0fffa17 	ldw	r3,-24(fp)
    6df0:	10c00315 	stw	r3,12(r2)
    6df4:	e0bfff17 	ldw	r2,-4(fp)
    6df8:	e0bffc15 	stw	r2,-16(fp)
  NIOS2_WRITE_STATUS (context);
    6dfc:	e0bffc17 	ldw	r2,-16(fp)
    6e00:	1001703a 	wrctl	status,r2
}
    6e04:	0001883a 	nop
    OS_EXIT_CRITICAL();
    OS_TRACE_EVENT_NAME_SET(pgrp, pname);
    *perr            = OS_ERR_NONE;
    6e08:	e0bff917 	ldw	r2,-28(fp)
    6e0c:	10000005 	stb	zero,0(r2)
    return;
    6e10:	0001883a 	nop
}
    6e14:	e037883a 	mov	sp,fp
    6e18:	df000017 	ldw	fp,0(sp)
    6e1c:	dec00104 	addi	sp,sp,4
    6e20:	f800283a 	ret

00006e24 <OSFlagPend>:
OS_FLAGS  OSFlagPend (OS_FLAG_GRP  *pgrp,
                      OS_FLAGS      flags,
                      INT8U         wait_type,
                      INT32U        timeout,
                      INT8U        *perr)
{
    6e24:	deffe204 	addi	sp,sp,-120
    6e28:	dfc01d15 	stw	ra,116(sp)
    6e2c:	df001c15 	stw	fp,112(sp)
    6e30:	df001c04 	addi	fp,sp,112
    6e34:	e13fe815 	stw	r4,-96(fp)
    6e38:	2805883a 	mov	r2,r5
    6e3c:	3007883a 	mov	r3,r6
    6e40:	e1ffe515 	stw	r7,-108(fp)
    6e44:	e0bfe70d 	sth	r2,-100(fp)
    6e48:	1805883a 	mov	r2,r3
    6e4c:	e0bfe605 	stb	r2,-104(fp)
    OS_FLAGS      flags_rdy;
    INT8U         result;
    INT8U         pend_stat;
    BOOLEAN       consume;
#if OS_CRITICAL_METHOD == 3u                               /* Allocate storage for CPU status register */
    OS_CPU_SR     cpu_sr = 0u;
    6e50:	e03ffe15 	stw	zero,-8(fp)
        return ((OS_FLAGS)0);
    }
#endif

#if OS_ARG_CHK_EN > 0u
    if (pgrp == (OS_FLAG_GRP *)0) {                        /* Validate 'pgrp'                          */
    6e54:	e0bfe817 	ldw	r2,-96(fp)
    6e58:	1000051e 	bne	r2,zero,6e70 <OSFlagPend+0x4c>
        *perr = OS_ERR_FLAG_INVALID_PGRP;
    6e5c:	e0800217 	ldw	r2,8(fp)
    6e60:	00c01b84 	movi	r3,110
    6e64:	10c00005 	stb	r3,0(r2)
        return ((OS_FLAGS)0);
    6e68:	0005883a 	mov	r2,zero
    6e6c:	00015e06 	br	73e8 <OSFlagPend+0x5c4>
    }
#endif

    OS_TRACE_FLAG_PEND_ENTER(pgrp, flags, timeout, wait_type);

    if (OSIntNesting > 0u) {                               /* See if called from ISR ...               */
    6e70:	d0ab4443 	ldbu	r2,-21231(gp)
    6e74:	10803fcc 	andi	r2,r2,255
    6e78:	10000526 	beq	r2,zero,6e90 <OSFlagPend+0x6c>
        *perr = OS_ERR_PEND_ISR;                           /* ... can't PEND from an ISR               */
    6e7c:	e0800217 	ldw	r2,8(fp)
    6e80:	00c00084 	movi	r3,2
    6e84:	10c00005 	stb	r3,0(r2)
        OS_TRACE_FLAG_PEND_EXIT(*perr);
        return ((OS_FLAGS)0);
    6e88:	0005883a 	mov	r2,zero
    6e8c:	00015606 	br	73e8 <OSFlagPend+0x5c4>
    }
    if (OSLockNesting > 0u) {                              /* See if called with scheduler locked ...  */
    6e90:	d0ab4483 	ldbu	r2,-21230(gp)
    6e94:	10803fcc 	andi	r2,r2,255
    6e98:	10000526 	beq	r2,zero,6eb0 <OSFlagPend+0x8c>
        *perr = OS_ERR_PEND_LOCKED;                        /* ... can't PEND when locked               */
    6e9c:	e0800217 	ldw	r2,8(fp)
    6ea0:	00c00344 	movi	r3,13
    6ea4:	10c00005 	stb	r3,0(r2)
        OS_TRACE_FLAG_PEND_EXIT(*perr);
        return ((OS_FLAGS)0);
    6ea8:	0005883a 	mov	r2,zero
    6eac:	00014e06 	br	73e8 <OSFlagPend+0x5c4>
    }
    if (pgrp->OSFlagType != OS_EVENT_TYPE_FLAG) {          /* Validate event block type                */
    6eb0:	e0bfe817 	ldw	r2,-96(fp)
    6eb4:	10800003 	ldbu	r2,0(r2)
    6eb8:	10803fcc 	andi	r2,r2,255
    6ebc:	10800160 	cmpeqi	r2,r2,5
    6ec0:	1000051e 	bne	r2,zero,6ed8 <OSFlagPend+0xb4>
        *perr = OS_ERR_EVENT_TYPE;
    6ec4:	e0800217 	ldw	r2,8(fp)
    6ec8:	00c00044 	movi	r3,1
    6ecc:	10c00005 	stb	r3,0(r2)
        OS_TRACE_FLAG_PEND_EXIT(*perr);
        return ((OS_FLAGS)0);
    6ed0:	0005883a 	mov	r2,zero
    6ed4:	00014406 	br	73e8 <OSFlagPend+0x5c4>
    }
    result = (INT8U)(wait_type & OS_FLAG_CONSUME);
    6ed8:	e0ffe603 	ldbu	r3,-104(fp)
    6edc:	00bfe004 	movi	r2,-128
    6ee0:	1884703a 	and	r2,r3,r2
    6ee4:	e0bffdc5 	stb	r2,-9(fp)
    if (result != (INT8U)0) {                              /* See if we need to consume the flags      */
    6ee8:	e0bffdc3 	ldbu	r2,-9(fp)
    6eec:	10000626 	beq	r2,zero,6f08 <OSFlagPend+0xe4>
        wait_type &= (INT8U)~(INT8U)OS_FLAG_CONSUME;
    6ef0:	e0bfe603 	ldbu	r2,-104(fp)
    6ef4:	10801fcc 	andi	r2,r2,127
    6ef8:	e0bfe605 	stb	r2,-104(fp)
        consume    = OS_TRUE;
    6efc:	00800044 	movi	r2,1
    6f00:	e0bfffc5 	stb	r2,-1(fp)
    6f04:	00000106 	br	6f0c <OSFlagPend+0xe8>
    } else {
        consume    = OS_FALSE;
    6f08:	e03fffc5 	stb	zero,-1(fp)
  NIOS2_READ_STATUS (context);
    6f0c:	0005303a 	rdctl	r2,status
    6f10:	e0bffb15 	stw	r2,-20(fp)
  NIOS2_WRITE_STATUS (context & ~NIOS2_STATUS_PIE_MSK);
    6f14:	e0fffb17 	ldw	r3,-20(fp)
    6f18:	00bfff84 	movi	r2,-2
    6f1c:	1884703a 	and	r2,r3,r2
    6f20:	1001703a 	wrctl	status,r2
  return context;
    6f24:	e0bffb17 	ldw	r2,-20(fp)
    }

    OS_ENTER_CRITICAL();
    6f28:	e0bffe15 	stw	r2,-8(fp)
    switch (wait_type) {
    6f2c:	e0bfe603 	ldbu	r2,-104(fp)
    6f30:	10c000e0 	cmpeqi	r3,r2,3
    6f34:	1800391e 	bne	r3,zero,701c <OSFlagPend+0x1f8>
    6f38:	10c00108 	cmpgei	r3,r2,4
    6f3c:	1800c41e 	bne	r3,zero,7250 <OSFlagPend+0x42c>
    6f40:	10c000a0 	cmpeqi	r3,r2,2
    6f44:	1800061e 	bne	r3,zero,6f60 <OSFlagPend+0x13c>
    6f48:	10c000c8 	cmpgei	r3,r2,3
    6f4c:	1800c01e 	bne	r3,zero,7250 <OSFlagPend+0x42c>
    6f50:	10006026 	beq	r2,zero,70d4 <OSFlagPend+0x2b0>
    6f54:	10800060 	cmpeqi	r2,r2,1
    6f58:	10008e1e 	bne	r2,zero,7194 <OSFlagPend+0x370>
    6f5c:	0000bc06 	br	7250 <OSFlagPend+0x42c>
        case OS_FLAG_WAIT_SET_ALL:                         /* See if all required flags are set        */
             flags_rdy = (OS_FLAGS)(pgrp->OSFlagFlags & flags);   /* Extract only the bits we want     */
    6f60:	e0bfe817 	ldw	r2,-96(fp)
    6f64:	1080020b 	ldhu	r2,8(r2)
    6f68:	e0ffe70b 	ldhu	r3,-100(fp)
    6f6c:	1884703a 	and	r2,r3,r2
    6f70:	e0bffd0d 	sth	r2,-12(fp)
             if (flags_rdy == flags) {                     /* Must match ALL the bits that we want     */
    6f74:	e0fffd0b 	ldhu	r3,-12(fp)
    6f78:	e0bfe70b 	ldhu	r2,-100(fp)
    6f7c:	1880171e 	bne	r3,r2,6fdc <OSFlagPend+0x1b8>
                 if (consume == OS_TRUE) {                 /* See if we need to consume the flags      */
    6f80:	e0bfffc3 	ldbu	r2,-1(fp)
    6f84:	10800058 	cmpnei	r2,r2,1
    6f88:	1000081e 	bne	r2,zero,6fac <OSFlagPend+0x188>
                     pgrp->OSFlagFlags &= (OS_FLAGS)~flags_rdy;   /* Clear ONLY the flags we wanted    */
    6f8c:	e0bfe817 	ldw	r2,-96(fp)
    6f90:	1080020b 	ldhu	r2,8(r2)
    6f94:	e0fffd0b 	ldhu	r3,-12(fp)
    6f98:	00c6303a 	nor	r3,zero,r3
    6f9c:	10c4703a 	and	r2,r2,r3
    6fa0:	1007883a 	mov	r3,r2
    6fa4:	e0bfe817 	ldw	r2,-96(fp)
    6fa8:	10c0020d 	sth	r3,8(r2)
                 }
                 OSTCBCur->OSTCBFlagsRdy = flags_rdy;      /* Save flags that were ready               */
    6fac:	d0ab4817 	ldw	r2,-21216(gp)
    6fb0:	e0fffd0b 	ldhu	r3,-12(fp)
    6fb4:	10c00c0d 	sth	r3,48(r2)
    6fb8:	e0bffe17 	ldw	r2,-8(fp)
    6fbc:	e0bffa15 	stw	r2,-24(fp)
  NIOS2_WRITE_STATUS (context);
    6fc0:	e0bffa17 	ldw	r2,-24(fp)
    6fc4:	1001703a 	wrctl	status,r2
}
    6fc8:	0001883a 	nop
                 OS_EXIT_CRITICAL();                       /* Yes, condition met, return to caller     */
                 *perr                   = OS_ERR_NONE;
    6fcc:	e0800217 	ldw	r2,8(fp)
    6fd0:	10000005 	stb	zero,0(r2)
                 OS_TRACE_FLAG_PEND_EXIT(*perr);
                 return (flags_rdy);
    6fd4:	e0bffd0b 	ldhu	r2,-12(fp)
    6fd8:	00010306 	br	73e8 <OSFlagPend+0x5c4>
             } else {                                      /* Block task until events occur or timeout */
                 OS_FlagBlock(pgrp, &node, flags, wait_type, timeout);
    6fdc:	e13fe70b 	ldhu	r4,-100(fp)
    6fe0:	e17fe603 	ldbu	r5,-104(fp)
    6fe4:	e0ffe904 	addi	r3,fp,-92
    6fe8:	e0bfe517 	ldw	r2,-108(fp)
    6fec:	d8800015 	stw	r2,0(sp)
    6ff0:	280f883a 	mov	r7,r5
    6ff4:	200d883a 	mov	r6,r4
    6ff8:	180b883a 	mov	r5,r3
    6ffc:	e13fe817 	ldw	r4,-96(fp)
    7000:	00078c00 	call	78c0 <OS_FlagBlock>
    7004:	e0bffe17 	ldw	r2,-8(fp)
    7008:	e0bff915 	stw	r2,-28(fp)
  NIOS2_WRITE_STATUS (context);
    700c:	e0bff917 	ldw	r2,-28(fp)
    7010:	1001703a 	wrctl	status,r2
}
    7014:	0001883a 	nop
                 OS_EXIT_CRITICAL();
             }
             break;
    7018:	00009806 	br	727c <OSFlagPend+0x458>

        case OS_FLAG_WAIT_SET_ANY:
             flags_rdy = (OS_FLAGS)(pgrp->OSFlagFlags & flags);    /* Extract only the bits we want    */
    701c:	e0bfe817 	ldw	r2,-96(fp)
    7020:	1080020b 	ldhu	r2,8(r2)
    7024:	e0ffe70b 	ldhu	r3,-100(fp)
    7028:	1884703a 	and	r2,r3,r2
    702c:	e0bffd0d 	sth	r2,-12(fp)
             if (flags_rdy != (OS_FLAGS)0) {               /* See if any flag set                      */
    7030:	e0bffd0b 	ldhu	r2,-12(fp)
    7034:	10001726 	beq	r2,zero,7094 <OSFlagPend+0x270>
                 if (consume == OS_TRUE) {                 /* See if we need to consume the flags      */
    7038:	e0bfffc3 	ldbu	r2,-1(fp)
    703c:	10800058 	cmpnei	r2,r2,1
    7040:	1000081e 	bne	r2,zero,7064 <OSFlagPend+0x240>
                     pgrp->OSFlagFlags &= (OS_FLAGS)~flags_rdy;    /* Clear ONLY the flags that we got */
    7044:	e0bfe817 	ldw	r2,-96(fp)
    7048:	1080020b 	ldhu	r2,8(r2)
    704c:	e0fffd0b 	ldhu	r3,-12(fp)
    7050:	00c6303a 	nor	r3,zero,r3
    7054:	10c4703a 	and	r2,r2,r3
    7058:	1007883a 	mov	r3,r2
    705c:	e0bfe817 	ldw	r2,-96(fp)
    7060:	10c0020d 	sth	r3,8(r2)
                 }
                 OSTCBCur->OSTCBFlagsRdy = flags_rdy;      /* Save flags that were ready               */
    7064:	d0ab4817 	ldw	r2,-21216(gp)
    7068:	e0fffd0b 	ldhu	r3,-12(fp)
    706c:	10c00c0d 	sth	r3,48(r2)
    7070:	e0bffe17 	ldw	r2,-8(fp)
    7074:	e0bff815 	stw	r2,-32(fp)
  NIOS2_WRITE_STATUS (context);
    7078:	e0bff817 	ldw	r2,-32(fp)
    707c:	1001703a 	wrctl	status,r2
}
    7080:	0001883a 	nop
                 OS_EXIT_CRITICAL();                       /* Yes, condition met, return to caller     */
                 *perr                   = OS_ERR_NONE;
    7084:	e0800217 	ldw	r2,8(fp)
    7088:	10000005 	stb	zero,0(r2)
                 OS_TRACE_FLAG_PEND_EXIT(*perr);
                 return (flags_rdy);
    708c:	e0bffd0b 	ldhu	r2,-12(fp)
    7090:	0000d506 	br	73e8 <OSFlagPend+0x5c4>
             } else {                                      /* Block task until events occur or timeout */
                 OS_FlagBlock(pgrp, &node, flags, wait_type, timeout);
    7094:	e13fe70b 	ldhu	r4,-100(fp)
    7098:	e17fe603 	ldbu	r5,-104(fp)
    709c:	e0ffe904 	addi	r3,fp,-92
    70a0:	e0bfe517 	ldw	r2,-108(fp)
    70a4:	d8800015 	stw	r2,0(sp)
    70a8:	280f883a 	mov	r7,r5
    70ac:	200d883a 	mov	r6,r4
    70b0:	180b883a 	mov	r5,r3
    70b4:	e13fe817 	ldw	r4,-96(fp)
    70b8:	00078c00 	call	78c0 <OS_FlagBlock>
    70bc:	e0bffe17 	ldw	r2,-8(fp)
    70c0:	e0bff715 	stw	r2,-36(fp)
  NIOS2_WRITE_STATUS (context);
    70c4:	e0bff717 	ldw	r2,-36(fp)
    70c8:	1001703a 	wrctl	status,r2
}
    70cc:	0001883a 	nop
                 OS_EXIT_CRITICAL();
             }
             break;
    70d0:	00006a06 	br	727c <OSFlagPend+0x458>

#if OS_FLAG_WAIT_CLR_EN > 0u
        case OS_FLAG_WAIT_CLR_ALL:                         /* See if all required flags are cleared    */
             flags_rdy = (OS_FLAGS)~pgrp->OSFlagFlags & flags;    /* Extract only the bits we want     */
    70d4:	e0bfe817 	ldw	r2,-96(fp)
    70d8:	1080020b 	ldhu	r2,8(r2)
    70dc:	0084303a 	nor	r2,zero,r2
    70e0:	1007883a 	mov	r3,r2
    70e4:	e0bfe70b 	ldhu	r2,-100(fp)
    70e8:	10c4703a 	and	r2,r2,r3
    70ec:	e0bffd0d 	sth	r2,-12(fp)
             if (flags_rdy == flags) {                     /* Must match ALL the bits that we want     */
    70f0:	e0fffd0b 	ldhu	r3,-12(fp)
    70f4:	e0bfe70b 	ldhu	r2,-100(fp)
    70f8:	1880161e 	bne	r3,r2,7154 <OSFlagPend+0x330>
                 if (consume == OS_TRUE) {                 /* See if we need to consume the flags      */
    70fc:	e0bfffc3 	ldbu	r2,-1(fp)
    7100:	10800058 	cmpnei	r2,r2,1
    7104:	1000071e 	bne	r2,zero,7124 <OSFlagPend+0x300>
                     pgrp->OSFlagFlags |= flags_rdy;       /* Set ONLY the flags that we wanted        */
    7108:	e0bfe817 	ldw	r2,-96(fp)
    710c:	1080020b 	ldhu	r2,8(r2)
    7110:	e0fffd0b 	ldhu	r3,-12(fp)
    7114:	1884b03a 	or	r2,r3,r2
    7118:	1007883a 	mov	r3,r2
    711c:	e0bfe817 	ldw	r2,-96(fp)
    7120:	10c0020d 	sth	r3,8(r2)
                 }
                 OSTCBCur->OSTCBFlagsRdy = flags_rdy;      /* Save flags that were ready               */
    7124:	d0ab4817 	ldw	r2,-21216(gp)
    7128:	e0fffd0b 	ldhu	r3,-12(fp)
    712c:	10c00c0d 	sth	r3,48(r2)
    7130:	e0bffe17 	ldw	r2,-8(fp)
    7134:	e0bff615 	stw	r2,-40(fp)
  NIOS2_WRITE_STATUS (context);
    7138:	e0bff617 	ldw	r2,-40(fp)
    713c:	1001703a 	wrctl	status,r2
}
    7140:	0001883a 	nop
                 OS_EXIT_CRITICAL();                       /* Yes, condition met, return to caller     */
                 *perr                   = OS_ERR_NONE;
    7144:	e0800217 	ldw	r2,8(fp)
    7148:	10000005 	stb	zero,0(r2)
                 OS_TRACE_FLAG_PEND_EXIT(*perr);
                 return (flags_rdy);
    714c:	e0bffd0b 	ldhu	r2,-12(fp)
    7150:	0000a506 	br	73e8 <OSFlagPend+0x5c4>
             } else {                                      /* Block task until events occur or timeout */
                 OS_FlagBlock(pgrp, &node, flags, wait_type, timeout);
    7154:	e13fe70b 	ldhu	r4,-100(fp)
    7158:	e17fe603 	ldbu	r5,-104(fp)
    715c:	e0ffe904 	addi	r3,fp,-92
    7160:	e0bfe517 	ldw	r2,-108(fp)
    7164:	d8800015 	stw	r2,0(sp)
    7168:	280f883a 	mov	r7,r5
    716c:	200d883a 	mov	r6,r4
    7170:	180b883a 	mov	r5,r3
    7174:	e13fe817 	ldw	r4,-96(fp)
    7178:	00078c00 	call	78c0 <OS_FlagBlock>
    717c:	e0bffe17 	ldw	r2,-8(fp)
    7180:	e0bff515 	stw	r2,-44(fp)
  NIOS2_WRITE_STATUS (context);
    7184:	e0bff517 	ldw	r2,-44(fp)
    7188:	1001703a 	wrctl	status,r2
}
    718c:	0001883a 	nop
                 OS_EXIT_CRITICAL();
             }
             break;
    7190:	00003a06 	br	727c <OSFlagPend+0x458>

        case OS_FLAG_WAIT_CLR_ANY:
             flags_rdy = (OS_FLAGS)~pgrp->OSFlagFlags & flags;   /* Extract only the bits we want      */
    7194:	e0bfe817 	ldw	r2,-96(fp)
    7198:	1080020b 	ldhu	r2,8(r2)
    719c:	0084303a 	nor	r2,zero,r2
    71a0:	1007883a 	mov	r3,r2
    71a4:	e0bfe70b 	ldhu	r2,-100(fp)
    71a8:	10c4703a 	and	r2,r2,r3
    71ac:	e0bffd0d 	sth	r2,-12(fp)
             if (flags_rdy != (OS_FLAGS)0) {               /* See if any flag cleared                  */
    71b0:	e0bffd0b 	ldhu	r2,-12(fp)
    71b4:	10001626 	beq	r2,zero,7210 <OSFlagPend+0x3ec>
                 if (consume == OS_TRUE) {                 /* See if we need to consume the flags      */
    71b8:	e0bfffc3 	ldbu	r2,-1(fp)
    71bc:	10800058 	cmpnei	r2,r2,1
    71c0:	1000071e 	bne	r2,zero,71e0 <OSFlagPend+0x3bc>
                     pgrp->OSFlagFlags |= flags_rdy;       /* Set ONLY the flags that we got           */
    71c4:	e0bfe817 	ldw	r2,-96(fp)
    71c8:	1080020b 	ldhu	r2,8(r2)
    71cc:	e0fffd0b 	ldhu	r3,-12(fp)
    71d0:	1884b03a 	or	r2,r3,r2
    71d4:	1007883a 	mov	r3,r2
    71d8:	e0bfe817 	ldw	r2,-96(fp)
    71dc:	10c0020d 	sth	r3,8(r2)
                 }
                 OSTCBCur->OSTCBFlagsRdy = flags_rdy;      /* Save flags that were ready               */
    71e0:	d0ab4817 	ldw	r2,-21216(gp)
    71e4:	e0fffd0b 	ldhu	r3,-12(fp)
    71e8:	10c00c0d 	sth	r3,48(r2)
    71ec:	e0bffe17 	ldw	r2,-8(fp)
    71f0:	e0bff415 	stw	r2,-48(fp)
  NIOS2_WRITE_STATUS (context);
    71f4:	e0bff417 	ldw	r2,-48(fp)
    71f8:	1001703a 	wrctl	status,r2
}
    71fc:	0001883a 	nop
                 OS_EXIT_CRITICAL();                       /* Yes, condition met, return to caller     */
                 *perr                   = OS_ERR_NONE;
    7200:	e0800217 	ldw	r2,8(fp)
    7204:	10000005 	stb	zero,0(r2)
                 OS_TRACE_FLAG_PEND_EXIT(*perr);
                 return (flags_rdy);
    7208:	e0bffd0b 	ldhu	r2,-12(fp)
    720c:	00007606 	br	73e8 <OSFlagPend+0x5c4>
             } else {                                      /* Block task until events occur or timeout */
                 OS_FlagBlock(pgrp, &node, flags, wait_type, timeout);
    7210:	e13fe70b 	ldhu	r4,-100(fp)
    7214:	e17fe603 	ldbu	r5,-104(fp)
    7218:	e0ffe904 	addi	r3,fp,-92
    721c:	e0bfe517 	ldw	r2,-108(fp)
    7220:	d8800015 	stw	r2,0(sp)
    7224:	280f883a 	mov	r7,r5
    7228:	200d883a 	mov	r6,r4
    722c:	180b883a 	mov	r5,r3
    7230:	e13fe817 	ldw	r4,-96(fp)
    7234:	00078c00 	call	78c0 <OS_FlagBlock>
    7238:	e0bffe17 	ldw	r2,-8(fp)
    723c:	e0bff315 	stw	r2,-52(fp)
  NIOS2_WRITE_STATUS (context);
    7240:	e0bff317 	ldw	r2,-52(fp)
    7244:	1001703a 	wrctl	status,r2
}
    7248:	0001883a 	nop
                 OS_EXIT_CRITICAL();
             }
             break;
    724c:	00000b06 	br	727c <OSFlagPend+0x458>
    7250:	e0bffe17 	ldw	r2,-8(fp)
    7254:	e0bff215 	stw	r2,-56(fp)
  NIOS2_WRITE_STATUS (context);
    7258:	e0bff217 	ldw	r2,-56(fp)
    725c:	1001703a 	wrctl	status,r2
}
    7260:	0001883a 	nop
#endif

        default:
             OS_EXIT_CRITICAL();
             flags_rdy = (OS_FLAGS)0;
    7264:	e03ffd0d 	sth	zero,-12(fp)
             *perr      = OS_ERR_FLAG_WAIT_TYPE;
    7268:	e0800217 	ldw	r2,8(fp)
    726c:	00c01bc4 	movi	r3,111
    7270:	10c00005 	stb	r3,0(r2)
             OS_TRACE_FLAG_PEND_EXIT(*perr);
             return (flags_rdy);
    7274:	e0bffd0b 	ldhu	r2,-12(fp)
    7278:	00005b06 	br	73e8 <OSFlagPend+0x5c4>
    }

    OS_Sched();                                            /* Find next HPT ready to run               */
    727c:	0005c980 	call	5c98 <OS_Sched>
  NIOS2_READ_STATUS (context);
    7280:	0005303a 	rdctl	r2,status
    7284:	e0bff115 	stw	r2,-60(fp)
  NIOS2_WRITE_STATUS (context & ~NIOS2_STATUS_PIE_MSK);
    7288:	e0fff117 	ldw	r3,-60(fp)
    728c:	00bfff84 	movi	r2,-2
    7290:	1884703a 	and	r2,r3,r2
    7294:	1001703a 	wrctl	status,r2
  return context;
    7298:	e0bff117 	ldw	r2,-60(fp)
    OS_ENTER_CRITICAL();
    729c:	e0bffe15 	stw	r2,-8(fp)
    if (OSTCBCur->OSTCBStatPend != OS_STAT_PEND_OK) {      /* Have we timed-out or aborted?            */
    72a0:	d0ab4817 	ldw	r2,-21216(gp)
    72a4:	10800e43 	ldbu	r2,57(r2)
    72a8:	10803fcc 	andi	r2,r2,255
    72ac:	10001d26 	beq	r2,zero,7324 <OSFlagPend+0x500>
        pend_stat                = OSTCBCur->OSTCBStatPend;
    72b0:	d0ab4817 	ldw	r2,-21216(gp)
    72b4:	10800e43 	ldbu	r2,57(r2)
    72b8:	e0bffcc5 	stb	r2,-13(fp)
        OSTCBCur->OSTCBStatPend  = OS_STAT_PEND_OK;
    72bc:	d0ab4817 	ldw	r2,-21216(gp)
    72c0:	10000e45 	stb	zero,57(r2)
        OS_FlagUnlink(&node);
    72c4:	e0bfe904 	addi	r2,fp,-92
    72c8:	1009883a 	mov	r4,r2
    72cc:	0007c1c0 	call	7c1c <OS_FlagUnlink>
        OSTCBCur->OSTCBStat      = OS_STAT_RDY;            /* Yes, make task ready-to-run              */
    72d0:	d0ab4817 	ldw	r2,-21216(gp)
    72d4:	10000e05 	stb	zero,56(r2)
    72d8:	e0bffe17 	ldw	r2,-8(fp)
    72dc:	e0bff015 	stw	r2,-64(fp)
  NIOS2_WRITE_STATUS (context);
    72e0:	e0bff017 	ldw	r2,-64(fp)
    72e4:	1001703a 	wrctl	status,r2
}
    72e8:	0001883a 	nop
        OS_EXIT_CRITICAL();
        flags_rdy                = (OS_FLAGS)0;
    72ec:	e03ffd0d 	sth	zero,-12(fp)
        switch (pend_stat) {
    72f0:	e0bffcc3 	ldbu	r2,-13(fp)
    72f4:	10800098 	cmpnei	r2,r2,2
    72f8:	1000041e 	bne	r2,zero,730c <OSFlagPend+0x4e8>
            case OS_STAT_PEND_ABORT:
                 *perr = OS_ERR_PEND_ABORT;                /* Indicate that we aborted   waiting       */
    72fc:	e0800217 	ldw	r2,8(fp)
    7300:	00c00384 	movi	r3,14
    7304:	10c00005 	stb	r3,0(r2)
                 break;
    7308:	00000406 	br	731c <OSFlagPend+0x4f8>

            case OS_STAT_PEND_TO:
            default:
                 *perr = OS_ERR_TIMEOUT;                   /* Indicate that we timed-out waiting       */
    730c:	e0800217 	ldw	r2,8(fp)
    7310:	00c00284 	movi	r3,10
    7314:	10c00005 	stb	r3,0(r2)
                 break;
    7318:	0001883a 	nop
        }
        OS_TRACE_FLAG_PEND_EXIT(*perr);
        return (flags_rdy);
    731c:	e0bffd0b 	ldhu	r2,-12(fp)
    7320:	00003106 	br	73e8 <OSFlagPend+0x5c4>
    }
    flags_rdy = OSTCBCur->OSTCBFlagsRdy;
    7324:	d0ab4817 	ldw	r2,-21216(gp)
    7328:	10800c0b 	ldhu	r2,48(r2)
    732c:	e0bffd0d 	sth	r2,-12(fp)
    if (consume == OS_TRUE) {                              /* See if we need to consume the flags      */
    7330:	e0bfffc3 	ldbu	r2,-1(fp)
    7334:	10800058 	cmpnei	r2,r2,1
    7338:	1000231e 	bne	r2,zero,73c8 <OSFlagPend+0x5a4>
        switch (wait_type) {
    733c:	e0bfe603 	ldbu	r2,-104(fp)
    7340:	10c00088 	cmpgei	r3,r2,2
    7344:	1800021e 	bne	r3,zero,7350 <OSFlagPend+0x52c>
    7348:	10000d0e 	bge	r2,zero,7380 <OSFlagPend+0x55c>
    734c:	00001406 	br	73a0 <OSFlagPend+0x57c>
    7350:	10bfff84 	addi	r2,r2,-2
    7354:	108000a8 	cmpgeui	r2,r2,2
    7358:	1000111e 	bne	r2,zero,73a0 <OSFlagPend+0x57c>
            case OS_FLAG_WAIT_SET_ALL:
            case OS_FLAG_WAIT_SET_ANY:                     /* Clear ONLY the flags we got              */
                 pgrp->OSFlagFlags &= (OS_FLAGS)~flags_rdy;
    735c:	e0bfe817 	ldw	r2,-96(fp)
    7360:	1080020b 	ldhu	r2,8(r2)
    7364:	e0fffd0b 	ldhu	r3,-12(fp)
    7368:	00c6303a 	nor	r3,zero,r3
    736c:	10c4703a 	and	r2,r2,r3
    7370:	1007883a 	mov	r3,r2
    7374:	e0bfe817 	ldw	r2,-96(fp)
    7378:	10c0020d 	sth	r3,8(r2)
                 break;
    737c:	00001206 	br	73c8 <OSFlagPend+0x5a4>

#if OS_FLAG_WAIT_CLR_EN > 0u
            case OS_FLAG_WAIT_CLR_ALL:
            case OS_FLAG_WAIT_CLR_ANY:                     /* Set   ONLY the flags we got              */
                 pgrp->OSFlagFlags |=  flags_rdy;
    7380:	e0bfe817 	ldw	r2,-96(fp)
    7384:	1080020b 	ldhu	r2,8(r2)
    7388:	e0fffd0b 	ldhu	r3,-12(fp)
    738c:	1884b03a 	or	r2,r3,r2
    7390:	1007883a 	mov	r3,r2
    7394:	e0bfe817 	ldw	r2,-96(fp)
    7398:	10c0020d 	sth	r3,8(r2)
                 break;
    739c:	00000a06 	br	73c8 <OSFlagPend+0x5a4>
    73a0:	e0bffe17 	ldw	r2,-8(fp)
    73a4:	e0bfef15 	stw	r2,-68(fp)
  NIOS2_WRITE_STATUS (context);
    73a8:	e0bfef17 	ldw	r2,-68(fp)
    73ac:	1001703a 	wrctl	status,r2
}
    73b0:	0001883a 	nop
#endif
            default:
                 OS_EXIT_CRITICAL();
                 *perr = OS_ERR_FLAG_WAIT_TYPE;
    73b4:	e0800217 	ldw	r2,8(fp)
    73b8:	00c01bc4 	movi	r3,111
    73bc:	10c00005 	stb	r3,0(r2)
                 OS_TRACE_FLAG_PEND_EXIT(*perr);
                 return ((OS_FLAGS)0);
    73c0:	0005883a 	mov	r2,zero
    73c4:	00000806 	br	73e8 <OSFlagPend+0x5c4>
    73c8:	e0bffe17 	ldw	r2,-8(fp)
    73cc:	e0bfee15 	stw	r2,-72(fp)
  NIOS2_WRITE_STATUS (context);
    73d0:	e0bfee17 	ldw	r2,-72(fp)
    73d4:	1001703a 	wrctl	status,r2
}
    73d8:	0001883a 	nop
        }
    }
    OS_EXIT_CRITICAL();
    *perr = OS_ERR_NONE;                                   /* Event(s) must have occurred              */
    73dc:	e0800217 	ldw	r2,8(fp)
    73e0:	10000005 	stb	zero,0(r2)
    OS_TRACE_FLAG_PEND_EXIT(*perr);
    return (flags_rdy);
    73e4:	e0bffd0b 	ldhu	r2,-12(fp)
}
    73e8:	e037883a 	mov	sp,fp
    73ec:	dfc00117 	ldw	ra,4(sp)
    73f0:	df000017 	ldw	fp,0(sp)
    73f4:	dec00204 	addi	sp,sp,8
    73f8:	f800283a 	ret

000073fc <OSFlagPendGetFlagsRdy>:
* Called from: Task ONLY
*********************************************************************************************************
*/

OS_FLAGS  OSFlagPendGetFlagsRdy (void)
{
    73fc:	defffb04 	addi	sp,sp,-20
    7400:	df000415 	stw	fp,16(sp)
    7404:	df000404 	addi	fp,sp,16
    OS_FLAGS      flags;
#if OS_CRITICAL_METHOD == 3u                               /* Allocate storage for CPU status register */
    OS_CPU_SR     cpu_sr = 0u;
    7408:	e03fff15 	stw	zero,-4(fp)
  NIOS2_READ_STATUS (context);
    740c:	0005303a 	rdctl	r2,status
    7410:	e0bffc15 	stw	r2,-16(fp)
  NIOS2_WRITE_STATUS (context & ~NIOS2_STATUS_PIE_MSK);
    7414:	e0fffc17 	ldw	r3,-16(fp)
    7418:	00bfff84 	movi	r2,-2
    741c:	1884703a 	and	r2,r3,r2
    7420:	1001703a 	wrctl	status,r2
  return context;
    7424:	e0bffc17 	ldw	r2,-16(fp)
#endif



    OS_ENTER_CRITICAL();
    7428:	e0bfff15 	stw	r2,-4(fp)
    flags = OSTCBCur->OSTCBFlagsRdy;
    742c:	d0ab4817 	ldw	r2,-21216(gp)
    7430:	10800c0b 	ldhu	r2,48(r2)
    7434:	e0bffe8d 	sth	r2,-6(fp)
    7438:	e0bfff17 	ldw	r2,-4(fp)
    743c:	e0bffd15 	stw	r2,-12(fp)
  NIOS2_WRITE_STATUS (context);
    7440:	e0bffd17 	ldw	r2,-12(fp)
    7444:	1001703a 	wrctl	status,r2
}
    7448:	0001883a 	nop
    OS_EXIT_CRITICAL();
    return (flags);
    744c:	e0bffe8b 	ldhu	r2,-6(fp)
}
    7450:	e037883a 	mov	sp,fp
    7454:	df000017 	ldw	fp,0(sp)
    7458:	dec00104 	addi	sp,sp,4
    745c:	f800283a 	ret

00007460 <OSFlagPost>:
*/
OS_FLAGS  OSFlagPost (OS_FLAG_GRP  *pgrp,
                      OS_FLAGS      flags,
                      INT8U         opt,
                      INT8U        *perr)
{
    7460:	deffef04 	addi	sp,sp,-68
    7464:	dfc01015 	stw	ra,64(sp)
    7468:	df000f15 	stw	fp,60(sp)
    746c:	df000f04 	addi	fp,sp,60
    7470:	e13ff415 	stw	r4,-48(fp)
    7474:	2805883a 	mov	r2,r5
    7478:	3007883a 	mov	r3,r6
    747c:	e1fff115 	stw	r7,-60(fp)
    7480:	e0bff30d 	sth	r2,-52(fp)
    7484:	1805883a 	mov	r2,r3
    7488:	e0bff205 	stb	r2,-56(fp)
    BOOLEAN       sched;
    OS_FLAGS      flags_cur;
    OS_FLAGS      flags_rdy;
    BOOLEAN       rdy;
#if OS_CRITICAL_METHOD == 3u                         /* Allocate storage for CPU status register       */
    OS_CPU_SR     cpu_sr = 0u;
    748c:	e03ffd15 	stw	zero,-12(fp)
        return ((OS_FLAGS)0);
    }
#endif

#if OS_ARG_CHK_EN > 0u
    if (pgrp == (OS_FLAG_GRP *)0) {                  /* Validate 'pgrp'                                */
    7490:	e0bff417 	ldw	r2,-48(fp)
    7494:	1000051e 	bne	r2,zero,74ac <OSFlagPost+0x4c>
        *perr = OS_ERR_FLAG_INVALID_PGRP;
    7498:	e0bff117 	ldw	r2,-60(fp)
    749c:	00c01b84 	movi	r3,110
    74a0:	10c00005 	stb	r3,0(r2)
        return ((OS_FLAGS)0);
    74a4:	0005883a 	mov	r2,zero
    74a8:	0000d206 	br	77f4 <OSFlagPost+0x394>
    }
#endif

    OS_TRACE_FLAG_POST_ENTER(pgrp, flags, opt);

    if (pgrp->OSFlagType != OS_EVENT_TYPE_FLAG) {    /* Make sure we are pointing to an event flag grp */
    74ac:	e0bff417 	ldw	r2,-48(fp)
    74b0:	10800003 	ldbu	r2,0(r2)
    74b4:	10803fcc 	andi	r2,r2,255
    74b8:	10800160 	cmpeqi	r2,r2,5
    74bc:	1000051e 	bne	r2,zero,74d4 <OSFlagPost+0x74>
        *perr = OS_ERR_EVENT_TYPE;
    74c0:	e0bff117 	ldw	r2,-60(fp)
    74c4:	00c00044 	movi	r3,1
    74c8:	10c00005 	stb	r3,0(r2)
        OS_TRACE_FLAG_POST_EXIT(*perr);
        return ((OS_FLAGS)0);
    74cc:	0005883a 	mov	r2,zero
    74d0:	0000c806 	br	77f4 <OSFlagPost+0x394>
  NIOS2_READ_STATUS (context);
    74d4:	0005303a 	rdctl	r2,status
    74d8:	e0bffa15 	stw	r2,-24(fp)
  NIOS2_WRITE_STATUS (context & ~NIOS2_STATUS_PIE_MSK);
    74dc:	e0fffa17 	ldw	r3,-24(fp)
    74e0:	00bfff84 	movi	r2,-2
    74e4:	1884703a 	and	r2,r3,r2
    74e8:	1001703a 	wrctl	status,r2
  return context;
    74ec:	e0bffa17 	ldw	r2,-24(fp)
    }

    OS_ENTER_CRITICAL();
    74f0:	e0bffd15 	stw	r2,-12(fp)
    switch (opt) {
    74f4:	e0bff203 	ldbu	r2,-56(fp)
    74f8:	10000326 	beq	r2,zero,7508 <OSFlagPost+0xa8>
    74fc:	10800060 	cmpeqi	r2,r2,1
    7500:	10000a1e 	bne	r2,zero,752c <OSFlagPost+0xcc>
    7504:	00001106 	br	754c <OSFlagPost+0xec>
        case OS_FLAG_CLR:
             pgrp->OSFlagFlags &= (OS_FLAGS)~flags;  /* Clear the flags specified in the group         */
    7508:	e0bff417 	ldw	r2,-48(fp)
    750c:	1080020b 	ldhu	r2,8(r2)
    7510:	e0fff30b 	ldhu	r3,-52(fp)
    7514:	00c6303a 	nor	r3,zero,r3
    7518:	10c4703a 	and	r2,r2,r3
    751c:	1007883a 	mov	r3,r2
    7520:	e0bff417 	ldw	r2,-48(fp)
    7524:	10c0020d 	sth	r3,8(r2)
             break;
    7528:	00001206 	br	7574 <OSFlagPost+0x114>

        case OS_FLAG_SET:
             pgrp->OSFlagFlags |=  flags;            /* Set   the flags specified in the group         */
    752c:	e0bff417 	ldw	r2,-48(fp)
    7530:	1080020b 	ldhu	r2,8(r2)
    7534:	e0fff30b 	ldhu	r3,-52(fp)
    7538:	1884b03a 	or	r2,r3,r2
    753c:	1007883a 	mov	r3,r2
    7540:	e0bff417 	ldw	r2,-48(fp)
    7544:	10c0020d 	sth	r3,8(r2)
             break;
    7548:	00000a06 	br	7574 <OSFlagPost+0x114>
    754c:	e0bffd17 	ldw	r2,-12(fp)
    7550:	e0bff915 	stw	r2,-28(fp)
  NIOS2_WRITE_STATUS (context);
    7554:	e0bff917 	ldw	r2,-28(fp)
    7558:	1001703a 	wrctl	status,r2
}
    755c:	0001883a 	nop

        default:
             OS_EXIT_CRITICAL();                     /* INVALID option                                 */
             *perr = OS_ERR_FLAG_INVALID_OPT;
    7560:	e0bff117 	ldw	r2,-60(fp)
    7564:	00c01c44 	movi	r3,113
    7568:	10c00005 	stb	r3,0(r2)
             OS_TRACE_FLAG_POST_EXIT(*perr);
             return ((OS_FLAGS)0);
    756c:	0005883a 	mov	r2,zero
    7570:	0000a006 	br	77f4 <OSFlagPost+0x394>
    }
    sched = OS_FALSE;                                /* Indicate that we don't need rescheduling       */
    7574:	e03ffec5 	stb	zero,-5(fp)
    pnode = (OS_FLAG_NODE *)pgrp->OSFlagWaitList;
    7578:	e0bff417 	ldw	r2,-48(fp)
    757c:	10800117 	ldw	r2,4(r2)
    7580:	e0bfff15 	stw	r2,-4(fp)
    while (pnode != (OS_FLAG_NODE *)0) {             /* Go through all tasks waiting on event flag(s)  */
    7584:	00007d06 	br	777c <OSFlagPost+0x31c>
        switch (pnode->OSFlagNodeWaitType) {
    7588:	e0bfff17 	ldw	r2,-4(fp)
    758c:	10800483 	ldbu	r2,18(r2)
    7590:	10803fcc 	andi	r2,r2,255
    7594:	10c000e0 	cmpeqi	r3,r2,3
    7598:	1800211e 	bne	r3,zero,7620 <OSFlagPost+0x1c0>
    759c:	10c00108 	cmpgei	r3,r2,4
    75a0:	1800621e 	bne	r3,zero,772c <OSFlagPost+0x2cc>
    75a4:	10c000a0 	cmpeqi	r3,r2,2
    75a8:	1800061e 	bne	r3,zero,75c4 <OSFlagPost+0x164>
    75ac:	10c000c8 	cmpgei	r3,r2,3
    75b0:	18005e1e 	bne	r3,zero,772c <OSFlagPost+0x2cc>
    75b4:	10002e26 	beq	r2,zero,7670 <OSFlagPost+0x210>
    75b8:	10800060 	cmpeqi	r2,r2,1
    75bc:	1000451e 	bne	r2,zero,76d4 <OSFlagPost+0x274>
    75c0:	00005a06 	br	772c <OSFlagPost+0x2cc>
            case OS_FLAG_WAIT_SET_ALL:               /* See if all req. flags are set for current node */
                 flags_rdy = (OS_FLAGS)(pgrp->OSFlagFlags & pnode->OSFlagNodeFlags);
    75c4:	e0bff417 	ldw	r2,-48(fp)
    75c8:	10c0020b 	ldhu	r3,8(r2)
    75cc:	e0bfff17 	ldw	r2,-4(fp)
    75d0:	1080040b 	ldhu	r2,16(r2)
    75d4:	1884703a 	and	r2,r3,r2
    75d8:	e0bffc0d 	sth	r2,-16(fp)
                 if (flags_rdy == pnode->OSFlagNodeFlags) {   /* Make task RTR, event(s) Rx'd          */
    75dc:	e0bfff17 	ldw	r2,-4(fp)
    75e0:	1080040b 	ldhu	r2,16(r2)
    75e4:	e0fffc0b 	ldhu	r3,-16(fp)
    75e8:	10bfffcc 	andi	r2,r2,65535
    75ec:	1880591e 	bne	r3,r2,7754 <OSFlagPost+0x2f4>
                     rdy = OS_FlagTaskRdy(pnode, flags_rdy, OS_STAT_PEND_OK);
    75f0:	e0bffc0b 	ldhu	r2,-16(fp)
    75f4:	000d883a 	mov	r6,zero
    75f8:	100b883a 	mov	r5,r2
    75fc:	e13fff17 	ldw	r4,-4(fp)
    7600:	0007b180 	call	7b18 <OS_FlagTaskRdy>
    7604:	e0bffbc5 	stb	r2,-17(fp)
                     if (rdy == OS_TRUE) {
    7608:	e0bffbc3 	ldbu	r2,-17(fp)
    760c:	10800058 	cmpnei	r2,r2,1
    7610:	1000501e 	bne	r2,zero,7754 <OSFlagPost+0x2f4>
                         sched = OS_TRUE;                     /* When done we will reschedule          */
    7614:	00800044 	movi	r2,1
    7618:	e0bffec5 	stb	r2,-5(fp)
                     }
                 }
                 break;
    761c:	00004d06 	br	7754 <OSFlagPost+0x2f4>

            case OS_FLAG_WAIT_SET_ANY:               /* See if any flag set                            */
                 flags_rdy = (OS_FLAGS)(pgrp->OSFlagFlags & pnode->OSFlagNodeFlags);
    7620:	e0bff417 	ldw	r2,-48(fp)
    7624:	10c0020b 	ldhu	r3,8(r2)
    7628:	e0bfff17 	ldw	r2,-4(fp)
    762c:	1080040b 	ldhu	r2,16(r2)
    7630:	1884703a 	and	r2,r3,r2
    7634:	e0bffc0d 	sth	r2,-16(fp)
                 if (flags_rdy != (OS_FLAGS)0) {              /* Make task RTR, event(s) Rx'd          */
    7638:	e0bffc0b 	ldhu	r2,-16(fp)
    763c:	10004726 	beq	r2,zero,775c <OSFlagPost+0x2fc>
                     rdy = OS_FlagTaskRdy(pnode, flags_rdy, OS_STAT_PEND_OK);
    7640:	e0bffc0b 	ldhu	r2,-16(fp)
    7644:	000d883a 	mov	r6,zero
    7648:	100b883a 	mov	r5,r2
    764c:	e13fff17 	ldw	r4,-4(fp)
    7650:	0007b180 	call	7b18 <OS_FlagTaskRdy>
    7654:	e0bffbc5 	stb	r2,-17(fp)
                     if (rdy == OS_TRUE) {
    7658:	e0bffbc3 	ldbu	r2,-17(fp)
    765c:	10800058 	cmpnei	r2,r2,1
    7660:	10003e1e 	bne	r2,zero,775c <OSFlagPost+0x2fc>
                         sched = OS_TRUE;                     /* When done we will reschedule          */
    7664:	00800044 	movi	r2,1
    7668:	e0bffec5 	stb	r2,-5(fp)
                     }
                 }
                 break;
    766c:	00003b06 	br	775c <OSFlagPost+0x2fc>

#if OS_FLAG_WAIT_CLR_EN > 0u
            case OS_FLAG_WAIT_CLR_ALL:               /* See if all req. flags are set for current node */
                 flags_rdy = (OS_FLAGS)~pgrp->OSFlagFlags & pnode->OSFlagNodeFlags;
    7670:	e0bff417 	ldw	r2,-48(fp)
    7674:	1080020b 	ldhu	r2,8(r2)
    7678:	0084303a 	nor	r2,zero,r2
    767c:	1007883a 	mov	r3,r2
    7680:	e0bfff17 	ldw	r2,-4(fp)
    7684:	1080040b 	ldhu	r2,16(r2)
    7688:	1884703a 	and	r2,r3,r2
    768c:	e0bffc0d 	sth	r2,-16(fp)
                 if (flags_rdy == pnode->OSFlagNodeFlags) {   /* Make task RTR, event(s) Rx'd          */
    7690:	e0bfff17 	ldw	r2,-4(fp)
    7694:	1080040b 	ldhu	r2,16(r2)
    7698:	e0fffc0b 	ldhu	r3,-16(fp)
    769c:	10bfffcc 	andi	r2,r2,65535
    76a0:	1880301e 	bne	r3,r2,7764 <OSFlagPost+0x304>
                     rdy = OS_FlagTaskRdy(pnode, flags_rdy, OS_STAT_PEND_OK);
    76a4:	e0bffc0b 	ldhu	r2,-16(fp)
    76a8:	000d883a 	mov	r6,zero
    76ac:	100b883a 	mov	r5,r2
    76b0:	e13fff17 	ldw	r4,-4(fp)
    76b4:	0007b180 	call	7b18 <OS_FlagTaskRdy>
    76b8:	e0bffbc5 	stb	r2,-17(fp)
                     if (rdy == OS_TRUE) {
    76bc:	e0bffbc3 	ldbu	r2,-17(fp)
    76c0:	10800058 	cmpnei	r2,r2,1
    76c4:	1000271e 	bne	r2,zero,7764 <OSFlagPost+0x304>
                         sched = OS_TRUE;                     /* When done we will reschedule          */
    76c8:	00800044 	movi	r2,1
    76cc:	e0bffec5 	stb	r2,-5(fp)
                     }
                 }
                 break;
    76d0:	00002406 	br	7764 <OSFlagPost+0x304>

            case OS_FLAG_WAIT_CLR_ANY:               /* See if any flag set                            */
                 flags_rdy = (OS_FLAGS)~pgrp->OSFlagFlags & pnode->OSFlagNodeFlags;
    76d4:	e0bff417 	ldw	r2,-48(fp)
    76d8:	1080020b 	ldhu	r2,8(r2)
    76dc:	0084303a 	nor	r2,zero,r2
    76e0:	1007883a 	mov	r3,r2
    76e4:	e0bfff17 	ldw	r2,-4(fp)
    76e8:	1080040b 	ldhu	r2,16(r2)
    76ec:	1884703a 	and	r2,r3,r2
    76f0:	e0bffc0d 	sth	r2,-16(fp)
                 if (flags_rdy != (OS_FLAGS)0) {              /* Make task RTR, event(s) Rx'd          */
    76f4:	e0bffc0b 	ldhu	r2,-16(fp)
    76f8:	10001c26 	beq	r2,zero,776c <OSFlagPost+0x30c>
                     rdy = OS_FlagTaskRdy(pnode, flags_rdy, OS_STAT_PEND_OK);
    76fc:	e0bffc0b 	ldhu	r2,-16(fp)
    7700:	000d883a 	mov	r6,zero
    7704:	100b883a 	mov	r5,r2
    7708:	e13fff17 	ldw	r4,-4(fp)
    770c:	0007b180 	call	7b18 <OS_FlagTaskRdy>
    7710:	e0bffbc5 	stb	r2,-17(fp)
                     if (rdy == OS_TRUE) {
    7714:	e0bffbc3 	ldbu	r2,-17(fp)
    7718:	10800058 	cmpnei	r2,r2,1
    771c:	1000131e 	bne	r2,zero,776c <OSFlagPost+0x30c>
                         sched = OS_TRUE;                     /* When done we will reschedule          */
    7720:	00800044 	movi	r2,1
    7724:	e0bffec5 	stb	r2,-5(fp)
                     }
                 }
                 break;
    7728:	00001006 	br	776c <OSFlagPost+0x30c>
    772c:	e0bffd17 	ldw	r2,-12(fp)
    7730:	e0bff815 	stw	r2,-32(fp)
  NIOS2_WRITE_STATUS (context);
    7734:	e0bff817 	ldw	r2,-32(fp)
    7738:	1001703a 	wrctl	status,r2
}
    773c:	0001883a 	nop
#endif
            default:
                 OS_EXIT_CRITICAL();
                 *perr = OS_ERR_FLAG_WAIT_TYPE;
    7740:	e0bff117 	ldw	r2,-60(fp)
    7744:	00c01bc4 	movi	r3,111
    7748:	10c00005 	stb	r3,0(r2)
                 OS_TRACE_FLAG_POST_EXIT(*perr);
                 return ((OS_FLAGS)0);
    774c:	0005883a 	mov	r2,zero
    7750:	00002806 	br	77f4 <OSFlagPost+0x394>
                 break;
    7754:	0001883a 	nop
    7758:	00000506 	br	7770 <OSFlagPost+0x310>
                 break;
    775c:	0001883a 	nop
    7760:	00000306 	br	7770 <OSFlagPost+0x310>
                 break;
    7764:	0001883a 	nop
    7768:	00000106 	br	7770 <OSFlagPost+0x310>
                 break;
    776c:	0001883a 	nop
        }
        pnode = (OS_FLAG_NODE *)pnode->OSFlagNodeNext; /* Point to next task waiting for event flag(s) */
    7770:	e0bfff17 	ldw	r2,-4(fp)
    7774:	10800017 	ldw	r2,0(r2)
    7778:	e0bfff15 	stw	r2,-4(fp)
    while (pnode != (OS_FLAG_NODE *)0) {             /* Go through all tasks waiting on event flag(s)  */
    777c:	e0bfff17 	ldw	r2,-4(fp)
    7780:	103f811e 	bne	r2,zero,7588 <OSFlagPost+0x128>
    7784:	e0bffd17 	ldw	r2,-12(fp)
    7788:	e0bff715 	stw	r2,-36(fp)
  NIOS2_WRITE_STATUS (context);
    778c:	e0bff717 	ldw	r2,-36(fp)
    7790:	1001703a 	wrctl	status,r2
}
    7794:	0001883a 	nop
    }
    OS_EXIT_CRITICAL();
    if (sched == OS_TRUE) {
    7798:	e0bffec3 	ldbu	r2,-5(fp)
    779c:	10800058 	cmpnei	r2,r2,1
    77a0:	1000011e 	bne	r2,zero,77a8 <OSFlagPost+0x348>
        OS_Sched();
    77a4:	0005c980 	call	5c98 <OS_Sched>
  NIOS2_READ_STATUS (context);
    77a8:	0005303a 	rdctl	r2,status
    77ac:	e0bff515 	stw	r2,-44(fp)
  NIOS2_WRITE_STATUS (context & ~NIOS2_STATUS_PIE_MSK);
    77b0:	e0fff517 	ldw	r3,-44(fp)
    77b4:	00bfff84 	movi	r2,-2
    77b8:	1884703a 	and	r2,r3,r2
    77bc:	1001703a 	wrctl	status,r2
  return context;
    77c0:	e0bff517 	ldw	r2,-44(fp)
    }
    OS_ENTER_CRITICAL();
    77c4:	e0bffd15 	stw	r2,-12(fp)
    flags_cur = pgrp->OSFlagFlags;
    77c8:	e0bff417 	ldw	r2,-48(fp)
    77cc:	1080020b 	ldhu	r2,8(r2)
    77d0:	e0bffc8d 	sth	r2,-14(fp)
    77d4:	e0bffd17 	ldw	r2,-12(fp)
    77d8:	e0bff615 	stw	r2,-40(fp)
  NIOS2_WRITE_STATUS (context);
    77dc:	e0bff617 	ldw	r2,-40(fp)
    77e0:	1001703a 	wrctl	status,r2
}
    77e4:	0001883a 	nop
    OS_EXIT_CRITICAL();
    *perr     = OS_ERR_NONE;
    77e8:	e0bff117 	ldw	r2,-60(fp)
    77ec:	10000005 	stb	zero,0(r2)
    OS_TRACE_FLAG_POST_EXIT(*perr);

    return (flags_cur);
    77f0:	e0bffc8b 	ldhu	r2,-14(fp)
}
    77f4:	e037883a 	mov	sp,fp
    77f8:	dfc00117 	ldw	ra,4(sp)
    77fc:	df000017 	ldw	fp,0(sp)
    7800:	dec00204 	addi	sp,sp,8
    7804:	f800283a 	ret

00007808 <OSFlagQuery>:
*/

#if OS_FLAG_QUERY_EN > 0u
OS_FLAGS  OSFlagQuery (OS_FLAG_GRP  *pgrp,
                       INT8U        *perr)
{
    7808:	defff904 	addi	sp,sp,-28
    780c:	df000615 	stw	fp,24(sp)
    7810:	df000604 	addi	fp,sp,24
    7814:	e13ffb15 	stw	r4,-20(fp)
    7818:	e17ffa15 	stw	r5,-24(fp)
    OS_FLAGS   flags;
#if OS_CRITICAL_METHOD == 3u                      /* Allocate storage for CPU status register          */
    OS_CPU_SR  cpu_sr = 0u;
    781c:	e03fff15 	stw	zero,-4(fp)
        return ((OS_FLAGS)0);
    }
#endif

#if OS_ARG_CHK_EN > 0u
    if (pgrp == (OS_FLAG_GRP *)0) {               /* Validate 'pgrp'                                   */
    7820:	e0bffb17 	ldw	r2,-20(fp)
    7824:	1000051e 	bne	r2,zero,783c <OSFlagQuery+0x34>
        *perr = OS_ERR_FLAG_INVALID_PGRP;
    7828:	e0bffa17 	ldw	r2,-24(fp)
    782c:	00c01b84 	movi	r3,110
    7830:	10c00005 	stb	r3,0(r2)
        return ((OS_FLAGS)0);
    7834:	0005883a 	mov	r2,zero
    7838:	00001d06 	br	78b0 <OSFlagQuery+0xa8>
    }
#endif
    if (pgrp->OSFlagType != OS_EVENT_TYPE_FLAG) { /* Validate event block type                         */
    783c:	e0bffb17 	ldw	r2,-20(fp)
    7840:	10800003 	ldbu	r2,0(r2)
    7844:	10803fcc 	andi	r2,r2,255
    7848:	10800160 	cmpeqi	r2,r2,5
    784c:	1000051e 	bne	r2,zero,7864 <OSFlagQuery+0x5c>
        *perr = OS_ERR_EVENT_TYPE;
    7850:	e0bffa17 	ldw	r2,-24(fp)
    7854:	00c00044 	movi	r3,1
    7858:	10c00005 	stb	r3,0(r2)
        return ((OS_FLAGS)0);
    785c:	0005883a 	mov	r2,zero
    7860:	00001306 	br	78b0 <OSFlagQuery+0xa8>
  NIOS2_READ_STATUS (context);
    7864:	0005303a 	rdctl	r2,status
    7868:	e0bffc15 	stw	r2,-16(fp)
  NIOS2_WRITE_STATUS (context & ~NIOS2_STATUS_PIE_MSK);
    786c:	e0fffc17 	ldw	r3,-16(fp)
    7870:	00bfff84 	movi	r2,-2
    7874:	1884703a 	and	r2,r3,r2
    7878:	1001703a 	wrctl	status,r2
  return context;
    787c:	e0bffc17 	ldw	r2,-16(fp)
    }
    OS_ENTER_CRITICAL();
    7880:	e0bfff15 	stw	r2,-4(fp)
    flags = pgrp->OSFlagFlags;
    7884:	e0bffb17 	ldw	r2,-20(fp)
    7888:	1080020b 	ldhu	r2,8(r2)
    788c:	e0bffe8d 	sth	r2,-6(fp)
    7890:	e0bfff17 	ldw	r2,-4(fp)
    7894:	e0bffd15 	stw	r2,-12(fp)
  NIOS2_WRITE_STATUS (context);
    7898:	e0bffd17 	ldw	r2,-12(fp)
    789c:	1001703a 	wrctl	status,r2
}
    78a0:	0001883a 	nop
    OS_EXIT_CRITICAL();
    *perr = OS_ERR_NONE;
    78a4:	e0bffa17 	ldw	r2,-24(fp)
    78a8:	10000005 	stb	zero,0(r2)
    return (flags);                               /* Return the current value of the event flags       */
    78ac:	e0bffe8b 	ldhu	r2,-6(fp)
}
    78b0:	e037883a 	mov	sp,fp
    78b4:	df000017 	ldw	fp,0(sp)
    78b8:	dec00104 	addi	sp,sp,4
    78bc:	f800283a 	ret

000078c0 <OS_FlagBlock>:
static  void  OS_FlagBlock (OS_FLAG_GRP  *pgrp,
                            OS_FLAG_NODE *pnode,
                            OS_FLAGS      flags,
                            INT8U         wait_type,
                            INT32U        timeout)
{
    78c0:	defff904 	addi	sp,sp,-28
    78c4:	df000615 	stw	fp,24(sp)
    78c8:	df000604 	addi	fp,sp,24
    78cc:	e13ffd15 	stw	r4,-12(fp)
    78d0:	e17ffc15 	stw	r5,-16(fp)
    78d4:	3005883a 	mov	r2,r6
    78d8:	3807883a 	mov	r3,r7
    78dc:	e0bffb0d 	sth	r2,-20(fp)
    78e0:	1805883a 	mov	r2,r3
    78e4:	e0bffa05 	stb	r2,-24(fp)
    OS_FLAG_NODE  *pnode_next;
    INT8U          y;


    OSTCBCur->OSTCBStat      |= OS_STAT_FLAG;
    78e8:	d0ab4817 	ldw	r2,-21216(gp)
    78ec:	10c00e03 	ldbu	r3,56(r2)
    78f0:	d0ab4817 	ldw	r2,-21216(gp)
    78f4:	18c00814 	ori	r3,r3,32
    78f8:	10c00e05 	stb	r3,56(r2)
    OSTCBCur->OSTCBStatPend   = OS_STAT_PEND_OK;
    78fc:	d0ab4817 	ldw	r2,-21216(gp)
    7900:	10000e45 	stb	zero,57(r2)
    OSTCBCur->OSTCBDly        = timeout;              /* Store timeout in task's TCB                   */
    7904:	d0ab4817 	ldw	r2,-21216(gp)
    7908:	e0c00117 	ldw	r3,4(fp)
    790c:	10c00d15 	stw	r3,52(r2)
#if OS_TASK_DEL_EN > 0u
    OSTCBCur->OSTCBFlagNode   = pnode;                /* TCB to link to node                           */
    7910:	d0ab4817 	ldw	r2,-21216(gp)
    7914:	e0fffc17 	ldw	r3,-16(fp)
    7918:	10c00b15 	stw	r3,44(r2)
#endif
    pnode->OSFlagNodeFlags    = flags;                /* Save the flags that we need to wait for       */
    791c:	e0bffc17 	ldw	r2,-16(fp)
    7920:	e0fffb0b 	ldhu	r3,-20(fp)
    7924:	10c0040d 	sth	r3,16(r2)
    pnode->OSFlagNodeWaitType = wait_type;            /* Save the type of wait we are doing            */
    7928:	e0bffc17 	ldw	r2,-16(fp)
    792c:	e0fffa03 	ldbu	r3,-24(fp)
    7930:	10c00485 	stb	r3,18(r2)
    pnode->OSFlagNodeTCB      = (void *)OSTCBCur;     /* Link to task's TCB                            */
    7934:	d0eb4817 	ldw	r3,-21216(gp)
    7938:	e0bffc17 	ldw	r2,-16(fp)
    793c:	10c00215 	stw	r3,8(r2)
    pnode->OSFlagNodeNext     = pgrp->OSFlagWaitList; /* Add node at beginning of event flag wait list */
    7940:	e0bffd17 	ldw	r2,-12(fp)
    7944:	10c00117 	ldw	r3,4(r2)
    7948:	e0bffc17 	ldw	r2,-16(fp)
    794c:	10c00015 	stw	r3,0(r2)
    pnode->OSFlagNodePrev     = (void *)0;
    7950:	e0bffc17 	ldw	r2,-16(fp)
    7954:	10000115 	stw	zero,4(r2)
    pnode->OSFlagNodeFlagGrp  = (void *)pgrp;         /* Link to Event Flag Group                      */
    7958:	e0bffc17 	ldw	r2,-16(fp)
    795c:	e0fffd17 	ldw	r3,-12(fp)
    7960:	10c00315 	stw	r3,12(r2)
    pnode_next                = (OS_FLAG_NODE *)pgrp->OSFlagWaitList;
    7964:	e0bffd17 	ldw	r2,-12(fp)
    7968:	10800117 	ldw	r2,4(r2)
    796c:	e0bfff15 	stw	r2,-4(fp)
    if (pnode_next != (void *)0) {                    /* Is this the first NODE to insert?             */
    7970:	e0bfff17 	ldw	r2,-4(fp)
    7974:	10000326 	beq	r2,zero,7984 <OS_FlagBlock+0xc4>
        pnode_next->OSFlagNodePrev = pnode;           /* No, link in doubly linked list                */
    7978:	e0bfff17 	ldw	r2,-4(fp)
    797c:	e0fffc17 	ldw	r3,-16(fp)
    7980:	10c00115 	stw	r3,4(r2)
    }
    pgrp->OSFlagWaitList = (void *)pnode;
    7984:	e0bffd17 	ldw	r2,-12(fp)
    7988:	e0fffc17 	ldw	r3,-16(fp)
    798c:	10c00115 	stw	r3,4(r2)

    y            =  OSTCBCur->OSTCBY;                 /* Suspend current task until flag(s) received   */
    7990:	d0ab4817 	ldw	r2,-21216(gp)
    7994:	10800f03 	ldbu	r2,60(r2)
    7998:	e0bffec5 	stb	r2,-5(fp)
    OSRdyTbl[y] &= (OS_PRIO)~OSTCBCur->OSTCBBitX;
    799c:	e0fffec3 	ldbu	r3,-5(fp)
    79a0:	d0ab4584 	addi	r2,gp,-21226
    79a4:	1885883a 	add	r2,r3,r2
    79a8:	10800003 	ldbu	r2,0(r2)
    79ac:	d0eb4817 	ldw	r3,-21216(gp)
    79b0:	18c00f43 	ldbu	r3,61(r3)
    79b4:	00c6303a 	nor	r3,zero,r3
    79b8:	1809883a 	mov	r4,r3
    79bc:	e0fffec3 	ldbu	r3,-5(fp)
    79c0:	1104703a 	and	r2,r2,r4
    79c4:	1009883a 	mov	r4,r2
    79c8:	d0ab4584 	addi	r2,gp,-21226
    79cc:	1885883a 	add	r2,r3,r2
    79d0:	11000005 	stb	r4,0(r2)
    OS_TRACE_TASK_SUSPENDED(OSTCBCur);
    if (OSRdyTbl[y] == 0x00u) {
    79d4:	e0fffec3 	ldbu	r3,-5(fp)
    79d8:	d0ab4584 	addi	r2,gp,-21226
    79dc:	1885883a 	add	r2,r3,r2
    79e0:	10800003 	ldbu	r2,0(r2)
    79e4:	10803fcc 	andi	r2,r2,255
    79e8:	1000071e 	bne	r2,zero,7a08 <OS_FlagBlock+0x148>
        OSRdyGrp &= (OS_PRIO)~OSTCBCur->OSTCBBitY;
    79ec:	d0ab4817 	ldw	r2,-21216(gp)
    79f0:	10800f83 	ldbu	r2,62(r2)
    79f4:	0084303a 	nor	r2,zero,r2
    79f8:	1007883a 	mov	r3,r2
    79fc:	d0ab4543 	ldbu	r2,-21227(gp)
    7a00:	1884703a 	and	r2,r3,r2
    7a04:	d0ab4545 	stb	r2,-21227(gp)
    }
}
    7a08:	0001883a 	nop
    7a0c:	e037883a 	mov	sp,fp
    7a10:	df000017 	ldw	fp,0(sp)
    7a14:	dec00104 	addi	sp,sp,4
    7a18:	f800283a 	ret

00007a1c <OS_FlagInit>:
* WARNING    : You MUST NOT call this function from your code.  This is an INTERNAL function to uC/OS-II.
*********************************************************************************************************
*/

void  OS_FlagInit (void)
{
    7a1c:	defffa04 	addi	sp,sp,-24
    7a20:	dfc00515 	stw	ra,20(sp)
    7a24:	df000415 	stw	fp,16(sp)
    7a28:	df000404 	addi	fp,sp,16
    INT16U        ix_next;
    OS_FLAG_GRP  *pgrp1;
    OS_FLAG_GRP  *pgrp2;


    OS_MemClr((INT8U *)&OSFlagTbl[0], sizeof(OSFlagTbl));           /* Clear the flag group table      */
    7a2c:	01405004 	movi	r5,320
    7a30:	010000b4 	movhi	r4,2
    7a34:	21221804 	addi	r4,r4,-30624
    7a38:	0005bd40 	call	5bd4 <OS_MemClr>
    for (ix = 0u; ix < (OS_MAX_FLAGS - 1u); ix++) {                 /* Init. list of free EVENT FLAGS  */
    7a3c:	e03fff8d 	sth	zero,-2(fp)
    7a40:	00001b06 	br	7ab0 <OS_FlagInit+0x94>
        ix_next = ix + 1u;
    7a44:	e0bfff8b 	ldhu	r2,-2(fp)
    7a48:	10800044 	addi	r2,r2,1
    7a4c:	e0bffd8d 	sth	r2,-10(fp)
        pgrp1 = &OSFlagTbl[ix];
    7a50:	e0bfff8b 	ldhu	r2,-2(fp)
    7a54:	1006913a 	slli	r3,r2,4
    7a58:	008000b4 	movhi	r2,2
    7a5c:	10a21804 	addi	r2,r2,-30624
    7a60:	1885883a 	add	r2,r3,r2
    7a64:	e0bffe15 	stw	r2,-8(fp)
        pgrp2 = &OSFlagTbl[ix_next];
    7a68:	e0bffd8b 	ldhu	r2,-10(fp)
    7a6c:	1006913a 	slli	r3,r2,4
    7a70:	008000b4 	movhi	r2,2
    7a74:	10a21804 	addi	r2,r2,-30624
    7a78:	1885883a 	add	r2,r3,r2
    7a7c:	e0bffc15 	stw	r2,-16(fp)
        pgrp1->OSFlagType     = OS_EVENT_TYPE_UNUSED;
    7a80:	e0bffe17 	ldw	r2,-8(fp)
    7a84:	10000005 	stb	zero,0(r2)
        pgrp1->OSFlagWaitList = (void *)pgrp2;
    7a88:	e0bffe17 	ldw	r2,-8(fp)
    7a8c:	e0fffc17 	ldw	r3,-16(fp)
    7a90:	10c00115 	stw	r3,4(r2)
#if OS_FLAG_NAME_EN > 0u
        pgrp1->OSFlagName     = (INT8U *)(void *)"?";               /* Unknown name                    */
    7a94:	e0fffe17 	ldw	r3,-8(fp)
    7a98:	00800074 	movhi	r2,1
    7a9c:	10ba9604 	addi	r2,r2,-5544
    7aa0:	18800315 	stw	r2,12(r3)
    for (ix = 0u; ix < (OS_MAX_FLAGS - 1u); ix++) {                 /* Init. list of free EVENT FLAGS  */
    7aa4:	e0bfff8b 	ldhu	r2,-2(fp)
    7aa8:	10800044 	addi	r2,r2,1
    7aac:	e0bfff8d 	sth	r2,-2(fp)
    7ab0:	e0bfff8b 	ldhu	r2,-2(fp)
    7ab4:	108004f0 	cmpltui	r2,r2,19
    7ab8:	103fe21e 	bne	r2,zero,7a44 <OS_FlagInit+0x28>
#endif
    }
    pgrp1                 = &OSFlagTbl[ix];
    7abc:	e0bfff8b 	ldhu	r2,-2(fp)
    7ac0:	1006913a 	slli	r3,r2,4
    7ac4:	008000b4 	movhi	r2,2
    7ac8:	10a21804 	addi	r2,r2,-30624
    7acc:	1885883a 	add	r2,r3,r2
    7ad0:	e0bffe15 	stw	r2,-8(fp)
    pgrp1->OSFlagType     = OS_EVENT_TYPE_UNUSED;
    7ad4:	e0bffe17 	ldw	r2,-8(fp)
    7ad8:	10000005 	stb	zero,0(r2)
    pgrp1->OSFlagWaitList = (void *)0;
    7adc:	e0bffe17 	ldw	r2,-8(fp)
    7ae0:	10000115 	stw	zero,4(r2)
#if OS_FLAG_NAME_EN > 0u
    pgrp1->OSFlagName     = (INT8U *)(void *)"?";                   /* Unknown name                    */
    7ae4:	e0fffe17 	ldw	r3,-8(fp)
    7ae8:	00800074 	movhi	r2,1
    7aec:	10ba9604 	addi	r2,r2,-5544
    7af0:	18800315 	stw	r2,12(r3)
#endif
    OSFlagFreeList        = &OSFlagTbl[0];
    7af4:	008000b4 	movhi	r2,2
    7af8:	10a21804 	addi	r2,r2,-30624
    7afc:	d0ab4015 	stw	r2,-21248(gp)
#endif
}
    7b00:	0001883a 	nop
    7b04:	e037883a 	mov	sp,fp
    7b08:	dfc00117 	ldw	ra,4(sp)
    7b0c:	df000017 	ldw	fp,0(sp)
    7b10:	dec00204 	addi	sp,sp,8
    7b14:	f800283a 	ret

00007b18 <OS_FlagTaskRdy>:
*/

static  BOOLEAN  OS_FlagTaskRdy (OS_FLAG_NODE *pnode,
                                 OS_FLAGS      flags_rdy,
                                 INT8U         pend_stat)
{
    7b18:	defff904 	addi	sp,sp,-28
    7b1c:	dfc00615 	stw	ra,24(sp)
    7b20:	df000515 	stw	fp,20(sp)
    7b24:	df000504 	addi	fp,sp,20
    7b28:	e13ffd15 	stw	r4,-12(fp)
    7b2c:	2805883a 	mov	r2,r5
    7b30:	3007883a 	mov	r3,r6
    7b34:	e0bffc0d 	sth	r2,-16(fp)
    7b38:	1805883a 	mov	r2,r3
    7b3c:	e0bffb05 	stb	r2,-20(fp)
    OS_TCB   *ptcb;
    BOOLEAN   sched;


    ptcb                 = (OS_TCB *)pnode->OSFlagNodeTCB; /* Point to TCB of waiting task             */
    7b40:	e0bffd17 	ldw	r2,-12(fp)
    7b44:	10800217 	ldw	r2,8(r2)
    7b48:	e0bffe15 	stw	r2,-8(fp)
    ptcb->OSTCBDly       = 0u;
    7b4c:	e0bffe17 	ldw	r2,-8(fp)
    7b50:	10000d15 	stw	zero,52(r2)
    ptcb->OSTCBFlagsRdy  = flags_rdy;
    7b54:	e0bffe17 	ldw	r2,-8(fp)
    7b58:	e0fffc0b 	ldhu	r3,-16(fp)
    7b5c:	10c00c0d 	sth	r3,48(r2)
    ptcb->OSTCBStat     &= (INT8U)~(INT8U)OS_STAT_FLAG;
    7b60:	e0bffe17 	ldw	r2,-8(fp)
    7b64:	10c00e03 	ldbu	r3,56(r2)
    7b68:	00bff7c4 	movi	r2,-33
    7b6c:	1884703a 	and	r2,r3,r2
    7b70:	1007883a 	mov	r3,r2
    7b74:	e0bffe17 	ldw	r2,-8(fp)
    7b78:	10c00e05 	stb	r3,56(r2)
    ptcb->OSTCBStatPend  = pend_stat;
    7b7c:	e0bffe17 	ldw	r2,-8(fp)
    7b80:	e0fffb03 	ldbu	r3,-20(fp)
    7b84:	10c00e45 	stb	r3,57(r2)
    if (ptcb->OSTCBStat == OS_STAT_RDY) {                  /* Task now ready?                          */
    7b88:	e0bffe17 	ldw	r2,-8(fp)
    7b8c:	10800e03 	ldbu	r2,56(r2)
    7b90:	10803fcc 	andi	r2,r2,255
    7b94:	1000181e 	bne	r2,zero,7bf8 <OS_FlagTaskRdy+0xe0>
        OSRdyGrp               |= ptcb->OSTCBBitY;         /* Put task into ready list                 */
    7b98:	e0bffe17 	ldw	r2,-8(fp)
    7b9c:	10c00f83 	ldbu	r3,62(r2)
    7ba0:	d0ab4543 	ldbu	r2,-21227(gp)
    7ba4:	1884b03a 	or	r2,r3,r2
    7ba8:	d0ab4545 	stb	r2,-21227(gp)
        OSRdyTbl[ptcb->OSTCBY] |= ptcb->OSTCBBitX;
    7bac:	e0bffe17 	ldw	r2,-8(fp)
    7bb0:	10800f03 	ldbu	r2,60(r2)
    7bb4:	10c03fcc 	andi	r3,r2,255
    7bb8:	d0ab4584 	addi	r2,gp,-21226
    7bbc:	1885883a 	add	r2,r3,r2
    7bc0:	11000003 	ldbu	r4,0(r2)
    7bc4:	e0bffe17 	ldw	r2,-8(fp)
    7bc8:	10800f43 	ldbu	r2,61(r2)
    7bcc:	e0fffe17 	ldw	r3,-8(fp)
    7bd0:	18c00f03 	ldbu	r3,60(r3)
    7bd4:	18c03fcc 	andi	r3,r3,255
    7bd8:	2084b03a 	or	r2,r4,r2
    7bdc:	1009883a 	mov	r4,r2
    7be0:	d0ab4584 	addi	r2,gp,-21226
    7be4:	1885883a 	add	r2,r3,r2
    7be8:	11000005 	stb	r4,0(r2)
        OS_TRACE_TASK_READY(ptcb);
        sched                   = OS_TRUE;
    7bec:	00800044 	movi	r2,1
    7bf0:	e0bfffc5 	stb	r2,-1(fp)
    7bf4:	00000106 	br	7bfc <OS_FlagTaskRdy+0xe4>
    } else {
        sched                   = OS_FALSE;
    7bf8:	e03fffc5 	stb	zero,-1(fp)
    }
    OS_FlagUnlink(pnode);
    7bfc:	e13ffd17 	ldw	r4,-12(fp)
    7c00:	0007c1c0 	call	7c1c <OS_FlagUnlink>
    return (sched);
    7c04:	e0bfffc3 	ldbu	r2,-1(fp)
}
    7c08:	e037883a 	mov	sp,fp
    7c0c:	dfc00117 	ldw	ra,4(sp)
    7c10:	df000017 	ldw	fp,0(sp)
    7c14:	dec00204 	addi	sp,sp,8
    7c18:	f800283a 	ret

00007c1c <OS_FlagUnlink>:
*              2) This function is INTERNAL to uC/OS-II and your application should not call it.
*********************************************************************************************************
*/

void  OS_FlagUnlink (OS_FLAG_NODE *pnode)
{
    7c1c:	defffa04 	addi	sp,sp,-24
    7c20:	df000515 	stw	fp,20(sp)
    7c24:	df000504 	addi	fp,sp,20
    7c28:	e13ffb15 	stw	r4,-20(fp)
    OS_FLAG_GRP  *pgrp;
    OS_FLAG_NODE *pnode_prev;
    OS_FLAG_NODE *pnode_next;


    pnode_prev = (OS_FLAG_NODE *)pnode->OSFlagNodePrev;
    7c2c:	e0bffb17 	ldw	r2,-20(fp)
    7c30:	10800117 	ldw	r2,4(r2)
    7c34:	e0bfff15 	stw	r2,-4(fp)
    pnode_next = (OS_FLAG_NODE *)pnode->OSFlagNodeNext;
    7c38:	e0bffb17 	ldw	r2,-20(fp)
    7c3c:	10800017 	ldw	r2,0(r2)
    7c40:	e0bffe15 	stw	r2,-8(fp)
    if (pnode_prev == (OS_FLAG_NODE *)0) {                      /* Is it first node in wait list?      */
    7c44:	e0bfff17 	ldw	r2,-4(fp)
    7c48:	10000b1e 	bne	r2,zero,7c78 <OS_FlagUnlink+0x5c>
        pgrp                 = (OS_FLAG_GRP *)pnode->OSFlagNodeFlagGrp;
    7c4c:	e0bffb17 	ldw	r2,-20(fp)
    7c50:	10800317 	ldw	r2,12(r2)
    7c54:	e0bffd15 	stw	r2,-12(fp)
        pgrp->OSFlagWaitList = (void *)pnode_next;              /*      Update list for new 1st node   */
    7c58:	e0bffd17 	ldw	r2,-12(fp)
    7c5c:	e0fffe17 	ldw	r3,-8(fp)
    7c60:	10c00115 	stw	r3,4(r2)
        if (pnode_next != (OS_FLAG_NODE *)0) {
    7c64:	e0bffe17 	ldw	r2,-8(fp)
    7c68:	10000b26 	beq	r2,zero,7c98 <OS_FlagUnlink+0x7c>
            pnode_next->OSFlagNodePrev = (OS_FLAG_NODE *)0;     /*      Link new 1st node PREV to NULL */
    7c6c:	e0bffe17 	ldw	r2,-8(fp)
    7c70:	10000115 	stw	zero,4(r2)
    7c74:	00000806 	br	7c98 <OS_FlagUnlink+0x7c>
        }
    } else {                                                    /* No,  A node somewhere in the list   */
        pnode_prev->OSFlagNodeNext = pnode_next;                /*      Link around the node to unlink */
    7c78:	e0bfff17 	ldw	r2,-4(fp)
    7c7c:	e0fffe17 	ldw	r3,-8(fp)
    7c80:	10c00015 	stw	r3,0(r2)
        if (pnode_next != (OS_FLAG_NODE *)0) {                  /*      Was this the LAST node?        */
    7c84:	e0bffe17 	ldw	r2,-8(fp)
    7c88:	10000326 	beq	r2,zero,7c98 <OS_FlagUnlink+0x7c>
            pnode_next->OSFlagNodePrev = pnode_prev;            /*      No, Link around current node   */
    7c8c:	e0bffe17 	ldw	r2,-8(fp)
    7c90:	e0ffff17 	ldw	r3,-4(fp)
    7c94:	10c00115 	stw	r3,4(r2)
        }
    }
#if OS_TASK_DEL_EN > 0u
    ptcb                = (OS_TCB *)pnode->OSFlagNodeTCB;
    7c98:	e0bffb17 	ldw	r2,-20(fp)
    7c9c:	10800217 	ldw	r2,8(r2)
    7ca0:	e0bffc15 	stw	r2,-16(fp)
    ptcb->OSTCBFlagNode = (OS_FLAG_NODE *)0;
    7ca4:	e0bffc17 	ldw	r2,-16(fp)
    7ca8:	10000b15 	stw	zero,44(r2)
#endif
}
    7cac:	0001883a 	nop
    7cb0:	e037883a 	mov	sp,fp
    7cb4:	df000017 	ldw	fp,0(sp)
    7cb8:	dec00104 	addi	sp,sp,4
    7cbc:	f800283a 	ret

00007cc0 <OSMemCreate>:

OS_MEM  *OSMemCreate (void   *addr,
                      INT32U  nblks,
                      INT32U  blksize,
                      INT8U  *perr)
{
    7cc0:	defff304 	addi	sp,sp,-52
    7cc4:	df000c15 	stw	fp,48(sp)
    7cc8:	df000c04 	addi	fp,sp,48
    7ccc:	e13ff715 	stw	r4,-36(fp)
    7cd0:	e17ff615 	stw	r5,-40(fp)
    7cd4:	e1bff515 	stw	r6,-44(fp)
    7cd8:	e1fff415 	stw	r7,-48(fp)
    INT8U     *pblk;
    void     **plink;
    INT32U     loops;
    INT32U     i;
#if OS_CRITICAL_METHOD == 3u                          /* Allocate storage for CPU status register      */
    OS_CPU_SR  cpu_sr = 0u;
    7cdc:	e03ffc15 	stw	zero,-16(fp)
        return ((OS_MEM *)0);
    }
#endif

#if OS_ARG_CHK_EN > 0u
    if (addr == (void *)0) {                          /* Must pass a valid address for the memory part.*/
    7ce0:	e0bff717 	ldw	r2,-36(fp)
    7ce4:	1000051e 	bne	r2,zero,7cfc <OSMemCreate+0x3c>
        *perr = OS_ERR_MEM_INVALID_ADDR;
    7ce8:	e0bff417 	ldw	r2,-48(fp)
    7cec:	00c01884 	movi	r3,98
    7cf0:	10c00005 	stb	r3,0(r2)
        return ((OS_MEM *)0);
    7cf4:	0005883a 	mov	r2,zero
    7cf8:	00005f06 	br	7e78 <OSMemCreate+0x1b8>
    }
    if (((INT32U)addr & (sizeof(void *) - 1u)) != 0u){  /* Must be pointer size aligned                */
    7cfc:	e0bff717 	ldw	r2,-36(fp)
    7d00:	108000cc 	andi	r2,r2,3
    7d04:	10000526 	beq	r2,zero,7d1c <OSMemCreate+0x5c>
        *perr = OS_ERR_MEM_INVALID_ADDR;
    7d08:	e0bff417 	ldw	r2,-48(fp)
    7d0c:	00c01884 	movi	r3,98
    7d10:	10c00005 	stb	r3,0(r2)
        return ((OS_MEM *)0);
    7d14:	0005883a 	mov	r2,zero
    7d18:	00005706 	br	7e78 <OSMemCreate+0x1b8>
    }
    if (nblks < 2u) {                                 /* Must have at least 2 blocks per partition     */
    7d1c:	e0bff617 	ldw	r2,-40(fp)
    7d20:	108000a8 	cmpgeui	r2,r2,2
    7d24:	1000051e 	bne	r2,zero,7d3c <OSMemCreate+0x7c>
        *perr = OS_ERR_MEM_INVALID_BLKS;
    7d28:	e0bff417 	ldw	r2,-48(fp)
    7d2c:	00c016c4 	movi	r3,91
    7d30:	10c00005 	stb	r3,0(r2)
        return ((OS_MEM *)0);
    7d34:	0005883a 	mov	r2,zero
    7d38:	00004f06 	br	7e78 <OSMemCreate+0x1b8>
    }
    if (blksize < sizeof(void *)) {                   /* Must contain space for at least a pointer     */
    7d3c:	e0bff517 	ldw	r2,-44(fp)
    7d40:	10800128 	cmpgeui	r2,r2,4
    7d44:	1000051e 	bne	r2,zero,7d5c <OSMemCreate+0x9c>
        *perr = OS_ERR_MEM_INVALID_SIZE;
    7d48:	e0bff417 	ldw	r2,-48(fp)
    7d4c:	00c01704 	movi	r3,92
    7d50:	10c00005 	stb	r3,0(r2)
        return ((OS_MEM *)0);
    7d54:	0005883a 	mov	r2,zero
    7d58:	00004706 	br	7e78 <OSMemCreate+0x1b8>
  NIOS2_READ_STATUS (context);
    7d5c:	0005303a 	rdctl	r2,status
    7d60:	e0bff915 	stw	r2,-28(fp)
  NIOS2_WRITE_STATUS (context & ~NIOS2_STATUS_PIE_MSK);
    7d64:	e0fff917 	ldw	r3,-28(fp)
    7d68:	00bfff84 	movi	r2,-2
    7d6c:	1884703a 	and	r2,r3,r2
    7d70:	1001703a 	wrctl	status,r2
  return context;
    7d74:	e0bff917 	ldw	r2,-28(fp)
    }
#endif
    OS_ENTER_CRITICAL();
    7d78:	e0bffc15 	stw	r2,-16(fp)
    pmem = OSMemFreeList;                             /* Get next free memory partition                */
    7d7c:	d0ab4d17 	ldw	r2,-21196(gp)
    7d80:	e0bffb15 	stw	r2,-20(fp)
    if (OSMemFreeList != (OS_MEM *)0) {               /* See if pool of free partitions was empty      */
    7d84:	d0ab4d17 	ldw	r2,-21196(gp)
    7d88:	10000326 	beq	r2,zero,7d98 <OSMemCreate+0xd8>
        OSMemFreeList = (OS_MEM *)OSMemFreeList->OSMemFreeList;
    7d8c:	d0ab4d17 	ldw	r2,-21196(gp)
    7d90:	10800117 	ldw	r2,4(r2)
    7d94:	d0ab4d15 	stw	r2,-21196(gp)
    7d98:	e0bffc17 	ldw	r2,-16(fp)
    7d9c:	e0bff815 	stw	r2,-32(fp)
  NIOS2_WRITE_STATUS (context);
    7da0:	e0bff817 	ldw	r2,-32(fp)
    7da4:	1001703a 	wrctl	status,r2
}
    7da8:	0001883a 	nop
    }
    OS_EXIT_CRITICAL();
    if (pmem == (OS_MEM *)0) {                        /* See if we have a memory partition             */
    7dac:	e0bffb17 	ldw	r2,-20(fp)
    7db0:	1000051e 	bne	r2,zero,7dc8 <OSMemCreate+0x108>
        *perr = OS_ERR_MEM_INVALID_PART;
    7db4:	e0bff417 	ldw	r2,-48(fp)
    7db8:	00c01684 	movi	r3,90
    7dbc:	10c00005 	stb	r3,0(r2)
        return ((OS_MEM *)0);
    7dc0:	0005883a 	mov	r2,zero
    7dc4:	00002c06 	br	7e78 <OSMemCreate+0x1b8>
    }
    plink = (void **)addr;                            /* Create linked list of free memory blocks      */
    7dc8:	e0bff717 	ldw	r2,-36(fp)
    7dcc:	e0bffe15 	stw	r2,-8(fp)
    pblk  = (INT8U *)addr;
    7dd0:	e0bff717 	ldw	r2,-36(fp)
    7dd4:	e0bfff15 	stw	r2,-4(fp)
    loops  = nblks - 1u;
    7dd8:	e0bff617 	ldw	r2,-40(fp)
    7ddc:	10bfffc4 	addi	r2,r2,-1
    7de0:	e0bffa15 	stw	r2,-24(fp)
    for (i = 0u; i < loops; i++) {
    7de4:	e03ffd15 	stw	zero,-12(fp)
    7de8:	00000c06 	br	7e1c <OSMemCreate+0x15c>
        pblk +=  blksize;                             /* Point to the FOLLOWING block                  */
    7dec:	e0ffff17 	ldw	r3,-4(fp)
    7df0:	e0bff517 	ldw	r2,-44(fp)
    7df4:	1885883a 	add	r2,r3,r2
    7df8:	e0bfff15 	stw	r2,-4(fp)
       *plink = (void  *)pblk;                        /* Save pointer to NEXT block in CURRENT block   */
    7dfc:	e0bffe17 	ldw	r2,-8(fp)
    7e00:	e0ffff17 	ldw	r3,-4(fp)
    7e04:	10c00015 	stw	r3,0(r2)
        plink = (void **)pblk;                        /* Position to  NEXT      block                  */
    7e08:	e0bfff17 	ldw	r2,-4(fp)
    7e0c:	e0bffe15 	stw	r2,-8(fp)
    for (i = 0u; i < loops; i++) {
    7e10:	e0bffd17 	ldw	r2,-12(fp)
    7e14:	10800044 	addi	r2,r2,1
    7e18:	e0bffd15 	stw	r2,-12(fp)
    7e1c:	e0fffd17 	ldw	r3,-12(fp)
    7e20:	e0bffa17 	ldw	r2,-24(fp)
    7e24:	18bff136 	bltu	r3,r2,7dec <OSMemCreate+0x12c>
    }
    *plink              = (void *)0;                  /* Last memory block points to NULL              */
    7e28:	e0bffe17 	ldw	r2,-8(fp)
    7e2c:	10000015 	stw	zero,0(r2)
    pmem->OSMemAddr     = addr;                       /* Store start address of memory partition       */
    7e30:	e0bffb17 	ldw	r2,-20(fp)
    7e34:	e0fff717 	ldw	r3,-36(fp)
    7e38:	10c00015 	stw	r3,0(r2)
    pmem->OSMemFreeList = addr;                       /* Initialize pointer to pool of free blocks     */
    7e3c:	e0bffb17 	ldw	r2,-20(fp)
    7e40:	e0fff717 	ldw	r3,-36(fp)
    7e44:	10c00115 	stw	r3,4(r2)
    pmem->OSMemNFree    = nblks;                      /* Store number of free blocks in MCB            */
    7e48:	e0bffb17 	ldw	r2,-20(fp)
    7e4c:	e0fff617 	ldw	r3,-40(fp)
    7e50:	10c00415 	stw	r3,16(r2)
    pmem->OSMemNBlks    = nblks;
    7e54:	e0bffb17 	ldw	r2,-20(fp)
    7e58:	e0fff617 	ldw	r3,-40(fp)
    7e5c:	10c00315 	stw	r3,12(r2)
    pmem->OSMemBlkSize  = blksize;                    /* Store block size of each memory blocks        */
    7e60:	e0bffb17 	ldw	r2,-20(fp)
    7e64:	e0fff517 	ldw	r3,-44(fp)
    7e68:	10c00215 	stw	r3,8(r2)

    OS_TRACE_MEM_CREATE(pmem);

    *perr               = OS_ERR_NONE;
    7e6c:	e0bff417 	ldw	r2,-48(fp)
    7e70:	10000005 	stb	zero,0(r2)
    return (pmem);
    7e74:	e0bffb17 	ldw	r2,-20(fp)
}
    7e78:	e037883a 	mov	sp,fp
    7e7c:	df000017 	ldw	fp,0(sp)
    7e80:	dec00104 	addi	sp,sp,4
    7e84:	f800283a 	ret

00007e88 <OSMemGet>:
*********************************************************************************************************
*/

void  *OSMemGet (OS_MEM  *pmem,
                 INT8U   *perr)
{
    7e88:	defff804 	addi	sp,sp,-32
    7e8c:	df000715 	stw	fp,28(sp)
    7e90:	df000704 	addi	fp,sp,28
    7e94:	e13ffa15 	stw	r4,-24(fp)
    7e98:	e17ff915 	stw	r5,-28(fp)
    void      *pblk;
#if OS_CRITICAL_METHOD == 3u                          /* Allocate storage for CPU status register      */
    OS_CPU_SR  cpu_sr = 0u;
    7e9c:	e03fff15 	stw	zero,-4(fp)
        return ((void *)0);
    }
#endif

#if OS_ARG_CHK_EN > 0u
    if (pmem == (OS_MEM *)0) {                        /* Must point to a valid memory partition        */
    7ea0:	e0bffa17 	ldw	r2,-24(fp)
    7ea4:	1000051e 	bne	r2,zero,7ebc <OSMemGet+0x34>
        *perr = OS_ERR_MEM_INVALID_PMEM;
    7ea8:	e0bff917 	ldw	r2,-28(fp)
    7eac:	00c01804 	movi	r3,96
    7eb0:	10c00005 	stb	r3,0(r2)
        return ((void *)0);
    7eb4:	0005883a 	mov	r2,zero
    7eb8:	00002906 	br	7f60 <OSMemGet+0xd8>
  NIOS2_READ_STATUS (context);
    7ebc:	0005303a 	rdctl	r2,status
    7ec0:	e0bffd15 	stw	r2,-12(fp)
  NIOS2_WRITE_STATUS (context & ~NIOS2_STATUS_PIE_MSK);
    7ec4:	e0fffd17 	ldw	r3,-12(fp)
    7ec8:	00bfff84 	movi	r2,-2
    7ecc:	1884703a 	and	r2,r3,r2
    7ed0:	1001703a 	wrctl	status,r2
  return context;
    7ed4:	e0bffd17 	ldw	r2,-12(fp)
    }
#endif

    OS_TRACE_MEM_GET_ENTER(pmem);

    OS_ENTER_CRITICAL();
    7ed8:	e0bfff15 	stw	r2,-4(fp)
    if (pmem->OSMemNFree > 0u) {                      /* See if there are any free memory blocks       */
    7edc:	e0bffa17 	ldw	r2,-24(fp)
    7ee0:	10800417 	ldw	r2,16(r2)
    7ee4:	10001526 	beq	r2,zero,7f3c <OSMemGet+0xb4>
        pblk                = pmem->OSMemFreeList;    /* Yes, point to next free memory block          */
    7ee8:	e0bffa17 	ldw	r2,-24(fp)
    7eec:	10800117 	ldw	r2,4(r2)
    7ef0:	e0bffe15 	stw	r2,-8(fp)
        pmem->OSMemFreeList = *(void **)pblk;         /*      Adjust pointer to new free list          */
    7ef4:	e0bffe17 	ldw	r2,-8(fp)
    7ef8:	10c00017 	ldw	r3,0(r2)
    7efc:	e0bffa17 	ldw	r2,-24(fp)
    7f00:	10c00115 	stw	r3,4(r2)
        pmem->OSMemNFree--;                           /*      One less memory block in this partition  */
    7f04:	e0bffa17 	ldw	r2,-24(fp)
    7f08:	10800417 	ldw	r2,16(r2)
    7f0c:	10ffffc4 	addi	r3,r2,-1
    7f10:	e0bffa17 	ldw	r2,-24(fp)
    7f14:	10c00415 	stw	r3,16(r2)
    7f18:	e0bfff17 	ldw	r2,-4(fp)
    7f1c:	e0bffc15 	stw	r2,-16(fp)
  NIOS2_WRITE_STATUS (context);
    7f20:	e0bffc17 	ldw	r2,-16(fp)
    7f24:	1001703a 	wrctl	status,r2
}
    7f28:	0001883a 	nop
        OS_EXIT_CRITICAL();
        *perr = OS_ERR_NONE;                          /*      No error                                 */
    7f2c:	e0bff917 	ldw	r2,-28(fp)
    7f30:	10000005 	stb	zero,0(r2)
        OS_TRACE_MEM_GET_EXIT(*perr);
        return (pblk);                                /*      Return memory block to caller            */
    7f34:	e0bffe17 	ldw	r2,-8(fp)
    7f38:	00000906 	br	7f60 <OSMemGet+0xd8>
    7f3c:	e0bfff17 	ldw	r2,-4(fp)
    7f40:	e0bffb15 	stw	r2,-20(fp)
  NIOS2_WRITE_STATUS (context);
    7f44:	e0bffb17 	ldw	r2,-20(fp)
    7f48:	1001703a 	wrctl	status,r2
}
    7f4c:	0001883a 	nop
    }
    OS_EXIT_CRITICAL();
    *perr = OS_ERR_MEM_NO_FREE_BLKS;                  /* No,  Notify caller of empty memory partition  */
    7f50:	e0bff917 	ldw	r2,-28(fp)
    7f54:	00c01744 	movi	r3,93
    7f58:	10c00005 	stb	r3,0(r2)
    OS_TRACE_MEM_GET_EXIT(*perr);
    return ((void *)0);                               /*      Return NULL pointer to caller            */
    7f5c:	0005883a 	mov	r2,zero
}
    7f60:	e037883a 	mov	sp,fp
    7f64:	df000017 	ldw	fp,0(sp)
    7f68:	dec00104 	addi	sp,sp,4
    7f6c:	f800283a 	ret

00007f70 <OSMemNameGet>:

#if OS_MEM_NAME_EN > 0u
INT8U  OSMemNameGet (OS_MEM   *pmem,
                     INT8U   **pname,
                     INT8U    *perr)
{
    7f70:	defff704 	addi	sp,sp,-36
    7f74:	dfc00815 	stw	ra,32(sp)
    7f78:	df000715 	stw	fp,28(sp)
    7f7c:	df000704 	addi	fp,sp,28
    7f80:	e13ffb15 	stw	r4,-20(fp)
    7f84:	e17ffa15 	stw	r5,-24(fp)
    7f88:	e1bff915 	stw	r6,-28(fp)
    INT8U      len;
#if OS_CRITICAL_METHOD == 3u                     /* Allocate storage for CPU status register           */
    OS_CPU_SR  cpu_sr = 0u;
    7f8c:	e03fff15 	stw	zero,-4(fp)
        return (0u);
    }
#endif

#if OS_ARG_CHK_EN > 0u
    if (pmem == (OS_MEM *)0) {                   /* Is 'pmem' a NULL pointer?                          */
    7f90:	e0bffb17 	ldw	r2,-20(fp)
    7f94:	1000051e 	bne	r2,zero,7fac <OSMemNameGet+0x3c>
        *perr = OS_ERR_MEM_INVALID_PMEM;
    7f98:	e0bff917 	ldw	r2,-28(fp)
    7f9c:	00c01804 	movi	r3,96
    7fa0:	10c00005 	stb	r3,0(r2)
        return (0u);
    7fa4:	0005883a 	mov	r2,zero
    7fa8:	00002806 	br	804c <OSMemNameGet+0xdc>
    }
    if (pname == (INT8U **)0) {                  /* Is 'pname' a NULL pointer?                         */
    7fac:	e0bffa17 	ldw	r2,-24(fp)
    7fb0:	1000051e 	bne	r2,zero,7fc8 <OSMemNameGet+0x58>
        *perr = OS_ERR_PNAME_NULL;
    7fb4:	e0bff917 	ldw	r2,-28(fp)
    7fb8:	00c00304 	movi	r3,12
    7fbc:	10c00005 	stb	r3,0(r2)
        return (0u);
    7fc0:	0005883a 	mov	r2,zero
    7fc4:	00002106 	br	804c <OSMemNameGet+0xdc>
    }
#endif
    if (OSIntNesting > 0u) {                     /* See if trying to call from an ISR                  */
    7fc8:	d0ab4443 	ldbu	r2,-21231(gp)
    7fcc:	10803fcc 	andi	r2,r2,255
    7fd0:	10000526 	beq	r2,zero,7fe8 <OSMemNameGet+0x78>
        *perr = OS_ERR_NAME_GET_ISR;
    7fd4:	e0bff917 	ldw	r2,-28(fp)
    7fd8:	00c00444 	movi	r3,17
    7fdc:	10c00005 	stb	r3,0(r2)
        return (0u);
    7fe0:	0005883a 	mov	r2,zero
    7fe4:	00001906 	br	804c <OSMemNameGet+0xdc>
  NIOS2_READ_STATUS (context);
    7fe8:	0005303a 	rdctl	r2,status
    7fec:	e0bffc15 	stw	r2,-16(fp)
  NIOS2_WRITE_STATUS (context & ~NIOS2_STATUS_PIE_MSK);
    7ff0:	e0fffc17 	ldw	r3,-16(fp)
    7ff4:	00bfff84 	movi	r2,-2
    7ff8:	1884703a 	and	r2,r3,r2
    7ffc:	1001703a 	wrctl	status,r2
  return context;
    8000:	e0bffc17 	ldw	r2,-16(fp)
    }
    OS_ENTER_CRITICAL();
    8004:	e0bfff15 	stw	r2,-4(fp)
    *pname = pmem->OSMemName;
    8008:	e0bffb17 	ldw	r2,-20(fp)
    800c:	10c00517 	ldw	r3,20(r2)
    8010:	e0bffa17 	ldw	r2,-24(fp)
    8014:	10c00015 	stw	r3,0(r2)
    len    = OS_StrLen(*pname);
    8018:	e0bffa17 	ldw	r2,-24(fp)
    801c:	10800017 	ldw	r2,0(r2)
    8020:	1009883a 	mov	r4,r2
    8024:	0005dd00 	call	5dd0 <OS_StrLen>
    8028:	e0bffec5 	stb	r2,-5(fp)
    802c:	e0bfff17 	ldw	r2,-4(fp)
    8030:	e0bffd15 	stw	r2,-12(fp)
  NIOS2_WRITE_STATUS (context);
    8034:	e0bffd17 	ldw	r2,-12(fp)
    8038:	1001703a 	wrctl	status,r2
}
    803c:	0001883a 	nop
    OS_EXIT_CRITICAL();
    *perr  = OS_ERR_NONE;
    8040:	e0bff917 	ldw	r2,-28(fp)
    8044:	10000005 	stb	zero,0(r2)
    return (len);
    8048:	e0bffec3 	ldbu	r2,-5(fp)
}
    804c:	e037883a 	mov	sp,fp
    8050:	dfc00117 	ldw	ra,4(sp)
    8054:	df000017 	ldw	fp,0(sp)
    8058:	dec00204 	addi	sp,sp,8
    805c:	f800283a 	ret

00008060 <OSMemNameSet>:

#if OS_MEM_NAME_EN > 0u
void  OSMemNameSet (OS_MEM  *pmem,
                    INT8U   *pname,
                    INT8U   *perr)
{
    8060:	defff904 	addi	sp,sp,-28
    8064:	df000615 	stw	fp,24(sp)
    8068:	df000604 	addi	fp,sp,24
    806c:	e13ffc15 	stw	r4,-16(fp)
    8070:	e17ffb15 	stw	r5,-20(fp)
    8074:	e1bffa15 	stw	r6,-24(fp)
#if OS_CRITICAL_METHOD == 3u                     /* Allocate storage for CPU status register           */
    OS_CPU_SR  cpu_sr = 0u;
    8078:	e03fff15 	stw	zero,-4(fp)
        return;
    }
#endif

#if OS_ARG_CHK_EN > 0u
    if (pmem == (OS_MEM *)0) {                   /* Is 'pmem' a NULL pointer?                          */
    807c:	e0bffc17 	ldw	r2,-16(fp)
    8080:	1000041e 	bne	r2,zero,8094 <OSMemNameSet+0x34>
        *perr = OS_ERR_MEM_INVALID_PMEM;
    8084:	e0bffa17 	ldw	r2,-24(fp)
    8088:	00c01804 	movi	r3,96
    808c:	10c00005 	stb	r3,0(r2)
        return;
    8090:	00001f06 	br	8110 <OSMemNameSet+0xb0>
    }
    if (pname == (INT8U *)0) {                   /* Is 'pname' a NULL pointer?                         */
    8094:	e0bffb17 	ldw	r2,-20(fp)
    8098:	1000041e 	bne	r2,zero,80ac <OSMemNameSet+0x4c>
        *perr = OS_ERR_PNAME_NULL;
    809c:	e0bffa17 	ldw	r2,-24(fp)
    80a0:	00c00304 	movi	r3,12
    80a4:	10c00005 	stb	r3,0(r2)
        return;
    80a8:	00001906 	br	8110 <OSMemNameSet+0xb0>
    }
#endif
    if (OSIntNesting > 0u) {                     /* See if trying to call from an ISR                  */
    80ac:	d0ab4443 	ldbu	r2,-21231(gp)
    80b0:	10803fcc 	andi	r2,r2,255
    80b4:	10000426 	beq	r2,zero,80c8 <OSMemNameSet+0x68>
        *perr = OS_ERR_NAME_SET_ISR;
    80b8:	e0bffa17 	ldw	r2,-24(fp)
    80bc:	00c00484 	movi	r3,18
    80c0:	10c00005 	stb	r3,0(r2)
        return;
    80c4:	00001206 	br	8110 <OSMemNameSet+0xb0>
  NIOS2_READ_STATUS (context);
    80c8:	0005303a 	rdctl	r2,status
    80cc:	e0bffd15 	stw	r2,-12(fp)
  NIOS2_WRITE_STATUS (context & ~NIOS2_STATUS_PIE_MSK);
    80d0:	e0fffd17 	ldw	r3,-12(fp)
    80d4:	00bfff84 	movi	r2,-2
    80d8:	1884703a 	and	r2,r3,r2
    80dc:	1001703a 	wrctl	status,r2
  return context;
    80e0:	e0bffd17 	ldw	r2,-12(fp)
    }
    OS_ENTER_CRITICAL();
    80e4:	e0bfff15 	stw	r2,-4(fp)
    pmem->OSMemName = pname;
    80e8:	e0bffc17 	ldw	r2,-16(fp)
    80ec:	e0fffb17 	ldw	r3,-20(fp)
    80f0:	10c00515 	stw	r3,20(r2)
    80f4:	e0bfff17 	ldw	r2,-4(fp)
    80f8:	e0bffe15 	stw	r2,-8(fp)
  NIOS2_WRITE_STATUS (context);
    80fc:	e0bffe17 	ldw	r2,-8(fp)
    8100:	1001703a 	wrctl	status,r2
}
    8104:	0001883a 	nop
    OS_EXIT_CRITICAL();
    OS_TRACE_EVENT_NAME_SET(pmem, pname);
    *perr           = OS_ERR_NONE;
    8108:	e0bffa17 	ldw	r2,-24(fp)
    810c:	10000005 	stb	zero,0(r2)
}
    8110:	e037883a 	mov	sp,fp
    8114:	df000017 	ldw	fp,0(sp)
    8118:	dec00104 	addi	sp,sp,4
    811c:	f800283a 	ret

00008120 <OSMemPut>:
*********************************************************************************************************
*/

INT8U  OSMemPut (OS_MEM  *pmem,
                 void    *pblk)
{
    8120:	defff904 	addi	sp,sp,-28
    8124:	df000615 	stw	fp,24(sp)
    8128:	df000604 	addi	fp,sp,24
    812c:	e13ffb15 	stw	r4,-20(fp)
    8130:	e17ffa15 	stw	r5,-24(fp)
#if OS_CRITICAL_METHOD == 3u                     /* Allocate storage for CPU status register           */
    OS_CPU_SR  cpu_sr = 0u;
    8134:	e03fff15 	stw	zero,-4(fp)
#endif


#if OS_ARG_CHK_EN > 0u
    if (pmem == (OS_MEM *)0) {                   /* Must point to a valid memory partition             */
    8138:	e0bffb17 	ldw	r2,-20(fp)
    813c:	1000021e 	bne	r2,zero,8148 <OSMemPut+0x28>
        return (OS_ERR_MEM_INVALID_PMEM);
    8140:	00801804 	movi	r2,96
    8144:	00002a06 	br	81f0 <OSMemPut+0xd0>
    }
    if (pblk == (void *)0) {                     /* Must release a valid block                         */
    8148:	e0bffa17 	ldw	r2,-24(fp)
    814c:	1000021e 	bne	r2,zero,8158 <OSMemPut+0x38>
        return (OS_ERR_MEM_INVALID_PBLK);
    8150:	008017c4 	movi	r2,95
    8154:	00002606 	br	81f0 <OSMemPut+0xd0>
  NIOS2_READ_STATUS (context);
    8158:	0005303a 	rdctl	r2,status
    815c:	e0bffe15 	stw	r2,-8(fp)
  NIOS2_WRITE_STATUS (context & ~NIOS2_STATUS_PIE_MSK);
    8160:	e0fffe17 	ldw	r3,-8(fp)
    8164:	00bfff84 	movi	r2,-2
    8168:	1884703a 	and	r2,r3,r2
    816c:	1001703a 	wrctl	status,r2
  return context;
    8170:	e0bffe17 	ldw	r2,-8(fp)
    }
#endif

    OS_TRACE_MEM_PUT_ENTER(pmem, pblk);

    OS_ENTER_CRITICAL();
    8174:	e0bfff15 	stw	r2,-4(fp)
    if (pmem->OSMemNFree >= pmem->OSMemNBlks) {  /* Make sure all blocks not already returned          */
    8178:	e0bffb17 	ldw	r2,-20(fp)
    817c:	10c00417 	ldw	r3,16(r2)
    8180:	e0bffb17 	ldw	r2,-20(fp)
    8184:	10800317 	ldw	r2,12(r2)
    8188:	18800736 	bltu	r3,r2,81a8 <OSMemPut+0x88>
    818c:	e0bfff17 	ldw	r2,-4(fp)
    8190:	e0bffd15 	stw	r2,-12(fp)
  NIOS2_WRITE_STATUS (context);
    8194:	e0bffd17 	ldw	r2,-12(fp)
    8198:	1001703a 	wrctl	status,r2
}
    819c:	0001883a 	nop
        OS_EXIT_CRITICAL();
        OS_TRACE_MEM_PUT_EXIT(OS_ERR_MEM_FULL);
        return (OS_ERR_MEM_FULL);
    81a0:	00801784 	movi	r2,94
    81a4:	00001206 	br	81f0 <OSMemPut+0xd0>
    }
    *(void **)pblk      = pmem->OSMemFreeList;   /* Insert released block into free block list         */
    81a8:	e0bffb17 	ldw	r2,-20(fp)
    81ac:	10c00117 	ldw	r3,4(r2)
    81b0:	e0bffa17 	ldw	r2,-24(fp)
    81b4:	10c00015 	stw	r3,0(r2)
    pmem->OSMemFreeList = pblk;
    81b8:	e0bffb17 	ldw	r2,-20(fp)
    81bc:	e0fffa17 	ldw	r3,-24(fp)
    81c0:	10c00115 	stw	r3,4(r2)
    pmem->OSMemNFree++;                          /* One more memory block in this partition            */
    81c4:	e0bffb17 	ldw	r2,-20(fp)
    81c8:	10800417 	ldw	r2,16(r2)
    81cc:	10c00044 	addi	r3,r2,1
    81d0:	e0bffb17 	ldw	r2,-20(fp)
    81d4:	10c00415 	stw	r3,16(r2)
    81d8:	e0bfff17 	ldw	r2,-4(fp)
    81dc:	e0bffc15 	stw	r2,-16(fp)
  NIOS2_WRITE_STATUS (context);
    81e0:	e0bffc17 	ldw	r2,-16(fp)
    81e4:	1001703a 	wrctl	status,r2
}
    81e8:	0001883a 	nop
    OS_EXIT_CRITICAL();
    OS_TRACE_MEM_PUT_EXIT(OS_ERR_NONE);
    return (OS_ERR_NONE);                        /* Notify caller that memory block was released       */
    81ec:	0005883a 	mov	r2,zero
}
    81f0:	e037883a 	mov	sp,fp
    81f4:	df000017 	ldw	fp,0(sp)
    81f8:	dec00104 	addi	sp,sp,4
    81fc:	f800283a 	ret

00008200 <OSMemQuery>:
*/

#if OS_MEM_QUERY_EN > 0u
INT8U  OSMemQuery (OS_MEM       *pmem,
                   OS_MEM_DATA  *p_mem_data)
{
    8200:	defffa04 	addi	sp,sp,-24
    8204:	df000515 	stw	fp,20(sp)
    8208:	df000504 	addi	fp,sp,20
    820c:	e13ffc15 	stw	r4,-16(fp)
    8210:	e17ffb15 	stw	r5,-20(fp)
#if OS_CRITICAL_METHOD == 3u                     /* Allocate storage for CPU status register           */
    OS_CPU_SR  cpu_sr = 0u;
    8214:	e03fff15 	stw	zero,-4(fp)
#endif



#if OS_ARG_CHK_EN > 0u
    if (pmem == (OS_MEM *)0) {                   /* Must point to a valid memory partition             */
    8218:	e0bffc17 	ldw	r2,-16(fp)
    821c:	1000021e 	bne	r2,zero,8228 <OSMemQuery+0x28>
        return (OS_ERR_MEM_INVALID_PMEM);
    8220:	00801804 	movi	r2,96
    8224:	00002d06 	br	82dc <OSMemQuery+0xdc>
    }
    if (p_mem_data == (OS_MEM_DATA *)0) {        /* Must release a valid storage area for the data     */
    8228:	e0bffb17 	ldw	r2,-20(fp)
    822c:	1000021e 	bne	r2,zero,8238 <OSMemQuery+0x38>
        return (OS_ERR_MEM_INVALID_PDATA);
    8230:	00801844 	movi	r2,97
    8234:	00002906 	br	82dc <OSMemQuery+0xdc>
  NIOS2_READ_STATUS (context);
    8238:	0005303a 	rdctl	r2,status
    823c:	e0bffd15 	stw	r2,-12(fp)
  NIOS2_WRITE_STATUS (context & ~NIOS2_STATUS_PIE_MSK);
    8240:	e0fffd17 	ldw	r3,-12(fp)
    8244:	00bfff84 	movi	r2,-2
    8248:	1884703a 	and	r2,r3,r2
    824c:	1001703a 	wrctl	status,r2
  return context;
    8250:	e0bffd17 	ldw	r2,-12(fp)
    }
#endif
    OS_ENTER_CRITICAL();
    8254:	e0bfff15 	stw	r2,-4(fp)
    p_mem_data->OSAddr     = pmem->OSMemAddr;
    8258:	e0bffc17 	ldw	r2,-16(fp)
    825c:	10c00017 	ldw	r3,0(r2)
    8260:	e0bffb17 	ldw	r2,-20(fp)
    8264:	10c00015 	stw	r3,0(r2)
    p_mem_data->OSFreeList = pmem->OSMemFreeList;
    8268:	e0bffc17 	ldw	r2,-16(fp)
    826c:	10c00117 	ldw	r3,4(r2)
    8270:	e0bffb17 	ldw	r2,-20(fp)
    8274:	10c00115 	stw	r3,4(r2)
    p_mem_data->OSBlkSize  = pmem->OSMemBlkSize;
    8278:	e0bffc17 	ldw	r2,-16(fp)
    827c:	10c00217 	ldw	r3,8(r2)
    8280:	e0bffb17 	ldw	r2,-20(fp)
    8284:	10c00215 	stw	r3,8(r2)
    p_mem_data->OSNBlks    = pmem->OSMemNBlks;
    8288:	e0bffc17 	ldw	r2,-16(fp)
    828c:	10c00317 	ldw	r3,12(r2)
    8290:	e0bffb17 	ldw	r2,-20(fp)
    8294:	10c00315 	stw	r3,12(r2)
    p_mem_data->OSNFree    = pmem->OSMemNFree;
    8298:	e0bffc17 	ldw	r2,-16(fp)
    829c:	10c00417 	ldw	r3,16(r2)
    82a0:	e0bffb17 	ldw	r2,-20(fp)
    82a4:	10c00415 	stw	r3,16(r2)
    82a8:	e0bfff17 	ldw	r2,-4(fp)
    82ac:	e0bffe15 	stw	r2,-8(fp)
  NIOS2_WRITE_STATUS (context);
    82b0:	e0bffe17 	ldw	r2,-8(fp)
    82b4:	1001703a 	wrctl	status,r2
}
    82b8:	0001883a 	nop
    OS_EXIT_CRITICAL();
    p_mem_data->OSNUsed    = p_mem_data->OSNBlks - p_mem_data->OSNFree;
    82bc:	e0bffb17 	ldw	r2,-20(fp)
    82c0:	10c00317 	ldw	r3,12(r2)
    82c4:	e0bffb17 	ldw	r2,-20(fp)
    82c8:	10800417 	ldw	r2,16(r2)
    82cc:	1887c83a 	sub	r3,r3,r2
    82d0:	e0bffb17 	ldw	r2,-20(fp)
    82d4:	10c00515 	stw	r3,20(r2)
    return (OS_ERR_NONE);
    82d8:	0005883a 	mov	r2,zero
}
    82dc:	e037883a 	mov	sp,fp
    82e0:	df000017 	ldw	fp,0(sp)
    82e4:	dec00104 	addi	sp,sp,4
    82e8:	f800283a 	ret

000082ec <OS_MemInit>:
* Note(s)    : This function is INTERNAL to uC/OS-II and your application should not call it.
*********************************************************************************************************
*/

void  OS_MemInit (void)
{
    82ec:	defffc04 	addi	sp,sp,-16
    82f0:	dfc00315 	stw	ra,12(sp)
    82f4:	df000215 	stw	fp,8(sp)
    82f8:	df000204 	addi	fp,sp,8
#if OS_MAX_MEM_PART >= 2u
    OS_MEM  *pmem;
    INT16U   i;


    OS_MemClr((INT8U *)&OSMemTbl[0], sizeof(OSMemTbl));   /* Clear the memory partition table          */
    82fc:	01416804 	movi	r5,1440
    8300:	010000b4 	movhi	r4,2
    8304:	21290504 	addi	r4,r4,-23532
    8308:	0005bd40 	call	5bd4 <OS_MemClr>
    for (i = 0u; i < (OS_MAX_MEM_PART - 1u); i++) {       /* Init. list of free memory partitions      */
    830c:	e03fff8d 	sth	zero,-2(fp)
    8310:	00001506 	br	8368 <OS_MemInit+0x7c>
        pmem                = &OSMemTbl[i];               /* Point to memory control block (MCB)       */
    8314:	e0bfff8b 	ldhu	r2,-2(fp)
    8318:	10c00624 	muli	r3,r2,24
    831c:	008000b4 	movhi	r2,2
    8320:	10a90504 	addi	r2,r2,-23532
    8324:	1885883a 	add	r2,r3,r2
    8328:	e0bffe15 	stw	r2,-8(fp)
        pmem->OSMemFreeList = (void *)&OSMemTbl[i + 1u];  /* Chain list of free partitions             */
    832c:	e0bfff8b 	ldhu	r2,-2(fp)
    8330:	10800044 	addi	r2,r2,1
    8334:	10c00624 	muli	r3,r2,24
    8338:	008000b4 	movhi	r2,2
    833c:	10a90504 	addi	r2,r2,-23532
    8340:	1887883a 	add	r3,r3,r2
    8344:	e0bffe17 	ldw	r2,-8(fp)
    8348:	10c00115 	stw	r3,4(r2)
#if OS_MEM_NAME_EN > 0u
        pmem->OSMemName  = (INT8U *)(void *)"?";
    834c:	e0fffe17 	ldw	r3,-8(fp)
    8350:	00800074 	movhi	r2,1
    8354:	10ba9704 	addi	r2,r2,-5540
    8358:	18800515 	stw	r2,20(r3)
    for (i = 0u; i < (OS_MAX_MEM_PART - 1u); i++) {       /* Init. list of free memory partitions      */
    835c:	e0bfff8b 	ldhu	r2,-2(fp)
    8360:	10800044 	addi	r2,r2,1
    8364:	e0bfff8d 	sth	r2,-2(fp)
    8368:	e0bfff8b 	ldhu	r2,-2(fp)
    836c:	10800ef0 	cmpltui	r2,r2,59
    8370:	103fe81e 	bne	r2,zero,8314 <OS_MemInit+0x28>
#endif
    }
    pmem                = &OSMemTbl[i];
    8374:	e0bfff8b 	ldhu	r2,-2(fp)
    8378:	10c00624 	muli	r3,r2,24
    837c:	008000b4 	movhi	r2,2
    8380:	10a90504 	addi	r2,r2,-23532
    8384:	1885883a 	add	r2,r3,r2
    8388:	e0bffe15 	stw	r2,-8(fp)
    pmem->OSMemFreeList = (void *)0;                      /* Initialize last node                      */
    838c:	e0bffe17 	ldw	r2,-8(fp)
    8390:	10000115 	stw	zero,4(r2)
#if OS_MEM_NAME_EN > 0u
    pmem->OSMemName = (INT8U *)(void *)"?";
    8394:	e0fffe17 	ldw	r3,-8(fp)
    8398:	00800074 	movhi	r2,1
    839c:	10ba9704 	addi	r2,r2,-5540
    83a0:	18800515 	stw	r2,20(r3)
#endif

    OSMemFreeList   = &OSMemTbl[0];                       /* Point to beginning of free list           */
    83a4:	008000b4 	movhi	r2,2
    83a8:	10a90504 	addi	r2,r2,-23532
    83ac:	d0ab4d15 	stw	r2,-21196(gp)
#endif
}
    83b0:	0001883a 	nop
    83b4:	e037883a 	mov	sp,fp
    83b8:	dfc00117 	ldw	ra,4(sp)
    83bc:	df000017 	ldw	fp,0(sp)
    83c0:	dec00204 	addi	sp,sp,8
    83c4:	f800283a 	ret

000083c8 <OSQAccept>:
*/

#if OS_Q_ACCEPT_EN > 0u
void  *OSQAccept (OS_EVENT  *pevent,
                  INT8U     *perr)
{
    83c8:	defff804 	addi	sp,sp,-32
    83cc:	df000715 	stw	fp,28(sp)
    83d0:	df000704 	addi	fp,sp,28
    83d4:	e13ffa15 	stw	r4,-24(fp)
    83d8:	e17ff915 	stw	r5,-28(fp)
    void      *pmsg;
    OS_Q      *pq;
#if OS_CRITICAL_METHOD == 3u                     /* Allocate storage for CPU status register           */
    OS_CPU_SR  cpu_sr = 0u;
    83dc:	e03ffe15 	stw	zero,-8(fp)
        return ((void *)0);
    }
#endif

#if OS_ARG_CHK_EN > 0u
    if (pevent == (OS_EVENT *)0) {               /* Validate 'pevent'                                  */
    83e0:	e0bffa17 	ldw	r2,-24(fp)
    83e4:	1000051e 	bne	r2,zero,83fc <OSQAccept+0x34>
        *perr = OS_ERR_PEVENT_NULL;
    83e8:	e0bff917 	ldw	r2,-28(fp)
    83ec:	00c00104 	movi	r3,4
    83f0:	10c00005 	stb	r3,0(r2)
        return ((void *)0);
    83f4:	0005883a 	mov	r2,zero
    83f8:	00003c06 	br	84ec <OSQAccept+0x124>
    }
#endif
    if (pevent->OSEventType != OS_EVENT_TYPE_Q) {/* Validate event block type                          */
    83fc:	e0bffa17 	ldw	r2,-24(fp)
    8400:	10800003 	ldbu	r2,0(r2)
    8404:	10803fcc 	andi	r2,r2,255
    8408:	108000a0 	cmpeqi	r2,r2,2
    840c:	1000051e 	bne	r2,zero,8424 <OSQAccept+0x5c>
        *perr = OS_ERR_EVENT_TYPE;
    8410:	e0bff917 	ldw	r2,-28(fp)
    8414:	00c00044 	movi	r3,1
    8418:	10c00005 	stb	r3,0(r2)
        return ((void *)0);
    841c:	0005883a 	mov	r2,zero
    8420:	00003206 	br	84ec <OSQAccept+0x124>
  NIOS2_READ_STATUS (context);
    8424:	0005303a 	rdctl	r2,status
    8428:	e0bffc15 	stw	r2,-16(fp)
  NIOS2_WRITE_STATUS (context & ~NIOS2_STATUS_PIE_MSK);
    842c:	e0fffc17 	ldw	r3,-16(fp)
    8430:	00bfff84 	movi	r2,-2
    8434:	1884703a 	and	r2,r3,r2
    8438:	1001703a 	wrctl	status,r2
  return context;
    843c:	e0bffc17 	ldw	r2,-16(fp)
    }
    OS_ENTER_CRITICAL();
    8440:	e0bffe15 	stw	r2,-8(fp)
    pq = (OS_Q *)pevent->OSEventPtr;             /* Point at queue control block                       */
    8444:	e0bffa17 	ldw	r2,-24(fp)
    8448:	10800117 	ldw	r2,4(r2)
    844c:	e0bffd15 	stw	r2,-12(fp)
    if (pq->OSQEntries > 0u) {                   /* See if any messages in the queue                   */
    8450:	e0bffd17 	ldw	r2,-12(fp)
    8454:	1080058b 	ldhu	r2,22(r2)
    8458:	10bfffcc 	andi	r2,r2,65535
    845c:	10001926 	beq	r2,zero,84c4 <OSQAccept+0xfc>
        pmsg = *pq->OSQOut++;                    /* Yes, extract oldest message from the queue         */
    8460:	e0bffd17 	ldw	r2,-12(fp)
    8464:	10800417 	ldw	r2,16(r2)
    8468:	11000104 	addi	r4,r2,4
    846c:	e0fffd17 	ldw	r3,-12(fp)
    8470:	19000415 	stw	r4,16(r3)
    8474:	10800017 	ldw	r2,0(r2)
    8478:	e0bfff15 	stw	r2,-4(fp)
        pq->OSQEntries--;                        /* Update the number of entries in the queue          */
    847c:	e0bffd17 	ldw	r2,-12(fp)
    8480:	1080058b 	ldhu	r2,22(r2)
    8484:	10bfffc4 	addi	r2,r2,-1
    8488:	1007883a 	mov	r3,r2
    848c:	e0bffd17 	ldw	r2,-12(fp)
    8490:	10c0058d 	sth	r3,22(r2)
        if (pq->OSQOut == pq->OSQEnd) {          /* Wrap OUT pointer if we are at the end of the queue */
    8494:	e0bffd17 	ldw	r2,-12(fp)
    8498:	10c00417 	ldw	r3,16(r2)
    849c:	e0bffd17 	ldw	r2,-12(fp)
    84a0:	10800217 	ldw	r2,8(r2)
    84a4:	1880041e 	bne	r3,r2,84b8 <OSQAccept+0xf0>
            pq->OSQOut = pq->OSQStart;
    84a8:	e0bffd17 	ldw	r2,-12(fp)
    84ac:	10c00117 	ldw	r3,4(r2)
    84b0:	e0bffd17 	ldw	r2,-12(fp)
    84b4:	10c00415 	stw	r3,16(r2)
        }
        *perr = OS_ERR_NONE;
    84b8:	e0bff917 	ldw	r2,-28(fp)
    84bc:	10000005 	stb	zero,0(r2)
    84c0:	00000406 	br	84d4 <OSQAccept+0x10c>
    } else {
        *perr = OS_ERR_Q_EMPTY;
    84c4:	e0bff917 	ldw	r2,-28(fp)
    84c8:	00c007c4 	movi	r3,31
    84cc:	10c00005 	stb	r3,0(r2)
        pmsg  = (void *)0;                       /* Queue is empty                                     */
    84d0:	e03fff15 	stw	zero,-4(fp)
    84d4:	e0bffe17 	ldw	r2,-8(fp)
    84d8:	e0bffb15 	stw	r2,-20(fp)
  NIOS2_WRITE_STATUS (context);
    84dc:	e0bffb17 	ldw	r2,-20(fp)
    84e0:	1001703a 	wrctl	status,r2
}
    84e4:	0001883a 	nop
    }
    OS_EXIT_CRITICAL();
    return (pmsg);                               /* Return message received (or NULL)                  */
    84e8:	e0bfff17 	ldw	r2,-4(fp)
}
    84ec:	e037883a 	mov	sp,fp
    84f0:	df000017 	ldw	fp,0(sp)
    84f4:	dec00104 	addi	sp,sp,4
    84f8:	f800283a 	ret

000084fc <OSQCreate>:
*********************************************************************************************************
*/

OS_EVENT  *OSQCreate (void    **start,
                      INT16U    size)
{
    84fc:	defff404 	addi	sp,sp,-48
    8500:	dfc00b15 	stw	ra,44(sp)
    8504:	df000a15 	stw	fp,40(sp)
    8508:	df000a04 	addi	fp,sp,40
    850c:	e13ff715 	stw	r4,-36(fp)
    8510:	2805883a 	mov	r2,r5
    8514:	e0bff60d 	sth	r2,-40(fp)
    OS_EVENT  *pevent;
    OS_Q      *pq;
#if OS_CRITICAL_METHOD == 3u                     /* Allocate storage for CPU status register           */
    OS_CPU_SR  cpu_sr = 0u;
    8518:	e03ffe15 	stw	zero,-8(fp)
        OS_SAFETY_CRITICAL_EXCEPTION();
        return ((OS_EVENT *)0);
    }
#endif

    if (OSIntNesting > 0u) {                     /* See if called from ISR ...                         */
    851c:	d0ab4443 	ldbu	r2,-21231(gp)
    8520:	10803fcc 	andi	r2,r2,255
    8524:	10000226 	beq	r2,zero,8530 <OSQCreate+0x34>
        return ((OS_EVENT *)0);                  /* ... can't CREATE from an ISR                       */
    8528:	0005883a 	mov	r2,zero
    852c:	00005906 	br	8694 <OSQCreate+0x198>
  NIOS2_READ_STATUS (context);
    8530:	0005303a 	rdctl	r2,status
    8534:	e0bffc15 	stw	r2,-16(fp)
  NIOS2_WRITE_STATUS (context & ~NIOS2_STATUS_PIE_MSK);
    8538:	e0fffc17 	ldw	r3,-16(fp)
    853c:	00bfff84 	movi	r2,-2
    8540:	1884703a 	and	r2,r3,r2
    8544:	1001703a 	wrctl	status,r2
  return context;
    8548:	e0bffc17 	ldw	r2,-16(fp)
    }
    OS_ENTER_CRITICAL();
    854c:	e0bffe15 	stw	r2,-8(fp)
    pevent = OSEventFreeList;                    /* Get next free event control block                  */
    8550:	d0ab3f17 	ldw	r2,-21252(gp)
    8554:	e0bfff15 	stw	r2,-4(fp)
    if (OSEventFreeList != (OS_EVENT *)0) {      /* See if pool of free ECB pool was empty             */
    8558:	d0ab3f17 	ldw	r2,-21252(gp)
    855c:	10000326 	beq	r2,zero,856c <OSQCreate+0x70>
        OSEventFreeList = (OS_EVENT *)OSEventFreeList->OSEventPtr;
    8560:	d0ab3f17 	ldw	r2,-21252(gp)
    8564:	10800117 	ldw	r2,4(r2)
    8568:	d0ab3f15 	stw	r2,-21252(gp)
    856c:	e0bffe17 	ldw	r2,-8(fp)
    8570:	e0bffb15 	stw	r2,-20(fp)
  NIOS2_WRITE_STATUS (context);
    8574:	e0bffb17 	ldw	r2,-20(fp)
    8578:	1001703a 	wrctl	status,r2
}
    857c:	0001883a 	nop
    }
    OS_EXIT_CRITICAL();
    if (pevent != (OS_EVENT *)0) {               /* See if we have an event control block              */
    8580:	e0bfff17 	ldw	r2,-4(fp)
    8584:	10004226 	beq	r2,zero,8690 <OSQCreate+0x194>
  NIOS2_READ_STATUS (context);
    8588:	0005303a 	rdctl	r2,status
    858c:	e0bffa15 	stw	r2,-24(fp)
  NIOS2_WRITE_STATUS (context & ~NIOS2_STATUS_PIE_MSK);
    8590:	e0fffa17 	ldw	r3,-24(fp)
    8594:	00bfff84 	movi	r2,-2
    8598:	1884703a 	and	r2,r3,r2
    859c:	1001703a 	wrctl	status,r2
  return context;
    85a0:	e0bffa17 	ldw	r2,-24(fp)
        OS_ENTER_CRITICAL();
    85a4:	e0bffe15 	stw	r2,-8(fp)
        pq = OSQFreeList;                        /* Get a free queue control block                     */
    85a8:	d0ab4e17 	ldw	r2,-21192(gp)
    85ac:	e0bffd15 	stw	r2,-12(fp)
        if (pq != (OS_Q *)0) {                   /* Were we able to get a queue control block ?        */
    85b0:	e0bffd17 	ldw	r2,-12(fp)
    85b4:	10002b26 	beq	r2,zero,8664 <OSQCreate+0x168>
            OSQFreeList            = OSQFreeList->OSQPtr; /* Yes, Adjust free list pointer to next free*/
    85b8:	d0ab4e17 	ldw	r2,-21192(gp)
    85bc:	10800017 	ldw	r2,0(r2)
    85c0:	d0ab4e15 	stw	r2,-21192(gp)
    85c4:	e0bffe17 	ldw	r2,-8(fp)
    85c8:	e0bff915 	stw	r2,-28(fp)
  NIOS2_WRITE_STATUS (context);
    85cc:	e0bff917 	ldw	r2,-28(fp)
    85d0:	1001703a 	wrctl	status,r2
}
    85d4:	0001883a 	nop
            OS_EXIT_CRITICAL();
            pq->OSQStart           = start;               /*      Initialize the queue                 */
    85d8:	e0bffd17 	ldw	r2,-12(fp)
    85dc:	e0fff717 	ldw	r3,-36(fp)
    85e0:	10c00115 	stw	r3,4(r2)
            pq->OSQEnd             = &start[size];
    85e4:	e0bff60b 	ldhu	r2,-40(fp)
    85e8:	100490ba 	slli	r2,r2,2
    85ec:	e0fff717 	ldw	r3,-36(fp)
    85f0:	1887883a 	add	r3,r3,r2
    85f4:	e0bffd17 	ldw	r2,-12(fp)
    85f8:	10c00215 	stw	r3,8(r2)
            pq->OSQIn              = start;
    85fc:	e0bffd17 	ldw	r2,-12(fp)
    8600:	e0fff717 	ldw	r3,-36(fp)
    8604:	10c00315 	stw	r3,12(r2)
            pq->OSQOut             = start;
    8608:	e0bffd17 	ldw	r2,-12(fp)
    860c:	e0fff717 	ldw	r3,-36(fp)
    8610:	10c00415 	stw	r3,16(r2)
            pq->OSQSize            = size;
    8614:	e0bffd17 	ldw	r2,-12(fp)
    8618:	e0fff60b 	ldhu	r3,-40(fp)
    861c:	10c0050d 	sth	r3,20(r2)
            pq->OSQEntries         = 0u;
    8620:	e0bffd17 	ldw	r2,-12(fp)
    8624:	1000058d 	sth	zero,22(r2)
            pevent->OSEventType    = OS_EVENT_TYPE_Q;
    8628:	e0bfff17 	ldw	r2,-4(fp)
    862c:	00c00084 	movi	r3,2
    8630:	10c00005 	stb	r3,0(r2)
            pevent->OSEventCnt     = 0u;
    8634:	e0bfff17 	ldw	r2,-4(fp)
    8638:	1000020d 	sth	zero,8(r2)
            pevent->OSEventPtr     = pq;
    863c:	e0bfff17 	ldw	r2,-4(fp)
    8640:	e0fffd17 	ldw	r3,-12(fp)
    8644:	10c00115 	stw	r3,4(r2)
#if OS_EVENT_NAME_EN > 0u
            pevent->OSEventName    = (INT8U *)(void *)"?";
    8648:	e0ffff17 	ldw	r3,-4(fp)
    864c:	00800074 	movhi	r2,1
    8650:	10ba9804 	addi	r2,r2,-5536
    8654:	18800415 	stw	r2,16(r3)
#endif
            OS_EventWaitListInit(pevent);                 /*      Initialize the wait list             */
    8658:	e13fff17 	ldw	r4,-4(fp)
    865c:	00057c00 	call	57c0 <OS_EventWaitListInit>
    8660:	00000b06 	br	8690 <OSQCreate+0x194>

            OS_TRACE_Q_CREATE(pevent, pevent->OSEventName);
        } else {
            pevent->OSEventPtr = (void *)OSEventFreeList; /* No,  Return event control block on error  */
    8664:	d0eb3f17 	ldw	r3,-21252(gp)
    8668:	e0bfff17 	ldw	r2,-4(fp)
    866c:	10c00115 	stw	r3,4(r2)
            OSEventFreeList    = pevent;
    8670:	e0bfff17 	ldw	r2,-4(fp)
    8674:	d0ab3f15 	stw	r2,-21252(gp)
    8678:	e0bffe17 	ldw	r2,-8(fp)
    867c:	e0bff815 	stw	r2,-32(fp)
  NIOS2_WRITE_STATUS (context);
    8680:	e0bff817 	ldw	r2,-32(fp)
    8684:	1001703a 	wrctl	status,r2
}
    8688:	0001883a 	nop
            OS_EXIT_CRITICAL();
            pevent = (OS_EVENT *)0;
    868c:	e03fff15 	stw	zero,-4(fp)
        }
    }
    return (pevent);
    8690:	e0bfff17 	ldw	r2,-4(fp)
}
    8694:	e037883a 	mov	sp,fp
    8698:	dfc00117 	ldw	ra,4(sp)
    869c:	df000017 	ldw	fp,0(sp)
    86a0:	dec00204 	addi	sp,sp,8
    86a4:	f800283a 	ret

000086a8 <OSQDel>:

#if OS_Q_DEL_EN > 0u
OS_EVENT  *OSQDel (OS_EVENT  *pevent,
                   INT8U      opt,
                   INT8U     *perr)
{
    86a8:	defff204 	addi	sp,sp,-56
    86ac:	dfc00d15 	stw	ra,52(sp)
    86b0:	df000c15 	stw	fp,48(sp)
    86b4:	df000c04 	addi	fp,sp,48
    86b8:	e13ff615 	stw	r4,-40(fp)
    86bc:	2805883a 	mov	r2,r5
    86c0:	e1bff415 	stw	r6,-48(fp)
    86c4:	e0bff505 	stb	r2,-44(fp)
    BOOLEAN    tasks_waiting;
    OS_EVENT  *pevent_return;
    OS_Q      *pq;
#if OS_CRITICAL_METHOD == 3u                               /* Allocate storage for CPU status register */
    OS_CPU_SR  cpu_sr = 0u;
    86c8:	e03ffd15 	stw	zero,-12(fp)
        return ((OS_EVENT *)0);
    }
#endif

#if OS_ARG_CHK_EN > 0u
    if (pevent == (OS_EVENT *)0) {                         /* Validate 'pevent'                        */
    86cc:	e0bff617 	ldw	r2,-40(fp)
    86d0:	1000051e 	bne	r2,zero,86e8 <OSQDel+0x40>
        *perr = OS_ERR_PEVENT_NULL;
    86d4:	e0bff417 	ldw	r2,-48(fp)
    86d8:	00c00104 	movi	r3,4
    86dc:	10c00005 	stb	r3,0(r2)
        return (pevent);
    86e0:	e0bff617 	ldw	r2,-40(fp)
    86e4:	00008906 	br	890c <OSQDel+0x264>
    }
#endif

    OS_TRACE_Q_DEL_ENTER(pevent, opt);

    if (pevent->OSEventType != OS_EVENT_TYPE_Q) {          /* Validate event block type                */
    86e8:	e0bff617 	ldw	r2,-40(fp)
    86ec:	10800003 	ldbu	r2,0(r2)
    86f0:	10803fcc 	andi	r2,r2,255
    86f4:	108000a0 	cmpeqi	r2,r2,2
    86f8:	1000051e 	bne	r2,zero,8710 <OSQDel+0x68>
        *perr = OS_ERR_EVENT_TYPE;
    86fc:	e0bff417 	ldw	r2,-48(fp)
    8700:	00c00044 	movi	r3,1
    8704:	10c00005 	stb	r3,0(r2)
        OS_TRACE_Q_DEL_EXIT(*perr);
        return (pevent);
    8708:	e0bff617 	ldw	r2,-40(fp)
    870c:	00007f06 	br	890c <OSQDel+0x264>
    }
    if (OSIntNesting > 0u) {                               /* See if called from ISR ...               */
    8710:	d0ab4443 	ldbu	r2,-21231(gp)
    8714:	10803fcc 	andi	r2,r2,255
    8718:	10000526 	beq	r2,zero,8730 <OSQDel+0x88>
        *perr = OS_ERR_DEL_ISR;                            /* ... can't DELETE from an ISR             */
    871c:	e0bff417 	ldw	r2,-48(fp)
    8720:	00c003c4 	movi	r3,15
    8724:	10c00005 	stb	r3,0(r2)
        OS_TRACE_Q_DEL_EXIT(*perr);
        return (pevent);
    8728:	e0bff617 	ldw	r2,-40(fp)
    872c:	00007706 	br	890c <OSQDel+0x264>
  NIOS2_READ_STATUS (context);
    8730:	0005303a 	rdctl	r2,status
    8734:	e0bffb15 	stw	r2,-20(fp)
  NIOS2_WRITE_STATUS (context & ~NIOS2_STATUS_PIE_MSK);
    8738:	e0fffb17 	ldw	r3,-20(fp)
    873c:	00bfff84 	movi	r2,-2
    8740:	1884703a 	and	r2,r3,r2
    8744:	1001703a 	wrctl	status,r2
  return context;
    8748:	e0bffb17 	ldw	r2,-20(fp)
    }
    OS_ENTER_CRITICAL();
    874c:	e0bffd15 	stw	r2,-12(fp)
    if (pevent->OSEventGrp != 0u) {                        /* See if any tasks waiting on queue        */
    8750:	e0bff617 	ldw	r2,-40(fp)
    8754:	10800283 	ldbu	r2,10(r2)
    8758:	10803fcc 	andi	r2,r2,255
    875c:	10000326 	beq	r2,zero,876c <OSQDel+0xc4>
        tasks_waiting = OS_TRUE;                           /* Yes                                      */
    8760:	00800044 	movi	r2,1
    8764:	e0bfffc5 	stb	r2,-1(fp)
    8768:	00000106 	br	8770 <OSQDel+0xc8>
    } else {
        tasks_waiting = OS_FALSE;                          /* No                                       */
    876c:	e03fffc5 	stb	zero,-1(fp)
    }
    switch (opt) {
    8770:	e0bff503 	ldbu	r2,-44(fp)
    8774:	10000326 	beq	r2,zero,8784 <OSQDel+0xdc>
    8778:	10800060 	cmpeqi	r2,r2,1
    877c:	1000311e 	bne	r2,zero,8844 <OSQDel+0x19c>
    8780:	00005606 	br	88dc <OSQDel+0x234>
        case OS_DEL_NO_PEND:                               /* Delete queue only if no task waiting     */
             if (tasks_waiting == OS_FALSE) {
    8784:	e0bfffc3 	ldbu	r2,-1(fp)
    8788:	10001e1e 	bne	r2,zero,8804 <OSQDel+0x15c>
#if OS_EVENT_NAME_EN > 0u
                 pevent->OSEventName    = (INT8U *)(void *)"?";
    878c:	e0fff617 	ldw	r3,-40(fp)
    8790:	00800074 	movhi	r2,1
    8794:	10ba9804 	addi	r2,r2,-5536
    8798:	18800415 	stw	r2,16(r3)
#endif
                 pq                     = (OS_Q *)pevent->OSEventPtr;  /* Return OS_Q to free list     */
    879c:	e0bff617 	ldw	r2,-40(fp)
    87a0:	10800117 	ldw	r2,4(r2)
    87a4:	e0bffc15 	stw	r2,-16(fp)
                 pq->OSQPtr             = OSQFreeList;
    87a8:	d0eb4e17 	ldw	r3,-21192(gp)
    87ac:	e0bffc17 	ldw	r2,-16(fp)
    87b0:	10c00015 	stw	r3,0(r2)
                 OSQFreeList            = pq;
    87b4:	e0bffc17 	ldw	r2,-16(fp)
    87b8:	d0ab4e15 	stw	r2,-21192(gp)
                 pevent->OSEventType    = OS_EVENT_TYPE_UNUSED;
    87bc:	e0bff617 	ldw	r2,-40(fp)
    87c0:	10000005 	stb	zero,0(r2)
                 pevent->OSEventPtr     = OSEventFreeList; /* Return Event Control Block to free list  */
    87c4:	d0eb3f17 	ldw	r3,-21252(gp)
    87c8:	e0bff617 	ldw	r2,-40(fp)
    87cc:	10c00115 	stw	r3,4(r2)
                 pevent->OSEventCnt     = 0u;
    87d0:	e0bff617 	ldw	r2,-40(fp)
    87d4:	1000020d 	sth	zero,8(r2)
                 OSEventFreeList        = pevent;          /* Get next free event control block        */
    87d8:	e0bff617 	ldw	r2,-40(fp)
    87dc:	d0ab3f15 	stw	r2,-21252(gp)
    87e0:	e0bffd17 	ldw	r2,-12(fp)
    87e4:	e0bffa15 	stw	r2,-24(fp)
  NIOS2_WRITE_STATUS (context);
    87e8:	e0bffa17 	ldw	r2,-24(fp)
    87ec:	1001703a 	wrctl	status,r2
}
    87f0:	0001883a 	nop
                 OS_EXIT_CRITICAL();
                 *perr                  = OS_ERR_NONE;
    87f4:	e0bff417 	ldw	r2,-48(fp)
    87f8:	10000005 	stb	zero,0(r2)
                 pevent_return          = (OS_EVENT *)0;   /* Queue has been deleted                   */
    87fc:	e03ffe15 	stw	zero,-8(fp)
             } else {
                 OS_EXIT_CRITICAL();
                 *perr                  = OS_ERR_TASK_WAITING;
                 pevent_return          = pevent;
             }
             break;
    8800:	00004106 	br	8908 <OSQDel+0x260>
    8804:	e0bffd17 	ldw	r2,-12(fp)
    8808:	e0bff915 	stw	r2,-28(fp)
  NIOS2_WRITE_STATUS (context);
    880c:	e0bff917 	ldw	r2,-28(fp)
    8810:	1001703a 	wrctl	status,r2
}
    8814:	0001883a 	nop
                 *perr                  = OS_ERR_TASK_WAITING;
    8818:	e0bff417 	ldw	r2,-48(fp)
    881c:	00c01244 	movi	r3,73
    8820:	10c00005 	stb	r3,0(r2)
                 pevent_return          = pevent;
    8824:	e0bff617 	ldw	r2,-40(fp)
    8828:	e0bffe15 	stw	r2,-8(fp)
             break;
    882c:	00003606 	br	8908 <OSQDel+0x260>

        case OS_DEL_ALWAYS:                                /* Always delete the queue                  */
             while (pevent->OSEventGrp != 0u) {            /* Ready ALL tasks waiting for queue        */
                 (void)OS_EventTaskRdy(pevent, (void *)0, OS_STAT_Q, OS_STAT_PEND_ABORT);
    8830:	01c00084 	movi	r7,2
    8834:	01800104 	movi	r6,4
    8838:	000b883a 	mov	r5,zero
    883c:	e13ff617 	ldw	r4,-40(fp)
    8840:	00052400 	call	5240 <OS_EventTaskRdy>
             while (pevent->OSEventGrp != 0u) {            /* Ready ALL tasks waiting for queue        */
    8844:	e0bff617 	ldw	r2,-40(fp)
    8848:	10800283 	ldbu	r2,10(r2)
    884c:	10803fcc 	andi	r2,r2,255
    8850:	103ff71e 	bne	r2,zero,8830 <OSQDel+0x188>
             }
#if OS_EVENT_NAME_EN > 0u
             pevent->OSEventName    = (INT8U *)(void *)"?";
    8854:	e0fff617 	ldw	r3,-40(fp)
    8858:	00800074 	movhi	r2,1
    885c:	10ba9804 	addi	r2,r2,-5536
    8860:	18800415 	stw	r2,16(r3)
#endif
             pq                     = (OS_Q *)pevent->OSEventPtr;   /* Return OS_Q to free list        */
    8864:	e0bff617 	ldw	r2,-40(fp)
    8868:	10800117 	ldw	r2,4(r2)
    886c:	e0bffc15 	stw	r2,-16(fp)
             pq->OSQPtr             = OSQFreeList;
    8870:	d0eb4e17 	ldw	r3,-21192(gp)
    8874:	e0bffc17 	ldw	r2,-16(fp)
    8878:	10c00015 	stw	r3,0(r2)
             OSQFreeList            = pq;
    887c:	e0bffc17 	ldw	r2,-16(fp)
    8880:	d0ab4e15 	stw	r2,-21192(gp)
             pevent->OSEventType    = OS_EVENT_TYPE_UNUSED;
    8884:	e0bff617 	ldw	r2,-40(fp)
    8888:	10000005 	stb	zero,0(r2)
             pevent->OSEventPtr     = OSEventFreeList;     /* Return Event Control Block to free list  */
    888c:	d0eb3f17 	ldw	r3,-21252(gp)
    8890:	e0bff617 	ldw	r2,-40(fp)
    8894:	10c00115 	stw	r3,4(r2)
             pevent->OSEventCnt     = 0u;
    8898:	e0bff617 	ldw	r2,-40(fp)
    889c:	1000020d 	sth	zero,8(r2)
             OSEventFreeList        = pevent;              /* Get next free event control block        */
    88a0:	e0bff617 	ldw	r2,-40(fp)
    88a4:	d0ab3f15 	stw	r2,-21252(gp)
    88a8:	e0bffd17 	ldw	r2,-12(fp)
    88ac:	e0bff815 	stw	r2,-32(fp)
  NIOS2_WRITE_STATUS (context);
    88b0:	e0bff817 	ldw	r2,-32(fp)
    88b4:	1001703a 	wrctl	status,r2
}
    88b8:	0001883a 	nop
             OS_EXIT_CRITICAL();
             if (tasks_waiting == OS_TRUE) {               /* Reschedule only if task(s) were waiting  */
    88bc:	e0bfffc3 	ldbu	r2,-1(fp)
    88c0:	10800058 	cmpnei	r2,r2,1
    88c4:	1000011e 	bne	r2,zero,88cc <OSQDel+0x224>
                 OS_Sched();                               /* Find highest priority task ready to run  */
    88c8:	0005c980 	call	5c98 <OS_Sched>
             }
             *perr                  = OS_ERR_NONE;
    88cc:	e0bff417 	ldw	r2,-48(fp)
    88d0:	10000005 	stb	zero,0(r2)
             pevent_return          = (OS_EVENT *)0;       /* Queue has been deleted                   */
    88d4:	e03ffe15 	stw	zero,-8(fp)
             break;
    88d8:	00000b06 	br	8908 <OSQDel+0x260>
    88dc:	e0bffd17 	ldw	r2,-12(fp)
    88e0:	e0bff715 	stw	r2,-36(fp)
  NIOS2_WRITE_STATUS (context);
    88e4:	e0bff717 	ldw	r2,-36(fp)
    88e8:	1001703a 	wrctl	status,r2
}
    88ec:	0001883a 	nop

        default:
             OS_EXIT_CRITICAL();
             *perr                  = OS_ERR_INVALID_OPT;
    88f0:	e0bff417 	ldw	r2,-48(fp)
    88f4:	00c001c4 	movi	r3,7
    88f8:	10c00005 	stb	r3,0(r2)
             pevent_return          = pevent;
    88fc:	e0bff617 	ldw	r2,-40(fp)
    8900:	e0bffe15 	stw	r2,-8(fp)
             break;
    8904:	0001883a 	nop
    }

    OS_TRACE_Q_DEL_EXIT(*perr);

    return (pevent_return);
    8908:	e0bffe17 	ldw	r2,-8(fp)
}
    890c:	e037883a 	mov	sp,fp
    8910:	dfc00117 	ldw	ra,4(sp)
    8914:	df000017 	ldw	fp,0(sp)
    8918:	dec00204 	addi	sp,sp,8
    891c:	f800283a 	ret

00008920 <OSQFlush>:
*********************************************************************************************************
*/

#if OS_Q_FLUSH_EN > 0u
INT8U  OSQFlush (OS_EVENT *pevent)
{
    8920:	defffa04 	addi	sp,sp,-24
    8924:	df000515 	stw	fp,20(sp)
    8928:	df000504 	addi	fp,sp,20
    892c:	e13ffb15 	stw	r4,-20(fp)
    OS_Q      *pq;
#if OS_CRITICAL_METHOD == 3u                          /* Allocate storage for CPU status register      */
    OS_CPU_SR  cpu_sr = 0u;
    8930:	e03fff15 	stw	zero,-4(fp)
#endif



#if OS_ARG_CHK_EN > 0u
    if (pevent == (OS_EVENT *)0) {                    /* Validate 'pevent'                             */
    8934:	e0bffb17 	ldw	r2,-20(fp)
    8938:	1000021e 	bne	r2,zero,8944 <OSQFlush+0x24>
        return (OS_ERR_PEVENT_NULL);
    893c:	00800104 	movi	r2,4
    8940:	00002206 	br	89cc <OSQFlush+0xac>
    }
    if (pevent->OSEventType != OS_EVENT_TYPE_Q) {     /* Validate event block type                     */
    8944:	e0bffb17 	ldw	r2,-20(fp)
    8948:	10800003 	ldbu	r2,0(r2)
    894c:	10803fcc 	andi	r2,r2,255
    8950:	108000a0 	cmpeqi	r2,r2,2
    8954:	1000021e 	bne	r2,zero,8960 <OSQFlush+0x40>
        return (OS_ERR_EVENT_TYPE);
    8958:	00800044 	movi	r2,1
    895c:	00001b06 	br	89cc <OSQFlush+0xac>
  NIOS2_READ_STATUS (context);
    8960:	0005303a 	rdctl	r2,status
    8964:	e0bffc15 	stw	r2,-16(fp)
  NIOS2_WRITE_STATUS (context & ~NIOS2_STATUS_PIE_MSK);
    8968:	e0fffc17 	ldw	r3,-16(fp)
    896c:	00bfff84 	movi	r2,-2
    8970:	1884703a 	and	r2,r3,r2
    8974:	1001703a 	wrctl	status,r2
  return context;
    8978:	e0bffc17 	ldw	r2,-16(fp)
    }
#endif
    OS_ENTER_CRITICAL();
    897c:	e0bfff15 	stw	r2,-4(fp)
    pq             = (OS_Q *)pevent->OSEventPtr;      /* Point to queue storage structure              */
    8980:	e0bffb17 	ldw	r2,-20(fp)
    8984:	10800117 	ldw	r2,4(r2)
    8988:	e0bffe15 	stw	r2,-8(fp)
    pq->OSQIn      = pq->OSQStart;
    898c:	e0bffe17 	ldw	r2,-8(fp)
    8990:	10c00117 	ldw	r3,4(r2)
    8994:	e0bffe17 	ldw	r2,-8(fp)
    8998:	10c00315 	stw	r3,12(r2)
    pq->OSQOut     = pq->OSQStart;
    899c:	e0bffe17 	ldw	r2,-8(fp)
    89a0:	10c00117 	ldw	r3,4(r2)
    89a4:	e0bffe17 	ldw	r2,-8(fp)
    89a8:	10c00415 	stw	r3,16(r2)
    pq->OSQEntries = 0u;
    89ac:	e0bffe17 	ldw	r2,-8(fp)
    89b0:	1000058d 	sth	zero,22(r2)
    89b4:	e0bfff17 	ldw	r2,-4(fp)
    89b8:	e0bffd15 	stw	r2,-12(fp)
  NIOS2_WRITE_STATUS (context);
    89bc:	e0bffd17 	ldw	r2,-12(fp)
    89c0:	1001703a 	wrctl	status,r2
}
    89c4:	0001883a 	nop
    OS_EXIT_CRITICAL();
    return (OS_ERR_NONE);
    89c8:	0005883a 	mov	r2,zero
}
    89cc:	e037883a 	mov	sp,fp
    89d0:	df000017 	ldw	fp,0(sp)
    89d4:	dec00104 	addi	sp,sp,4
    89d8:	f800283a 	ret

000089dc <OSQPend>:
*/

void  *OSQPend (OS_EVENT  *pevent,
                INT32U     timeout,
                INT8U     *perr)
{
    89dc:	defff304 	addi	sp,sp,-52
    89e0:	dfc00c15 	stw	ra,48(sp)
    89e4:	df000b15 	stw	fp,44(sp)
    89e8:	df000b04 	addi	fp,sp,44
    89ec:	e13ff715 	stw	r4,-36(fp)
    89f0:	e17ff615 	stw	r5,-40(fp)
    89f4:	e1bff515 	stw	r6,-44(fp)
    void      *pmsg;
    OS_Q      *pq;
#if OS_CRITICAL_METHOD == 3u                     /* Allocate storage for CPU status register           */
    OS_CPU_SR  cpu_sr = 0u;
    89f8:	e03ffe15 	stw	zero,-8(fp)
        return ((void *)0);
    }
#endif

#if OS_ARG_CHK_EN > 0u
    if (pevent == (OS_EVENT *)0) {               /* Validate 'pevent'                                  */
    89fc:	e0bff717 	ldw	r2,-36(fp)
    8a00:	1000051e 	bne	r2,zero,8a18 <OSQPend+0x3c>
        *perr = OS_ERR_PEVENT_NULL;
    8a04:	e0bff517 	ldw	r2,-44(fp)
    8a08:	00c00104 	movi	r3,4
    8a0c:	10c00005 	stb	r3,0(r2)
        return ((void *)0);
    8a10:	0005883a 	mov	r2,zero
    8a14:	00008f06 	br	8c54 <OSQPend+0x278>
    }
#endif

    OS_TRACE_Q_PEND_ENTER(pevent, timeout);

    if (pevent->OSEventType != OS_EVENT_TYPE_Q) {/* Validate event block type                          */
    8a18:	e0bff717 	ldw	r2,-36(fp)
    8a1c:	10800003 	ldbu	r2,0(r2)
    8a20:	10803fcc 	andi	r2,r2,255
    8a24:	108000a0 	cmpeqi	r2,r2,2
    8a28:	1000051e 	bne	r2,zero,8a40 <OSQPend+0x64>
        *perr = OS_ERR_EVENT_TYPE;
    8a2c:	e0bff517 	ldw	r2,-44(fp)
    8a30:	00c00044 	movi	r3,1
    8a34:	10c00005 	stb	r3,0(r2)
        OS_TRACE_Q_PEND_EXIT(*perr);
        return ((void *)0);
    8a38:	0005883a 	mov	r2,zero
    8a3c:	00008506 	br	8c54 <OSQPend+0x278>
    }
    if (OSIntNesting > 0u) {                     /* See if called from ISR ...                         */
    8a40:	d0ab4443 	ldbu	r2,-21231(gp)
    8a44:	10803fcc 	andi	r2,r2,255
    8a48:	10000526 	beq	r2,zero,8a60 <OSQPend+0x84>
        *perr = OS_ERR_PEND_ISR;                 /* ... can't PEND from an ISR                         */
    8a4c:	e0bff517 	ldw	r2,-44(fp)
    8a50:	00c00084 	movi	r3,2
    8a54:	10c00005 	stb	r3,0(r2)
        OS_TRACE_Q_PEND_EXIT(*perr);
        return ((void *)0);
    8a58:	0005883a 	mov	r2,zero
    8a5c:	00007d06 	br	8c54 <OSQPend+0x278>
    }
    if (OSLockNesting > 0u) {                    /* See if called with scheduler locked ...            */
    8a60:	d0ab4483 	ldbu	r2,-21230(gp)
    8a64:	10803fcc 	andi	r2,r2,255
    8a68:	10000526 	beq	r2,zero,8a80 <OSQPend+0xa4>
        *perr = OS_ERR_PEND_LOCKED;              /* ... can't PEND when locked                         */
    8a6c:	e0bff517 	ldw	r2,-44(fp)
    8a70:	00c00344 	movi	r3,13
    8a74:	10c00005 	stb	r3,0(r2)
        OS_TRACE_Q_PEND_EXIT(*perr);
        return ((void *)0);
    8a78:	0005883a 	mov	r2,zero
    8a7c:	00007506 	br	8c54 <OSQPend+0x278>
  NIOS2_READ_STATUS (context);
    8a80:	0005303a 	rdctl	r2,status
    8a84:	e0bffc15 	stw	r2,-16(fp)
  NIOS2_WRITE_STATUS (context & ~NIOS2_STATUS_PIE_MSK);
    8a88:	e0fffc17 	ldw	r3,-16(fp)
    8a8c:	00bfff84 	movi	r2,-2
    8a90:	1884703a 	and	r2,r3,r2
    8a94:	1001703a 	wrctl	status,r2
  return context;
    8a98:	e0bffc17 	ldw	r2,-16(fp)
    }
    OS_ENTER_CRITICAL();
    8a9c:	e0bffe15 	stw	r2,-8(fp)
    pq = (OS_Q *)pevent->OSEventPtr;             /* Point at queue control block                       */
    8aa0:	e0bff717 	ldw	r2,-36(fp)
    8aa4:	10800117 	ldw	r2,4(r2)
    8aa8:	e0bffd15 	stw	r2,-12(fp)
    if (pq->OSQEntries > 0u) {                   /* See if any messages in the queue                   */
    8aac:	e0bffd17 	ldw	r2,-12(fp)
    8ab0:	1080058b 	ldhu	r2,22(r2)
    8ab4:	10bfffcc 	andi	r2,r2,65535
    8ab8:	10001f26 	beq	r2,zero,8b38 <OSQPend+0x15c>
        pmsg = *pq->OSQOut++;                    /* Yes, extract oldest message from the queue         */
    8abc:	e0bffd17 	ldw	r2,-12(fp)
    8ac0:	10800417 	ldw	r2,16(r2)
    8ac4:	11000104 	addi	r4,r2,4
    8ac8:	e0fffd17 	ldw	r3,-12(fp)
    8acc:	19000415 	stw	r4,16(r3)
    8ad0:	10800017 	ldw	r2,0(r2)
    8ad4:	e0bfff15 	stw	r2,-4(fp)
        pq->OSQEntries--;                        /* Update the number of entries in the queue          */
    8ad8:	e0bffd17 	ldw	r2,-12(fp)
    8adc:	1080058b 	ldhu	r2,22(r2)
    8ae0:	10bfffc4 	addi	r2,r2,-1
    8ae4:	1007883a 	mov	r3,r2
    8ae8:	e0bffd17 	ldw	r2,-12(fp)
    8aec:	10c0058d 	sth	r3,22(r2)
        if (pq->OSQOut == pq->OSQEnd) {          /* Wrap OUT pointer if we are at the end of the queue */
    8af0:	e0bffd17 	ldw	r2,-12(fp)
    8af4:	10c00417 	ldw	r3,16(r2)
    8af8:	e0bffd17 	ldw	r2,-12(fp)
    8afc:	10800217 	ldw	r2,8(r2)
    8b00:	1880041e 	bne	r3,r2,8b14 <OSQPend+0x138>
            pq->OSQOut = pq->OSQStart;
    8b04:	e0bffd17 	ldw	r2,-12(fp)
    8b08:	10c00117 	ldw	r3,4(r2)
    8b0c:	e0bffd17 	ldw	r2,-12(fp)
    8b10:	10c00415 	stw	r3,16(r2)
    8b14:	e0bffe17 	ldw	r2,-8(fp)
    8b18:	e0bffb15 	stw	r2,-20(fp)
  NIOS2_WRITE_STATUS (context);
    8b1c:	e0bffb17 	ldw	r2,-20(fp)
    8b20:	1001703a 	wrctl	status,r2
}
    8b24:	0001883a 	nop
        }
        OS_EXIT_CRITICAL();
        *perr = OS_ERR_NONE;
    8b28:	e0bff517 	ldw	r2,-44(fp)
    8b2c:	10000005 	stb	zero,0(r2)
        OS_TRACE_Q_PEND_EXIT(*perr);
        return (pmsg);                           /* Return message received                            */
    8b30:	e0bfff17 	ldw	r2,-4(fp)
    8b34:	00004706 	br	8c54 <OSQPend+0x278>
    }
    OSTCBCur->OSTCBStat     |= OS_STAT_Q;        /* Task will have to pend for a message to be posted  */
    8b38:	d0ab4817 	ldw	r2,-21216(gp)
    8b3c:	10c00e03 	ldbu	r3,56(r2)
    8b40:	d0ab4817 	ldw	r2,-21216(gp)
    8b44:	18c00114 	ori	r3,r3,4
    8b48:	10c00e05 	stb	r3,56(r2)
    OSTCBCur->OSTCBStatPend  = OS_STAT_PEND_OK;
    8b4c:	d0ab4817 	ldw	r2,-21216(gp)
    8b50:	10000e45 	stb	zero,57(r2)
    OSTCBCur->OSTCBDly       = timeout;          /* Load timeout into TCB                              */
    8b54:	d0ab4817 	ldw	r2,-21216(gp)
    8b58:	e0fff617 	ldw	r3,-40(fp)
    8b5c:	10c00d15 	stw	r3,52(r2)
    OS_EventTaskWait(pevent);                    /* Suspend task until event or timeout occurs         */
    8b60:	e13ff717 	ldw	r4,-36(fp)
    8b64:	00053cc0 	call	53cc <OS_EventTaskWait>
    8b68:	e0bffe17 	ldw	r2,-8(fp)
    8b6c:	e0bff915 	stw	r2,-28(fp)
  NIOS2_WRITE_STATUS (context);
    8b70:	e0bff917 	ldw	r2,-28(fp)
    8b74:	1001703a 	wrctl	status,r2
}
    8b78:	0001883a 	nop
    OS_EXIT_CRITICAL();
    OS_Sched();                                  /* Find next highest priority task ready to run       */
    8b7c:	0005c980 	call	5c98 <OS_Sched>
  NIOS2_READ_STATUS (context);
    8b80:	0005303a 	rdctl	r2,status
    8b84:	e0bffa15 	stw	r2,-24(fp)
  NIOS2_WRITE_STATUS (context & ~NIOS2_STATUS_PIE_MSK);
    8b88:	e0fffa17 	ldw	r3,-24(fp)
    8b8c:	00bfff84 	movi	r2,-2
    8b90:	1884703a 	and	r2,r3,r2
    8b94:	1001703a 	wrctl	status,r2
  return context;
    8b98:	e0bffa17 	ldw	r2,-24(fp)
    OS_ENTER_CRITICAL();
    8b9c:	e0bffe15 	stw	r2,-8(fp)
    switch (OSTCBCur->OSTCBStatPend) {                /* See if we timed-out or aborted                */
    8ba0:	d0ab4817 	ldw	r2,-21216(gp)
    8ba4:	10800e43 	ldbu	r2,57(r2)
    8ba8:	10803fcc 	andi	r2,r2,255
    8bac:	10000326 	beq	r2,zero,8bbc <OSQPend+0x1e0>
    8bb0:	108000a0 	cmpeqi	r2,r2,2
    8bb4:	1000071e 	bne	r2,zero,8bd4 <OSQPend+0x1f8>
    8bb8:	00000b06 	br	8be8 <OSQPend+0x20c>
        case OS_STAT_PEND_OK:                         /* Extract message from TCB (Put there by QPost) */
             pmsg =  OSTCBCur->OSTCBMsg;
    8bbc:	d0ab4817 	ldw	r2,-21216(gp)
    8bc0:	10800a17 	ldw	r2,40(r2)
    8bc4:	e0bfff15 	stw	r2,-4(fp)
            *perr =  OS_ERR_NONE;
    8bc8:	e0bff517 	ldw	r2,-44(fp)
    8bcc:	10000005 	stb	zero,0(r2)
             break;
    8bd0:	00000e06 	br	8c0c <OSQPend+0x230>

        case OS_STAT_PEND_ABORT:
             pmsg = (void *)0;
    8bd4:	e03fff15 	stw	zero,-4(fp)
            *perr =  OS_ERR_PEND_ABORT;               /* Indicate that we aborted                      */
    8bd8:	e0bff517 	ldw	r2,-44(fp)
    8bdc:	00c00384 	movi	r3,14
    8be0:	10c00005 	stb	r3,0(r2)
             break;
    8be4:	00000906 	br	8c0c <OSQPend+0x230>

        case OS_STAT_PEND_TO:
        default:
             OS_EventTaskRemove(OSTCBCur, pevent);
    8be8:	d0ab4817 	ldw	r2,-21216(gp)
    8bec:	e17ff717 	ldw	r5,-36(fp)
    8bf0:	1009883a 	mov	r4,r2
    8bf4:	000561c0 	call	561c <OS_EventTaskRemove>
             pmsg = (void *)0;
    8bf8:	e03fff15 	stw	zero,-4(fp)
            *perr =  OS_ERR_TIMEOUT;                  /* Indicate that we didn't get event within TO   */
    8bfc:	e0bff517 	ldw	r2,-44(fp)
    8c00:	00c00284 	movi	r3,10
    8c04:	10c00005 	stb	r3,0(r2)
             break;
    8c08:	0001883a 	nop
    }
    OSTCBCur->OSTCBStat          =  OS_STAT_RDY;      /* Set   task  status to ready                   */
    8c0c:	d0ab4817 	ldw	r2,-21216(gp)
    8c10:	10000e05 	stb	zero,56(r2)
    OSTCBCur->OSTCBStatPend      =  OS_STAT_PEND_OK;  /* Clear pend  status                            */
    8c14:	d0ab4817 	ldw	r2,-21216(gp)
    8c18:	10000e45 	stb	zero,57(r2)
    OSTCBCur->OSTCBEventPtr      = (OS_EVENT  *)0;    /* Clear event pointers                          */
    8c1c:	d0ab4817 	ldw	r2,-21216(gp)
    8c20:	10000715 	stw	zero,28(r2)
#if (OS_EVENT_MULTI_EN > 0u)
    OSTCBCur->OSTCBEventMultiPtr = (OS_EVENT **)0;
    8c24:	d0ab4817 	ldw	r2,-21216(gp)
    8c28:	10000815 	stw	zero,32(r2)
    OSTCBCur->OSTCBEventMultiRdy = (OS_EVENT  *)0;
    8c2c:	d0ab4817 	ldw	r2,-21216(gp)
    8c30:	10000915 	stw	zero,36(r2)
#endif
    OSTCBCur->OSTCBMsg           = (void      *)0;    /* Clear  received message                       */
    8c34:	d0ab4817 	ldw	r2,-21216(gp)
    8c38:	10000a15 	stw	zero,40(r2)
    8c3c:	e0bffe17 	ldw	r2,-8(fp)
    8c40:	e0bff815 	stw	r2,-32(fp)
  NIOS2_WRITE_STATUS (context);
    8c44:	e0bff817 	ldw	r2,-32(fp)
    8c48:	1001703a 	wrctl	status,r2
}
    8c4c:	0001883a 	nop
    OS_EXIT_CRITICAL();
    OS_TRACE_Q_PEND_EXIT(*perr);

    return (pmsg);                                    /* Return received message                       */
    8c50:	e0bfff17 	ldw	r2,-4(fp)
}
    8c54:	e037883a 	mov	sp,fp
    8c58:	dfc00117 	ldw	ra,4(sp)
    8c5c:	df000017 	ldw	fp,0(sp)
    8c60:	dec00204 	addi	sp,sp,8
    8c64:	f800283a 	ret

00008c68 <OSQPendAbort>:

#if OS_Q_PEND_ABORT_EN > 0u
INT8U  OSQPendAbort (OS_EVENT  *pevent,
                     INT8U      opt,
                     INT8U     *perr)
{
    8c68:	defff604 	addi	sp,sp,-40
    8c6c:	dfc00915 	stw	ra,36(sp)
    8c70:	df000815 	stw	fp,32(sp)
    8c74:	df000804 	addi	fp,sp,32
    8c78:	e13ffa15 	stw	r4,-24(fp)
    8c7c:	2805883a 	mov	r2,r5
    8c80:	e1bff815 	stw	r6,-32(fp)
    8c84:	e0bff905 	stb	r2,-28(fp)
    INT8U      nbr_tasks;
#if OS_CRITICAL_METHOD == 3u                               /* Allocate storage for CPU status register */
    OS_CPU_SR  cpu_sr = 0u;
    8c88:	e03ffe15 	stw	zero,-8(fp)
        return (0u);
    }
#endif

#if OS_ARG_CHK_EN > 0u
    if (pevent == (OS_EVENT *)0) {                         /* Validate 'pevent'                        */
    8c8c:	e0bffa17 	ldw	r2,-24(fp)
    8c90:	1000051e 	bne	r2,zero,8ca8 <OSQPendAbort+0x40>
        *perr = OS_ERR_PEVENT_NULL;
    8c94:	e0bff817 	ldw	r2,-32(fp)
    8c98:	00c00104 	movi	r3,4
    8c9c:	10c00005 	stb	r3,0(r2)
        return (0u);
    8ca0:	0005883a 	mov	r2,zero
    8ca4:	00004406 	br	8db8 <OSQPendAbort+0x150>
    }
#endif
    if (pevent->OSEventType != OS_EVENT_TYPE_Q) {          /* Validate event block type                */
    8ca8:	e0bffa17 	ldw	r2,-24(fp)
    8cac:	10800003 	ldbu	r2,0(r2)
    8cb0:	10803fcc 	andi	r2,r2,255
    8cb4:	108000a0 	cmpeqi	r2,r2,2
    8cb8:	1000051e 	bne	r2,zero,8cd0 <OSQPendAbort+0x68>
        *perr = OS_ERR_EVENT_TYPE;
    8cbc:	e0bff817 	ldw	r2,-32(fp)
    8cc0:	00c00044 	movi	r3,1
    8cc4:	10c00005 	stb	r3,0(r2)
        return (0u);
    8cc8:	0005883a 	mov	r2,zero
    8ccc:	00003a06 	br	8db8 <OSQPendAbort+0x150>
  NIOS2_READ_STATUS (context);
    8cd0:	0005303a 	rdctl	r2,status
    8cd4:	e0bffd15 	stw	r2,-12(fp)
  NIOS2_WRITE_STATUS (context & ~NIOS2_STATUS_PIE_MSK);
    8cd8:	e0fffd17 	ldw	r3,-12(fp)
    8cdc:	00bfff84 	movi	r2,-2
    8ce0:	1884703a 	and	r2,r3,r2
    8ce4:	1001703a 	wrctl	status,r2
  return context;
    8ce8:	e0bffd17 	ldw	r2,-12(fp)
    }
    OS_ENTER_CRITICAL();
    8cec:	e0bffe15 	stw	r2,-8(fp)
    if (pevent->OSEventGrp != 0u) {                        /* See if any task waiting on queue?        */
    8cf0:	e0bffa17 	ldw	r2,-24(fp)
    8cf4:	10800283 	ldbu	r2,10(r2)
    8cf8:	10803fcc 	andi	r2,r2,255
    8cfc:	10002626 	beq	r2,zero,8d98 <OSQPendAbort+0x130>
        nbr_tasks = 0u;
    8d00:	e03fffc5 	stb	zero,-1(fp)
        switch (opt) {
    8d04:	e0bff903 	ldbu	r2,-28(fp)
    8d08:	10800058 	cmpnei	r2,r2,1
    8d0c:	10000e1e 	bne	r2,zero,8d48 <OSQPendAbort+0xe0>
            case OS_PEND_OPT_BROADCAST:                    /* Do we need to abort ALL waiting tasks?   */
                 while (pevent->OSEventGrp != 0u) {        /* Yes, ready ALL tasks waiting on queue    */
    8d10:	00000806 	br	8d34 <OSQPendAbort+0xcc>
                     (void)OS_EventTaskRdy(pevent, (void *)0, OS_STAT_Q, OS_STAT_PEND_ABORT);
    8d14:	01c00084 	movi	r7,2
    8d18:	01800104 	movi	r6,4
    8d1c:	000b883a 	mov	r5,zero
    8d20:	e13ffa17 	ldw	r4,-24(fp)
    8d24:	00052400 	call	5240 <OS_EventTaskRdy>
                     nbr_tasks++;
    8d28:	e0bfffc3 	ldbu	r2,-1(fp)
    8d2c:	10800044 	addi	r2,r2,1
    8d30:	e0bfffc5 	stb	r2,-1(fp)
                 while (pevent->OSEventGrp != 0u) {        /* Yes, ready ALL tasks waiting on queue    */
    8d34:	e0bffa17 	ldw	r2,-24(fp)
    8d38:	10800283 	ldbu	r2,10(r2)
    8d3c:	10803fcc 	andi	r2,r2,255
    8d40:	103ff41e 	bne	r2,zero,8d14 <OSQPendAbort+0xac>
                 }
                 break;
    8d44:	00000906 	br	8d6c <OSQPendAbort+0x104>

            case OS_PEND_OPT_NONE:
            default:                                       /* No,  ready HPT       waiting on queue    */
                 (void)OS_EventTaskRdy(pevent, (void *)0, OS_STAT_Q, OS_STAT_PEND_ABORT);
    8d48:	01c00084 	movi	r7,2
    8d4c:	01800104 	movi	r6,4
    8d50:	000b883a 	mov	r5,zero
    8d54:	e13ffa17 	ldw	r4,-24(fp)
    8d58:	00052400 	call	5240 <OS_EventTaskRdy>
                 nbr_tasks++;
    8d5c:	e0bfffc3 	ldbu	r2,-1(fp)
    8d60:	10800044 	addi	r2,r2,1
    8d64:	e0bfffc5 	stb	r2,-1(fp)
                 break;
    8d68:	0001883a 	nop
    8d6c:	e0bffe17 	ldw	r2,-8(fp)
    8d70:	e0bffc15 	stw	r2,-16(fp)
  NIOS2_WRITE_STATUS (context);
    8d74:	e0bffc17 	ldw	r2,-16(fp)
    8d78:	1001703a 	wrctl	status,r2
}
    8d7c:	0001883a 	nop
        }
        OS_EXIT_CRITICAL();
        OS_Sched();                                        /* Find HPT ready to run                    */
    8d80:	0005c980 	call	5c98 <OS_Sched>
        *perr = OS_ERR_PEND_ABORT;
    8d84:	e0bff817 	ldw	r2,-32(fp)
    8d88:	00c00384 	movi	r3,14
    8d8c:	10c00005 	stb	r3,0(r2)
        return (nbr_tasks);
    8d90:	e0bfffc3 	ldbu	r2,-1(fp)
    8d94:	00000806 	br	8db8 <OSQPendAbort+0x150>
    8d98:	e0bffe17 	ldw	r2,-8(fp)
    8d9c:	e0bffb15 	stw	r2,-20(fp)
  NIOS2_WRITE_STATUS (context);
    8da0:	e0bffb17 	ldw	r2,-20(fp)
    8da4:	1001703a 	wrctl	status,r2
}
    8da8:	0001883a 	nop
    }
    OS_EXIT_CRITICAL();
    *perr = OS_ERR_NONE;
    8dac:	e0bff817 	ldw	r2,-32(fp)
    8db0:	10000005 	stb	zero,0(r2)
    return (0u);                                           /* No tasks waiting on queue                */
    8db4:	0005883a 	mov	r2,zero
}
    8db8:	e037883a 	mov	sp,fp
    8dbc:	dfc00117 	ldw	ra,4(sp)
    8dc0:	df000017 	ldw	fp,0(sp)
    8dc4:	dec00204 	addi	sp,sp,8
    8dc8:	f800283a 	ret

00008dcc <OSQPost>:
*/

#if OS_Q_POST_EN > 0u
INT8U  OSQPost (OS_EVENT  *pevent,
                void      *pmsg)
{
    8dcc:	defff604 	addi	sp,sp,-40
    8dd0:	dfc00915 	stw	ra,36(sp)
    8dd4:	df000815 	stw	fp,32(sp)
    8dd8:	df000804 	addi	fp,sp,32
    8ddc:	e13ff915 	stw	r4,-28(fp)
    8de0:	e17ff815 	stw	r5,-32(fp)
    OS_Q      *pq;
#if OS_CRITICAL_METHOD == 3u                           /* Allocate storage for CPU status register     */
    OS_CPU_SR  cpu_sr = 0u;
    8de4:	e03fff15 	stw	zero,-4(fp)
#endif


#if OS_ARG_CHK_EN > 0u
    if (pevent == (OS_EVENT *)0) {                     /* Validate 'pevent'                            */
    8de8:	e0bff917 	ldw	r2,-28(fp)
    8dec:	1000021e 	bne	r2,zero,8df8 <OSQPost+0x2c>
        return (OS_ERR_PEVENT_NULL);
    8df0:	00800104 	movi	r2,4
    8df4:	00004d06 	br	8f2c <OSQPost+0x160>
    }
#endif

    OS_TRACE_Q_POST_ENTER(pevent);

    if (pevent->OSEventType != OS_EVENT_TYPE_Q) {      /* Validate event block type                    */
    8df8:	e0bff917 	ldw	r2,-28(fp)
    8dfc:	10800003 	ldbu	r2,0(r2)
    8e00:	10803fcc 	andi	r2,r2,255
    8e04:	108000a0 	cmpeqi	r2,r2,2
    8e08:	1000021e 	bne	r2,zero,8e14 <OSQPost+0x48>
        OS_TRACE_Q_POST_EXIT(OS_ERR_EVENT_TYPE);
        return (OS_ERR_EVENT_TYPE);
    8e0c:	00800044 	movi	r2,1
    8e10:	00004606 	br	8f2c <OSQPost+0x160>
  NIOS2_READ_STATUS (context);
    8e14:	0005303a 	rdctl	r2,status
    8e18:	e0bffd15 	stw	r2,-12(fp)
  NIOS2_WRITE_STATUS (context & ~NIOS2_STATUS_PIE_MSK);
    8e1c:	e0fffd17 	ldw	r3,-12(fp)
    8e20:	00bfff84 	movi	r2,-2
    8e24:	1884703a 	and	r2,r3,r2
    8e28:	1001703a 	wrctl	status,r2
  return context;
    8e2c:	e0bffd17 	ldw	r2,-12(fp)
    }
    OS_ENTER_CRITICAL();
    8e30:	e0bfff15 	stw	r2,-4(fp)
    if (pevent->OSEventGrp != 0u) {                    /* See if any task pending on queue             */
    8e34:	e0bff917 	ldw	r2,-28(fp)
    8e38:	10800283 	ldbu	r2,10(r2)
    8e3c:	10803fcc 	andi	r2,r2,255
    8e40:	10000d26 	beq	r2,zero,8e78 <OSQPost+0xac>
                                                       /* Ready highest priority task waiting on event */
        (void)OS_EventTaskRdy(pevent, pmsg, OS_STAT_Q, OS_STAT_PEND_OK);
    8e44:	000f883a 	mov	r7,zero
    8e48:	01800104 	movi	r6,4
    8e4c:	e17ff817 	ldw	r5,-32(fp)
    8e50:	e13ff917 	ldw	r4,-28(fp)
    8e54:	00052400 	call	5240 <OS_EventTaskRdy>
    8e58:	e0bfff17 	ldw	r2,-4(fp)
    8e5c:	e0bffc15 	stw	r2,-16(fp)
  NIOS2_WRITE_STATUS (context);
    8e60:	e0bffc17 	ldw	r2,-16(fp)
    8e64:	1001703a 	wrctl	status,r2
}
    8e68:	0001883a 	nop
        OS_EXIT_CRITICAL();
        OS_Sched();                                    /* Find highest priority task ready to run      */
    8e6c:	0005c980 	call	5c98 <OS_Sched>
        OS_TRACE_Q_POST_EXIT(OS_ERR_NONE);
        return (OS_ERR_NONE);
    8e70:	0005883a 	mov	r2,zero
    8e74:	00002d06 	br	8f2c <OSQPost+0x160>
    }
    pq = (OS_Q *)pevent->OSEventPtr;                   /* Point to queue control block                 */
    8e78:	e0bff917 	ldw	r2,-28(fp)
    8e7c:	10800117 	ldw	r2,4(r2)
    8e80:	e0bffe15 	stw	r2,-8(fp)
    if (pq->OSQEntries >= pq->OSQSize) {               /* Make sure queue is not full                  */
    8e84:	e0bffe17 	ldw	r2,-8(fp)
    8e88:	10c0058b 	ldhu	r3,22(r2)
    8e8c:	e0bffe17 	ldw	r2,-8(fp)
    8e90:	1080050b 	ldhu	r2,20(r2)
    8e94:	18ffffcc 	andi	r3,r3,65535
    8e98:	10bfffcc 	andi	r2,r2,65535
    8e9c:	18800736 	bltu	r3,r2,8ebc <OSQPost+0xf0>
    8ea0:	e0bfff17 	ldw	r2,-4(fp)
    8ea4:	e0bffb15 	stw	r2,-20(fp)
  NIOS2_WRITE_STATUS (context);
    8ea8:	e0bffb17 	ldw	r2,-20(fp)
    8eac:	1001703a 	wrctl	status,r2
}
    8eb0:	0001883a 	nop
        OS_EXIT_CRITICAL();
        OS_TRACE_Q_POST_EXIT(OS_ERR_Q_FULL);
        return (OS_ERR_Q_FULL);
    8eb4:	00800784 	movi	r2,30
    8eb8:	00001c06 	br	8f2c <OSQPost+0x160>
    }
    *pq->OSQIn++ = pmsg;                               /* Insert message into queue                    */
    8ebc:	e0bffe17 	ldw	r2,-8(fp)
    8ec0:	10800317 	ldw	r2,12(r2)
    8ec4:	11000104 	addi	r4,r2,4
    8ec8:	e0fffe17 	ldw	r3,-8(fp)
    8ecc:	19000315 	stw	r4,12(r3)
    8ed0:	e0fff817 	ldw	r3,-32(fp)
    8ed4:	10c00015 	stw	r3,0(r2)
    pq->OSQEntries++;                                  /* Update the nbr of entries in the queue       */
    8ed8:	e0bffe17 	ldw	r2,-8(fp)
    8edc:	1080058b 	ldhu	r2,22(r2)
    8ee0:	10800044 	addi	r2,r2,1
    8ee4:	1007883a 	mov	r3,r2
    8ee8:	e0bffe17 	ldw	r2,-8(fp)
    8eec:	10c0058d 	sth	r3,22(r2)
    if (pq->OSQIn == pq->OSQEnd) {                     /* Wrap IN ptr if we are at end of queue        */
    8ef0:	e0bffe17 	ldw	r2,-8(fp)
    8ef4:	10c00317 	ldw	r3,12(r2)
    8ef8:	e0bffe17 	ldw	r2,-8(fp)
    8efc:	10800217 	ldw	r2,8(r2)
    8f00:	1880041e 	bne	r3,r2,8f14 <OSQPost+0x148>
        pq->OSQIn = pq->OSQStart;
    8f04:	e0bffe17 	ldw	r2,-8(fp)
    8f08:	10c00117 	ldw	r3,4(r2)
    8f0c:	e0bffe17 	ldw	r2,-8(fp)
    8f10:	10c00315 	stw	r3,12(r2)
    8f14:	e0bfff17 	ldw	r2,-4(fp)
    8f18:	e0bffa15 	stw	r2,-24(fp)
  NIOS2_WRITE_STATUS (context);
    8f1c:	e0bffa17 	ldw	r2,-24(fp)
    8f20:	1001703a 	wrctl	status,r2
}
    8f24:	0001883a 	nop
    }
    OS_EXIT_CRITICAL();
    OS_TRACE_Q_POST_EXIT(OS_ERR_NONE);

    return (OS_ERR_NONE);
    8f28:	0005883a 	mov	r2,zero
}
    8f2c:	e037883a 	mov	sp,fp
    8f30:	dfc00117 	ldw	ra,4(sp)
    8f34:	df000017 	ldw	fp,0(sp)
    8f38:	dec00204 	addi	sp,sp,8
    8f3c:	f800283a 	ret

00008f40 <OSQPostFront>:
*/

#if OS_Q_POST_FRONT_EN > 0u
INT8U  OSQPostFront (OS_EVENT  *pevent,
                     void      *pmsg)
{
    8f40:	defff604 	addi	sp,sp,-40
    8f44:	dfc00915 	stw	ra,36(sp)
    8f48:	df000815 	stw	fp,32(sp)
    8f4c:	df000804 	addi	fp,sp,32
    8f50:	e13ff915 	stw	r4,-28(fp)
    8f54:	e17ff815 	stw	r5,-32(fp)
    OS_Q      *pq;
#if OS_CRITICAL_METHOD == 3u                          /* Allocate storage for CPU status register      */
    OS_CPU_SR  cpu_sr = 0u;
    8f58:	e03fff15 	stw	zero,-4(fp)
#endif



#if OS_ARG_CHK_EN > 0u
    if (pevent == (OS_EVENT *)0) {                    /* Validate 'pevent'                             */
    8f5c:	e0bff917 	ldw	r2,-28(fp)
    8f60:	1000021e 	bne	r2,zero,8f6c <OSQPostFront+0x2c>
        return (OS_ERR_PEVENT_NULL);
    8f64:	00800104 	movi	r2,4
    8f68:	00004f06 	br	90a8 <OSQPostFront+0x168>
    }
#endif

    OS_TRACE_Q_POST_FRONT_ENTER(pevent);

    if (pevent->OSEventType != OS_EVENT_TYPE_Q) {     /* Validate event block type                     */
    8f6c:	e0bff917 	ldw	r2,-28(fp)
    8f70:	10800003 	ldbu	r2,0(r2)
    8f74:	10803fcc 	andi	r2,r2,255
    8f78:	108000a0 	cmpeqi	r2,r2,2
    8f7c:	1000021e 	bne	r2,zero,8f88 <OSQPostFront+0x48>
        OS_TRACE_Q_POST_FRONT_EXIT(OS_ERR_EVENT_TYPE);
        return (OS_ERR_EVENT_TYPE);
    8f80:	00800044 	movi	r2,1
    8f84:	00004806 	br	90a8 <OSQPostFront+0x168>
  NIOS2_READ_STATUS (context);
    8f88:	0005303a 	rdctl	r2,status
    8f8c:	e0bffd15 	stw	r2,-12(fp)
  NIOS2_WRITE_STATUS (context & ~NIOS2_STATUS_PIE_MSK);
    8f90:	e0fffd17 	ldw	r3,-12(fp)
    8f94:	00bfff84 	movi	r2,-2
    8f98:	1884703a 	and	r2,r3,r2
    8f9c:	1001703a 	wrctl	status,r2
  return context;
    8fa0:	e0bffd17 	ldw	r2,-12(fp)
    }
    OS_ENTER_CRITICAL();
    8fa4:	e0bfff15 	stw	r2,-4(fp)
    if (pevent->OSEventGrp != 0u) {                   /* See if any task pending on queue              */
    8fa8:	e0bff917 	ldw	r2,-28(fp)
    8fac:	10800283 	ldbu	r2,10(r2)
    8fb0:	10803fcc 	andi	r2,r2,255
    8fb4:	10000d26 	beq	r2,zero,8fec <OSQPostFront+0xac>
                                                      /* Ready highest priority task waiting on event  */
        (void)OS_EventTaskRdy(pevent, pmsg, OS_STAT_Q, OS_STAT_PEND_OK);
    8fb8:	000f883a 	mov	r7,zero
    8fbc:	01800104 	movi	r6,4
    8fc0:	e17ff817 	ldw	r5,-32(fp)
    8fc4:	e13ff917 	ldw	r4,-28(fp)
    8fc8:	00052400 	call	5240 <OS_EventTaskRdy>
    8fcc:	e0bfff17 	ldw	r2,-4(fp)
    8fd0:	e0bffc15 	stw	r2,-16(fp)
  NIOS2_WRITE_STATUS (context);
    8fd4:	e0bffc17 	ldw	r2,-16(fp)
    8fd8:	1001703a 	wrctl	status,r2
}
    8fdc:	0001883a 	nop
        OS_EXIT_CRITICAL();
        OS_Sched();                                   /* Find highest priority task ready to run       */
    8fe0:	0005c980 	call	5c98 <OS_Sched>
        OS_TRACE_Q_POST_FRONT_EXIT(OS_ERR_NONE);
        return (OS_ERR_NONE);
    8fe4:	0005883a 	mov	r2,zero
    8fe8:	00002f06 	br	90a8 <OSQPostFront+0x168>
    }
    pq = (OS_Q *)pevent->OSEventPtr;                  /* Point to queue control block                  */
    8fec:	e0bff917 	ldw	r2,-28(fp)
    8ff0:	10800117 	ldw	r2,4(r2)
    8ff4:	e0bffe15 	stw	r2,-8(fp)
    if (pq->OSQEntries >= pq->OSQSize) {              /* Make sure queue is not full                   */
    8ff8:	e0bffe17 	ldw	r2,-8(fp)
    8ffc:	10c0058b 	ldhu	r3,22(r2)
    9000:	e0bffe17 	ldw	r2,-8(fp)
    9004:	1080050b 	ldhu	r2,20(r2)
    9008:	18ffffcc 	andi	r3,r3,65535
    900c:	10bfffcc 	andi	r2,r2,65535
    9010:	18800736 	bltu	r3,r2,9030 <OSQPostFront+0xf0>
    9014:	e0bfff17 	ldw	r2,-4(fp)
    9018:	e0bffb15 	stw	r2,-20(fp)
  NIOS2_WRITE_STATUS (context);
    901c:	e0bffb17 	ldw	r2,-20(fp)
    9020:	1001703a 	wrctl	status,r2
}
    9024:	0001883a 	nop
        OS_EXIT_CRITICAL();
        OS_TRACE_Q_POST_FRONT_EXIT(OS_ERR_Q_FULL);
        return (OS_ERR_Q_FULL);
    9028:	00800784 	movi	r2,30
    902c:	00001e06 	br	90a8 <OSQPostFront+0x168>
    }
    if (pq->OSQOut == pq->OSQStart) {                 /* Wrap OUT ptr if we are at the 1st queue entry */
    9030:	e0bffe17 	ldw	r2,-8(fp)
    9034:	10c00417 	ldw	r3,16(r2)
    9038:	e0bffe17 	ldw	r2,-8(fp)
    903c:	10800117 	ldw	r2,4(r2)
    9040:	1880041e 	bne	r3,r2,9054 <OSQPostFront+0x114>
        pq->OSQOut = pq->OSQEnd;
    9044:	e0bffe17 	ldw	r2,-8(fp)
    9048:	10c00217 	ldw	r3,8(r2)
    904c:	e0bffe17 	ldw	r2,-8(fp)
    9050:	10c00415 	stw	r3,16(r2)
    }
    pq->OSQOut--;
    9054:	e0bffe17 	ldw	r2,-8(fp)
    9058:	10800417 	ldw	r2,16(r2)
    905c:	10ffff04 	addi	r3,r2,-4
    9060:	e0bffe17 	ldw	r2,-8(fp)
    9064:	10c00415 	stw	r3,16(r2)
    *pq->OSQOut = pmsg;                               /* Insert message into queue                     */
    9068:	e0bffe17 	ldw	r2,-8(fp)
    906c:	10800417 	ldw	r2,16(r2)
    9070:	e0fff817 	ldw	r3,-32(fp)
    9074:	10c00015 	stw	r3,0(r2)
    pq->OSQEntries++;                                 /* Update the nbr of entries in the queue        */
    9078:	e0bffe17 	ldw	r2,-8(fp)
    907c:	1080058b 	ldhu	r2,22(r2)
    9080:	10800044 	addi	r2,r2,1
    9084:	1007883a 	mov	r3,r2
    9088:	e0bffe17 	ldw	r2,-8(fp)
    908c:	10c0058d 	sth	r3,22(r2)
    9090:	e0bfff17 	ldw	r2,-4(fp)
    9094:	e0bffa15 	stw	r2,-24(fp)
  NIOS2_WRITE_STATUS (context);
    9098:	e0bffa17 	ldw	r2,-24(fp)
    909c:	1001703a 	wrctl	status,r2
}
    90a0:	0001883a 	nop
    OS_EXIT_CRITICAL();
    OS_TRACE_Q_POST_FRONT_EXIT(OS_ERR_NONE);
    return (OS_ERR_NONE);
    90a4:	0005883a 	mov	r2,zero
}
    90a8:	e037883a 	mov	sp,fp
    90ac:	dfc00117 	ldw	ra,4(sp)
    90b0:	df000017 	ldw	fp,0(sp)
    90b4:	dec00204 	addi	sp,sp,8
    90b8:	f800283a 	ret

000090bc <OSQPostOpt>:

#if OS_Q_POST_OPT_EN > 0u
INT8U  OSQPostOpt (OS_EVENT  *pevent,
                   void      *pmsg,
                   INT8U      opt)
{
    90bc:	defff504 	addi	sp,sp,-44
    90c0:	dfc00a15 	stw	ra,40(sp)
    90c4:	df000915 	stw	fp,36(sp)
    90c8:	df000904 	addi	fp,sp,36
    90cc:	e13ff915 	stw	r4,-28(fp)
    90d0:	e17ff815 	stw	r5,-32(fp)
    90d4:	3005883a 	mov	r2,r6
    90d8:	e0bff705 	stb	r2,-36(fp)
    OS_Q      *pq;
#if OS_CRITICAL_METHOD == 3u                          /* Allocate storage for CPU status register      */
    OS_CPU_SR  cpu_sr = 0u;
    90dc:	e03fff15 	stw	zero,-4(fp)
#endif



#if OS_ARG_CHK_EN > 0u
    if (pevent == (OS_EVENT *)0) {                    /* Validate 'pevent'                             */
    90e0:	e0bff917 	ldw	r2,-28(fp)
    90e4:	1000021e 	bne	r2,zero,90f0 <OSQPostOpt+0x34>
        return (OS_ERR_PEVENT_NULL);
    90e8:	00800104 	movi	r2,4
    90ec:	00007406 	br	92c0 <OSQPostOpt+0x204>
    }
#endif

    OS_TRACE_Q_POST_OPT_ENTER(pevent, opt);

    if (pevent->OSEventType != OS_EVENT_TYPE_Q) {     /* Validate event block type                     */
    90f0:	e0bff917 	ldw	r2,-28(fp)
    90f4:	10800003 	ldbu	r2,0(r2)
    90f8:	10803fcc 	andi	r2,r2,255
    90fc:	108000a0 	cmpeqi	r2,r2,2
    9100:	1000021e 	bne	r2,zero,910c <OSQPostOpt+0x50>
        OS_TRACE_Q_POST_OPT_EXIT(OS_ERR_EVENT_TYPE);
        return (OS_ERR_EVENT_TYPE);
    9104:	00800044 	movi	r2,1
    9108:	00006d06 	br	92c0 <OSQPostOpt+0x204>
  NIOS2_READ_STATUS (context);
    910c:	0005303a 	rdctl	r2,status
    9110:	e0bffd15 	stw	r2,-12(fp)
  NIOS2_WRITE_STATUS (context & ~NIOS2_STATUS_PIE_MSK);
    9114:	e0fffd17 	ldw	r3,-12(fp)
    9118:	00bfff84 	movi	r2,-2
    911c:	1884703a 	and	r2,r3,r2
    9120:	1001703a 	wrctl	status,r2
  return context;
    9124:	e0bffd17 	ldw	r2,-12(fp)
    }
    OS_ENTER_CRITICAL();
    9128:	e0bfff15 	stw	r2,-4(fp)
    if (pevent->OSEventGrp != 0x00u) {                /* See if any task pending on queue              */
    912c:	e0bff917 	ldw	r2,-28(fp)
    9130:	10800283 	ldbu	r2,10(r2)
    9134:	10803fcc 	andi	r2,r2,255
    9138:	10001e26 	beq	r2,zero,91b4 <OSQPostOpt+0xf8>
        if ((opt & OS_POST_OPT_BROADCAST) != 0x00u) { /* Do we need to post msg to ALL waiting tasks ? */
    913c:	e0bff703 	ldbu	r2,-36(fp)
    9140:	1080004c 	andi	r2,r2,1
    9144:	10000b26 	beq	r2,zero,9174 <OSQPostOpt+0xb8>
            while (pevent->OSEventGrp != 0u) {        /* Yes, Post to ALL tasks waiting on queue       */
    9148:	00000506 	br	9160 <OSQPostOpt+0xa4>
                (void)OS_EventTaskRdy(pevent, pmsg, OS_STAT_Q, OS_STAT_PEND_OK);
    914c:	000f883a 	mov	r7,zero
    9150:	01800104 	movi	r6,4
    9154:	e17ff817 	ldw	r5,-32(fp)
    9158:	e13ff917 	ldw	r4,-28(fp)
    915c:	00052400 	call	5240 <OS_EventTaskRdy>
            while (pevent->OSEventGrp != 0u) {        /* Yes, Post to ALL tasks waiting on queue       */
    9160:	e0bff917 	ldw	r2,-28(fp)
    9164:	10800283 	ldbu	r2,10(r2)
    9168:	10803fcc 	andi	r2,r2,255
    916c:	103ff71e 	bne	r2,zero,914c <OSQPostOpt+0x90>
    9170:	00000506 	br	9188 <OSQPostOpt+0xcc>
            }
        } else {                                      /* No,  Post to HPT waiting on queue             */
            (void)OS_EventTaskRdy(pevent, pmsg, OS_STAT_Q, OS_STAT_PEND_OK);
    9174:	000f883a 	mov	r7,zero
    9178:	01800104 	movi	r6,4
    917c:	e17ff817 	ldw	r5,-32(fp)
    9180:	e13ff917 	ldw	r4,-28(fp)
    9184:	00052400 	call	5240 <OS_EventTaskRdy>
    9188:	e0bfff17 	ldw	r2,-4(fp)
    918c:	e0bffc15 	stw	r2,-16(fp)
  NIOS2_WRITE_STATUS (context);
    9190:	e0bffc17 	ldw	r2,-16(fp)
    9194:	1001703a 	wrctl	status,r2
}
    9198:	0001883a 	nop
        }
        OS_EXIT_CRITICAL();
        if ((opt & OS_POST_OPT_NO_SCHED) == 0u) {     /* See if scheduler needs to be invoked          */
    919c:	e0bff703 	ldbu	r2,-36(fp)
    91a0:	1080010c 	andi	r2,r2,4
    91a4:	1000011e 	bne	r2,zero,91ac <OSQPostOpt+0xf0>
            OS_Sched();                               /* Find highest priority task ready to run       */
    91a8:	0005c980 	call	5c98 <OS_Sched>
        }
        OS_TRACE_Q_POST_OPT_EXIT(OS_ERR_NONE);
        return (OS_ERR_NONE);
    91ac:	0005883a 	mov	r2,zero
    91b0:	00004306 	br	92c0 <OSQPostOpt+0x204>
    }
    pq = (OS_Q *)pevent->OSEventPtr;                  /* Point to queue control block                  */
    91b4:	e0bff917 	ldw	r2,-28(fp)
    91b8:	10800117 	ldw	r2,4(r2)
    91bc:	e0bffe15 	stw	r2,-8(fp)
    if (pq->OSQEntries >= pq->OSQSize) {              /* Make sure queue is not full                   */
    91c0:	e0bffe17 	ldw	r2,-8(fp)
    91c4:	10c0058b 	ldhu	r3,22(r2)
    91c8:	e0bffe17 	ldw	r2,-8(fp)
    91cc:	1080050b 	ldhu	r2,20(r2)
    91d0:	18ffffcc 	andi	r3,r3,65535
    91d4:	10bfffcc 	andi	r2,r2,65535
    91d8:	18800736 	bltu	r3,r2,91f8 <OSQPostOpt+0x13c>
    91dc:	e0bfff17 	ldw	r2,-4(fp)
    91e0:	e0bffb15 	stw	r2,-20(fp)
  NIOS2_WRITE_STATUS (context);
    91e4:	e0bffb17 	ldw	r2,-20(fp)
    91e8:	1001703a 	wrctl	status,r2
}
    91ec:	0001883a 	nop
        OS_EXIT_CRITICAL();
        OS_TRACE_Q_POST_OPT_EXIT(OS_ERR_Q_FULL);
        return (OS_ERR_Q_FULL);
    91f0:	00800784 	movi	r2,30
    91f4:	00003206 	br	92c0 <OSQPostOpt+0x204>
    }
    if ((opt & OS_POST_OPT_FRONT) != 0x00u) {         /* Do we post to the FRONT of the queue?         */
    91f8:	e0bff703 	ldbu	r2,-36(fp)
    91fc:	1080008c 	andi	r2,r2,2
    9200:	10001326 	beq	r2,zero,9250 <OSQPostOpt+0x194>
        if (pq->OSQOut == pq->OSQStart) {             /* Yes, Post as LIFO, Wrap OUT pointer if we ... */
    9204:	e0bffe17 	ldw	r2,-8(fp)
    9208:	10c00417 	ldw	r3,16(r2)
    920c:	e0bffe17 	ldw	r2,-8(fp)
    9210:	10800117 	ldw	r2,4(r2)
    9214:	1880041e 	bne	r3,r2,9228 <OSQPostOpt+0x16c>
            pq->OSQOut = pq->OSQEnd;                  /*      ... are at the 1st queue entry           */
    9218:	e0bffe17 	ldw	r2,-8(fp)
    921c:	10c00217 	ldw	r3,8(r2)
    9220:	e0bffe17 	ldw	r2,-8(fp)
    9224:	10c00415 	stw	r3,16(r2)
        }
        pq->OSQOut--;
    9228:	e0bffe17 	ldw	r2,-8(fp)
    922c:	10800417 	ldw	r2,16(r2)
    9230:	10ffff04 	addi	r3,r2,-4
    9234:	e0bffe17 	ldw	r2,-8(fp)
    9238:	10c00415 	stw	r3,16(r2)
        *pq->OSQOut = pmsg;                           /*      Insert message into queue                */
    923c:	e0bffe17 	ldw	r2,-8(fp)
    9240:	10800417 	ldw	r2,16(r2)
    9244:	e0fff817 	ldw	r3,-32(fp)
    9248:	10c00015 	stw	r3,0(r2)
    924c:	00001006 	br	9290 <OSQPostOpt+0x1d4>
    } else {                                          /* No,  Post as FIFO                             */
        *pq->OSQIn++ = pmsg;                          /*      Insert message into queue                */
    9250:	e0bffe17 	ldw	r2,-8(fp)
    9254:	10800317 	ldw	r2,12(r2)
    9258:	11000104 	addi	r4,r2,4
    925c:	e0fffe17 	ldw	r3,-8(fp)
    9260:	19000315 	stw	r4,12(r3)
    9264:	e0fff817 	ldw	r3,-32(fp)
    9268:	10c00015 	stw	r3,0(r2)
        if (pq->OSQIn == pq->OSQEnd) {                /*      Wrap IN ptr if we are at end of queue    */
    926c:	e0bffe17 	ldw	r2,-8(fp)
    9270:	10c00317 	ldw	r3,12(r2)
    9274:	e0bffe17 	ldw	r2,-8(fp)
    9278:	10800217 	ldw	r2,8(r2)
    927c:	1880041e 	bne	r3,r2,9290 <OSQPostOpt+0x1d4>
            pq->OSQIn = pq->OSQStart;
    9280:	e0bffe17 	ldw	r2,-8(fp)
    9284:	10c00117 	ldw	r3,4(r2)
    9288:	e0bffe17 	ldw	r2,-8(fp)
    928c:	10c00315 	stw	r3,12(r2)
        }
    }
    pq->OSQEntries++;                                 /* Update the nbr of entries in the queue        */
    9290:	e0bffe17 	ldw	r2,-8(fp)
    9294:	1080058b 	ldhu	r2,22(r2)
    9298:	10800044 	addi	r2,r2,1
    929c:	1007883a 	mov	r3,r2
    92a0:	e0bffe17 	ldw	r2,-8(fp)
    92a4:	10c0058d 	sth	r3,22(r2)
    92a8:	e0bfff17 	ldw	r2,-4(fp)
    92ac:	e0bffa15 	stw	r2,-24(fp)
  NIOS2_WRITE_STATUS (context);
    92b0:	e0bffa17 	ldw	r2,-24(fp)
    92b4:	1001703a 	wrctl	status,r2
}
    92b8:	0001883a 	nop
    OS_EXIT_CRITICAL();
    OS_TRACE_Q_POST_OPT_EXIT(OS_ERR_NONE);
    return (OS_ERR_NONE);
    92bc:	0005883a 	mov	r2,zero
}
    92c0:	e037883a 	mov	sp,fp
    92c4:	dfc00117 	ldw	ra,4(sp)
    92c8:	df000017 	ldw	fp,0(sp)
    92cc:	dec00204 	addi	sp,sp,8
    92d0:	f800283a 	ret

000092d4 <OSQQuery>:
*/

#if OS_Q_QUERY_EN > 0u
INT8U  OSQQuery (OS_EVENT  *pevent,
                 OS_Q_DATA *p_q_data)
{
    92d4:	defff604 	addi	sp,sp,-40
    92d8:	df000915 	stw	fp,36(sp)
    92dc:	df000904 	addi	fp,sp,36
    92e0:	e13ff815 	stw	r4,-32(fp)
    92e4:	e17ff715 	stw	r5,-36(fp)
    OS_Q       *pq;
    INT8U       i;
    OS_PRIO    *psrc;
    OS_PRIO    *pdest;
#if OS_CRITICAL_METHOD == 3u                           /* Allocate storage for CPU status register     */
    OS_CPU_SR   cpu_sr = 0u;
    92e8:	e03ffc15 	stw	zero,-16(fp)
#endif



#if OS_ARG_CHK_EN > 0u
    if (pevent == (OS_EVENT *)0) {                     /* Validate 'pevent'                            */
    92ec:	e0bff817 	ldw	r2,-32(fp)
    92f0:	1000021e 	bne	r2,zero,92fc <OSQQuery+0x28>
        return (OS_ERR_PEVENT_NULL);
    92f4:	00800104 	movi	r2,4
    92f8:	00004a06 	br	9424 <OSQQuery+0x150>
    }
    if (p_q_data == (OS_Q_DATA *)0) {                  /* Validate 'p_q_data'                          */
    92fc:	e0bff717 	ldw	r2,-36(fp)
    9300:	1000021e 	bne	r2,zero,930c <OSQQuery+0x38>
        return (OS_ERR_PDATA_NULL);
    9304:	00800244 	movi	r2,9
    9308:	00004606 	br	9424 <OSQQuery+0x150>
    }
#endif
    if (pevent->OSEventType != OS_EVENT_TYPE_Q) {      /* Validate event block type                    */
    930c:	e0bff817 	ldw	r2,-32(fp)
    9310:	10800003 	ldbu	r2,0(r2)
    9314:	10803fcc 	andi	r2,r2,255
    9318:	108000a0 	cmpeqi	r2,r2,2
    931c:	1000021e 	bne	r2,zero,9328 <OSQQuery+0x54>
        return (OS_ERR_EVENT_TYPE);
    9320:	00800044 	movi	r2,1
    9324:	00003f06 	br	9424 <OSQQuery+0x150>
  NIOS2_READ_STATUS (context);
    9328:	0005303a 	rdctl	r2,status
    932c:	e0bffa15 	stw	r2,-24(fp)
  NIOS2_WRITE_STATUS (context & ~NIOS2_STATUS_PIE_MSK);
    9330:	e0fffa17 	ldw	r3,-24(fp)
    9334:	00bfff84 	movi	r2,-2
    9338:	1884703a 	and	r2,r3,r2
    933c:	1001703a 	wrctl	status,r2
  return context;
    9340:	e0bffa17 	ldw	r2,-24(fp)
    }
    OS_ENTER_CRITICAL();
    9344:	e0bffc15 	stw	r2,-16(fp)
    p_q_data->OSEventGrp = pevent->OSEventGrp;         /* Copy message queue wait list                 */
    9348:	e0bff817 	ldw	r2,-32(fp)
    934c:	10c00283 	ldbu	r3,10(r2)
    9350:	e0bff717 	ldw	r2,-36(fp)
    9354:	10c002c5 	stb	r3,11(r2)
    psrc                 = &pevent->OSEventTbl[0];
    9358:	e0bff817 	ldw	r2,-32(fp)
    935c:	108002c4 	addi	r2,r2,11
    9360:	e0bffe15 	stw	r2,-8(fp)
    pdest                = &p_q_data->OSEventTbl[0];
    9364:	e0bff717 	ldw	r2,-36(fp)
    9368:	10800204 	addi	r2,r2,8
    936c:	e0bffd15 	stw	r2,-12(fp)
    for (i = 0u; i < OS_EVENT_TBL_SIZE; i++) {
    9370:	e03fffc5 	stb	zero,-1(fp)
    9374:	00000b06 	br	93a4 <OSQQuery+0xd0>
        *pdest++ = *psrc++;
    9378:	e0fffe17 	ldw	r3,-8(fp)
    937c:	18800044 	addi	r2,r3,1
    9380:	e0bffe15 	stw	r2,-8(fp)
    9384:	e0bffd17 	ldw	r2,-12(fp)
    9388:	11000044 	addi	r4,r2,1
    938c:	e13ffd15 	stw	r4,-12(fp)
    9390:	18c00003 	ldbu	r3,0(r3)
    9394:	10c00005 	stb	r3,0(r2)
    for (i = 0u; i < OS_EVENT_TBL_SIZE; i++) {
    9398:	e0bfffc3 	ldbu	r2,-1(fp)
    939c:	10800044 	addi	r2,r2,1
    93a0:	e0bfffc5 	stb	r2,-1(fp)
    93a4:	e0bfffc3 	ldbu	r2,-1(fp)
    93a8:	108000f0 	cmpltui	r2,r2,3
    93ac:	103ff21e 	bne	r2,zero,9378 <OSQQuery+0xa4>
    }
    pq = (OS_Q *)pevent->OSEventPtr;
    93b0:	e0bff817 	ldw	r2,-32(fp)
    93b4:	10800117 	ldw	r2,4(r2)
    93b8:	e0bffb15 	stw	r2,-20(fp)
    if (pq->OSQEntries > 0u) {
    93bc:	e0bffb17 	ldw	r2,-20(fp)
    93c0:	1080058b 	ldhu	r2,22(r2)
    93c4:	10bfffcc 	andi	r2,r2,65535
    93c8:	10000626 	beq	r2,zero,93e4 <OSQQuery+0x110>
        p_q_data->OSMsg = *pq->OSQOut;                 /* Get next message to return if available      */
    93cc:	e0bffb17 	ldw	r2,-20(fp)
    93d0:	10800417 	ldw	r2,16(r2)
    93d4:	10c00017 	ldw	r3,0(r2)
    93d8:	e0bff717 	ldw	r2,-36(fp)
    93dc:	10c00015 	stw	r3,0(r2)
    93e0:	00000206 	br	93ec <OSQQuery+0x118>
    } else {
        p_q_data->OSMsg = (void *)0;
    93e4:	e0bff717 	ldw	r2,-36(fp)
    93e8:	10000015 	stw	zero,0(r2)
    }
    p_q_data->OSNMsgs = pq->OSQEntries;
    93ec:	e0bffb17 	ldw	r2,-20(fp)
    93f0:	10c0058b 	ldhu	r3,22(r2)
    93f4:	e0bff717 	ldw	r2,-36(fp)
    93f8:	10c0010d 	sth	r3,4(r2)
    p_q_data->OSQSize = pq->OSQSize;
    93fc:	e0bffb17 	ldw	r2,-20(fp)
    9400:	10c0050b 	ldhu	r3,20(r2)
    9404:	e0bff717 	ldw	r2,-36(fp)
    9408:	10c0018d 	sth	r3,6(r2)
    940c:	e0bffc17 	ldw	r2,-16(fp)
    9410:	e0bff915 	stw	r2,-28(fp)
  NIOS2_WRITE_STATUS (context);
    9414:	e0bff917 	ldw	r2,-28(fp)
    9418:	1001703a 	wrctl	status,r2
}
    941c:	0001883a 	nop
    OS_EXIT_CRITICAL();
    return (OS_ERR_NONE);
    9420:	0005883a 	mov	r2,zero
}
    9424:	e037883a 	mov	sp,fp
    9428:	df000017 	ldw	fp,0(sp)
    942c:	dec00104 	addi	sp,sp,4
    9430:	f800283a 	ret

00009434 <OS_QInit>:
* Note(s)    : This function is INTERNAL to uC/OS-II and your application should not call it.
*********************************************************************************************************
*/

void  OS_QInit (void)
{
    9434:	defffa04 	addi	sp,sp,-24
    9438:	dfc00515 	stw	ra,20(sp)
    943c:	df000415 	stw	fp,16(sp)
    9440:	df000404 	addi	fp,sp,16
    OS_Q    *pq1;
    OS_Q    *pq2;



    OS_MemClr((INT8U *)&OSQTbl[0], sizeof(OSQTbl));  /* Clear the queue table                          */
    9444:	01407804 	movi	r5,480
    9448:	010000b4 	movhi	r4,2
    944c:	212a6d04 	addi	r4,r4,-22092
    9450:	0005bd40 	call	5bd4 <OS_MemClr>
    for (ix = 0u; ix < (OS_MAX_QS - 1u); ix++) {     /* Init. list of free QUEUE control blocks        */
    9454:	e03fff8d 	sth	zero,-2(fp)
    9458:	00001506 	br	94b0 <OS_QInit+0x7c>
        ix_next = ix + 1u;
    945c:	e0bfff8b 	ldhu	r2,-2(fp)
    9460:	10800044 	addi	r2,r2,1
    9464:	e0bffd8d 	sth	r2,-10(fp)
        pq1 = &OSQTbl[ix];
    9468:	e0bfff8b 	ldhu	r2,-2(fp)
    946c:	10c00624 	muli	r3,r2,24
    9470:	008000b4 	movhi	r2,2
    9474:	10aa6d04 	addi	r2,r2,-22092
    9478:	1885883a 	add	r2,r3,r2
    947c:	e0bffe15 	stw	r2,-8(fp)
        pq2 = &OSQTbl[ix_next];
    9480:	e0bffd8b 	ldhu	r2,-10(fp)
    9484:	10c00624 	muli	r3,r2,24
    9488:	008000b4 	movhi	r2,2
    948c:	10aa6d04 	addi	r2,r2,-22092
    9490:	1885883a 	add	r2,r3,r2
    9494:	e0bffc15 	stw	r2,-16(fp)
        pq1->OSQPtr = pq2;
    9498:	e0bffe17 	ldw	r2,-8(fp)
    949c:	e0fffc17 	ldw	r3,-16(fp)
    94a0:	10c00015 	stw	r3,0(r2)
    for (ix = 0u; ix < (OS_MAX_QS - 1u); ix++) {     /* Init. list of free QUEUE control blocks        */
    94a4:	e0bfff8b 	ldhu	r2,-2(fp)
    94a8:	10800044 	addi	r2,r2,1
    94ac:	e0bfff8d 	sth	r2,-2(fp)
    94b0:	e0bfff8b 	ldhu	r2,-2(fp)
    94b4:	108004f0 	cmpltui	r2,r2,19
    94b8:	103fe81e 	bne	r2,zero,945c <OS_QInit+0x28>
    }
    pq1         = &OSQTbl[ix];
    94bc:	e0bfff8b 	ldhu	r2,-2(fp)
    94c0:	10c00624 	muli	r3,r2,24
    94c4:	008000b4 	movhi	r2,2
    94c8:	10aa6d04 	addi	r2,r2,-22092
    94cc:	1885883a 	add	r2,r3,r2
    94d0:	e0bffe15 	stw	r2,-8(fp)
    pq1->OSQPtr = (OS_Q *)0;
    94d4:	e0bffe17 	ldw	r2,-8(fp)
    94d8:	10000015 	stw	zero,0(r2)
    OSQFreeList = &OSQTbl[0];
    94dc:	008000b4 	movhi	r2,2
    94e0:	10aa6d04 	addi	r2,r2,-22092
    94e4:	d0ab4e15 	stw	r2,-21192(gp)
#endif
}
    94e8:	0001883a 	nop
    94ec:	e037883a 	mov	sp,fp
    94f0:	dfc00117 	ldw	ra,4(sp)
    94f4:	df000017 	ldw	fp,0(sp)
    94f8:	dec00204 	addi	sp,sp,8
    94fc:	f800283a 	ret

00009500 <OSSemAccept>:
*********************************************************************************************************
*/

#if OS_SEM_ACCEPT_EN > 0u
INT16U  OSSemAccept (OS_EVENT *pevent)
{
    9500:	defffa04 	addi	sp,sp,-24
    9504:	df000515 	stw	fp,20(sp)
    9508:	df000504 	addi	fp,sp,20
    950c:	e13ffb15 	stw	r4,-20(fp)
    INT16U     cnt;
#if OS_CRITICAL_METHOD == 3u                          /* Allocate storage for CPU status register      */
    OS_CPU_SR  cpu_sr = 0u;
    9510:	e03fff15 	stw	zero,-4(fp)
#endif



#if OS_ARG_CHK_EN > 0u
    if (pevent == (OS_EVENT *)0) {                    /* Validate 'pevent'                             */
    9514:	e0bffb17 	ldw	r2,-20(fp)
    9518:	1000021e 	bne	r2,zero,9524 <OSSemAccept+0x24>
        return (0u);
    951c:	0005883a 	mov	r2,zero
    9520:	00002006 	br	95a4 <OSSemAccept+0xa4>
    }
#endif
    if (pevent->OSEventType != OS_EVENT_TYPE_SEM) {   /* Validate event block type                     */
    9524:	e0bffb17 	ldw	r2,-20(fp)
    9528:	10800003 	ldbu	r2,0(r2)
    952c:	10803fcc 	andi	r2,r2,255
    9530:	108000e0 	cmpeqi	r2,r2,3
    9534:	1000021e 	bne	r2,zero,9540 <OSSemAccept+0x40>
        return (0u);
    9538:	0005883a 	mov	r2,zero
    953c:	00001906 	br	95a4 <OSSemAccept+0xa4>
  NIOS2_READ_STATUS (context);
    9540:	0005303a 	rdctl	r2,status
    9544:	e0bffd15 	stw	r2,-12(fp)
  NIOS2_WRITE_STATUS (context & ~NIOS2_STATUS_PIE_MSK);
    9548:	e0fffd17 	ldw	r3,-12(fp)
    954c:	00bfff84 	movi	r2,-2
    9550:	1884703a 	and	r2,r3,r2
    9554:	1001703a 	wrctl	status,r2
  return context;
    9558:	e0bffd17 	ldw	r2,-12(fp)
    }
    OS_ENTER_CRITICAL();
    955c:	e0bfff15 	stw	r2,-4(fp)
    cnt = pevent->OSEventCnt;
    9560:	e0bffb17 	ldw	r2,-20(fp)
    9564:	1080020b 	ldhu	r2,8(r2)
    9568:	e0bffe8d 	sth	r2,-6(fp)
    if (cnt > 0u) {                                   /* See if resource is available                  */
    956c:	e0bffe8b 	ldhu	r2,-6(fp)
    9570:	10000626 	beq	r2,zero,958c <OSSemAccept+0x8c>
        pevent->OSEventCnt--;                         /* Yes, decrement semaphore and notify caller    */
    9574:	e0bffb17 	ldw	r2,-20(fp)
    9578:	1080020b 	ldhu	r2,8(r2)
    957c:	10bfffc4 	addi	r2,r2,-1
    9580:	1007883a 	mov	r3,r2
    9584:	e0bffb17 	ldw	r2,-20(fp)
    9588:	10c0020d 	sth	r3,8(r2)
    958c:	e0bfff17 	ldw	r2,-4(fp)
    9590:	e0bffc15 	stw	r2,-16(fp)
  NIOS2_WRITE_STATUS (context);
    9594:	e0bffc17 	ldw	r2,-16(fp)
    9598:	1001703a 	wrctl	status,r2
}
    959c:	0001883a 	nop
    }
    OS_EXIT_CRITICAL();
    return (cnt);                                     /* Return semaphore count                        */
    95a0:	e0bffe8b 	ldhu	r2,-6(fp)
}
    95a4:	e037883a 	mov	sp,fp
    95a8:	df000017 	ldw	fp,0(sp)
    95ac:	dec00104 	addi	sp,sp,4
    95b0:	f800283a 	ret

000095b4 <OSSemCreate>:
*              == (void *)0  if no event control blocks were available
*********************************************************************************************************
*/

OS_EVENT  *OSSemCreate (INT16U cnt)
{
    95b4:	defff904 	addi	sp,sp,-28
    95b8:	dfc00615 	stw	ra,24(sp)
    95bc:	df000515 	stw	fp,20(sp)
    95c0:	df000504 	addi	fp,sp,20
    95c4:	2005883a 	mov	r2,r4
    95c8:	e0bffb0d 	sth	r2,-20(fp)
    OS_EVENT  *pevent;
#if OS_CRITICAL_METHOD == 3u                               /* Allocate storage for CPU status register */
    OS_CPU_SR  cpu_sr = 0u;
    95cc:	e03fff15 	stw	zero,-4(fp)
        OS_SAFETY_CRITICAL_EXCEPTION();
        return ((OS_EVENT *)0);
    }
#endif

    if (OSIntNesting > 0u) {                               /* See if called from ISR ...               */
    95d0:	d0ab4443 	ldbu	r2,-21231(gp)
    95d4:	10803fcc 	andi	r2,r2,255
    95d8:	10000226 	beq	r2,zero,95e4 <OSSemCreate+0x30>
        return ((OS_EVENT *)0);                            /* ... can't CREATE from an ISR             */
    95dc:	0005883a 	mov	r2,zero
    95e0:	00002506 	br	9678 <OSSemCreate+0xc4>
  NIOS2_READ_STATUS (context);
    95e4:	0005303a 	rdctl	r2,status
    95e8:	e0bffd15 	stw	r2,-12(fp)
  NIOS2_WRITE_STATUS (context & ~NIOS2_STATUS_PIE_MSK);
    95ec:	e0fffd17 	ldw	r3,-12(fp)
    95f0:	00bfff84 	movi	r2,-2
    95f4:	1884703a 	and	r2,r3,r2
    95f8:	1001703a 	wrctl	status,r2
  return context;
    95fc:	e0bffd17 	ldw	r2,-12(fp)
    }
    OS_ENTER_CRITICAL();
    9600:	e0bfff15 	stw	r2,-4(fp)
    pevent = OSEventFreeList;                              /* Get next free event control block        */
    9604:	d0ab3f17 	ldw	r2,-21252(gp)
    9608:	e0bffe15 	stw	r2,-8(fp)
    if (OSEventFreeList != (OS_EVENT *)0) {                /* See if pool of free ECB pool was empty   */
    960c:	d0ab3f17 	ldw	r2,-21252(gp)
    9610:	10000326 	beq	r2,zero,9620 <OSSemCreate+0x6c>
        OSEventFreeList = (OS_EVENT *)OSEventFreeList->OSEventPtr;
    9614:	d0ab3f17 	ldw	r2,-21252(gp)
    9618:	10800117 	ldw	r2,4(r2)
    961c:	d0ab3f15 	stw	r2,-21252(gp)
    9620:	e0bfff17 	ldw	r2,-4(fp)
    9624:	e0bffc15 	stw	r2,-16(fp)
  NIOS2_WRITE_STATUS (context);
    9628:	e0bffc17 	ldw	r2,-16(fp)
    962c:	1001703a 	wrctl	status,r2
}
    9630:	0001883a 	nop
    }
    OS_EXIT_CRITICAL();
    if (pevent != (OS_EVENT *)0) {                         /* Get an event control block               */
    9634:	e0bffe17 	ldw	r2,-8(fp)
    9638:	10000e26 	beq	r2,zero,9674 <OSSemCreate+0xc0>
        pevent->OSEventType    = OS_EVENT_TYPE_SEM;
    963c:	e0bffe17 	ldw	r2,-8(fp)
    9640:	00c000c4 	movi	r3,3
    9644:	10c00005 	stb	r3,0(r2)
        pevent->OSEventCnt     = cnt;                      /* Set semaphore value                      */
    9648:	e0bffe17 	ldw	r2,-8(fp)
    964c:	e0fffb0b 	ldhu	r3,-20(fp)
    9650:	10c0020d 	sth	r3,8(r2)
        pevent->OSEventPtr     = (void *)0;                /* Unlink from ECB free list                */
    9654:	e0bffe17 	ldw	r2,-8(fp)
    9658:	10000115 	stw	zero,4(r2)
#if OS_EVENT_NAME_EN > 0u
        pevent->OSEventName    = (INT8U *)(void *)"?";
    965c:	e0fffe17 	ldw	r3,-8(fp)
    9660:	00800074 	movhi	r2,1
    9664:	10ba9904 	addi	r2,r2,-5532
    9668:	18800415 	stw	r2,16(r3)
#endif
        OS_EventWaitListInit(pevent);                      /* Initialize to 'nobody waiting' on sem.   */
    966c:	e13ffe17 	ldw	r4,-8(fp)
    9670:	00057c00 	call	57c0 <OS_EventWaitListInit>

        OS_TRACE_SEM_CREATE(pevent, pevent->OSEventName);
    }
    return (pevent);
    9674:	e0bffe17 	ldw	r2,-8(fp)
}
    9678:	e037883a 	mov	sp,fp
    967c:	dfc00117 	ldw	ra,4(sp)
    9680:	df000017 	ldw	fp,0(sp)
    9684:	dec00204 	addi	sp,sp,8
    9688:	f800283a 	ret

0000968c <OSSemDel>:

#if OS_SEM_DEL_EN > 0u
OS_EVENT  *OSSemDel (OS_EVENT  *pevent,
                     INT8U      opt,
                     INT8U     *perr)
{
    968c:	defff304 	addi	sp,sp,-52
    9690:	dfc00c15 	stw	ra,48(sp)
    9694:	df000b15 	stw	fp,44(sp)
    9698:	df000b04 	addi	fp,sp,44
    969c:	e13ff715 	stw	r4,-36(fp)
    96a0:	2805883a 	mov	r2,r5
    96a4:	e1bff515 	stw	r6,-44(fp)
    96a8:	e0bff605 	stb	r2,-40(fp)
    BOOLEAN    tasks_waiting;
    OS_EVENT  *pevent_return;
#if OS_CRITICAL_METHOD == 3u                               /* Allocate storage for CPU status register */
    OS_CPU_SR  cpu_sr = 0u;
    96ac:	e03ffd15 	stw	zero,-12(fp)
        return ((OS_EVENT *)0);
    }
#endif

#if OS_ARG_CHK_EN > 0u
    if (pevent == (OS_EVENT *)0) {                         /* Validate 'pevent'                        */
    96b0:	e0bff717 	ldw	r2,-36(fp)
    96b4:	1000051e 	bne	r2,zero,96cc <OSSemDel+0x40>
        *perr = OS_ERR_PEVENT_NULL;
    96b8:	e0bff517 	ldw	r2,-44(fp)
    96bc:	00c00104 	movi	r3,4
    96c0:	10c00005 	stb	r3,0(r2)
        return (pevent);
    96c4:	e0bff717 	ldw	r2,-36(fp)
    96c8:	00007906 	br	98b0 <OSSemDel+0x224>
    }
#endif

    OS_TRACE_SEM_DEL_ENTER(pevent, opt);

    if (pevent->OSEventType != OS_EVENT_TYPE_SEM) {        /* Validate event block type                */
    96cc:	e0bff717 	ldw	r2,-36(fp)
    96d0:	10800003 	ldbu	r2,0(r2)
    96d4:	10803fcc 	andi	r2,r2,255
    96d8:	108000e0 	cmpeqi	r2,r2,3
    96dc:	1000051e 	bne	r2,zero,96f4 <OSSemDel+0x68>
        *perr = OS_ERR_EVENT_TYPE;
    96e0:	e0bff517 	ldw	r2,-44(fp)
    96e4:	00c00044 	movi	r3,1
    96e8:	10c00005 	stb	r3,0(r2)
        OS_TRACE_SEM_DEL_EXIT(*perr);
        return (pevent);
    96ec:	e0bff717 	ldw	r2,-36(fp)
    96f0:	00006f06 	br	98b0 <OSSemDel+0x224>
    }
    if (OSIntNesting > 0u) {                               /* See if called from ISR ...               */
    96f4:	d0ab4443 	ldbu	r2,-21231(gp)
    96f8:	10803fcc 	andi	r2,r2,255
    96fc:	10000526 	beq	r2,zero,9714 <OSSemDel+0x88>
        *perr = OS_ERR_DEL_ISR;                            /* ... can't DELETE from an ISR             */
    9700:	e0bff517 	ldw	r2,-44(fp)
    9704:	00c003c4 	movi	r3,15
    9708:	10c00005 	stb	r3,0(r2)
        OS_TRACE_SEM_DEL_EXIT(*perr);
        return (pevent);
    970c:	e0bff717 	ldw	r2,-36(fp)
    9710:	00006706 	br	98b0 <OSSemDel+0x224>
  NIOS2_READ_STATUS (context);
    9714:	0005303a 	rdctl	r2,status
    9718:	e0bffc15 	stw	r2,-16(fp)
  NIOS2_WRITE_STATUS (context & ~NIOS2_STATUS_PIE_MSK);
    971c:	e0fffc17 	ldw	r3,-16(fp)
    9720:	00bfff84 	movi	r2,-2
    9724:	1884703a 	and	r2,r3,r2
    9728:	1001703a 	wrctl	status,r2
  return context;
    972c:	e0bffc17 	ldw	r2,-16(fp)
    }
    OS_ENTER_CRITICAL();
    9730:	e0bffd15 	stw	r2,-12(fp)
    if (pevent->OSEventGrp != 0u) {                        /* See if any tasks waiting on semaphore    */
    9734:	e0bff717 	ldw	r2,-36(fp)
    9738:	10800283 	ldbu	r2,10(r2)
    973c:	10803fcc 	andi	r2,r2,255
    9740:	10000326 	beq	r2,zero,9750 <OSSemDel+0xc4>
        tasks_waiting = OS_TRUE;                           /* Yes                                      */
    9744:	00800044 	movi	r2,1
    9748:	e0bfffc5 	stb	r2,-1(fp)
    974c:	00000106 	br	9754 <OSSemDel+0xc8>
    } else {
        tasks_waiting = OS_FALSE;                          /* No                                       */
    9750:	e03fffc5 	stb	zero,-1(fp)
    }
    switch (opt) {
    9754:	e0bff603 	ldbu	r2,-40(fp)
    9758:	10000326 	beq	r2,zero,9768 <OSSemDel+0xdc>
    975c:	10800060 	cmpeqi	r2,r2,1
    9760:	1000291e 	bne	r2,zero,9808 <OSSemDel+0x17c>
    9764:	00004606 	br	9880 <OSSemDel+0x1f4>
        case OS_DEL_NO_PEND:                               /* Delete semaphore only if no task waiting */
             if (tasks_waiting == OS_FALSE) {
    9768:	e0bfffc3 	ldbu	r2,-1(fp)
    976c:	1000161e 	bne	r2,zero,97c8 <OSSemDel+0x13c>
#if OS_EVENT_NAME_EN > 0u
                 pevent->OSEventName    = (INT8U *)(void *)"?";
    9770:	e0fff717 	ldw	r3,-36(fp)
    9774:	00800074 	movhi	r2,1
    9778:	10ba9904 	addi	r2,r2,-5532
    977c:	18800415 	stw	r2,16(r3)
#endif
                 pevent->OSEventType    = OS_EVENT_TYPE_UNUSED;
    9780:	e0bff717 	ldw	r2,-36(fp)
    9784:	10000005 	stb	zero,0(r2)
                 pevent->OSEventPtr     = OSEventFreeList; /* Return Event Control Block to free list  */
    9788:	d0eb3f17 	ldw	r3,-21252(gp)
    978c:	e0bff717 	ldw	r2,-36(fp)
    9790:	10c00115 	stw	r3,4(r2)
                 pevent->OSEventCnt     = 0u;
    9794:	e0bff717 	ldw	r2,-36(fp)
    9798:	1000020d 	sth	zero,8(r2)
                 OSEventFreeList        = pevent;          /* Get next free event control block        */
    979c:	e0bff717 	ldw	r2,-36(fp)
    97a0:	d0ab3f15 	stw	r2,-21252(gp)
    97a4:	e0bffd17 	ldw	r2,-12(fp)
    97a8:	e0bffb15 	stw	r2,-20(fp)
  NIOS2_WRITE_STATUS (context);
    97ac:	e0bffb17 	ldw	r2,-20(fp)
    97b0:	1001703a 	wrctl	status,r2
}
    97b4:	0001883a 	nop
                 OS_EXIT_CRITICAL();
                 *perr                  = OS_ERR_NONE;
    97b8:	e0bff517 	ldw	r2,-44(fp)
    97bc:	10000005 	stb	zero,0(r2)
                 pevent_return          = (OS_EVENT *)0;   /* Semaphore has been deleted               */
    97c0:	e03ffe15 	stw	zero,-8(fp)
             } else {
                 OS_EXIT_CRITICAL();
                 *perr                  = OS_ERR_TASK_WAITING;
                 pevent_return          = pevent;
             }
             break;
    97c4:	00003906 	br	98ac <OSSemDel+0x220>
    97c8:	e0bffd17 	ldw	r2,-12(fp)
    97cc:	e0bffa15 	stw	r2,-24(fp)
  NIOS2_WRITE_STATUS (context);
    97d0:	e0bffa17 	ldw	r2,-24(fp)
    97d4:	1001703a 	wrctl	status,r2
}
    97d8:	0001883a 	nop
                 *perr                  = OS_ERR_TASK_WAITING;
    97dc:	e0bff517 	ldw	r2,-44(fp)
    97e0:	00c01244 	movi	r3,73
    97e4:	10c00005 	stb	r3,0(r2)
                 pevent_return          = pevent;
    97e8:	e0bff717 	ldw	r2,-36(fp)
    97ec:	e0bffe15 	stw	r2,-8(fp)
             break;
    97f0:	00002e06 	br	98ac <OSSemDel+0x220>

        case OS_DEL_ALWAYS:                                /* Always delete the semaphore              */
             while (pevent->OSEventGrp != 0u) {            /* Ready ALL tasks waiting for semaphore    */
                 (void)OS_EventTaskRdy(pevent, (void *)0, OS_STAT_SEM, OS_STAT_PEND_ABORT);
    97f4:	01c00084 	movi	r7,2
    97f8:	01800044 	movi	r6,1
    97fc:	000b883a 	mov	r5,zero
    9800:	e13ff717 	ldw	r4,-36(fp)
    9804:	00052400 	call	5240 <OS_EventTaskRdy>
             while (pevent->OSEventGrp != 0u) {            /* Ready ALL tasks waiting for semaphore    */
    9808:	e0bff717 	ldw	r2,-36(fp)
    980c:	10800283 	ldbu	r2,10(r2)
    9810:	10803fcc 	andi	r2,r2,255
    9814:	103ff71e 	bne	r2,zero,97f4 <OSSemDel+0x168>
             }
#if OS_EVENT_NAME_EN > 0u
             pevent->OSEventName    = (INT8U *)(void *)"?";
    9818:	e0fff717 	ldw	r3,-36(fp)
    981c:	00800074 	movhi	r2,1
    9820:	10ba9904 	addi	r2,r2,-5532
    9824:	18800415 	stw	r2,16(r3)
#endif
             pevent->OSEventType    = OS_EVENT_TYPE_UNUSED;
    9828:	e0bff717 	ldw	r2,-36(fp)
    982c:	10000005 	stb	zero,0(r2)
             pevent->OSEventPtr     = OSEventFreeList;     /* Return Event Control Block to free list  */
    9830:	d0eb3f17 	ldw	r3,-21252(gp)
    9834:	e0bff717 	ldw	r2,-36(fp)
    9838:	10c00115 	stw	r3,4(r2)
             pevent->OSEventCnt     = 0u;
    983c:	e0bff717 	ldw	r2,-36(fp)
    9840:	1000020d 	sth	zero,8(r2)
             OSEventFreeList        = pevent;              /* Get next free event control block        */
    9844:	e0bff717 	ldw	r2,-36(fp)
    9848:	d0ab3f15 	stw	r2,-21252(gp)
    984c:	e0bffd17 	ldw	r2,-12(fp)
    9850:	e0bff915 	stw	r2,-28(fp)
  NIOS2_WRITE_STATUS (context);
    9854:	e0bff917 	ldw	r2,-28(fp)
    9858:	1001703a 	wrctl	status,r2
}
    985c:	0001883a 	nop
             OS_EXIT_CRITICAL();
             if (tasks_waiting == OS_TRUE) {               /* Reschedule only if task(s) were waiting  */
    9860:	e0bfffc3 	ldbu	r2,-1(fp)
    9864:	10800058 	cmpnei	r2,r2,1
    9868:	1000011e 	bne	r2,zero,9870 <OSSemDel+0x1e4>
                 OS_Sched();                               /* Find highest priority task ready to run  */
    986c:	0005c980 	call	5c98 <OS_Sched>
             }
             *perr                  = OS_ERR_NONE;
    9870:	e0bff517 	ldw	r2,-44(fp)
    9874:	10000005 	stb	zero,0(r2)
             pevent_return          = (OS_EVENT *)0;       /* Semaphore has been deleted               */
    9878:	e03ffe15 	stw	zero,-8(fp)
             break;
    987c:	00000b06 	br	98ac <OSSemDel+0x220>
    9880:	e0bffd17 	ldw	r2,-12(fp)
    9884:	e0bff815 	stw	r2,-32(fp)
  NIOS2_WRITE_STATUS (context);
    9888:	e0bff817 	ldw	r2,-32(fp)
    988c:	1001703a 	wrctl	status,r2
}
    9890:	0001883a 	nop

        default:
             OS_EXIT_CRITICAL();
             *perr                  = OS_ERR_INVALID_OPT;
    9894:	e0bff517 	ldw	r2,-44(fp)
    9898:	00c001c4 	movi	r3,7
    989c:	10c00005 	stb	r3,0(r2)
             pevent_return          = pevent;
    98a0:	e0bff717 	ldw	r2,-36(fp)
    98a4:	e0bffe15 	stw	r2,-8(fp)
             break;
    98a8:	0001883a 	nop
    }

    OS_TRACE_SEM_DEL_EXIT(*perr);

    return (pevent_return);
    98ac:	e0bffe17 	ldw	r2,-8(fp)
}
    98b0:	e037883a 	mov	sp,fp
    98b4:	dfc00117 	ldw	ra,4(sp)
    98b8:	df000017 	ldw	fp,0(sp)
    98bc:	dec00204 	addi	sp,sp,8
    98c0:	f800283a 	ret

000098c4 <OSSemPend>:
*/

void  OSSemPend (OS_EVENT  *pevent,
                 INT32U     timeout,
                 INT8U     *perr)
{
    98c4:	defff504 	addi	sp,sp,-44
    98c8:	dfc00a15 	stw	ra,40(sp)
    98cc:	df000915 	stw	fp,36(sp)
    98d0:	df000904 	addi	fp,sp,36
    98d4:	e13ff915 	stw	r4,-28(fp)
    98d8:	e17ff815 	stw	r5,-32(fp)
    98dc:	e1bff715 	stw	r6,-36(fp)
#if OS_CRITICAL_METHOD == 3u                          /* Allocate storage for CPU status register      */
    OS_CPU_SR  cpu_sr = 0u;
    98e0:	e03fff15 	stw	zero,-4(fp)
        return;
    }
#endif

#if OS_ARG_CHK_EN > 0u
    if (pevent == (OS_EVENT *)0) {                    /* Validate 'pevent'                             */
    98e4:	e0bff917 	ldw	r2,-28(fp)
    98e8:	1000041e 	bne	r2,zero,98fc <OSSemPend+0x38>
        *perr = OS_ERR_PEVENT_NULL;
    98ec:	e0bff717 	ldw	r2,-36(fp)
    98f0:	00c00104 	movi	r3,4
    98f4:	10c00005 	stb	r3,0(r2)
        return;
    98f8:	00007006 	br	9abc <OSSemPend+0x1f8>
    }
#endif

    OS_TRACE_SEM_PEND_ENTER(pevent, timeout);

    if (pevent->OSEventType != OS_EVENT_TYPE_SEM) {   /* Validate event block type                     */
    98fc:	e0bff917 	ldw	r2,-28(fp)
    9900:	10800003 	ldbu	r2,0(r2)
    9904:	10803fcc 	andi	r2,r2,255
    9908:	108000e0 	cmpeqi	r2,r2,3
    990c:	1000041e 	bne	r2,zero,9920 <OSSemPend+0x5c>
        *perr = OS_ERR_EVENT_TYPE;
    9910:	e0bff717 	ldw	r2,-36(fp)
    9914:	00c00044 	movi	r3,1
    9918:	10c00005 	stb	r3,0(r2)
        OS_TRACE_SEM_PEND_EXIT(*perr);
        return;
    991c:	00006706 	br	9abc <OSSemPend+0x1f8>
    }
    if (OSIntNesting > 0u) {                          /* See if called from ISR ...                    */
    9920:	d0ab4443 	ldbu	r2,-21231(gp)
    9924:	10803fcc 	andi	r2,r2,255
    9928:	10000426 	beq	r2,zero,993c <OSSemPend+0x78>
        *perr = OS_ERR_PEND_ISR;                      /* ... can't PEND from an ISR                    */
    992c:	e0bff717 	ldw	r2,-36(fp)
    9930:	00c00084 	movi	r3,2
    9934:	10c00005 	stb	r3,0(r2)
        OS_TRACE_SEM_PEND_EXIT(*perr);
        return;
    9938:	00006006 	br	9abc <OSSemPend+0x1f8>
    }
    if (OSLockNesting > 0u) {                         /* See if called with scheduler locked ...       */
    993c:	d0ab4483 	ldbu	r2,-21230(gp)
    9940:	10803fcc 	andi	r2,r2,255
    9944:	10000426 	beq	r2,zero,9958 <OSSemPend+0x94>
        *perr = OS_ERR_PEND_LOCKED;                   /* ... can't PEND when locked                    */
    9948:	e0bff717 	ldw	r2,-36(fp)
    994c:	00c00344 	movi	r3,13
    9950:	10c00005 	stb	r3,0(r2)
        OS_TRACE_SEM_PEND_EXIT(*perr);
        return;
    9954:	00005906 	br	9abc <OSSemPend+0x1f8>
  NIOS2_READ_STATUS (context);
    9958:	0005303a 	rdctl	r2,status
    995c:	e0bffe15 	stw	r2,-8(fp)
  NIOS2_WRITE_STATUS (context & ~NIOS2_STATUS_PIE_MSK);
    9960:	e0fffe17 	ldw	r3,-8(fp)
    9964:	00bfff84 	movi	r2,-2
    9968:	1884703a 	and	r2,r3,r2
    996c:	1001703a 	wrctl	status,r2
  return context;
    9970:	e0bffe17 	ldw	r2,-8(fp)
    }
    OS_ENTER_CRITICAL();
    9974:	e0bfff15 	stw	r2,-4(fp)
    if (pevent->OSEventCnt > 0u) {                    /* If sem. is positive, resource available ...   */
    9978:	e0bff917 	ldw	r2,-28(fp)
    997c:	1080020b 	ldhu	r2,8(r2)
    9980:	10bfffcc 	andi	r2,r2,65535
    9984:	10000e26 	beq	r2,zero,99c0 <OSSemPend+0xfc>
        pevent->OSEventCnt--;                         /* ... decrement semaphore only if positive.     */
    9988:	e0bff917 	ldw	r2,-28(fp)
    998c:	1080020b 	ldhu	r2,8(r2)
    9990:	10bfffc4 	addi	r2,r2,-1
    9994:	1007883a 	mov	r3,r2
    9998:	e0bff917 	ldw	r2,-28(fp)
    999c:	10c0020d 	sth	r3,8(r2)
    99a0:	e0bfff17 	ldw	r2,-4(fp)
    99a4:	e0bffd15 	stw	r2,-12(fp)
  NIOS2_WRITE_STATUS (context);
    99a8:	e0bffd17 	ldw	r2,-12(fp)
    99ac:	1001703a 	wrctl	status,r2
}
    99b0:	0001883a 	nop
        OS_EXIT_CRITICAL();
        *perr = OS_ERR_NONE;
    99b4:	e0bff717 	ldw	r2,-36(fp)
    99b8:	10000005 	stb	zero,0(r2)
        OS_TRACE_SEM_PEND_EXIT(*perr);
        return;
    99bc:	00003f06 	br	9abc <OSSemPend+0x1f8>
    }
                                                      /* Otherwise, must wait until event occurs       */
    OSTCBCur->OSTCBStat     |= OS_STAT_SEM;           /* Resource not available, pend on semaphore     */
    99c0:	d0ab4817 	ldw	r2,-21216(gp)
    99c4:	10c00e03 	ldbu	r3,56(r2)
    99c8:	d0ab4817 	ldw	r2,-21216(gp)
    99cc:	18c00054 	ori	r3,r3,1
    99d0:	10c00e05 	stb	r3,56(r2)
    OSTCBCur->OSTCBStatPend  = OS_STAT_PEND_OK;
    99d4:	d0ab4817 	ldw	r2,-21216(gp)
    99d8:	10000e45 	stb	zero,57(r2)
    OSTCBCur->OSTCBDly       = timeout;               /* Store pend timeout in TCB                     */
    99dc:	d0ab4817 	ldw	r2,-21216(gp)
    99e0:	e0fff817 	ldw	r3,-32(fp)
    99e4:	10c00d15 	stw	r3,52(r2)
    OS_EventTaskWait(pevent);                         /* Suspend task until event or timeout occurs    */
    99e8:	e13ff917 	ldw	r4,-28(fp)
    99ec:	00053cc0 	call	53cc <OS_EventTaskWait>
    99f0:	e0bfff17 	ldw	r2,-4(fp)
    99f4:	e0bffb15 	stw	r2,-20(fp)
  NIOS2_WRITE_STATUS (context);
    99f8:	e0bffb17 	ldw	r2,-20(fp)
    99fc:	1001703a 	wrctl	status,r2
}
    9a00:	0001883a 	nop
    OS_EXIT_CRITICAL();
    OS_Sched();                                       /* Find next highest priority task ready         */
    9a04:	0005c980 	call	5c98 <OS_Sched>
  NIOS2_READ_STATUS (context);
    9a08:	0005303a 	rdctl	r2,status
    9a0c:	e0bffc15 	stw	r2,-16(fp)
  NIOS2_WRITE_STATUS (context & ~NIOS2_STATUS_PIE_MSK);
    9a10:	e0fffc17 	ldw	r3,-16(fp)
    9a14:	00bfff84 	movi	r2,-2
    9a18:	1884703a 	and	r2,r3,r2
    9a1c:	1001703a 	wrctl	status,r2
  return context;
    9a20:	e0bffc17 	ldw	r2,-16(fp)
    OS_ENTER_CRITICAL();
    9a24:	e0bfff15 	stw	r2,-4(fp)
    switch (OSTCBCur->OSTCBStatPend) {                /* See if we timed-out or aborted                */
    9a28:	d0ab4817 	ldw	r2,-21216(gp)
    9a2c:	10800e43 	ldbu	r2,57(r2)
    9a30:	10803fcc 	andi	r2,r2,255
    9a34:	10000326 	beq	r2,zero,9a44 <OSSemPend+0x180>
    9a38:	108000a0 	cmpeqi	r2,r2,2
    9a3c:	1000041e 	bne	r2,zero,9a50 <OSSemPend+0x18c>
    9a40:	00000706 	br	9a60 <OSSemPend+0x19c>
        case OS_STAT_PEND_OK:
             *perr = OS_ERR_NONE;
    9a44:	e0bff717 	ldw	r2,-36(fp)
    9a48:	10000005 	stb	zero,0(r2)
             break;
    9a4c:	00000c06 	br	9a80 <OSSemPend+0x1bc>

        case OS_STAT_PEND_ABORT:
             *perr = OS_ERR_PEND_ABORT;               /* Indicate that we aborted                      */
    9a50:	e0bff717 	ldw	r2,-36(fp)
    9a54:	00c00384 	movi	r3,14
    9a58:	10c00005 	stb	r3,0(r2)
             break;
    9a5c:	00000806 	br	9a80 <OSSemPend+0x1bc>

        case OS_STAT_PEND_TO:
        default:
             OS_EventTaskRemove(OSTCBCur, pevent);
    9a60:	d0ab4817 	ldw	r2,-21216(gp)
    9a64:	e17ff917 	ldw	r5,-28(fp)
    9a68:	1009883a 	mov	r4,r2
    9a6c:	000561c0 	call	561c <OS_EventTaskRemove>
             *perr = OS_ERR_TIMEOUT;                  /* Indicate that we didn't get event within TO   */
    9a70:	e0bff717 	ldw	r2,-36(fp)
    9a74:	00c00284 	movi	r3,10
    9a78:	10c00005 	stb	r3,0(r2)
             break;
    9a7c:	0001883a 	nop
    }
    OSTCBCur->OSTCBStat          =  OS_STAT_RDY;      /* Set   task  status to ready                   */
    9a80:	d0ab4817 	ldw	r2,-21216(gp)
    9a84:	10000e05 	stb	zero,56(r2)
    OSTCBCur->OSTCBStatPend      =  OS_STAT_PEND_OK;  /* Clear pend  status                            */
    9a88:	d0ab4817 	ldw	r2,-21216(gp)
    9a8c:	10000e45 	stb	zero,57(r2)
    OSTCBCur->OSTCBEventPtr      = (OS_EVENT  *)0;    /* Clear event pointers                          */
    9a90:	d0ab4817 	ldw	r2,-21216(gp)
    9a94:	10000715 	stw	zero,28(r2)
#if (OS_EVENT_MULTI_EN > 0u)
    OSTCBCur->OSTCBEventMultiPtr = (OS_EVENT **)0;
    9a98:	d0ab4817 	ldw	r2,-21216(gp)
    9a9c:	10000815 	stw	zero,32(r2)
    OSTCBCur->OSTCBEventMultiRdy = (OS_EVENT  *)0;
    9aa0:	d0ab4817 	ldw	r2,-21216(gp)
    9aa4:	10000915 	stw	zero,36(r2)
    9aa8:	e0bfff17 	ldw	r2,-4(fp)
    9aac:	e0bffa15 	stw	r2,-24(fp)
  NIOS2_WRITE_STATUS (context);
    9ab0:	e0bffa17 	ldw	r2,-24(fp)
    9ab4:	1001703a 	wrctl	status,r2
}
    9ab8:	0001883a 	nop
#endif
    OS_EXIT_CRITICAL();

    OS_TRACE_SEM_PEND_EXIT(*perr);
}
    9abc:	e037883a 	mov	sp,fp
    9ac0:	dfc00117 	ldw	ra,4(sp)
    9ac4:	df000017 	ldw	fp,0(sp)
    9ac8:	dec00204 	addi	sp,sp,8
    9acc:	f800283a 	ret

00009ad0 <OSSemPendAbort>:

#if OS_SEM_PEND_ABORT_EN > 0u
INT8U  OSSemPendAbort (OS_EVENT  *pevent,
                       INT8U      opt,
                       INT8U     *perr)
{
    9ad0:	defff604 	addi	sp,sp,-40
    9ad4:	dfc00915 	stw	ra,36(sp)
    9ad8:	df000815 	stw	fp,32(sp)
    9adc:	df000804 	addi	fp,sp,32
    9ae0:	e13ffa15 	stw	r4,-24(fp)
    9ae4:	2805883a 	mov	r2,r5
    9ae8:	e1bff815 	stw	r6,-32(fp)
    9aec:	e0bff905 	stb	r2,-28(fp)
    INT8U      nbr_tasks;
#if OS_CRITICAL_METHOD == 3u                          /* Allocate storage for CPU status register      */
    OS_CPU_SR  cpu_sr = 0u;
    9af0:	e03ffe15 	stw	zero,-8(fp)
        return (0u);
    }
#endif

#if OS_ARG_CHK_EN > 0u
    if (pevent == (OS_EVENT *)0) {                    /* Validate 'pevent'                             */
    9af4:	e0bffa17 	ldw	r2,-24(fp)
    9af8:	1000051e 	bne	r2,zero,9b10 <OSSemPendAbort+0x40>
        *perr = OS_ERR_PEVENT_NULL;
    9afc:	e0bff817 	ldw	r2,-32(fp)
    9b00:	00c00104 	movi	r3,4
    9b04:	10c00005 	stb	r3,0(r2)
        return (0u);
    9b08:	0005883a 	mov	r2,zero
    9b0c:	00004406 	br	9c20 <OSSemPendAbort+0x150>
    }
#endif
    if (pevent->OSEventType != OS_EVENT_TYPE_SEM) {   /* Validate event block type                     */
    9b10:	e0bffa17 	ldw	r2,-24(fp)
    9b14:	10800003 	ldbu	r2,0(r2)
    9b18:	10803fcc 	andi	r2,r2,255
    9b1c:	108000e0 	cmpeqi	r2,r2,3
    9b20:	1000051e 	bne	r2,zero,9b38 <OSSemPendAbort+0x68>
        *perr = OS_ERR_EVENT_TYPE;
    9b24:	e0bff817 	ldw	r2,-32(fp)
    9b28:	00c00044 	movi	r3,1
    9b2c:	10c00005 	stb	r3,0(r2)
        return (0u);
    9b30:	0005883a 	mov	r2,zero
    9b34:	00003a06 	br	9c20 <OSSemPendAbort+0x150>
  NIOS2_READ_STATUS (context);
    9b38:	0005303a 	rdctl	r2,status
    9b3c:	e0bffd15 	stw	r2,-12(fp)
  NIOS2_WRITE_STATUS (context & ~NIOS2_STATUS_PIE_MSK);
    9b40:	e0fffd17 	ldw	r3,-12(fp)
    9b44:	00bfff84 	movi	r2,-2
    9b48:	1884703a 	and	r2,r3,r2
    9b4c:	1001703a 	wrctl	status,r2
  return context;
    9b50:	e0bffd17 	ldw	r2,-12(fp)
    }
    OS_ENTER_CRITICAL();
    9b54:	e0bffe15 	stw	r2,-8(fp)
    if (pevent->OSEventGrp != 0u) {                   /* See if any task waiting on semaphore?         */
    9b58:	e0bffa17 	ldw	r2,-24(fp)
    9b5c:	10800283 	ldbu	r2,10(r2)
    9b60:	10803fcc 	andi	r2,r2,255
    9b64:	10002626 	beq	r2,zero,9c00 <OSSemPendAbort+0x130>
        nbr_tasks = 0u;
    9b68:	e03fffc5 	stb	zero,-1(fp)
        switch (opt) {
    9b6c:	e0bff903 	ldbu	r2,-28(fp)
    9b70:	10800058 	cmpnei	r2,r2,1
    9b74:	10000e1e 	bne	r2,zero,9bb0 <OSSemPendAbort+0xe0>
            case OS_PEND_OPT_BROADCAST:               /* Do we need to abort ALL waiting tasks?        */
                 while (pevent->OSEventGrp != 0u) {   /* Yes, ready ALL tasks waiting on semaphore     */
    9b78:	00000806 	br	9b9c <OSSemPendAbort+0xcc>
                     (void)OS_EventTaskRdy(pevent, (void *)0, OS_STAT_SEM, OS_STAT_PEND_ABORT);
    9b7c:	01c00084 	movi	r7,2
    9b80:	01800044 	movi	r6,1
    9b84:	000b883a 	mov	r5,zero
    9b88:	e13ffa17 	ldw	r4,-24(fp)
    9b8c:	00052400 	call	5240 <OS_EventTaskRdy>
                     nbr_tasks++;
    9b90:	e0bfffc3 	ldbu	r2,-1(fp)
    9b94:	10800044 	addi	r2,r2,1
    9b98:	e0bfffc5 	stb	r2,-1(fp)
                 while (pevent->OSEventGrp != 0u) {   /* Yes, ready ALL tasks waiting on semaphore     */
    9b9c:	e0bffa17 	ldw	r2,-24(fp)
    9ba0:	10800283 	ldbu	r2,10(r2)
    9ba4:	10803fcc 	andi	r2,r2,255
    9ba8:	103ff41e 	bne	r2,zero,9b7c <OSSemPendAbort+0xac>
                 }
                 break;
    9bac:	00000906 	br	9bd4 <OSSemPendAbort+0x104>

            case OS_PEND_OPT_NONE:
            default:                                  /* No,  ready HPT       waiting on semaphore     */
                 (void)OS_EventTaskRdy(pevent, (void *)0, OS_STAT_SEM, OS_STAT_PEND_ABORT);
    9bb0:	01c00084 	movi	r7,2
    9bb4:	01800044 	movi	r6,1
    9bb8:	000b883a 	mov	r5,zero
    9bbc:	e13ffa17 	ldw	r4,-24(fp)
    9bc0:	00052400 	call	5240 <OS_EventTaskRdy>
                 nbr_tasks++;
    9bc4:	e0bfffc3 	ldbu	r2,-1(fp)
    9bc8:	10800044 	addi	r2,r2,1
    9bcc:	e0bfffc5 	stb	r2,-1(fp)
                 break;
    9bd0:	0001883a 	nop
    9bd4:	e0bffe17 	ldw	r2,-8(fp)
    9bd8:	e0bffc15 	stw	r2,-16(fp)
  NIOS2_WRITE_STATUS (context);
    9bdc:	e0bffc17 	ldw	r2,-16(fp)
    9be0:	1001703a 	wrctl	status,r2
}
    9be4:	0001883a 	nop
        }
        OS_EXIT_CRITICAL();
        OS_Sched();                                   /* Find HPT ready to run                         */
    9be8:	0005c980 	call	5c98 <OS_Sched>
        *perr = OS_ERR_PEND_ABORT;
    9bec:	e0bff817 	ldw	r2,-32(fp)
    9bf0:	00c00384 	movi	r3,14
    9bf4:	10c00005 	stb	r3,0(r2)
        return (nbr_tasks);
    9bf8:	e0bfffc3 	ldbu	r2,-1(fp)
    9bfc:	00000806 	br	9c20 <OSSemPendAbort+0x150>
    9c00:	e0bffe17 	ldw	r2,-8(fp)
    9c04:	e0bffb15 	stw	r2,-20(fp)
  NIOS2_WRITE_STATUS (context);
    9c08:	e0bffb17 	ldw	r2,-20(fp)
    9c0c:	1001703a 	wrctl	status,r2
}
    9c10:	0001883a 	nop
    }
    OS_EXIT_CRITICAL();
    *perr = OS_ERR_NONE;
    9c14:	e0bff817 	ldw	r2,-32(fp)
    9c18:	10000005 	stb	zero,0(r2)
    return (0u);                                      /* No tasks waiting on semaphore                 */
    9c1c:	0005883a 	mov	r2,zero
}
    9c20:	e037883a 	mov	sp,fp
    9c24:	dfc00117 	ldw	ra,4(sp)
    9c28:	df000017 	ldw	fp,0(sp)
    9c2c:	dec00204 	addi	sp,sp,8
    9c30:	f800283a 	ret

00009c34 <OSSemPost>:
*              OS_ERR_PEVENT_NULL  If 'pevent' is a NULL pointer.
*********************************************************************************************************
*/

INT8U  OSSemPost (OS_EVENT *pevent)
{
    9c34:	defff804 	addi	sp,sp,-32
    9c38:	dfc00715 	stw	ra,28(sp)
    9c3c:	df000615 	stw	fp,24(sp)
    9c40:	df000604 	addi	fp,sp,24
    9c44:	e13ffa15 	stw	r4,-24(fp)
#if OS_CRITICAL_METHOD == 3u                          /* Allocate storage for CPU status register      */
    OS_CPU_SR  cpu_sr = 0u;
    9c48:	e03fff15 	stw	zero,-4(fp)
#endif


#if OS_ARG_CHK_EN > 0u
    if (pevent == (OS_EVENT *)0) {                    /* Validate 'pevent'                             */
    9c4c:	e0bffa17 	ldw	r2,-24(fp)
    9c50:	1000021e 	bne	r2,zero,9c5c <OSSemPost+0x28>
        return (OS_ERR_PEVENT_NULL);
    9c54:	00800104 	movi	r2,4
    9c58:	00003806 	br	9d3c <OSSemPost+0x108>
    }
#endif

    OS_TRACE_SEM_POST_ENTER(pevent);

    if (pevent->OSEventType != OS_EVENT_TYPE_SEM) {   /* Validate event block type                     */
    9c5c:	e0bffa17 	ldw	r2,-24(fp)
    9c60:	10800003 	ldbu	r2,0(r2)
    9c64:	10803fcc 	andi	r2,r2,255
    9c68:	108000e0 	cmpeqi	r2,r2,3
    9c6c:	1000021e 	bne	r2,zero,9c78 <OSSemPost+0x44>
        OS_TRACE_SEM_POST_EXIT(OS_ERR_EVENT_TYPE);
        return (OS_ERR_EVENT_TYPE);
    9c70:	00800044 	movi	r2,1
    9c74:	00003106 	br	9d3c <OSSemPost+0x108>
  NIOS2_READ_STATUS (context);
    9c78:	0005303a 	rdctl	r2,status
    9c7c:	e0bffe15 	stw	r2,-8(fp)
  NIOS2_WRITE_STATUS (context & ~NIOS2_STATUS_PIE_MSK);
    9c80:	e0fffe17 	ldw	r3,-8(fp)
    9c84:	00bfff84 	movi	r2,-2
    9c88:	1884703a 	and	r2,r3,r2
    9c8c:	1001703a 	wrctl	status,r2
  return context;
    9c90:	e0bffe17 	ldw	r2,-8(fp)
    }
    OS_ENTER_CRITICAL();
    9c94:	e0bfff15 	stw	r2,-4(fp)
    if (pevent->OSEventGrp != 0u) {                   /* See if any task waiting for semaphore         */
    9c98:	e0bffa17 	ldw	r2,-24(fp)
    9c9c:	10800283 	ldbu	r2,10(r2)
    9ca0:	10803fcc 	andi	r2,r2,255
    9ca4:	10000d26 	beq	r2,zero,9cdc <OSSemPost+0xa8>
                                                      /* Ready HPT waiting on event                    */
        (void)OS_EventTaskRdy(pevent, (void *)0, OS_STAT_SEM, OS_STAT_PEND_OK);
    9ca8:	000f883a 	mov	r7,zero
    9cac:	01800044 	movi	r6,1
    9cb0:	000b883a 	mov	r5,zero
    9cb4:	e13ffa17 	ldw	r4,-24(fp)
    9cb8:	00052400 	call	5240 <OS_EventTaskRdy>
    9cbc:	e0bfff17 	ldw	r2,-4(fp)
    9cc0:	e0bffd15 	stw	r2,-12(fp)
  NIOS2_WRITE_STATUS (context);
    9cc4:	e0bffd17 	ldw	r2,-12(fp)
    9cc8:	1001703a 	wrctl	status,r2
}
    9ccc:	0001883a 	nop
        OS_EXIT_CRITICAL();
        OS_Sched();                                   /* Find HPT ready to run                         */
    9cd0:	0005c980 	call	5c98 <OS_Sched>
        OS_TRACE_SEM_POST_EXIT(OS_ERR_NONE);
        return (OS_ERR_NONE);
    9cd4:	0005883a 	mov	r2,zero
    9cd8:	00001806 	br	9d3c <OSSemPost+0x108>
    }
    if (pevent->OSEventCnt < 65535u) {                /* Make sure semaphore will not overflow         */
    9cdc:	e0bffa17 	ldw	r2,-24(fp)
    9ce0:	1080020b 	ldhu	r2,8(r2)
    9ce4:	10ffffcc 	andi	r3,r2,65535
    9ce8:	00bfffd4 	movui	r2,65535
    9cec:	18800d26 	beq	r3,r2,9d24 <OSSemPost+0xf0>
        pevent->OSEventCnt++;                         /* Increment semaphore count to register event   */
    9cf0:	e0bffa17 	ldw	r2,-24(fp)
    9cf4:	1080020b 	ldhu	r2,8(r2)
    9cf8:	10800044 	addi	r2,r2,1
    9cfc:	1007883a 	mov	r3,r2
    9d00:	e0bffa17 	ldw	r2,-24(fp)
    9d04:	10c0020d 	sth	r3,8(r2)
    9d08:	e0bfff17 	ldw	r2,-4(fp)
    9d0c:	e0bffc15 	stw	r2,-16(fp)
  NIOS2_WRITE_STATUS (context);
    9d10:	e0bffc17 	ldw	r2,-16(fp)
    9d14:	1001703a 	wrctl	status,r2
}
    9d18:	0001883a 	nop
        OS_EXIT_CRITICAL();
        OS_TRACE_SEM_POST_EXIT(OS_ERR_NONE);
        return (OS_ERR_NONE);
    9d1c:	0005883a 	mov	r2,zero
    9d20:	00000606 	br	9d3c <OSSemPost+0x108>
    9d24:	e0bfff17 	ldw	r2,-4(fp)
    9d28:	e0bffb15 	stw	r2,-20(fp)
  NIOS2_WRITE_STATUS (context);
    9d2c:	e0bffb17 	ldw	r2,-20(fp)
    9d30:	1001703a 	wrctl	status,r2
}
    9d34:	0001883a 	nop
    }
    OS_EXIT_CRITICAL();                               /* Semaphore value has reached its maximum       */
    OS_TRACE_SEM_POST_EXIT(OS_ERR_SEM_OVF);

    return (OS_ERR_SEM_OVF);
    9d38:	00800cc4 	movi	r2,51
}
    9d3c:	e037883a 	mov	sp,fp
    9d40:	dfc00117 	ldw	ra,4(sp)
    9d44:	df000017 	ldw	fp,0(sp)
    9d48:	dec00204 	addi	sp,sp,8
    9d4c:	f800283a 	ret

00009d50 <OSSemQuery>:
*/

#if OS_SEM_QUERY_EN > 0u
INT8U  OSSemQuery (OS_EVENT     *pevent,
                   OS_SEM_DATA  *p_sem_data)
{
    9d50:	defff704 	addi	sp,sp,-36
    9d54:	df000815 	stw	fp,32(sp)
    9d58:	df000804 	addi	fp,sp,32
    9d5c:	e13ff915 	stw	r4,-28(fp)
    9d60:	e17ff815 	stw	r5,-32(fp)
    INT8U       i;
    OS_PRIO    *psrc;
    OS_PRIO    *pdest;
#if OS_CRITICAL_METHOD == 3u                               /* Allocate storage for CPU status register */
    OS_CPU_SR   cpu_sr = 0u;
    9d64:	e03ffc15 	stw	zero,-16(fp)
#endif



#if OS_ARG_CHK_EN > 0u
    if (pevent == (OS_EVENT *)0) {                         /* Validate 'pevent'                        */
    9d68:	e0bff917 	ldw	r2,-28(fp)
    9d6c:	1000021e 	bne	r2,zero,9d78 <OSSemQuery+0x28>
        return (OS_ERR_PEVENT_NULL);
    9d70:	00800104 	movi	r2,4
    9d74:	00003706 	br	9e54 <OSSemQuery+0x104>
    }
    if (p_sem_data == (OS_SEM_DATA *)0) {                  /* Validate 'p_sem_data'                    */
    9d78:	e0bff817 	ldw	r2,-32(fp)
    9d7c:	1000021e 	bne	r2,zero,9d88 <OSSemQuery+0x38>
        return (OS_ERR_PDATA_NULL);
    9d80:	00800244 	movi	r2,9
    9d84:	00003306 	br	9e54 <OSSemQuery+0x104>
    }
#endif
    if (pevent->OSEventType != OS_EVENT_TYPE_SEM) {        /* Validate event block type                */
    9d88:	e0bff917 	ldw	r2,-28(fp)
    9d8c:	10800003 	ldbu	r2,0(r2)
    9d90:	10803fcc 	andi	r2,r2,255
    9d94:	108000e0 	cmpeqi	r2,r2,3
    9d98:	1000021e 	bne	r2,zero,9da4 <OSSemQuery+0x54>
        return (OS_ERR_EVENT_TYPE);
    9d9c:	00800044 	movi	r2,1
    9da0:	00002c06 	br	9e54 <OSSemQuery+0x104>
  NIOS2_READ_STATUS (context);
    9da4:	0005303a 	rdctl	r2,status
    9da8:	e0bffb15 	stw	r2,-20(fp)
  NIOS2_WRITE_STATUS (context & ~NIOS2_STATUS_PIE_MSK);
    9dac:	e0fffb17 	ldw	r3,-20(fp)
    9db0:	00bfff84 	movi	r2,-2
    9db4:	1884703a 	and	r2,r3,r2
    9db8:	1001703a 	wrctl	status,r2
  return context;
    9dbc:	e0bffb17 	ldw	r2,-20(fp)
    }
    OS_ENTER_CRITICAL();
    9dc0:	e0bffc15 	stw	r2,-16(fp)
    p_sem_data->OSEventGrp = pevent->OSEventGrp;           /* Copy message mailbox wait list           */
    9dc4:	e0bff917 	ldw	r2,-28(fp)
    9dc8:	10c00283 	ldbu	r3,10(r2)
    9dcc:	e0bff817 	ldw	r2,-32(fp)
    9dd0:	10c00145 	stb	r3,5(r2)
    psrc                   = &pevent->OSEventTbl[0];
    9dd4:	e0bff917 	ldw	r2,-28(fp)
    9dd8:	108002c4 	addi	r2,r2,11
    9ddc:	e0bffe15 	stw	r2,-8(fp)
    pdest                  = &p_sem_data->OSEventTbl[0];
    9de0:	e0bff817 	ldw	r2,-32(fp)
    9de4:	10800084 	addi	r2,r2,2
    9de8:	e0bffd15 	stw	r2,-12(fp)
    for (i = 0u; i < OS_EVENT_TBL_SIZE; i++) {
    9dec:	e03fffc5 	stb	zero,-1(fp)
    9df0:	00000b06 	br	9e20 <OSSemQuery+0xd0>
        *pdest++ = *psrc++;
    9df4:	e0fffe17 	ldw	r3,-8(fp)
    9df8:	18800044 	addi	r2,r3,1
    9dfc:	e0bffe15 	stw	r2,-8(fp)
    9e00:	e0bffd17 	ldw	r2,-12(fp)
    9e04:	11000044 	addi	r4,r2,1
    9e08:	e13ffd15 	stw	r4,-12(fp)
    9e0c:	18c00003 	ldbu	r3,0(r3)
    9e10:	10c00005 	stb	r3,0(r2)
    for (i = 0u; i < OS_EVENT_TBL_SIZE; i++) {
    9e14:	e0bfffc3 	ldbu	r2,-1(fp)
    9e18:	10800044 	addi	r2,r2,1
    9e1c:	e0bfffc5 	stb	r2,-1(fp)
    9e20:	e0bfffc3 	ldbu	r2,-1(fp)
    9e24:	108000f0 	cmpltui	r2,r2,3
    9e28:	103ff21e 	bne	r2,zero,9df4 <OSSemQuery+0xa4>
    }
    p_sem_data->OSCnt = pevent->OSEventCnt;                /* Get semaphore count                      */
    9e2c:	e0bff917 	ldw	r2,-28(fp)
    9e30:	10c0020b 	ldhu	r3,8(r2)
    9e34:	e0bff817 	ldw	r2,-32(fp)
    9e38:	10c0000d 	sth	r3,0(r2)
    9e3c:	e0bffc17 	ldw	r2,-16(fp)
    9e40:	e0bffa15 	stw	r2,-24(fp)
  NIOS2_WRITE_STATUS (context);
    9e44:	e0bffa17 	ldw	r2,-24(fp)
    9e48:	1001703a 	wrctl	status,r2
}
    9e4c:	0001883a 	nop
    OS_EXIT_CRITICAL();
    return (OS_ERR_NONE);
    9e50:	0005883a 	mov	r2,zero
}
    9e54:	e037883a 	mov	sp,fp
    9e58:	df000017 	ldw	fp,0(sp)
    9e5c:	dec00104 	addi	sp,sp,4
    9e60:	f800283a 	ret

00009e64 <OSSemSet>:

#if OS_SEM_SET_EN > 0u
void  OSSemSet (OS_EVENT  *pevent,
                INT16U     cnt,
                INT8U     *perr)
{
    9e64:	defff904 	addi	sp,sp,-28
    9e68:	df000615 	stw	fp,24(sp)
    9e6c:	df000604 	addi	fp,sp,24
    9e70:	e13ffc15 	stw	r4,-16(fp)
    9e74:	2805883a 	mov	r2,r5
    9e78:	e1bffa15 	stw	r6,-24(fp)
    9e7c:	e0bffb0d 	sth	r2,-20(fp)
#if OS_CRITICAL_METHOD == 3u                          /* Allocate storage for CPU status register      */
    OS_CPU_SR  cpu_sr = 0u;
    9e80:	e03fff15 	stw	zero,-4(fp)
        return;
    }
#endif

#if OS_ARG_CHK_EN > 0u
    if (pevent == (OS_EVENT *)0) {                    /* Validate 'pevent'                             */
    9e84:	e0bffc17 	ldw	r2,-16(fp)
    9e88:	1000041e 	bne	r2,zero,9e9c <OSSemSet+0x38>
        *perr = OS_ERR_PEVENT_NULL;
    9e8c:	e0bffa17 	ldw	r2,-24(fp)
    9e90:	00c00104 	movi	r3,4
    9e94:	10c00005 	stb	r3,0(r2)
        return;
    9e98:	00002b06 	br	9f48 <OSSemSet+0xe4>
    }
#endif
    if (pevent->OSEventType != OS_EVENT_TYPE_SEM) {   /* Validate event block type                     */
    9e9c:	e0bffc17 	ldw	r2,-16(fp)
    9ea0:	10800003 	ldbu	r2,0(r2)
    9ea4:	10803fcc 	andi	r2,r2,255
    9ea8:	108000e0 	cmpeqi	r2,r2,3
    9eac:	1000041e 	bne	r2,zero,9ec0 <OSSemSet+0x5c>
        *perr = OS_ERR_EVENT_TYPE;
    9eb0:	e0bffa17 	ldw	r2,-24(fp)
    9eb4:	00c00044 	movi	r3,1
    9eb8:	10c00005 	stb	r3,0(r2)
        return;
    9ebc:	00002206 	br	9f48 <OSSemSet+0xe4>
  NIOS2_READ_STATUS (context);
    9ec0:	0005303a 	rdctl	r2,status
    9ec4:	e0bffe15 	stw	r2,-8(fp)
  NIOS2_WRITE_STATUS (context & ~NIOS2_STATUS_PIE_MSK);
    9ec8:	e0fffe17 	ldw	r3,-8(fp)
    9ecc:	00bfff84 	movi	r2,-2
    9ed0:	1884703a 	and	r2,r3,r2
    9ed4:	1001703a 	wrctl	status,r2
  return context;
    9ed8:	e0bffe17 	ldw	r2,-8(fp)
    }
    OS_ENTER_CRITICAL();
    9edc:	e0bfff15 	stw	r2,-4(fp)
    *perr = OS_ERR_NONE;
    9ee0:	e0bffa17 	ldw	r2,-24(fp)
    9ee4:	10000005 	stb	zero,0(r2)
    if (pevent->OSEventCnt > 0u) {                    /* See if semaphore already has a count          */
    9ee8:	e0bffc17 	ldw	r2,-16(fp)
    9eec:	1080020b 	ldhu	r2,8(r2)
    9ef0:	10bfffcc 	andi	r2,r2,65535
    9ef4:	10000426 	beq	r2,zero,9f08 <OSSemSet+0xa4>
        pevent->OSEventCnt = cnt;                     /* Yes, set it to the new value specified.       */
    9ef8:	e0bffc17 	ldw	r2,-16(fp)
    9efc:	e0fffb0b 	ldhu	r3,-20(fp)
    9f00:	10c0020d 	sth	r3,8(r2)
    9f04:	00000b06 	br	9f34 <OSSemSet+0xd0>
    } else {                                          /* No                                            */
        if (pevent->OSEventGrp == 0u) {               /*      See if task(s) waiting?                  */
    9f08:	e0bffc17 	ldw	r2,-16(fp)
    9f0c:	10800283 	ldbu	r2,10(r2)
    9f10:	10803fcc 	andi	r2,r2,255
    9f14:	1000041e 	bne	r2,zero,9f28 <OSSemSet+0xc4>
            pevent->OSEventCnt = cnt;                 /*      No, OK to set the value                  */
    9f18:	e0bffc17 	ldw	r2,-16(fp)
    9f1c:	e0fffb0b 	ldhu	r3,-20(fp)
    9f20:	10c0020d 	sth	r3,8(r2)
    9f24:	00000306 	br	9f34 <OSSemSet+0xd0>
        } else {
            *perr              = OS_ERR_TASK_WAITING;
    9f28:	e0bffa17 	ldw	r2,-24(fp)
    9f2c:	00c01244 	movi	r3,73
    9f30:	10c00005 	stb	r3,0(r2)
    9f34:	e0bfff17 	ldw	r2,-4(fp)
    9f38:	e0bffd15 	stw	r2,-12(fp)
  NIOS2_WRITE_STATUS (context);
    9f3c:	e0bffd17 	ldw	r2,-12(fp)
    9f40:	1001703a 	wrctl	status,r2
}
    9f44:	0001883a 	nop
        }
    }
    OS_EXIT_CRITICAL();
}
    9f48:	e037883a 	mov	sp,fp
    9f4c:	df000017 	ldw	fp,0(sp)
    9f50:	dec00104 	addi	sp,sp,4
    9f54:	f800283a 	ret

00009f58 <OSTaskChangePrio>:
*/

#if OS_TASK_CHANGE_PRIO_EN > 0u
INT8U  OSTaskChangePrio (INT8U  oldprio,
                         INT8U  newprio)
{
    9f58:	defff104 	addi	sp,sp,-60
    9f5c:	dfc00e15 	stw	ra,56(sp)
    9f60:	df000d15 	stw	fp,52(sp)
    9f64:	df000d04 	addi	fp,sp,52
    9f68:	2005883a 	mov	r2,r4
    9f6c:	2807883a 	mov	r3,r5
    9f70:	e0bff405 	stb	r2,-48(fp)
    9f74:	1805883a 	mov	r2,r3
    9f78:	e0bff305 	stb	r2,-52(fp)
    OS_PRIO    bity_new;
    OS_PRIO    bitx_new;
    OS_PRIO    bity_old;
    OS_PRIO    bitx_old;
#if OS_CRITICAL_METHOD == 3u
    OS_CPU_SR  cpu_sr = 0u;                                 /* Storage for CPU status register         */
    9f7c:	e03ffd15 	stw	zero,-12(fp)
#endif


#if OS_ARG_CHK_EN > 0u
    if (oldprio >= OS_LOWEST_PRIO) {
    9f80:	e0bff403 	ldbu	r2,-48(fp)
    9f84:	10800530 	cmpltui	r2,r2,20
    9f88:	1000051e 	bne	r2,zero,9fa0 <OSTaskChangePrio+0x48>
        if (oldprio != OS_PRIO_SELF) {
    9f8c:	e0bff403 	ldbu	r2,-48(fp)
    9f90:	10803fe0 	cmpeqi	r2,r2,255
    9f94:	1000021e 	bne	r2,zero,9fa0 <OSTaskChangePrio+0x48>
            return (OS_ERR_PRIO_INVALID);
    9f98:	00800a84 	movi	r2,42
    9f9c:	00011606 	br	a3f8 <OSTaskChangePrio+0x4a0>
        }
    }
    if (newprio >= OS_LOWEST_PRIO) {
    9fa0:	e0bff303 	ldbu	r2,-52(fp)
    9fa4:	10800530 	cmpltui	r2,r2,20
    9fa8:	1000021e 	bne	r2,zero,9fb4 <OSTaskChangePrio+0x5c>
        return (OS_ERR_PRIO_INVALID);
    9fac:	00800a84 	movi	r2,42
    9fb0:	00011106 	br	a3f8 <OSTaskChangePrio+0x4a0>
  NIOS2_READ_STATUS (context);
    9fb4:	0005303a 	rdctl	r2,status
    9fb8:	e0bff915 	stw	r2,-28(fp)
  NIOS2_WRITE_STATUS (context & ~NIOS2_STATUS_PIE_MSK);
    9fbc:	e0fff917 	ldw	r3,-28(fp)
    9fc0:	00bfff84 	movi	r2,-2
    9fc4:	1884703a 	and	r2,r3,r2
    9fc8:	1001703a 	wrctl	status,r2
  return context;
    9fcc:	e0bff917 	ldw	r2,-28(fp)
    }
#endif
    OS_ENTER_CRITICAL();
    9fd0:	e0bffd15 	stw	r2,-12(fp)
    if (OSTCBPrioTbl[newprio] != (OS_TCB *)0) {             /* New priority must not already exist     */
    9fd4:	e0bff303 	ldbu	r2,-52(fp)
    9fd8:	100690ba 	slli	r3,r2,2
    9fdc:	008000b4 	movhi	r2,2
    9fe0:	1885883a 	add	r2,r3,r2
    9fe4:	10a66817 	ldw	r2,-26208(r2)
    9fe8:	10000726 	beq	r2,zero,a008 <OSTaskChangePrio+0xb0>
    9fec:	e0bffd17 	ldw	r2,-12(fp)
    9ff0:	e0bff815 	stw	r2,-32(fp)
  NIOS2_WRITE_STATUS (context);
    9ff4:	e0bff817 	ldw	r2,-32(fp)
    9ff8:	1001703a 	wrctl	status,r2
}
    9ffc:	0001883a 	nop
        OS_EXIT_CRITICAL();
        return (OS_ERR_PRIO_EXIST);
    a000:	00800a04 	movi	r2,40
    a004:	0000fc06 	br	a3f8 <OSTaskChangePrio+0x4a0>
    }
    if (oldprio == OS_PRIO_SELF) {                          /* See if changing self                    */
    a008:	e0bff403 	ldbu	r2,-48(fp)
    a00c:	10803fd8 	cmpnei	r2,r2,255
    a010:	1000031e 	bne	r2,zero,a020 <OSTaskChangePrio+0xc8>
        oldprio = OSTCBCur->OSTCBPrio;                      /* Yes, get priority                       */
    a014:	d0ab4817 	ldw	r2,-21216(gp)
    a018:	10800e83 	ldbu	r2,58(r2)
    a01c:	e0bff405 	stb	r2,-48(fp)
    }
    ptcb = OSTCBPrioTbl[oldprio];
    a020:	e0bff403 	ldbu	r2,-48(fp)
    a024:	100690ba 	slli	r3,r2,2
    a028:	008000b4 	movhi	r2,2
    a02c:	1885883a 	add	r2,r3,r2
    a030:	10a66817 	ldw	r2,-26208(r2)
    a034:	e0bffc15 	stw	r2,-16(fp)
    if (ptcb == (OS_TCB *)0) {                              /* Does task to change exist?              */
    a038:	e0bffc17 	ldw	r2,-16(fp)
    a03c:	1000071e 	bne	r2,zero,a05c <OSTaskChangePrio+0x104>
    a040:	e0bffd17 	ldw	r2,-12(fp)
    a044:	e0bff715 	stw	r2,-36(fp)
  NIOS2_WRITE_STATUS (context);
    a048:	e0bff717 	ldw	r2,-36(fp)
    a04c:	1001703a 	wrctl	status,r2
}
    a050:	0001883a 	nop
        OS_EXIT_CRITICAL();                                 /* No, can't change its priority!          */
        return (OS_ERR_PRIO);
    a054:	00800a44 	movi	r2,41
    a058:	0000e706 	br	a3f8 <OSTaskChangePrio+0x4a0>
    }
    if (ptcb == OS_TCB_RESERVED) {                          /* Is task assigned to Mutex               */
    a05c:	e0bffc17 	ldw	r2,-16(fp)
    a060:	10800058 	cmpnei	r2,r2,1
    a064:	1000071e 	bne	r2,zero,a084 <OSTaskChangePrio+0x12c>
    a068:	e0bffd17 	ldw	r2,-12(fp)
    a06c:	e0bff615 	stw	r2,-40(fp)
  NIOS2_WRITE_STATUS (context);
    a070:	e0bff617 	ldw	r2,-40(fp)
    a074:	1001703a 	wrctl	status,r2
}
    a078:	0001883a 	nop
        OS_EXIT_CRITICAL();                                 /* No, can't change its priority!          */
        return (OS_ERR_TASK_NOT_EXIST);
    a07c:	008010c4 	movi	r2,67
    a080:	0000dd06 	br	a3f8 <OSTaskChangePrio+0x4a0>
    }
#if OS_LOWEST_PRIO <= 63u
    y_new                 = (INT8U)(newprio >> 3u);         /* Yes, compute new TCB fields             */
    a084:	e0bff303 	ldbu	r2,-52(fp)
    a088:	1004d0fa 	srli	r2,r2,3
    a08c:	e0bffbc5 	stb	r2,-17(fp)
    x_new                 = (INT8U)(newprio & 0x07u);
    a090:	e0bff303 	ldbu	r2,-52(fp)
    a094:	108001cc 	andi	r2,r2,7
    a098:	e0bffb85 	stb	r2,-18(fp)
#else
    y_new                 = (INT8U)((INT8U)(newprio >> 4u) & 0x0Fu);
    x_new                 = (INT8U)(newprio & 0x0Fu);
#endif
    bity_new              = (OS_PRIO)(1uL << y_new);
    a09c:	e0bffbc3 	ldbu	r2,-17(fp)
    a0a0:	00c00044 	movi	r3,1
    a0a4:	1884983a 	sll	r2,r3,r2
    a0a8:	e0bffb45 	stb	r2,-19(fp)
    bitx_new              = (OS_PRIO)(1uL << x_new);
    a0ac:	e0bffb83 	ldbu	r2,-18(fp)
    a0b0:	00c00044 	movi	r3,1
    a0b4:	1884983a 	sll	r2,r3,r2
    a0b8:	e0bffb05 	stb	r2,-20(fp)

    OSTCBPrioTbl[oldprio] = (OS_TCB *)0;                    /* Remove TCB from old priority            */
    a0bc:	e0bff403 	ldbu	r2,-48(fp)
    a0c0:	100690ba 	slli	r3,r2,2
    a0c4:	008000b4 	movhi	r2,2
    a0c8:	1885883a 	add	r2,r3,r2
    a0cc:	10266815 	stw	zero,-26208(r2)
    OSTCBPrioTbl[newprio] =  ptcb;                          /* Place pointer to TCB @ new priority     */
    a0d0:	e0bff303 	ldbu	r2,-52(fp)
    a0d4:	100890ba 	slli	r4,r2,2
    a0d8:	e0fffc17 	ldw	r3,-16(fp)
    a0dc:	008000b4 	movhi	r2,2
    a0e0:	2085883a 	add	r2,r4,r2
    a0e4:	10e66815 	stw	r3,-26208(r2)
    y_old                 =  ptcb->OSTCBY;
    a0e8:	e0bffc17 	ldw	r2,-16(fp)
    a0ec:	10800f03 	ldbu	r2,60(r2)
    a0f0:	e0bffac5 	stb	r2,-21(fp)
    bity_old              =  ptcb->OSTCBBitY;
    a0f4:	e0bffc17 	ldw	r2,-16(fp)
    a0f8:	10800f83 	ldbu	r2,62(r2)
    a0fc:	e0bffa85 	stb	r2,-22(fp)
    bitx_old              =  ptcb->OSTCBBitX;
    a100:	e0bffc17 	ldw	r2,-16(fp)
    a104:	10800f43 	ldbu	r2,61(r2)
    a108:	e0bffa45 	stb	r2,-23(fp)
    if ((OSRdyTbl[y_old] &   bitx_old) != 0u) {             /* If task is ready make it not            */
    a10c:	e0fffac3 	ldbu	r3,-21(fp)
    a110:	d0ab4584 	addi	r2,gp,-21226
    a114:	1885883a 	add	r2,r3,r2
    a118:	10800003 	ldbu	r2,0(r2)
    a11c:	e0fffa43 	ldbu	r3,-23(fp)
    a120:	1884703a 	and	r2,r3,r2
    a124:	10803fcc 	andi	r2,r2,255
    a128:	10002826 	beq	r2,zero,a1cc <OSTaskChangePrio+0x274>
         OSRdyTbl[y_old] &= (OS_PRIO)~bitx_old;
    a12c:	e0fffac3 	ldbu	r3,-21(fp)
    a130:	d0ab4584 	addi	r2,gp,-21226
    a134:	1885883a 	add	r2,r3,r2
    a138:	10800003 	ldbu	r2,0(r2)
    a13c:	e0fffa43 	ldbu	r3,-23(fp)
    a140:	00c6303a 	nor	r3,zero,r3
    a144:	1809883a 	mov	r4,r3
    a148:	e0fffac3 	ldbu	r3,-21(fp)
    a14c:	1104703a 	and	r2,r2,r4
    a150:	1009883a 	mov	r4,r2
    a154:	d0ab4584 	addi	r2,gp,-21226
    a158:	1885883a 	add	r2,r3,r2
    a15c:	11000005 	stb	r4,0(r2)
         if (OSRdyTbl[y_old] == 0u) {
    a160:	e0fffac3 	ldbu	r3,-21(fp)
    a164:	d0ab4584 	addi	r2,gp,-21226
    a168:	1885883a 	add	r2,r3,r2
    a16c:	10800003 	ldbu	r2,0(r2)
    a170:	10803fcc 	andi	r2,r2,255
    a174:	1000061e 	bne	r2,zero,a190 <OSTaskChangePrio+0x238>
             OSRdyGrp &= (OS_PRIO)~bity_old;
    a178:	e0bffa83 	ldbu	r2,-22(fp)
    a17c:	0084303a 	nor	r2,zero,r2
    a180:	1007883a 	mov	r3,r2
    a184:	d0ab4543 	ldbu	r2,-21227(gp)
    a188:	1884703a 	and	r2,r3,r2
    a18c:	d0ab4545 	stb	r2,-21227(gp)
         }
         OSRdyGrp        |= bity_new;                       /* Make new priority ready to run          */
    a190:	d0ab4543 	ldbu	r2,-21227(gp)
    a194:	e0fffb43 	ldbu	r3,-19(fp)
    a198:	1884b03a 	or	r2,r3,r2
    a19c:	d0ab4545 	stb	r2,-21227(gp)
         OSRdyTbl[y_new] |= bitx_new;
    a1a0:	e0fffbc3 	ldbu	r3,-17(fp)
    a1a4:	d0ab4584 	addi	r2,gp,-21226
    a1a8:	1885883a 	add	r2,r3,r2
    a1ac:	10800003 	ldbu	r2,0(r2)
    a1b0:	e0fffbc3 	ldbu	r3,-17(fp)
    a1b4:	e13ffb03 	ldbu	r4,-20(fp)
    a1b8:	2084b03a 	or	r2,r4,r2
    a1bc:	1009883a 	mov	r4,r2
    a1c0:	d0ab4584 	addi	r2,gp,-21226
    a1c4:	1885883a 	add	r2,r3,r2
    a1c8:	11000005 	stb	r4,0(r2)
         OS_TRACE_TASK_READY(ptcb);
    }

#if (OS_EVENT_EN)
    pevent = ptcb->OSTCBEventPtr;
    a1cc:	e0bffc17 	ldw	r2,-16(fp)
    a1d0:	10800717 	ldw	r2,28(r2)
    a1d4:	e0bfff15 	stw	r2,-4(fp)
    if (pevent != (OS_EVENT *)0) {
    a1d8:	e0bfff17 	ldw	r2,-4(fp)
    a1dc:	10002d26 	beq	r2,zero,a294 <OSTaskChangePrio+0x33c>
        pevent->OSEventTbl[y_old] &= (OS_PRIO)~bitx_old;    /* Remove old task prio from wait list     */
    a1e0:	e0bffac3 	ldbu	r2,-21(fp)
    a1e4:	e0ffff17 	ldw	r3,-4(fp)
    a1e8:	1885883a 	add	r2,r3,r2
    a1ec:	10c002c3 	ldbu	r3,11(r2)
    a1f0:	e0bffa43 	ldbu	r2,-23(fp)
    a1f4:	0084303a 	nor	r2,zero,r2
    a1f8:	1009883a 	mov	r4,r2
    a1fc:	e0bffac3 	ldbu	r2,-21(fp)
    a200:	1906703a 	and	r3,r3,r4
    a204:	1809883a 	mov	r4,r3
    a208:	e0ffff17 	ldw	r3,-4(fp)
    a20c:	1885883a 	add	r2,r3,r2
    a210:	110002c5 	stb	r4,11(r2)
        if (pevent->OSEventTbl[y_old] == 0u) {
    a214:	e0bffac3 	ldbu	r2,-21(fp)
    a218:	e0ffff17 	ldw	r3,-4(fp)
    a21c:	1885883a 	add	r2,r3,r2
    a220:	108002c3 	ldbu	r2,11(r2)
    a224:	10803fcc 	andi	r2,r2,255
    a228:	1000081e 	bne	r2,zero,a24c <OSTaskChangePrio+0x2f4>
            pevent->OSEventGrp    &= (OS_PRIO)~bity_old;
    a22c:	e0bfff17 	ldw	r2,-4(fp)
    a230:	10800283 	ldbu	r2,10(r2)
    a234:	e0fffa83 	ldbu	r3,-22(fp)
    a238:	00c6303a 	nor	r3,zero,r3
    a23c:	10c4703a 	and	r2,r2,r3
    a240:	1007883a 	mov	r3,r2
    a244:	e0bfff17 	ldw	r2,-4(fp)
    a248:	10c00285 	stb	r3,10(r2)
        }
        pevent->OSEventGrp        |= bity_new;              /* Add    new task prio to   wait list     */
    a24c:	e0bfff17 	ldw	r2,-4(fp)
    a250:	10800283 	ldbu	r2,10(r2)
    a254:	e0fffb43 	ldbu	r3,-19(fp)
    a258:	1884b03a 	or	r2,r3,r2
    a25c:	1007883a 	mov	r3,r2
    a260:	e0bfff17 	ldw	r2,-4(fp)
    a264:	10c00285 	stb	r3,10(r2)
        pevent->OSEventTbl[y_new] |= bitx_new;
    a268:	e0bffbc3 	ldbu	r2,-17(fp)
    a26c:	e0ffff17 	ldw	r3,-4(fp)
    a270:	1885883a 	add	r2,r3,r2
    a274:	10c002c3 	ldbu	r3,11(r2)
    a278:	e0bffbc3 	ldbu	r2,-17(fp)
    a27c:	e13ffb03 	ldbu	r4,-20(fp)
    a280:	20c6b03a 	or	r3,r4,r3
    a284:	1809883a 	mov	r4,r3
    a288:	e0ffff17 	ldw	r3,-4(fp)
    a28c:	1885883a 	add	r2,r3,r2
    a290:	110002c5 	stb	r4,11(r2)
    }
#if (OS_EVENT_MULTI_EN > 0u)
    if (ptcb->OSTCBEventMultiPtr != (OS_EVENT **)0) {
    a294:	e0bffc17 	ldw	r2,-16(fp)
    a298:	10800817 	ldw	r2,32(r2)
    a29c:	10003c26 	beq	r2,zero,a390 <OSTaskChangePrio+0x438>
        pevents =  ptcb->OSTCBEventMultiPtr;
    a2a0:	e0bffc17 	ldw	r2,-16(fp)
    a2a4:	10800817 	ldw	r2,32(r2)
    a2a8:	e0bffe15 	stw	r2,-8(fp)
        pevent  = *pevents;
    a2ac:	e0bffe17 	ldw	r2,-8(fp)
    a2b0:	10800017 	ldw	r2,0(r2)
    a2b4:	e0bfff15 	stw	r2,-4(fp)
        while (pevent != (OS_EVENT *)0) {
    a2b8:	00003306 	br	a388 <OSTaskChangePrio+0x430>
            pevent->OSEventTbl[y_old] &= (OS_PRIO)~bitx_old;   /* Remove old task prio from wait lists */
    a2bc:	e0bffac3 	ldbu	r2,-21(fp)
    a2c0:	e0ffff17 	ldw	r3,-4(fp)
    a2c4:	1885883a 	add	r2,r3,r2
    a2c8:	10c002c3 	ldbu	r3,11(r2)
    a2cc:	e0bffa43 	ldbu	r2,-23(fp)
    a2d0:	0084303a 	nor	r2,zero,r2
    a2d4:	1009883a 	mov	r4,r2
    a2d8:	e0bffac3 	ldbu	r2,-21(fp)
    a2dc:	1906703a 	and	r3,r3,r4
    a2e0:	1809883a 	mov	r4,r3
    a2e4:	e0ffff17 	ldw	r3,-4(fp)
    a2e8:	1885883a 	add	r2,r3,r2
    a2ec:	110002c5 	stb	r4,11(r2)
            if (pevent->OSEventTbl[y_old] == 0u) {
    a2f0:	e0bffac3 	ldbu	r2,-21(fp)
    a2f4:	e0ffff17 	ldw	r3,-4(fp)
    a2f8:	1885883a 	add	r2,r3,r2
    a2fc:	108002c3 	ldbu	r2,11(r2)
    a300:	10803fcc 	andi	r2,r2,255
    a304:	1000081e 	bne	r2,zero,a328 <OSTaskChangePrio+0x3d0>
                pevent->OSEventGrp    &= (OS_PRIO)~bity_old;
    a308:	e0bfff17 	ldw	r2,-4(fp)
    a30c:	10800283 	ldbu	r2,10(r2)
    a310:	e0fffa83 	ldbu	r3,-22(fp)
    a314:	00c6303a 	nor	r3,zero,r3
    a318:	10c4703a 	and	r2,r2,r3
    a31c:	1007883a 	mov	r3,r2
    a320:	e0bfff17 	ldw	r2,-4(fp)
    a324:	10c00285 	stb	r3,10(r2)
            }
            pevent->OSEventGrp        |= bity_new;          /* Add    new task prio to   wait lists    */
    a328:	e0bfff17 	ldw	r2,-4(fp)
    a32c:	10800283 	ldbu	r2,10(r2)
    a330:	e0fffb43 	ldbu	r3,-19(fp)
    a334:	1884b03a 	or	r2,r3,r2
    a338:	1007883a 	mov	r3,r2
    a33c:	e0bfff17 	ldw	r2,-4(fp)
    a340:	10c00285 	stb	r3,10(r2)
            pevent->OSEventTbl[y_new] |= bitx_new;
    a344:	e0bffbc3 	ldbu	r2,-17(fp)
    a348:	e0ffff17 	ldw	r3,-4(fp)
    a34c:	1885883a 	add	r2,r3,r2
    a350:	10c002c3 	ldbu	r3,11(r2)
    a354:	e0bffbc3 	ldbu	r2,-17(fp)
    a358:	e13ffb03 	ldbu	r4,-20(fp)
    a35c:	20c6b03a 	or	r3,r4,r3
    a360:	1809883a 	mov	r4,r3
    a364:	e0ffff17 	ldw	r3,-4(fp)
    a368:	1885883a 	add	r2,r3,r2
    a36c:	110002c5 	stb	r4,11(r2)
            pevents++;
    a370:	e0bffe17 	ldw	r2,-8(fp)
    a374:	10800104 	addi	r2,r2,4
    a378:	e0bffe15 	stw	r2,-8(fp)
            pevent                     = *pevents;
    a37c:	e0bffe17 	ldw	r2,-8(fp)
    a380:	10800017 	ldw	r2,0(r2)
    a384:	e0bfff15 	stw	r2,-4(fp)
        while (pevent != (OS_EVENT *)0) {
    a388:	e0bfff17 	ldw	r2,-4(fp)
    a38c:	103fcb1e 	bne	r2,zero,a2bc <OSTaskChangePrio+0x364>
        }
    }
#endif
#endif

    ptcb->OSTCBPrio = newprio;                              /* Set new task priority                   */
    a390:	e0bffc17 	ldw	r2,-16(fp)
    a394:	e0fff303 	ldbu	r3,-52(fp)
    a398:	10c00e85 	stb	r3,58(r2)
    ptcb->OSTCBY    = y_new;
    a39c:	e0bffc17 	ldw	r2,-16(fp)
    a3a0:	e0fffbc3 	ldbu	r3,-17(fp)
    a3a4:	10c00f05 	stb	r3,60(r2)
    ptcb->OSTCBX    = x_new;
    a3a8:	e0bffc17 	ldw	r2,-16(fp)
    a3ac:	e0fffb83 	ldbu	r3,-18(fp)
    a3b0:	10c00ec5 	stb	r3,59(r2)
    ptcb->OSTCBBitY = bity_new;
    a3b4:	e0bffc17 	ldw	r2,-16(fp)
    a3b8:	e0fffb43 	ldbu	r3,-19(fp)
    a3bc:	10c00f85 	stb	r3,62(r2)
    ptcb->OSTCBBitX = bitx_new;
    a3c0:	e0bffc17 	ldw	r2,-16(fp)
    a3c4:	e0fffb03 	ldbu	r3,-20(fp)
    a3c8:	10c00f45 	stb	r3,61(r2)
    a3cc:	e0bffd17 	ldw	r2,-12(fp)
    a3d0:	e0bff515 	stw	r2,-44(fp)
  NIOS2_WRITE_STATUS (context);
    a3d4:	e0bff517 	ldw	r2,-44(fp)
    a3d8:	1001703a 	wrctl	status,r2
}
    a3dc:	0001883a 	nop
    OS_EXIT_CRITICAL();
    if (OSRunning == OS_TRUE) {
    a3e0:	d0ab4643 	ldbu	r2,-21223(gp)
    a3e4:	10803fcc 	andi	r2,r2,255
    a3e8:	10800058 	cmpnei	r2,r2,1
    a3ec:	1000011e 	bne	r2,zero,a3f4 <OSTaskChangePrio+0x49c>
        OS_Sched();                                         /* Find new highest priority task          */
    a3f0:	0005c980 	call	5c98 <OS_Sched>
    }
    return (OS_ERR_NONE);
    a3f4:	0005883a 	mov	r2,zero
}
    a3f8:	e037883a 	mov	sp,fp
    a3fc:	dfc00117 	ldw	ra,4(sp)
    a400:	df000017 	ldw	fp,0(sp)
    a404:	dec00204 	addi	sp,sp,8
    a408:	f800283a 	ret

0000a40c <OSTaskCreate>:
#if OS_TASK_CREATE_EN > 0u
INT8U  OSTaskCreate (void   (*task)(void *p_arg),
                     void    *p_arg,
                     OS_STK  *ptos,
                     INT8U    prio)
{
    a40c:	deffee04 	addi	sp,sp,-72
    a410:	dfc01115 	stw	ra,68(sp)
    a414:	df001015 	stw	fp,64(sp)
    a418:	df001004 	addi	fp,sp,64
    a41c:	e13ff615 	stw	r4,-40(fp)
    a420:	e17ff515 	stw	r5,-44(fp)
    a424:	e1bff415 	stw	r6,-48(fp)
    a428:	3805883a 	mov	r2,r7
    a42c:	e0bff305 	stb	r2,-52(fp)
    OS_STK     *psp;
    INT8U       err;
#if OS_CRITICAL_METHOD == 3u                 /* Allocate storage for CPU status register               */
    OS_CPU_SR   cpu_sr = 0u;
    a430:	e03fff15 	stw	zero,-4(fp)
        return (OS_ERR_ILLEGAL_CREATE_RUN_TIME);
    }
#endif

#if OS_ARG_CHK_EN > 0u
    if (prio > OS_LOWEST_PRIO) {             /* Make sure priority is within allowable range           */
    a434:	e0bff303 	ldbu	r2,-52(fp)
    a438:	10800570 	cmpltui	r2,r2,21
    a43c:	1000021e 	bne	r2,zero,a448 <OSTaskCreate+0x3c>
        return (OS_ERR_PRIO_INVALID);
    a440:	00800a84 	movi	r2,42
    a444:	00005506 	br	a59c <OSTaskCreate+0x190>
  NIOS2_READ_STATUS (context);
    a448:	0005303a 	rdctl	r2,status
    a44c:	e0bffc15 	stw	r2,-16(fp)
  NIOS2_WRITE_STATUS (context & ~NIOS2_STATUS_PIE_MSK);
    a450:	e0fffc17 	ldw	r3,-16(fp)
    a454:	00bfff84 	movi	r2,-2
    a458:	1884703a 	and	r2,r3,r2
    a45c:	1001703a 	wrctl	status,r2
  return context;
    a460:	e0bffc17 	ldw	r2,-16(fp)
    }
#endif
    OS_ENTER_CRITICAL();
    a464:	e0bfff15 	stw	r2,-4(fp)
    if (OSIntNesting > 0u) {                 /* Make sure we don't create the task from within an ISR  */
    a468:	d0ab4443 	ldbu	r2,-21231(gp)
    a46c:	10803fcc 	andi	r2,r2,255
    a470:	10000726 	beq	r2,zero,a490 <OSTaskCreate+0x84>
    a474:	e0bfff17 	ldw	r2,-4(fp)
    a478:	e0bffb15 	stw	r2,-20(fp)
  NIOS2_WRITE_STATUS (context);
    a47c:	e0bffb17 	ldw	r2,-20(fp)
    a480:	1001703a 	wrctl	status,r2
}
    a484:	0001883a 	nop
        OS_EXIT_CRITICAL();
        return (OS_ERR_TASK_CREATE_ISR);
    a488:	00800f04 	movi	r2,60
    a48c:	00004306 	br	a59c <OSTaskCreate+0x190>
    }
    if (OSTCBPrioTbl[prio] == (OS_TCB *)0) { /* Make sure task doesn't already exist at this priority  */
    a490:	e0bff303 	ldbu	r2,-52(fp)
    a494:	100690ba 	slli	r3,r2,2
    a498:	008000b4 	movhi	r2,2
    a49c:	1885883a 	add	r2,r3,r2
    a4a0:	10a66817 	ldw	r2,-26208(r2)
    a4a4:	1000371e 	bne	r2,zero,a584 <OSTaskCreate+0x178>
        OSTCBPrioTbl[prio] = OS_TCB_RESERVED;/* Reserve the priority to prevent others from doing ...  */
    a4a8:	e0bff303 	ldbu	r2,-52(fp)
    a4ac:	100890ba 	slli	r4,r2,2
    a4b0:	00c00044 	movi	r3,1
    a4b4:	008000b4 	movhi	r2,2
    a4b8:	2085883a 	add	r2,r4,r2
    a4bc:	10e66815 	stw	r3,-26208(r2)
    a4c0:	e0bfff17 	ldw	r2,-4(fp)
    a4c4:	e0bffa15 	stw	r2,-24(fp)
  NIOS2_WRITE_STATUS (context);
    a4c8:	e0bffa17 	ldw	r2,-24(fp)
    a4cc:	1001703a 	wrctl	status,r2
}
    a4d0:	0001883a 	nop
                                             /* ... the same thing until task is created.              */
        OS_EXIT_CRITICAL();
        psp = OSTaskStkInit(task, p_arg, ptos, 0u);             /* Initialize the task's stack         */
    a4d4:	000f883a 	mov	r7,zero
    a4d8:	e1bff417 	ldw	r6,-48(fp)
    a4dc:	e17ff517 	ldw	r5,-44(fp)
    a4e0:	e13ff617 	ldw	r4,-40(fp)
    a4e4:	000de6c0 	call	de6c <OSTaskStkInit>
    a4e8:	e0bffe15 	stw	r2,-8(fp)
        err = OS_TCBInit(prio, psp, (OS_STK *)0, 0u, 0u, (void *)0, 0u);
    a4ec:	e0bff303 	ldbu	r2,-52(fp)
    a4f0:	d8000215 	stw	zero,8(sp)
    a4f4:	d8000115 	stw	zero,4(sp)
    a4f8:	d8000015 	stw	zero,0(sp)
    a4fc:	000f883a 	mov	r7,zero
    a500:	000d883a 	mov	r6,zero
    a504:	e17ffe17 	ldw	r5,-8(fp)
    a508:	1009883a 	mov	r4,r2
    a50c:	00060d00 	call	60d0 <OS_TCBInit>
    a510:	e0bffdc5 	stb	r2,-9(fp)
        if (err == OS_ERR_NONE) {
    a514:	e0bffdc3 	ldbu	r2,-9(fp)
    a518:	1000061e 	bne	r2,zero,a534 <OSTaskCreate+0x128>
            OS_TRACE_TASK_CREATE(OSTCBPrioTbl[prio]);
            if (OSRunning == OS_TRUE) {      /* Find highest priority task if multitasking has started */
    a51c:	d0ab4643 	ldbu	r2,-21223(gp)
    a520:	10803fcc 	andi	r2,r2,255
    a524:	10800058 	cmpnei	r2,r2,1
    a528:	1000141e 	bne	r2,zero,a57c <OSTaskCreate+0x170>
                OS_Sched();
    a52c:	0005c980 	call	5c98 <OS_Sched>
    a530:	00001206 	br	a57c <OSTaskCreate+0x170>
  NIOS2_READ_STATUS (context);
    a534:	0005303a 	rdctl	r2,status
    a538:	e0bff815 	stw	r2,-32(fp)
  NIOS2_WRITE_STATUS (context & ~NIOS2_STATUS_PIE_MSK);
    a53c:	e0fff817 	ldw	r3,-32(fp)
    a540:	00bfff84 	movi	r2,-2
    a544:	1884703a 	and	r2,r3,r2
    a548:	1001703a 	wrctl	status,r2
  return context;
    a54c:	e0bff817 	ldw	r2,-32(fp)
            }
        } else {
            OS_TRACE_TASK_CREATE_FAILED(OSTCBPrioTbl[prio]);
            OS_ENTER_CRITICAL();
    a550:	e0bfff15 	stw	r2,-4(fp)
            OSTCBPrioTbl[prio] = (OS_TCB *)0;/* Make this priority available to others                 */
    a554:	e0bff303 	ldbu	r2,-52(fp)
    a558:	100690ba 	slli	r3,r2,2
    a55c:	008000b4 	movhi	r2,2
    a560:	1885883a 	add	r2,r3,r2
    a564:	10266815 	stw	zero,-26208(r2)
    a568:	e0bfff17 	ldw	r2,-4(fp)
    a56c:	e0bff915 	stw	r2,-28(fp)
  NIOS2_WRITE_STATUS (context);
    a570:	e0bff917 	ldw	r2,-28(fp)
    a574:	1001703a 	wrctl	status,r2
}
    a578:	0001883a 	nop
            OS_EXIT_CRITICAL();
        }
        return (err);
    a57c:	e0bffdc3 	ldbu	r2,-9(fp)
    a580:	00000606 	br	a59c <OSTaskCreate+0x190>
    a584:	e0bfff17 	ldw	r2,-4(fp)
    a588:	e0bff715 	stw	r2,-36(fp)
  NIOS2_WRITE_STATUS (context);
    a58c:	e0bff717 	ldw	r2,-36(fp)
    a590:	1001703a 	wrctl	status,r2
}
    a594:	0001883a 	nop
    }
    OS_EXIT_CRITICAL();
    return (OS_ERR_PRIO_EXIST);
    a598:	00800a04 	movi	r2,40
}
    a59c:	e037883a 	mov	sp,fp
    a5a0:	dfc00117 	ldw	ra,4(sp)
    a5a4:	df000017 	ldw	fp,0(sp)
    a5a8:	dec00204 	addi	sp,sp,8
    a5ac:	f800283a 	ret

0000a5b0 <OSTaskCreateExt>:
                        INT16U   id,
                        OS_STK  *pbos,
                        INT32U   stk_size,
                        void    *pext,
                        INT16U   opt)
{
    a5b0:	deffec04 	addi	sp,sp,-80
    a5b4:	dfc01315 	stw	ra,76(sp)
    a5b8:	df001215 	stw	fp,72(sp)
    a5bc:	df001204 	addi	fp,sp,72
    a5c0:	e13ff615 	stw	r4,-40(fp)
    a5c4:	e17ff515 	stw	r5,-44(fp)
    a5c8:	e1bff415 	stw	r6,-48(fp)
    a5cc:	3809883a 	mov	r4,r7
    a5d0:	e0c00217 	ldw	r3,8(fp)
    a5d4:	e0800617 	ldw	r2,24(fp)
    a5d8:	e13ff305 	stb	r4,-52(fp)
    a5dc:	e0fff20d 	sth	r3,-56(fp)
    a5e0:	e0bff10d 	sth	r2,-60(fp)
    OS_STK     *psp;
    INT8U       err;
#if OS_CRITICAL_METHOD == 3u                 /* Allocate storage for CPU status register               */
    OS_CPU_SR   cpu_sr = 0u;
    a5e4:	e03fff15 	stw	zero,-4(fp)
        return (OS_ERR_ILLEGAL_CREATE_RUN_TIME);
    }
#endif

#if OS_ARG_CHK_EN > 0u
    if (prio > OS_LOWEST_PRIO) {             /* Make sure priority is within allowable range           */
    a5e8:	e0bff303 	ldbu	r2,-52(fp)
    a5ec:	10800570 	cmpltui	r2,r2,21
    a5f0:	1000021e 	bne	r2,zero,a5fc <OSTaskCreateExt+0x4c>
        return (OS_ERR_PRIO_INVALID);
    a5f4:	00800a84 	movi	r2,42
    a5f8:	00005f06 	br	a778 <OSTaskCreateExt+0x1c8>
  NIOS2_READ_STATUS (context);
    a5fc:	0005303a 	rdctl	r2,status
    a600:	e0bffc15 	stw	r2,-16(fp)
  NIOS2_WRITE_STATUS (context & ~NIOS2_STATUS_PIE_MSK);
    a604:	e0fffc17 	ldw	r3,-16(fp)
    a608:	00bfff84 	movi	r2,-2
    a60c:	1884703a 	and	r2,r3,r2
    a610:	1001703a 	wrctl	status,r2
  return context;
    a614:	e0bffc17 	ldw	r2,-16(fp)
    }
#endif
    OS_ENTER_CRITICAL();
    a618:	e0bfff15 	stw	r2,-4(fp)
    if (OSIntNesting > 0u) {                 /* Make sure we don't create the task from within an ISR  */
    a61c:	d0ab4443 	ldbu	r2,-21231(gp)
    a620:	10803fcc 	andi	r2,r2,255
    a624:	10000726 	beq	r2,zero,a644 <OSTaskCreateExt+0x94>
    a628:	e0bfff17 	ldw	r2,-4(fp)
    a62c:	e0bffb15 	stw	r2,-20(fp)
  NIOS2_WRITE_STATUS (context);
    a630:	e0bffb17 	ldw	r2,-20(fp)
    a634:	1001703a 	wrctl	status,r2
}
    a638:	0001883a 	nop
        OS_EXIT_CRITICAL();
        return (OS_ERR_TASK_CREATE_ISR);
    a63c:	00800f04 	movi	r2,60
    a640:	00004d06 	br	a778 <OSTaskCreateExt+0x1c8>
    }
    if (OSTCBPrioTbl[prio] == (OS_TCB *)0) { /* Make sure task doesn't already exist at this priority  */
    a644:	e0bff303 	ldbu	r2,-52(fp)
    a648:	100690ba 	slli	r3,r2,2
    a64c:	008000b4 	movhi	r2,2
    a650:	1885883a 	add	r2,r3,r2
    a654:	10a66817 	ldw	r2,-26208(r2)
    a658:	1000411e 	bne	r2,zero,a760 <OSTaskCreateExt+0x1b0>
        OSTCBPrioTbl[prio] = OS_TCB_RESERVED;/* Reserve the priority to prevent others from doing ...  */
    a65c:	e0bff303 	ldbu	r2,-52(fp)
    a660:	100890ba 	slli	r4,r2,2
    a664:	00c00044 	movi	r3,1
    a668:	008000b4 	movhi	r2,2
    a66c:	2085883a 	add	r2,r4,r2
    a670:	10e66815 	stw	r3,-26208(r2)
    a674:	e0bfff17 	ldw	r2,-4(fp)
    a678:	e0bffa15 	stw	r2,-24(fp)
  NIOS2_WRITE_STATUS (context);
    a67c:	e0bffa17 	ldw	r2,-24(fp)
    a680:	1001703a 	wrctl	status,r2
}
    a684:	0001883a 	nop
                                             /* ... the same thing until task is created.              */
        OS_EXIT_CRITICAL();

#if (OS_TASK_STAT_STK_CHK_EN > 0u)
        OS_TaskStkClr(pbos, stk_size, opt);                    /* Clear the task stack (if needed)     */
    a688:	e0bff10b 	ldhu	r2,-60(fp)
    a68c:	100d883a 	mov	r6,r2
    a690:	e1400417 	ldw	r5,16(fp)
    a694:	e1000317 	ldw	r4,12(fp)
    a698:	000b8c00 	call	b8c0 <OS_TaskStkClr>
#endif

        psp = OSTaskStkInit(task, p_arg, ptos, opt);           /* Initialize the task's stack          */
    a69c:	e0bff10b 	ldhu	r2,-60(fp)
    a6a0:	100f883a 	mov	r7,r2
    a6a4:	e1bff417 	ldw	r6,-48(fp)
    a6a8:	e17ff517 	ldw	r5,-44(fp)
    a6ac:	e13ff617 	ldw	r4,-40(fp)
    a6b0:	000de6c0 	call	de6c <OSTaskStkInit>
    a6b4:	e0bffe15 	stw	r2,-8(fp)
        err = OS_TCBInit(prio, psp, pbos, id, stk_size, pext, opt);
    a6b8:	e0fff303 	ldbu	r3,-52(fp)
    a6bc:	e13ff20b 	ldhu	r4,-56(fp)
    a6c0:	e0bff10b 	ldhu	r2,-60(fp)
    a6c4:	d8800215 	stw	r2,8(sp)
    a6c8:	e0800517 	ldw	r2,20(fp)
    a6cc:	d8800115 	stw	r2,4(sp)
    a6d0:	e0800417 	ldw	r2,16(fp)
    a6d4:	d8800015 	stw	r2,0(sp)
    a6d8:	200f883a 	mov	r7,r4
    a6dc:	e1800317 	ldw	r6,12(fp)
    a6e0:	e17ffe17 	ldw	r5,-8(fp)
    a6e4:	1809883a 	mov	r4,r3
    a6e8:	00060d00 	call	60d0 <OS_TCBInit>
    a6ec:	e0bffdc5 	stb	r2,-9(fp)
        if (err == OS_ERR_NONE) {
    a6f0:	e0bffdc3 	ldbu	r2,-9(fp)
    a6f4:	1000061e 	bne	r2,zero,a710 <OSTaskCreateExt+0x160>
            OS_TRACE_TASK_CREATE(OSTCBPrioTbl[prio]);
            if (OSRunning == OS_TRUE) {                        /* Find HPT if multitasking has started */
    a6f8:	d0ab4643 	ldbu	r2,-21223(gp)
    a6fc:	10803fcc 	andi	r2,r2,255
    a700:	10800058 	cmpnei	r2,r2,1
    a704:	1000141e 	bne	r2,zero,a758 <OSTaskCreateExt+0x1a8>
                OS_Sched();
    a708:	0005c980 	call	5c98 <OS_Sched>
    a70c:	00001206 	br	a758 <OSTaskCreateExt+0x1a8>
  NIOS2_READ_STATUS (context);
    a710:	0005303a 	rdctl	r2,status
    a714:	e0bff815 	stw	r2,-32(fp)
  NIOS2_WRITE_STATUS (context & ~NIOS2_STATUS_PIE_MSK);
    a718:	e0fff817 	ldw	r3,-32(fp)
    a71c:	00bfff84 	movi	r2,-2
    a720:	1884703a 	and	r2,r3,r2
    a724:	1001703a 	wrctl	status,r2
  return context;
    a728:	e0bff817 	ldw	r2,-32(fp)
            }
        } else {
            OS_ENTER_CRITICAL();
    a72c:	e0bfff15 	stw	r2,-4(fp)
            OSTCBPrioTbl[prio] = (OS_TCB *)0;                  /* Make this priority avail. to others  */
    a730:	e0bff303 	ldbu	r2,-52(fp)
    a734:	100690ba 	slli	r3,r2,2
    a738:	008000b4 	movhi	r2,2
    a73c:	1885883a 	add	r2,r3,r2
    a740:	10266815 	stw	zero,-26208(r2)
    a744:	e0bfff17 	ldw	r2,-4(fp)
    a748:	e0bff915 	stw	r2,-28(fp)
  NIOS2_WRITE_STATUS (context);
    a74c:	e0bff917 	ldw	r2,-28(fp)
    a750:	1001703a 	wrctl	status,r2
}
    a754:	0001883a 	nop
            OS_EXIT_CRITICAL();
        }
        return (err);
    a758:	e0bffdc3 	ldbu	r2,-9(fp)
    a75c:	00000606 	br	a778 <OSTaskCreateExt+0x1c8>
    a760:	e0bfff17 	ldw	r2,-4(fp)
    a764:	e0bff715 	stw	r2,-36(fp)
  NIOS2_WRITE_STATUS (context);
    a768:	e0bff717 	ldw	r2,-36(fp)
    a76c:	1001703a 	wrctl	status,r2
}
    a770:	0001883a 	nop
    }
    OS_EXIT_CRITICAL();
    return (OS_ERR_PRIO_EXIST);
    a774:	00800a04 	movi	r2,40
}
    a778:	e037883a 	mov	sp,fp
    a77c:	dfc00117 	ldw	ra,4(sp)
    a780:	df000017 	ldw	fp,0(sp)
    a784:	dec00204 	addi	sp,sp,8
    a788:	f800283a 	ret

0000a78c <OSTaskDel>:
*********************************************************************************************************
*/

#if OS_TASK_DEL_EN > 0u
INT8U  OSTaskDel (INT8U prio)
{
    a78c:	defff404 	addi	sp,sp,-48
    a790:	dfc00b15 	stw	ra,44(sp)
    a794:	df000a15 	stw	fp,40(sp)
    a798:	df000a04 	addi	fp,sp,40
    a79c:	2005883a 	mov	r2,r4
    a7a0:	e0bff605 	stb	r2,-40(fp)
#if (OS_FLAG_EN > 0u) && (OS_MAX_FLAGS > 0u)
    OS_FLAG_NODE *pnode;
#endif
    OS_TCB       *ptcb;
#if OS_CRITICAL_METHOD == 3u                            /* Allocate storage for CPU status register    */
    OS_CPU_SR     cpu_sr = 0u;
    a7a4:	e03fff15 	stw	zero,-4(fp)
        OS_SAFETY_CRITICAL_EXCEPTION();
        return (OS_ERR_ILLEGAL_DEL_RUN_TIME);
    }
#endif

    if (OSIntNesting > 0u) {                            /* See if trying to delete from ISR            */
    a7a8:	d0ab4443 	ldbu	r2,-21231(gp)
    a7ac:	10803fcc 	andi	r2,r2,255
    a7b0:	10000226 	beq	r2,zero,a7bc <OSTaskDel+0x30>
        return (OS_ERR_TASK_DEL_ISR);
    a7b4:	00801004 	movi	r2,64
    a7b8:	0000bf06 	br	aab8 <OSTaskDel+0x32c>
    }
    if (prio == OS_TASK_IDLE_PRIO) {                    /* Not allowed to delete idle task             */
    a7bc:	e0bff603 	ldbu	r2,-40(fp)
    a7c0:	10800518 	cmpnei	r2,r2,20
    a7c4:	1000021e 	bne	r2,zero,a7d0 <OSTaskDel+0x44>
        return (OS_ERR_TASK_DEL_IDLE);
    a7c8:	00800f84 	movi	r2,62
    a7cc:	0000ba06 	br	aab8 <OSTaskDel+0x32c>
    }
#if OS_ARG_CHK_EN > 0u
    if (prio >= OS_LOWEST_PRIO) {                       /* Task priority valid ?                       */
    a7d0:	e0bff603 	ldbu	r2,-40(fp)
    a7d4:	10800530 	cmpltui	r2,r2,20
    a7d8:	1000051e 	bne	r2,zero,a7f0 <OSTaskDel+0x64>
        if (prio != OS_PRIO_SELF) {
    a7dc:	e0bff603 	ldbu	r2,-40(fp)
    a7e0:	10803fe0 	cmpeqi	r2,r2,255
    a7e4:	1000021e 	bne	r2,zero,a7f0 <OSTaskDel+0x64>
            return (OS_ERR_PRIO_INVALID);
    a7e8:	00800a84 	movi	r2,42
    a7ec:	0000b206 	br	aab8 <OSTaskDel+0x32c>
  NIOS2_READ_STATUS (context);
    a7f0:	0005303a 	rdctl	r2,status
    a7f4:	e0bffc15 	stw	r2,-16(fp)
  NIOS2_WRITE_STATUS (context & ~NIOS2_STATUS_PIE_MSK);
    a7f8:	e0fffc17 	ldw	r3,-16(fp)
    a7fc:	00bfff84 	movi	r2,-2
    a800:	1884703a 	and	r2,r3,r2
    a804:	1001703a 	wrctl	status,r2
  return context;
    a808:	e0bffc17 	ldw	r2,-16(fp)
        }
    }
#endif

    OS_ENTER_CRITICAL();
    a80c:	e0bfff15 	stw	r2,-4(fp)
    if (prio == OS_PRIO_SELF) {                         /* See if requesting to delete self            */
    a810:	e0bff603 	ldbu	r2,-40(fp)
    a814:	10803fd8 	cmpnei	r2,r2,255
    a818:	1000031e 	bne	r2,zero,a828 <OSTaskDel+0x9c>
        prio = OSTCBCur->OSTCBPrio;                     /* Set priority to delete to current           */
    a81c:	d0ab4817 	ldw	r2,-21216(gp)
    a820:	10800e83 	ldbu	r2,58(r2)
    a824:	e0bff605 	stb	r2,-40(fp)
    }
    ptcb = OSTCBPrioTbl[prio];
    a828:	e0bff603 	ldbu	r2,-40(fp)
    a82c:	100690ba 	slli	r3,r2,2
    a830:	008000b4 	movhi	r2,2
    a834:	1885883a 	add	r2,r3,r2
    a838:	10a66817 	ldw	r2,-26208(r2)
    a83c:	e0bffe15 	stw	r2,-8(fp)
    if (ptcb == (OS_TCB *)0) {                          /* Task to delete must exist                   */
    a840:	e0bffe17 	ldw	r2,-8(fp)
    a844:	1000071e 	bne	r2,zero,a864 <OSTaskDel+0xd8>
    a848:	e0bfff17 	ldw	r2,-4(fp)
    a84c:	e0bffb15 	stw	r2,-20(fp)
  NIOS2_WRITE_STATUS (context);
    a850:	e0bffb17 	ldw	r2,-20(fp)
    a854:	1001703a 	wrctl	status,r2
}
    a858:	0001883a 	nop
        OS_EXIT_CRITICAL();
        return (OS_ERR_TASK_NOT_EXIST);
    a85c:	008010c4 	movi	r2,67
    a860:	00009506 	br	aab8 <OSTaskDel+0x32c>
    }
    if (ptcb == OS_TCB_RESERVED) {                      /* Must not be assigned to Mutex               */
    a864:	e0bffe17 	ldw	r2,-8(fp)
    a868:	10800058 	cmpnei	r2,r2,1
    a86c:	1000071e 	bne	r2,zero,a88c <OSTaskDel+0x100>
    a870:	e0bfff17 	ldw	r2,-4(fp)
    a874:	e0bffa15 	stw	r2,-24(fp)
  NIOS2_WRITE_STATUS (context);
    a878:	e0bffa17 	ldw	r2,-24(fp)
    a87c:	1001703a 	wrctl	status,r2
}
    a880:	0001883a 	nop
        OS_EXIT_CRITICAL();
        return (OS_ERR_TASK_DEL);
    a884:	00800f44 	movi	r2,61
    a888:	00008b06 	br	aab8 <OSTaskDel+0x32c>
    }

    OSRdyTbl[ptcb->OSTCBY] &= (OS_PRIO)~ptcb->OSTCBBitX;
    a88c:	e0bffe17 	ldw	r2,-8(fp)
    a890:	10800f03 	ldbu	r2,60(r2)
    a894:	10c03fcc 	andi	r3,r2,255
    a898:	d0ab4584 	addi	r2,gp,-21226
    a89c:	1885883a 	add	r2,r3,r2
    a8a0:	10800003 	ldbu	r2,0(r2)
    a8a4:	e0fffe17 	ldw	r3,-8(fp)
    a8a8:	18c00f43 	ldbu	r3,61(r3)
    a8ac:	00c6303a 	nor	r3,zero,r3
    a8b0:	1809883a 	mov	r4,r3
    a8b4:	e0fffe17 	ldw	r3,-8(fp)
    a8b8:	18c00f03 	ldbu	r3,60(r3)
    a8bc:	18c03fcc 	andi	r3,r3,255
    a8c0:	1104703a 	and	r2,r2,r4
    a8c4:	1009883a 	mov	r4,r2
    a8c8:	d0ab4584 	addi	r2,gp,-21226
    a8cc:	1885883a 	add	r2,r3,r2
    a8d0:	11000005 	stb	r4,0(r2)
    OS_TRACE_TASK_SUSPENDED(ptcb);
    if (OSRdyTbl[ptcb->OSTCBY] == 0u) {                 /* Make task not ready                         */
    a8d4:	e0bffe17 	ldw	r2,-8(fp)
    a8d8:	10800f03 	ldbu	r2,60(r2)
    a8dc:	10c03fcc 	andi	r3,r2,255
    a8e0:	d0ab4584 	addi	r2,gp,-21226
    a8e4:	1885883a 	add	r2,r3,r2
    a8e8:	10800003 	ldbu	r2,0(r2)
    a8ec:	10803fcc 	andi	r2,r2,255
    a8f0:	1000071e 	bne	r2,zero,a910 <OSTaskDel+0x184>
        OSRdyGrp           &= (OS_PRIO)~ptcb->OSTCBBitY;
    a8f4:	e0bffe17 	ldw	r2,-8(fp)
    a8f8:	10800f83 	ldbu	r2,62(r2)
    a8fc:	0084303a 	nor	r2,zero,r2
    a900:	1007883a 	mov	r3,r2
    a904:	d0ab4543 	ldbu	r2,-21227(gp)
    a908:	1884703a 	and	r2,r3,r2
    a90c:	d0ab4545 	stb	r2,-21227(gp)
    }

#if (OS_EVENT_EN)
    if (ptcb->OSTCBEventPtr != (OS_EVENT *)0) {
    a910:	e0bffe17 	ldw	r2,-8(fp)
    a914:	10800717 	ldw	r2,28(r2)
    a918:	10000526 	beq	r2,zero,a930 <OSTaskDel+0x1a4>
        OS_EventTaskRemove(ptcb, ptcb->OSTCBEventPtr);  /* Remove this task from any event   wait list */
    a91c:	e0bffe17 	ldw	r2,-8(fp)
    a920:	10800717 	ldw	r2,28(r2)
    a924:	100b883a 	mov	r5,r2
    a928:	e13ffe17 	ldw	r4,-8(fp)
    a92c:	000561c0 	call	561c <OS_EventTaskRemove>
    }
#if (OS_EVENT_MULTI_EN > 0u)
    if (ptcb->OSTCBEventMultiPtr != (OS_EVENT **)0) {   /* Remove this task from any events' wait lists*/
    a930:	e0bffe17 	ldw	r2,-8(fp)
    a934:	10800817 	ldw	r2,32(r2)
    a938:	10000526 	beq	r2,zero,a950 <OSTaskDel+0x1c4>
        OS_EventTaskRemoveMulti(ptcb, ptcb->OSTCBEventMultiPtr);
    a93c:	e0bffe17 	ldw	r2,-8(fp)
    a940:	10800817 	ldw	r2,32(r2)
    a944:	100b883a 	mov	r5,r2
    a948:	e13ffe17 	ldw	r4,-8(fp)
    a94c:	00056cc0 	call	56cc <OS_EventTaskRemoveMulti>
    }
#endif
#endif

#if (OS_FLAG_EN > 0u) && (OS_MAX_FLAGS > 0u)
    pnode = ptcb->OSTCBFlagNode;
    a950:	e0bffe17 	ldw	r2,-8(fp)
    a954:	10800b17 	ldw	r2,44(r2)
    a958:	e0bffd15 	stw	r2,-12(fp)
    if (pnode != (OS_FLAG_NODE *)0) {                   /* If task is waiting on event flag            */
    a95c:	e0bffd17 	ldw	r2,-12(fp)
    a960:	10000226 	beq	r2,zero,a96c <OSTaskDel+0x1e0>
        OS_FlagUnlink(pnode);                           /* Remove from wait list                       */
    a964:	e13ffd17 	ldw	r4,-12(fp)
    a968:	0007c1c0 	call	7c1c <OS_FlagUnlink>
    }
#endif

    ptcb->OSTCBDly      = 0u;                           /* Prevent OSTimeTick() from updating          */
    a96c:	e0bffe17 	ldw	r2,-8(fp)
    a970:	10000d15 	stw	zero,52(r2)
    ptcb->OSTCBStat     = OS_STAT_RDY;                  /* Prevent task from being resumed             */
    a974:	e0bffe17 	ldw	r2,-8(fp)
    a978:	10000e05 	stb	zero,56(r2)
    ptcb->OSTCBStatPend = OS_STAT_PEND_OK;
    a97c:	e0bffe17 	ldw	r2,-8(fp)
    a980:	10000e45 	stb	zero,57(r2)
    if (OSLockNesting < 255u) {                         /* Make sure we don't context switch           */
    a984:	d0ab4483 	ldbu	r2,-21230(gp)
    a988:	10803fcc 	andi	r2,r2,255
    a98c:	10803fe0 	cmpeqi	r2,r2,255
    a990:	1000031e 	bne	r2,zero,a9a0 <OSTaskDel+0x214>
        OSLockNesting++;
    a994:	d0ab4483 	ldbu	r2,-21230(gp)
    a998:	10800044 	addi	r2,r2,1
    a99c:	d0ab4485 	stb	r2,-21230(gp)
    a9a0:	e0bfff17 	ldw	r2,-4(fp)
    a9a4:	e0bff815 	stw	r2,-32(fp)
  NIOS2_WRITE_STATUS (context);
    a9a8:	e0bff817 	ldw	r2,-32(fp)
    a9ac:	1001703a 	wrctl	status,r2
}
    a9b0:	0001883a 	nop
    }
    OS_EXIT_CRITICAL();                                 /* Enabling INT. ignores next instruc.         */
    OS_Dummy();                                         /* ... Dummy ensures that INTs will be         */
    a9b4:	00052200 	call	5220 <OS_Dummy>
  NIOS2_READ_STATUS (context);
    a9b8:	0005303a 	rdctl	r2,status
    a9bc:	e0bff915 	stw	r2,-28(fp)
  NIOS2_WRITE_STATUS (context & ~NIOS2_STATUS_PIE_MSK);
    a9c0:	e0fff917 	ldw	r3,-28(fp)
    a9c4:	00bfff84 	movi	r2,-2
    a9c8:	1884703a 	and	r2,r3,r2
    a9cc:	1001703a 	wrctl	status,r2
  return context;
    a9d0:	e0bff917 	ldw	r2,-28(fp)
    OS_ENTER_CRITICAL();                                /* ... disabled HERE!                          */
    a9d4:	e0bfff15 	stw	r2,-4(fp)
    if (OSLockNesting > 0u) {                           /* Remove context switch lock                  */
    a9d8:	d0ab4483 	ldbu	r2,-21230(gp)
    a9dc:	10803fcc 	andi	r2,r2,255
    a9e0:	10000326 	beq	r2,zero,a9f0 <OSTaskDel+0x264>
        OSLockNesting--;
    a9e4:	d0ab4483 	ldbu	r2,-21230(gp)
    a9e8:	10bfffc4 	addi	r2,r2,-1
    a9ec:	d0ab4485 	stb	r2,-21230(gp)
    }
    OSTaskDelHook(ptcb);                                /* Call user defined hook                      */
    a9f0:	e13ffe17 	ldw	r4,-8(fp)
    a9f4:	000dfdc0 	call	dfdc <OSTaskDelHook>
#if defined(OS_TLS_TBL_SIZE) && (OS_TLS_TBL_SIZE > 0u)
    OS_TLS_TaskDel(ptcb);                               /* Call TLS hook                               */
#endif
#endif

    OSTaskCtr--;                                        /* One less task being managed                 */
    a9f8:	d0ab4683 	ldbu	r2,-21222(gp)
    a9fc:	10bfffc4 	addi	r2,r2,-1
    aa00:	d0ab4685 	stb	r2,-21222(gp)
    OSTCBPrioTbl[prio] = (OS_TCB *)0;                   /* Clear old priority entry                    */
    aa04:	e0bff603 	ldbu	r2,-40(fp)
    aa08:	100690ba 	slli	r3,r2,2
    aa0c:	008000b4 	movhi	r2,2
    aa10:	1885883a 	add	r2,r3,r2
    aa14:	10266815 	stw	zero,-26208(r2)
    if (ptcb->OSTCBPrev == (OS_TCB *)0) {               /* Remove from TCB chain                       */
    aa18:	e0bffe17 	ldw	r2,-8(fp)
    aa1c:	10800617 	ldw	r2,24(r2)
    aa20:	1000071e 	bne	r2,zero,aa40 <OSTaskDel+0x2b4>
        ptcb->OSTCBNext->OSTCBPrev = (OS_TCB *)0;
    aa24:	e0bffe17 	ldw	r2,-8(fp)
    aa28:	10800517 	ldw	r2,20(r2)
    aa2c:	10000615 	stw	zero,24(r2)
        OSTCBList                  = ptcb->OSTCBNext;
    aa30:	e0bffe17 	ldw	r2,-8(fp)
    aa34:	10800517 	ldw	r2,20(r2)
    aa38:	d0ab4b15 	stw	r2,-21204(gp)
    aa3c:	00000a06 	br	aa68 <OSTaskDel+0x2dc>
    } else {
        ptcb->OSTCBPrev->OSTCBNext = ptcb->OSTCBNext;
    aa40:	e0bffe17 	ldw	r2,-8(fp)
    aa44:	10800617 	ldw	r2,24(r2)
    aa48:	e0fffe17 	ldw	r3,-8(fp)
    aa4c:	18c00517 	ldw	r3,20(r3)
    aa50:	10c00515 	stw	r3,20(r2)
        ptcb->OSTCBNext->OSTCBPrev = ptcb->OSTCBPrev;
    aa54:	e0bffe17 	ldw	r2,-8(fp)
    aa58:	10800517 	ldw	r2,20(r2)
    aa5c:	e0fffe17 	ldw	r3,-8(fp)
    aa60:	18c00617 	ldw	r3,24(r3)
    aa64:	10c00615 	stw	r3,24(r2)
    }
    ptcb->OSTCBNext     = OSTCBFreeList;                /* Return TCB to free TCB list                 */
    aa68:	d0eb4917 	ldw	r3,-21212(gp)
    aa6c:	e0bffe17 	ldw	r2,-8(fp)
    aa70:	10c00515 	stw	r3,20(r2)
    OSTCBFreeList       = ptcb;
    aa74:	e0bffe17 	ldw	r2,-8(fp)
    aa78:	d0ab4915 	stw	r2,-21212(gp)
#if OS_TASK_NAME_EN > 0u
    ptcb->OSTCBTaskName = (INT8U *)(void *)"?";
    aa7c:	e0fffe17 	ldw	r3,-8(fp)
    aa80:	00800074 	movhi	r2,1
    aa84:	10ba9a04 	addi	r2,r2,-5528
    aa88:	18801515 	stw	r2,84(r3)
    aa8c:	e0bfff17 	ldw	r2,-4(fp)
    aa90:	e0bff715 	stw	r2,-36(fp)
  NIOS2_WRITE_STATUS (context);
    aa94:	e0bff717 	ldw	r2,-36(fp)
    aa98:	1001703a 	wrctl	status,r2
}
    aa9c:	0001883a 	nop
#endif
    OS_EXIT_CRITICAL();
    if (OSRunning == OS_TRUE) {
    aaa0:	d0ab4643 	ldbu	r2,-21223(gp)
    aaa4:	10803fcc 	andi	r2,r2,255
    aaa8:	10800058 	cmpnei	r2,r2,1
    aaac:	1000011e 	bne	r2,zero,aab4 <OSTaskDel+0x328>
        OS_Sched();                                     /* Find new highest priority task              */
    aab0:	0005c980 	call	5c98 <OS_Sched>
    }
    return (OS_ERR_NONE);
    aab4:	0005883a 	mov	r2,zero
}
    aab8:	e037883a 	mov	sp,fp
    aabc:	dfc00117 	ldw	ra,4(sp)
    aac0:	df000017 	ldw	fp,0(sp)
    aac4:	dec00204 	addi	sp,sp,8
    aac8:	f800283a 	ret

0000aacc <OSTaskDelReq>:
*********************************************************************************************************
*/

#if OS_TASK_DEL_EN > 0u
INT8U  OSTaskDelReq (INT8U prio)
{
    aacc:	defff504 	addi	sp,sp,-44
    aad0:	df000a15 	stw	fp,40(sp)
    aad4:	df000a04 	addi	fp,sp,40
    aad8:	2005883a 	mov	r2,r4
    aadc:	e0bff605 	stb	r2,-40(fp)
    INT8U      stat;
    OS_TCB    *ptcb;
#if OS_CRITICAL_METHOD == 3u                     /* Allocate storage for CPU status register           */
    OS_CPU_SR  cpu_sr = 0u;
    aae0:	e03fff15 	stw	zero,-4(fp)
        OS_SAFETY_CRITICAL_EXCEPTION();
        return (OS_ERR_ILLEGAL_DEL_RUN_TIME);
    }
#endif

    if (prio == OS_TASK_IDLE_PRIO) {                            /* Not allowed to delete idle task     */
    aae4:	e0bff603 	ldbu	r2,-40(fp)
    aae8:	10800518 	cmpnei	r2,r2,20
    aaec:	1000021e 	bne	r2,zero,aaf8 <OSTaskDelReq+0x2c>
        return (OS_ERR_TASK_DEL_IDLE);
    aaf0:	00800f84 	movi	r2,62
    aaf4:	00004706 	br	ac14 <OSTaskDelReq+0x148>
    }
#if OS_ARG_CHK_EN > 0u
    if (prio >= OS_LOWEST_PRIO) {                               /* Task priority valid ?               */
    aaf8:	e0bff603 	ldbu	r2,-40(fp)
    aafc:	10800530 	cmpltui	r2,r2,20
    ab00:	1000051e 	bne	r2,zero,ab18 <OSTaskDelReq+0x4c>
        if (prio != OS_PRIO_SELF) {
    ab04:	e0bff603 	ldbu	r2,-40(fp)
    ab08:	10803fe0 	cmpeqi	r2,r2,255
    ab0c:	1000021e 	bne	r2,zero,ab18 <OSTaskDelReq+0x4c>
            return (OS_ERR_PRIO_INVALID);
    ab10:	00800a84 	movi	r2,42
    ab14:	00003f06 	br	ac14 <OSTaskDelReq+0x148>
        }
    }
#endif
    if (prio == OS_PRIO_SELF) {                                 /* See if a task is requesting to ...  */
    ab18:	e0bff603 	ldbu	r2,-40(fp)
    ab1c:	10803fd8 	cmpnei	r2,r2,255
    ab20:	1000121e 	bne	r2,zero,ab6c <OSTaskDelReq+0xa0>
  NIOS2_READ_STATUS (context);
    ab24:	0005303a 	rdctl	r2,status
    ab28:	e0bffb15 	stw	r2,-20(fp)
  NIOS2_WRITE_STATUS (context & ~NIOS2_STATUS_PIE_MSK);
    ab2c:	e0fffb17 	ldw	r3,-20(fp)
    ab30:	00bfff84 	movi	r2,-2
    ab34:	1884703a 	and	r2,r3,r2
    ab38:	1001703a 	wrctl	status,r2
  return context;
    ab3c:	e0bffb17 	ldw	r2,-20(fp)
        OS_ENTER_CRITICAL();                                    /* ... this task to delete itself      */
    ab40:	e0bfff15 	stw	r2,-4(fp)
        stat = OSTCBCur->OSTCBDelReq;                           /* Return request status to caller     */
    ab44:	d0ab4817 	ldw	r2,-21216(gp)
    ab48:	10800fc3 	ldbu	r2,63(r2)
    ab4c:	e0bffdc5 	stb	r2,-9(fp)
    ab50:	e0bfff17 	ldw	r2,-4(fp)
    ab54:	e0bffc15 	stw	r2,-16(fp)
  NIOS2_WRITE_STATUS (context);
    ab58:	e0bffc17 	ldw	r2,-16(fp)
    ab5c:	1001703a 	wrctl	status,r2
}
    ab60:	0001883a 	nop
        OS_EXIT_CRITICAL();
        return (stat);
    ab64:	e0bffdc3 	ldbu	r2,-9(fp)
    ab68:	00002a06 	br	ac14 <OSTaskDelReq+0x148>
  NIOS2_READ_STATUS (context);
    ab6c:	0005303a 	rdctl	r2,status
    ab70:	e0bffa15 	stw	r2,-24(fp)
  NIOS2_WRITE_STATUS (context & ~NIOS2_STATUS_PIE_MSK);
    ab74:	e0fffa17 	ldw	r3,-24(fp)
    ab78:	00bfff84 	movi	r2,-2
    ab7c:	1884703a 	and	r2,r3,r2
    ab80:	1001703a 	wrctl	status,r2
  return context;
    ab84:	e0bffa17 	ldw	r2,-24(fp)
    }
    OS_ENTER_CRITICAL();
    ab88:	e0bfff15 	stw	r2,-4(fp)
    ptcb = OSTCBPrioTbl[prio];
    ab8c:	e0bff603 	ldbu	r2,-40(fp)
    ab90:	100690ba 	slli	r3,r2,2
    ab94:	008000b4 	movhi	r2,2
    ab98:	1885883a 	add	r2,r3,r2
    ab9c:	10a66817 	ldw	r2,-26208(r2)
    aba0:	e0bffe15 	stw	r2,-8(fp)
    if (ptcb == (OS_TCB *)0) {                                  /* Task to delete must exist           */
    aba4:	e0bffe17 	ldw	r2,-8(fp)
    aba8:	1000071e 	bne	r2,zero,abc8 <OSTaskDelReq+0xfc>
    abac:	e0bfff17 	ldw	r2,-4(fp)
    abb0:	e0bff915 	stw	r2,-28(fp)
  NIOS2_WRITE_STATUS (context);
    abb4:	e0bff917 	ldw	r2,-28(fp)
    abb8:	1001703a 	wrctl	status,r2
}
    abbc:	0001883a 	nop
        OS_EXIT_CRITICAL();
        return (OS_ERR_TASK_NOT_EXIST);                         /* Task must already be deleted        */
    abc0:	008010c4 	movi	r2,67
    abc4:	00001306 	br	ac14 <OSTaskDelReq+0x148>
    }
    if (ptcb == OS_TCB_RESERVED) {                              /* Must NOT be assigned to a Mutex     */
    abc8:	e0bffe17 	ldw	r2,-8(fp)
    abcc:	10800058 	cmpnei	r2,r2,1
    abd0:	1000071e 	bne	r2,zero,abf0 <OSTaskDelReq+0x124>
    abd4:	e0bfff17 	ldw	r2,-4(fp)
    abd8:	e0bff815 	stw	r2,-32(fp)
  NIOS2_WRITE_STATUS (context);
    abdc:	e0bff817 	ldw	r2,-32(fp)
    abe0:	1001703a 	wrctl	status,r2
}
    abe4:	0001883a 	nop
        OS_EXIT_CRITICAL();
        return (OS_ERR_TASK_DEL);
    abe8:	00800f44 	movi	r2,61
    abec:	00000906 	br	ac14 <OSTaskDelReq+0x148>
    }
    ptcb->OSTCBDelReq = OS_ERR_TASK_DEL_REQ;                    /* Set flag indicating task to be DEL. */
    abf0:	e0bffe17 	ldw	r2,-8(fp)
    abf4:	00c00fc4 	movi	r3,63
    abf8:	10c00fc5 	stb	r3,63(r2)
    abfc:	e0bfff17 	ldw	r2,-4(fp)
    ac00:	e0bff715 	stw	r2,-36(fp)
  NIOS2_WRITE_STATUS (context);
    ac04:	e0bff717 	ldw	r2,-36(fp)
    ac08:	1001703a 	wrctl	status,r2
}
    ac0c:	0001883a 	nop
    OS_EXIT_CRITICAL();
    return (OS_ERR_NONE);
    ac10:	0005883a 	mov	r2,zero
}
    ac14:	e037883a 	mov	sp,fp
    ac18:	df000017 	ldw	fp,0(sp)
    ac1c:	dec00104 	addi	sp,sp,4
    ac20:	f800283a 	ret

0000ac24 <OSTaskNameGet>:

#if OS_TASK_NAME_EN > 0u
INT8U  OSTaskNameGet (INT8U    prio,
                      INT8U  **pname,
                      INT8U   *perr)
{
    ac24:	defff404 	addi	sp,sp,-48
    ac28:	dfc00b15 	stw	ra,44(sp)
    ac2c:	df000a15 	stw	fp,40(sp)
    ac30:	df000a04 	addi	fp,sp,40
    ac34:	2005883a 	mov	r2,r4
    ac38:	e17ff715 	stw	r5,-36(fp)
    ac3c:	e1bff615 	stw	r6,-40(fp)
    ac40:	e0bff805 	stb	r2,-32(fp)
    OS_TCB    *ptcb;
    INT8U      len;
#if OS_CRITICAL_METHOD == 3u                             /* Allocate storage for CPU status register   */
    OS_CPU_SR  cpu_sr = 0u;
    ac44:	e03fff15 	stw	zero,-4(fp)
        return (0u);
    }
#endif

#if OS_ARG_CHK_EN > 0u
    if (prio > OS_LOWEST_PRIO) {                         /* Task priority valid ?                      */
    ac48:	e0bff803 	ldbu	r2,-32(fp)
    ac4c:	10800570 	cmpltui	r2,r2,21
    ac50:	1000081e 	bne	r2,zero,ac74 <OSTaskNameGet+0x50>
        if (prio != OS_PRIO_SELF) {
    ac54:	e0bff803 	ldbu	r2,-32(fp)
    ac58:	10803fe0 	cmpeqi	r2,r2,255
    ac5c:	1000051e 	bne	r2,zero,ac74 <OSTaskNameGet+0x50>
            *perr = OS_ERR_PRIO_INVALID;                 /* No                                         */
    ac60:	e0bff617 	ldw	r2,-40(fp)
    ac64:	00c00a84 	movi	r3,42
    ac68:	10c00005 	stb	r3,0(r2)
            return (0u);
    ac6c:	0005883a 	mov	r2,zero
    ac70:	00004d06 	br	ada8 <OSTaskNameGet+0x184>
        }
    }
    if (pname == (INT8U **)0) {                          /* Is 'pname' a NULL pointer?                 */
    ac74:	e0bff717 	ldw	r2,-36(fp)
    ac78:	1000051e 	bne	r2,zero,ac90 <OSTaskNameGet+0x6c>
        *perr = OS_ERR_PNAME_NULL;                       /* Yes                                        */
    ac7c:	e0bff617 	ldw	r2,-40(fp)
    ac80:	00c00304 	movi	r3,12
    ac84:	10c00005 	stb	r3,0(r2)
        return (0u);
    ac88:	0005883a 	mov	r2,zero
    ac8c:	00004606 	br	ada8 <OSTaskNameGet+0x184>
    }
#endif
    if (OSIntNesting > 0u) {                              /* See if trying to call from an ISR          */
    ac90:	d0ab4443 	ldbu	r2,-21231(gp)
    ac94:	10803fcc 	andi	r2,r2,255
    ac98:	10000526 	beq	r2,zero,acb0 <OSTaskNameGet+0x8c>
        *perr = OS_ERR_NAME_GET_ISR;
    ac9c:	e0bff617 	ldw	r2,-40(fp)
    aca0:	00c00444 	movi	r3,17
    aca4:	10c00005 	stb	r3,0(r2)
        return (0u);
    aca8:	0005883a 	mov	r2,zero
    acac:	00003e06 	br	ada8 <OSTaskNameGet+0x184>
  NIOS2_READ_STATUS (context);
    acb0:	0005303a 	rdctl	r2,status
    acb4:	e0bffc15 	stw	r2,-16(fp)
  NIOS2_WRITE_STATUS (context & ~NIOS2_STATUS_PIE_MSK);
    acb8:	e0fffc17 	ldw	r3,-16(fp)
    acbc:	00bfff84 	movi	r2,-2
    acc0:	1884703a 	and	r2,r3,r2
    acc4:	1001703a 	wrctl	status,r2
  return context;
    acc8:	e0bffc17 	ldw	r2,-16(fp)
    }
    OS_ENTER_CRITICAL();
    accc:	e0bfff15 	stw	r2,-4(fp)
    if (prio == OS_PRIO_SELF) {                          /* See if caller desires it's own name        */
    acd0:	e0bff803 	ldbu	r2,-32(fp)
    acd4:	10803fd8 	cmpnei	r2,r2,255
    acd8:	1000031e 	bne	r2,zero,ace8 <OSTaskNameGet+0xc4>
        prio = OSTCBCur->OSTCBPrio;
    acdc:	d0ab4817 	ldw	r2,-21216(gp)
    ace0:	10800e83 	ldbu	r2,58(r2)
    ace4:	e0bff805 	stb	r2,-32(fp)
    }
    ptcb = OSTCBPrioTbl[prio];
    ace8:	e0bff803 	ldbu	r2,-32(fp)
    acec:	100690ba 	slli	r3,r2,2
    acf0:	008000b4 	movhi	r2,2
    acf4:	1885883a 	add	r2,r3,r2
    acf8:	10a66817 	ldw	r2,-26208(r2)
    acfc:	e0bffe15 	stw	r2,-8(fp)
    if (ptcb == (OS_TCB *)0) {                           /* Does task exist?                           */
    ad00:	e0bffe17 	ldw	r2,-8(fp)
    ad04:	10000a1e 	bne	r2,zero,ad30 <OSTaskNameGet+0x10c>
    ad08:	e0bfff17 	ldw	r2,-4(fp)
    ad0c:	e0bffb15 	stw	r2,-20(fp)
  NIOS2_WRITE_STATUS (context);
    ad10:	e0bffb17 	ldw	r2,-20(fp)
    ad14:	1001703a 	wrctl	status,r2
}
    ad18:	0001883a 	nop
        OS_EXIT_CRITICAL();                              /* No                                         */
        *perr = OS_ERR_TASK_NOT_EXIST;
    ad1c:	e0bff617 	ldw	r2,-40(fp)
    ad20:	00c010c4 	movi	r3,67
    ad24:	10c00005 	stb	r3,0(r2)
        return (0u);
    ad28:	0005883a 	mov	r2,zero
    ad2c:	00001e06 	br	ada8 <OSTaskNameGet+0x184>
    }
    if (ptcb == OS_TCB_RESERVED) {                       /* Task assigned to a Mutex?                  */
    ad30:	e0bffe17 	ldw	r2,-8(fp)
    ad34:	10800058 	cmpnei	r2,r2,1
    ad38:	10000a1e 	bne	r2,zero,ad64 <OSTaskNameGet+0x140>
    ad3c:	e0bfff17 	ldw	r2,-4(fp)
    ad40:	e0bffa15 	stw	r2,-24(fp)
  NIOS2_WRITE_STATUS (context);
    ad44:	e0bffa17 	ldw	r2,-24(fp)
    ad48:	1001703a 	wrctl	status,r2
}
    ad4c:	0001883a 	nop
        OS_EXIT_CRITICAL();                              /* Yes                                        */
        *perr = OS_ERR_TASK_NOT_EXIST;
    ad50:	e0bff617 	ldw	r2,-40(fp)
    ad54:	00c010c4 	movi	r3,67
    ad58:	10c00005 	stb	r3,0(r2)
        return (0u);
    ad5c:	0005883a 	mov	r2,zero
    ad60:	00001106 	br	ada8 <OSTaskNameGet+0x184>
    }
    *pname = ptcb->OSTCBTaskName;
    ad64:	e0bffe17 	ldw	r2,-8(fp)
    ad68:	10c01517 	ldw	r3,84(r2)
    ad6c:	e0bff717 	ldw	r2,-36(fp)
    ad70:	10c00015 	stw	r3,0(r2)
    len    = OS_StrLen(*pname);
    ad74:	e0bff717 	ldw	r2,-36(fp)
    ad78:	10800017 	ldw	r2,0(r2)
    ad7c:	1009883a 	mov	r4,r2
    ad80:	0005dd00 	call	5dd0 <OS_StrLen>
    ad84:	e0bffdc5 	stb	r2,-9(fp)
    ad88:	e0bfff17 	ldw	r2,-4(fp)
    ad8c:	e0bff915 	stw	r2,-28(fp)
  NIOS2_WRITE_STATUS (context);
    ad90:	e0bff917 	ldw	r2,-28(fp)
    ad94:	1001703a 	wrctl	status,r2
}
    ad98:	0001883a 	nop
    OS_EXIT_CRITICAL();
    *perr  = OS_ERR_NONE;
    ad9c:	e0bff617 	ldw	r2,-40(fp)
    ada0:	10000005 	stb	zero,0(r2)
    return (len);
    ada4:	e0bffdc3 	ldbu	r2,-9(fp)
}
    ada8:	e037883a 	mov	sp,fp
    adac:	dfc00117 	ldw	ra,4(sp)
    adb0:	df000017 	ldw	fp,0(sp)
    adb4:	dec00204 	addi	sp,sp,8
    adb8:	f800283a 	ret

0000adbc <OSTaskNameSet>:
*/
#if OS_TASK_NAME_EN > 0u
void  OSTaskNameSet (INT8U   prio,
                     INT8U  *pname,
                     INT8U  *perr)
{
    adbc:	defff604 	addi	sp,sp,-40
    adc0:	df000915 	stw	fp,36(sp)
    adc4:	df000904 	addi	fp,sp,36
    adc8:	2005883a 	mov	r2,r4
    adcc:	e17ff815 	stw	r5,-32(fp)
    add0:	e1bff715 	stw	r6,-36(fp)
    add4:	e0bff905 	stb	r2,-28(fp)
    OS_TCB    *ptcb;
#if OS_CRITICAL_METHOD == 3u                         /* Allocate storage for CPU status register       */
    OS_CPU_SR  cpu_sr = 0u;
    add8:	e03fff15 	stw	zero,-4(fp)
        return;
    }
#endif

#if OS_ARG_CHK_EN > 0u
    if (prio > OS_LOWEST_PRIO) {                     /* Task priority valid ?                          */
    addc:	e0bff903 	ldbu	r2,-28(fp)
    ade0:	10800570 	cmpltui	r2,r2,21
    ade4:	1000071e 	bne	r2,zero,ae04 <OSTaskNameSet+0x48>
        if (prio != OS_PRIO_SELF) {
    ade8:	e0bff903 	ldbu	r2,-28(fp)
    adec:	10803fe0 	cmpeqi	r2,r2,255
    adf0:	1000041e 	bne	r2,zero,ae04 <OSTaskNameSet+0x48>
            *perr = OS_ERR_PRIO_INVALID;             /* No                                             */
    adf4:	e0bff717 	ldw	r2,-36(fp)
    adf8:	00c00a84 	movi	r3,42
    adfc:	10c00005 	stb	r3,0(r2)
            return;
    ae00:	00004206 	br	af0c <OSTaskNameSet+0x150>
        }
    }
    if (pname == (INT8U *)0) {                       /* Is 'pname' a NULL pointer?                     */
    ae04:	e0bff817 	ldw	r2,-32(fp)
    ae08:	1000041e 	bne	r2,zero,ae1c <OSTaskNameSet+0x60>
        *perr = OS_ERR_PNAME_NULL;                   /* Yes                                            */
    ae0c:	e0bff717 	ldw	r2,-36(fp)
    ae10:	00c00304 	movi	r3,12
    ae14:	10c00005 	stb	r3,0(r2)
        return;
    ae18:	00003c06 	br	af0c <OSTaskNameSet+0x150>
    }
#endif
    if (OSIntNesting > 0u) {                         /* See if trying to call from an ISR              */
    ae1c:	d0ab4443 	ldbu	r2,-21231(gp)
    ae20:	10803fcc 	andi	r2,r2,255
    ae24:	10000426 	beq	r2,zero,ae38 <OSTaskNameSet+0x7c>
        *perr = OS_ERR_NAME_SET_ISR;
    ae28:	e0bff717 	ldw	r2,-36(fp)
    ae2c:	00c00484 	movi	r3,18
    ae30:	10c00005 	stb	r3,0(r2)
        return;
    ae34:	00003506 	br	af0c <OSTaskNameSet+0x150>
  NIOS2_READ_STATUS (context);
    ae38:	0005303a 	rdctl	r2,status
    ae3c:	e0bffd15 	stw	r2,-12(fp)
  NIOS2_WRITE_STATUS (context & ~NIOS2_STATUS_PIE_MSK);
    ae40:	e0fffd17 	ldw	r3,-12(fp)
    ae44:	00bfff84 	movi	r2,-2
    ae48:	1884703a 	and	r2,r3,r2
    ae4c:	1001703a 	wrctl	status,r2
  return context;
    ae50:	e0bffd17 	ldw	r2,-12(fp)
    }
    OS_ENTER_CRITICAL();
    ae54:	e0bfff15 	stw	r2,-4(fp)
    if (prio == OS_PRIO_SELF) {                      /* See if caller desires to set it's own name     */
    ae58:	e0bff903 	ldbu	r2,-28(fp)
    ae5c:	10803fd8 	cmpnei	r2,r2,255
    ae60:	1000031e 	bne	r2,zero,ae70 <OSTaskNameSet+0xb4>
        prio = OSTCBCur->OSTCBPrio;
    ae64:	d0ab4817 	ldw	r2,-21216(gp)
    ae68:	10800e83 	ldbu	r2,58(r2)
    ae6c:	e0bff905 	stb	r2,-28(fp)
    }
    ptcb = OSTCBPrioTbl[prio];
    ae70:	e0bff903 	ldbu	r2,-28(fp)
    ae74:	100690ba 	slli	r3,r2,2
    ae78:	008000b4 	movhi	r2,2
    ae7c:	1885883a 	add	r2,r3,r2
    ae80:	10a66817 	ldw	r2,-26208(r2)
    ae84:	e0bffe15 	stw	r2,-8(fp)
    if (ptcb == (OS_TCB *)0) {                       /* Does task exist?                               */
    ae88:	e0bffe17 	ldw	r2,-8(fp)
    ae8c:	1000091e 	bne	r2,zero,aeb4 <OSTaskNameSet+0xf8>
    ae90:	e0bfff17 	ldw	r2,-4(fp)
    ae94:	e0bffc15 	stw	r2,-16(fp)
  NIOS2_WRITE_STATUS (context);
    ae98:	e0bffc17 	ldw	r2,-16(fp)
    ae9c:	1001703a 	wrctl	status,r2
}
    aea0:	0001883a 	nop
        OS_EXIT_CRITICAL();                          /* No                                             */
        *perr = OS_ERR_TASK_NOT_EXIST;
    aea4:	e0bff717 	ldw	r2,-36(fp)
    aea8:	00c010c4 	movi	r3,67
    aeac:	10c00005 	stb	r3,0(r2)
        return;
    aeb0:	00001606 	br	af0c <OSTaskNameSet+0x150>
    }
    if (ptcb == OS_TCB_RESERVED) {                   /* Task assigned to a Mutex?                      */
    aeb4:	e0bffe17 	ldw	r2,-8(fp)
    aeb8:	10800058 	cmpnei	r2,r2,1
    aebc:	1000091e 	bne	r2,zero,aee4 <OSTaskNameSet+0x128>
    aec0:	e0bfff17 	ldw	r2,-4(fp)
    aec4:	e0bffb15 	stw	r2,-20(fp)
  NIOS2_WRITE_STATUS (context);
    aec8:	e0bffb17 	ldw	r2,-20(fp)
    aecc:	1001703a 	wrctl	status,r2
}
    aed0:	0001883a 	nop
        OS_EXIT_CRITICAL();                          /* Yes                                            */
        *perr = OS_ERR_TASK_NOT_EXIST;
    aed4:	e0bff717 	ldw	r2,-36(fp)
    aed8:	00c010c4 	movi	r3,67
    aedc:	10c00005 	stb	r3,0(r2)
        return;
    aee0:	00000a06 	br	af0c <OSTaskNameSet+0x150>
    }
    ptcb->OSTCBTaskName = pname;
    aee4:	e0bffe17 	ldw	r2,-8(fp)
    aee8:	e0fff817 	ldw	r3,-32(fp)
    aeec:	10c01515 	stw	r3,84(r2)
    aef0:	e0bfff17 	ldw	r2,-4(fp)
    aef4:	e0bffa15 	stw	r2,-24(fp)
  NIOS2_WRITE_STATUS (context);
    aef8:	e0bffa17 	ldw	r2,-24(fp)
    aefc:	1001703a 	wrctl	status,r2
}
    af00:	0001883a 	nop
    OS_TRACE_TASK_NAME_SET(ptcb);
    OS_EXIT_CRITICAL();
    *perr               = OS_ERR_NONE;
    af04:	e0bff717 	ldw	r2,-36(fp)
    af08:	10000005 	stb	zero,0(r2)
}
    af0c:	e037883a 	mov	sp,fp
    af10:	df000017 	ldw	fp,0(sp)
    af14:	dec00104 	addi	sp,sp,4
    af18:	f800283a 	ret

0000af1c <OSTaskResume>:
*********************************************************************************************************
*/

#if OS_TASK_SUSPEND_EN > 0u
INT8U  OSTaskResume (INT8U prio)
{
    af1c:	defff404 	addi	sp,sp,-48
    af20:	dfc00b15 	stw	ra,44(sp)
    af24:	df000a15 	stw	fp,40(sp)
    af28:	df000a04 	addi	fp,sp,40
    af2c:	2005883a 	mov	r2,r4
    af30:	e0bff605 	stb	r2,-40(fp)
    OS_TCB    *ptcb;
#if OS_CRITICAL_METHOD == 3u                                  /* Storage for CPU status register       */
    OS_CPU_SR  cpu_sr = 0u;
    af34:	e03fff15 	stw	zero,-4(fp)
#endif



#if OS_ARG_CHK_EN > 0u
    if (prio >= OS_LOWEST_PRIO) {                             /* Make sure task priority is valid      */
    af38:	e0bff603 	ldbu	r2,-40(fp)
    af3c:	10800530 	cmpltui	r2,r2,20
    af40:	1000021e 	bne	r2,zero,af4c <OSTaskResume+0x30>
        return (OS_ERR_PRIO_INVALID);
    af44:	00800a84 	movi	r2,42
    af48:	00006706 	br	b0e8 <OSTaskResume+0x1cc>
  NIOS2_READ_STATUS (context);
    af4c:	0005303a 	rdctl	r2,status
    af50:	e0bffd15 	stw	r2,-12(fp)
  NIOS2_WRITE_STATUS (context & ~NIOS2_STATUS_PIE_MSK);
    af54:	e0fffd17 	ldw	r3,-12(fp)
    af58:	00bfff84 	movi	r2,-2
    af5c:	1884703a 	and	r2,r3,r2
    af60:	1001703a 	wrctl	status,r2
  return context;
    af64:	e0bffd17 	ldw	r2,-12(fp)
    }
#endif
    OS_ENTER_CRITICAL();
    af68:	e0bfff15 	stw	r2,-4(fp)
    ptcb = OSTCBPrioTbl[prio];
    af6c:	e0bff603 	ldbu	r2,-40(fp)
    af70:	100690ba 	slli	r3,r2,2
    af74:	008000b4 	movhi	r2,2
    af78:	1885883a 	add	r2,r3,r2
    af7c:	10a66817 	ldw	r2,-26208(r2)
    af80:	e0bffe15 	stw	r2,-8(fp)
    if (ptcb == (OS_TCB *)0) {                                /* Task to suspend must exist            */
    af84:	e0bffe17 	ldw	r2,-8(fp)
    af88:	1000071e 	bne	r2,zero,afa8 <OSTaskResume+0x8c>
    af8c:	e0bfff17 	ldw	r2,-4(fp)
    af90:	e0bffc15 	stw	r2,-16(fp)
  NIOS2_WRITE_STATUS (context);
    af94:	e0bffc17 	ldw	r2,-16(fp)
    af98:	1001703a 	wrctl	status,r2
}
    af9c:	0001883a 	nop
        OS_EXIT_CRITICAL();
        return (OS_ERR_TASK_RESUME_PRIO);
    afa0:	00801184 	movi	r2,70
    afa4:	00005006 	br	b0e8 <OSTaskResume+0x1cc>
    }
    if (ptcb == OS_TCB_RESERVED) {                            /* See if assigned to Mutex              */
    afa8:	e0bffe17 	ldw	r2,-8(fp)
    afac:	10800058 	cmpnei	r2,r2,1
    afb0:	1000071e 	bne	r2,zero,afd0 <OSTaskResume+0xb4>
    afb4:	e0bfff17 	ldw	r2,-4(fp)
    afb8:	e0bffb15 	stw	r2,-20(fp)
  NIOS2_WRITE_STATUS (context);
    afbc:	e0bffb17 	ldw	r2,-20(fp)
    afc0:	1001703a 	wrctl	status,r2
}
    afc4:	0001883a 	nop
        OS_EXIT_CRITICAL();
        return (OS_ERR_TASK_NOT_EXIST);
    afc8:	008010c4 	movi	r2,67
    afcc:	00004606 	br	b0e8 <OSTaskResume+0x1cc>
    }
    if ((ptcb->OSTCBStat & OS_STAT_SUSPEND) != OS_STAT_RDY) { /* Task must be suspended                */
    afd0:	e0bffe17 	ldw	r2,-8(fp)
    afd4:	10800e03 	ldbu	r2,56(r2)
    afd8:	10803fcc 	andi	r2,r2,255
    afdc:	1080020c 	andi	r2,r2,8
    afe0:	10003b26 	beq	r2,zero,b0d0 <OSTaskResume+0x1b4>
        ptcb->OSTCBStat &= (INT8U)~(INT8U)OS_STAT_SUSPEND;    /* Remove suspension                     */
    afe4:	e0bffe17 	ldw	r2,-8(fp)
    afe8:	10c00e03 	ldbu	r3,56(r2)
    afec:	00bffdc4 	movi	r2,-9
    aff0:	1884703a 	and	r2,r3,r2
    aff4:	1007883a 	mov	r3,r2
    aff8:	e0bffe17 	ldw	r2,-8(fp)
    affc:	10c00e05 	stb	r3,56(r2)
        if ((ptcb->OSTCBStat & OS_STAT_PEND_ANY) == OS_STAT_RDY) { /* See if task is now ready         */
    b000:	e0bffe17 	ldw	r2,-8(fp)
    b004:	10800e03 	ldbu	r2,56(r2)
    b008:	10803fcc 	andi	r2,r2,255
    b00c:	10800dcc 	andi	r2,r2,55
    b010:	1000281e 	bne	r2,zero,b0b4 <OSTaskResume+0x198>
            if (ptcb->OSTCBDly == 0u) {
    b014:	e0bffe17 	ldw	r2,-8(fp)
    b018:	10800d17 	ldw	r2,52(r2)
    b01c:	1000201e 	bne	r2,zero,b0a0 <OSTaskResume+0x184>
                OSRdyGrp               |= ptcb->OSTCBBitY;    /* Yes, Make task ready to run           */
    b020:	e0bffe17 	ldw	r2,-8(fp)
    b024:	10c00f83 	ldbu	r3,62(r2)
    b028:	d0ab4543 	ldbu	r2,-21227(gp)
    b02c:	1884b03a 	or	r2,r3,r2
    b030:	d0ab4545 	stb	r2,-21227(gp)
                OSRdyTbl[ptcb->OSTCBY] |= ptcb->OSTCBBitX;
    b034:	e0bffe17 	ldw	r2,-8(fp)
    b038:	10800f03 	ldbu	r2,60(r2)
    b03c:	10c03fcc 	andi	r3,r2,255
    b040:	d0ab4584 	addi	r2,gp,-21226
    b044:	1885883a 	add	r2,r3,r2
    b048:	11000003 	ldbu	r4,0(r2)
    b04c:	e0bffe17 	ldw	r2,-8(fp)
    b050:	10800f43 	ldbu	r2,61(r2)
    b054:	e0fffe17 	ldw	r3,-8(fp)
    b058:	18c00f03 	ldbu	r3,60(r3)
    b05c:	18c03fcc 	andi	r3,r3,255
    b060:	2084b03a 	or	r2,r4,r2
    b064:	1009883a 	mov	r4,r2
    b068:	d0ab4584 	addi	r2,gp,-21226
    b06c:	1885883a 	add	r2,r3,r2
    b070:	11000005 	stb	r4,0(r2)
    b074:	e0bfff17 	ldw	r2,-4(fp)
    b078:	e0bffa15 	stw	r2,-24(fp)
  NIOS2_WRITE_STATUS (context);
    b07c:	e0bffa17 	ldw	r2,-24(fp)
    b080:	1001703a 	wrctl	status,r2
}
    b084:	0001883a 	nop
                OS_TRACE_TASK_READY(ptcb);
                OS_EXIT_CRITICAL();
                if (OSRunning == OS_TRUE) {
    b088:	d0ab4643 	ldbu	r2,-21223(gp)
    b08c:	10803fcc 	andi	r2,r2,255
    b090:	10800058 	cmpnei	r2,r2,1
    b094:	10000c1e 	bne	r2,zero,b0c8 <OSTaskResume+0x1ac>
                    OS_TRACE_TASK_RESUME(ptcb);
                    OS_Sched();                               /* Find new highest priority task        */
    b098:	0005c980 	call	5c98 <OS_Sched>
    b09c:	00000a06 	br	b0c8 <OSTaskResume+0x1ac>
    b0a0:	e0bfff17 	ldw	r2,-4(fp)
    b0a4:	e0bff915 	stw	r2,-28(fp)
  NIOS2_WRITE_STATUS (context);
    b0a8:	e0bff917 	ldw	r2,-28(fp)
    b0ac:	1001703a 	wrctl	status,r2
}
    b0b0:	00000506 	br	b0c8 <OSTaskResume+0x1ac>
    b0b4:	e0bfff17 	ldw	r2,-4(fp)
    b0b8:	e0bff815 	stw	r2,-32(fp)
  NIOS2_WRITE_STATUS (context);
    b0bc:	e0bff817 	ldw	r2,-32(fp)
    b0c0:	1001703a 	wrctl	status,r2
}
    b0c4:	0001883a 	nop
                OS_EXIT_CRITICAL();
            }
        } else {                                              /* Must be pending on event              */
            OS_EXIT_CRITICAL();
        }
        return (OS_ERR_NONE);
    b0c8:	0005883a 	mov	r2,zero
    b0cc:	00000606 	br	b0e8 <OSTaskResume+0x1cc>
    b0d0:	e0bfff17 	ldw	r2,-4(fp)
    b0d4:	e0bff715 	stw	r2,-36(fp)
  NIOS2_WRITE_STATUS (context);
    b0d8:	e0bff717 	ldw	r2,-36(fp)
    b0dc:	1001703a 	wrctl	status,r2
}
    b0e0:	0001883a 	nop
    }
    OS_EXIT_CRITICAL();
    return (OS_ERR_TASK_NOT_SUSPENDED);
    b0e4:	00801104 	movi	r2,68
}
    b0e8:	e037883a 	mov	sp,fp
    b0ec:	dfc00117 	ldw	ra,4(sp)
    b0f0:	df000017 	ldw	fp,0(sp)
    b0f4:	dec00204 	addi	sp,sp,8
    b0f8:	f800283a 	ret

0000b0fc <OSTaskStkChk>:
*********************************************************************************************************
*/
#if (OS_TASK_STAT_STK_CHK_EN > 0u) && (OS_TASK_CREATE_EXT_EN > 0u)
INT8U  OSTaskStkChk (INT8U         prio,
                     OS_STK_DATA  *p_stk_data)
{
    b0fc:	defff304 	addi	sp,sp,-52
    b100:	df000c15 	stw	fp,48(sp)
    b104:	df000c04 	addi	fp,sp,48
    b108:	2005883a 	mov	r2,r4
    b10c:	e17ff415 	stw	r5,-48(fp)
    b110:	e0bff505 	stb	r2,-44(fp)
    OS_TCB    *ptcb;
    OS_STK    *pchk;
    INT32U     nfree;
    INT32U     size;
#if OS_CRITICAL_METHOD == 3u                           /* Allocate storage for CPU status register     */
    OS_CPU_SR  cpu_sr = 0u;
    b114:	e03ffd15 	stw	zero,-12(fp)
#endif



#if OS_ARG_CHK_EN > 0u
    if (prio > OS_LOWEST_PRIO) {                       /* Make sure task priority is valid             */
    b118:	e0bff503 	ldbu	r2,-44(fp)
    b11c:	10800570 	cmpltui	r2,r2,21
    b120:	1000051e 	bne	r2,zero,b138 <OSTaskStkChk+0x3c>
        if (prio != OS_PRIO_SELF) {
    b124:	e0bff503 	ldbu	r2,-44(fp)
    b128:	10803fe0 	cmpeqi	r2,r2,255
    b12c:	1000021e 	bne	r2,zero,b138 <OSTaskStkChk+0x3c>
            return (OS_ERR_PRIO_INVALID);
    b130:	00800a84 	movi	r2,42
    b134:	00005906 	br	b29c <OSTaskStkChk+0x1a0>
        }
    }
    if (p_stk_data == (OS_STK_DATA *)0) {              /* Validate 'p_stk_data'                        */
    b138:	e0bff417 	ldw	r2,-48(fp)
    b13c:	1000021e 	bne	r2,zero,b148 <OSTaskStkChk+0x4c>
        return (OS_ERR_PDATA_NULL);
    b140:	00800244 	movi	r2,9
    b144:	00005506 	br	b29c <OSTaskStkChk+0x1a0>
    }
#endif
    p_stk_data->OSFree = 0u;                           /* Assume failure, set to 0 size                */
    b148:	e0bff417 	ldw	r2,-48(fp)
    b14c:	10000015 	stw	zero,0(r2)
    p_stk_data->OSUsed = 0u;
    b150:	e0bff417 	ldw	r2,-48(fp)
    b154:	10000115 	stw	zero,4(r2)
  NIOS2_READ_STATUS (context);
    b158:	0005303a 	rdctl	r2,status
    b15c:	e0bffa15 	stw	r2,-24(fp)
  NIOS2_WRITE_STATUS (context & ~NIOS2_STATUS_PIE_MSK);
    b160:	e0fffa17 	ldw	r3,-24(fp)
    b164:	00bfff84 	movi	r2,-2
    b168:	1884703a 	and	r2,r3,r2
    b16c:	1001703a 	wrctl	status,r2
  return context;
    b170:	e0bffa17 	ldw	r2,-24(fp)
    OS_ENTER_CRITICAL();
    b174:	e0bffd15 	stw	r2,-12(fp)
    if (prio == OS_PRIO_SELF) {                        /* See if check for SELF                        */
    b178:	e0bff503 	ldbu	r2,-44(fp)
    b17c:	10803fd8 	cmpnei	r2,r2,255
    b180:	1000031e 	bne	r2,zero,b190 <OSTaskStkChk+0x94>
        prio = OSTCBCur->OSTCBPrio;
    b184:	d0ab4817 	ldw	r2,-21216(gp)
    b188:	10800e83 	ldbu	r2,58(r2)
    b18c:	e0bff505 	stb	r2,-44(fp)
    }
    ptcb = OSTCBPrioTbl[prio];
    b190:	e0bff503 	ldbu	r2,-44(fp)
    b194:	100690ba 	slli	r3,r2,2
    b198:	008000b4 	movhi	r2,2
    b19c:	1885883a 	add	r2,r3,r2
    b1a0:	10a66817 	ldw	r2,-26208(r2)
    b1a4:	e0bffc15 	stw	r2,-16(fp)
    if (ptcb == (OS_TCB *)0) {                         /* Make sure task exist                         */
    b1a8:	e0bffc17 	ldw	r2,-16(fp)
    b1ac:	1000071e 	bne	r2,zero,b1cc <OSTaskStkChk+0xd0>
    b1b0:	e0bffd17 	ldw	r2,-12(fp)
    b1b4:	e0bff915 	stw	r2,-28(fp)
  NIOS2_WRITE_STATUS (context);
    b1b8:	e0bff917 	ldw	r2,-28(fp)
    b1bc:	1001703a 	wrctl	status,r2
}
    b1c0:	0001883a 	nop
        OS_EXIT_CRITICAL();
        return (OS_ERR_TASK_NOT_EXIST);
    b1c4:	008010c4 	movi	r2,67
    b1c8:	00003406 	br	b29c <OSTaskStkChk+0x1a0>
    }
    if (ptcb == OS_TCB_RESERVED) {
    b1cc:	e0bffc17 	ldw	r2,-16(fp)
    b1d0:	10800058 	cmpnei	r2,r2,1
    b1d4:	1000071e 	bne	r2,zero,b1f4 <OSTaskStkChk+0xf8>
    b1d8:	e0bffd17 	ldw	r2,-12(fp)
    b1dc:	e0bff815 	stw	r2,-32(fp)
  NIOS2_WRITE_STATUS (context);
    b1e0:	e0bff817 	ldw	r2,-32(fp)
    b1e4:	1001703a 	wrctl	status,r2
}
    b1e8:	0001883a 	nop
        OS_EXIT_CRITICAL();
        return (OS_ERR_TASK_NOT_EXIST);
    b1ec:	008010c4 	movi	r2,67
    b1f0:	00002a06 	br	b29c <OSTaskStkChk+0x1a0>
    }
    if ((ptcb->OSTCBOpt & OS_TASK_OPT_STK_CHK) == 0u) { /* Make sure stack checking option is set      */
    b1f4:	e0bffc17 	ldw	r2,-16(fp)
    b1f8:	1080040b 	ldhu	r2,16(r2)
    b1fc:	10bfffcc 	andi	r2,r2,65535
    b200:	1080004c 	andi	r2,r2,1
    b204:	1000071e 	bne	r2,zero,b224 <OSTaskStkChk+0x128>
    b208:	e0bffd17 	ldw	r2,-12(fp)
    b20c:	e0bff715 	stw	r2,-36(fp)
  NIOS2_WRITE_STATUS (context);
    b210:	e0bff717 	ldw	r2,-36(fp)
    b214:	1001703a 	wrctl	status,r2
}
    b218:	0001883a 	nop
        OS_EXIT_CRITICAL();
        return (OS_ERR_TASK_OPT);
    b21c:	00801144 	movi	r2,69
    b220:	00001e06 	br	b29c <OSTaskStkChk+0x1a0>
    }
    nfree = 0u;
    b224:	e03ffe15 	stw	zero,-8(fp)
    size  = ptcb->OSTCBStkSize;
    b228:	e0bffc17 	ldw	r2,-16(fp)
    b22c:	10800317 	ldw	r2,12(r2)
    b230:	e0bffb15 	stw	r2,-20(fp)
    pchk  = ptcb->OSTCBStkBottom;
    b234:	e0bffc17 	ldw	r2,-16(fp)
    b238:	10800217 	ldw	r2,8(r2)
    b23c:	e0bfff15 	stw	r2,-4(fp)
    b240:	e0bffd17 	ldw	r2,-12(fp)
    b244:	e0bff615 	stw	r2,-40(fp)
  NIOS2_WRITE_STATUS (context);
    b248:	e0bff617 	ldw	r2,-40(fp)
    b24c:	1001703a 	wrctl	status,r2
}
    b250:	0001883a 	nop
    OS_EXIT_CRITICAL();
#if OS_STK_GROWTH == 1u
    while (*pchk++ == (OS_STK)0) {                    /* Compute the number of zero entries on the stk */
    b254:	00000306 	br	b264 <OSTaskStkChk+0x168>
        nfree++;
    b258:	e0bffe17 	ldw	r2,-8(fp)
    b25c:	10800044 	addi	r2,r2,1
    b260:	e0bffe15 	stw	r2,-8(fp)
    while (*pchk++ == (OS_STK)0) {                    /* Compute the number of zero entries on the stk */
    b264:	e0bfff17 	ldw	r2,-4(fp)
    b268:	10c00104 	addi	r3,r2,4
    b26c:	e0ffff15 	stw	r3,-4(fp)
    b270:	10800017 	ldw	r2,0(r2)
    b274:	103ff826 	beq	r2,zero,b258 <OSTaskStkChk+0x15c>
#else
    while (*pchk-- == (OS_STK)0) {
        nfree++;
    }
#endif
    p_stk_data->OSFree = nfree;                       /* Store   number of free entries on the stk     */
    b278:	e0bff417 	ldw	r2,-48(fp)
    b27c:	e0fffe17 	ldw	r3,-8(fp)
    b280:	10c00015 	stw	r3,0(r2)
    p_stk_data->OSUsed = size - nfree;                /* Compute number of entries used on the stk     */
    b284:	e0fffb17 	ldw	r3,-20(fp)
    b288:	e0bffe17 	ldw	r2,-8(fp)
    b28c:	1887c83a 	sub	r3,r3,r2
    b290:	e0bff417 	ldw	r2,-48(fp)
    b294:	10c00115 	stw	r3,4(r2)
    return (OS_ERR_NONE);
    b298:	0005883a 	mov	r2,zero
}
    b29c:	e037883a 	mov	sp,fp
    b2a0:	df000017 	ldw	fp,0(sp)
    b2a4:	dec00104 	addi	sp,sp,4
    b2a8:	f800283a 	ret

0000b2ac <OSTaskSuspend>:
*********************************************************************************************************
*/

#if OS_TASK_SUSPEND_EN > 0u
INT8U  OSTaskSuspend (INT8U prio)
{
    b2ac:	defff504 	addi	sp,sp,-44
    b2b0:	dfc00a15 	stw	ra,40(sp)
    b2b4:	df000915 	stw	fp,36(sp)
    b2b8:	df000904 	addi	fp,sp,36
    b2bc:	2005883a 	mov	r2,r4
    b2c0:	e0bff705 	stb	r2,-36(fp)
    BOOLEAN    self;
    OS_TCB    *ptcb;
    INT8U      y;
#if OS_CRITICAL_METHOD == 3u                     /* Allocate storage for CPU status register           */
    OS_CPU_SR  cpu_sr = 0u;
    b2c4:	e03ffe15 	stw	zero,-8(fp)
#endif



#if OS_ARG_CHK_EN > 0u
    if (prio == OS_TASK_IDLE_PRIO) {                            /* Not allowed to suspend idle task    */
    b2c8:	e0bff703 	ldbu	r2,-36(fp)
    b2cc:	10800518 	cmpnei	r2,r2,20
    b2d0:	1000021e 	bne	r2,zero,b2dc <OSTaskSuspend+0x30>
        return (OS_ERR_TASK_SUSPEND_IDLE);
    b2d4:	008011c4 	movi	r2,71
    b2d8:	00006906 	br	b480 <OSTaskSuspend+0x1d4>
    }
    if (prio >= OS_LOWEST_PRIO) {                               /* Task priority valid ?               */
    b2dc:	e0bff703 	ldbu	r2,-36(fp)
    b2e0:	10800530 	cmpltui	r2,r2,20
    b2e4:	1000051e 	bne	r2,zero,b2fc <OSTaskSuspend+0x50>
        if (prio != OS_PRIO_SELF) {
    b2e8:	e0bff703 	ldbu	r2,-36(fp)
    b2ec:	10803fe0 	cmpeqi	r2,r2,255
    b2f0:	1000021e 	bne	r2,zero,b2fc <OSTaskSuspend+0x50>
            return (OS_ERR_PRIO_INVALID);
    b2f4:	00800a84 	movi	r2,42
    b2f8:	00006106 	br	b480 <OSTaskSuspend+0x1d4>
  NIOS2_READ_STATUS (context);
    b2fc:	0005303a 	rdctl	r2,status
    b300:	e0bffb15 	stw	r2,-20(fp)
  NIOS2_WRITE_STATUS (context & ~NIOS2_STATUS_PIE_MSK);
    b304:	e0fffb17 	ldw	r3,-20(fp)
    b308:	00bfff84 	movi	r2,-2
    b30c:	1884703a 	and	r2,r3,r2
    b310:	1001703a 	wrctl	status,r2
  return context;
    b314:	e0bffb17 	ldw	r2,-20(fp)
        }
    }
#endif
    OS_ENTER_CRITICAL();
    b318:	e0bffe15 	stw	r2,-8(fp)
    if (prio == OS_PRIO_SELF) {                                 /* See if suspend SELF                 */
    b31c:	e0bff703 	ldbu	r2,-36(fp)
    b320:	10803fd8 	cmpnei	r2,r2,255
    b324:	1000061e 	bne	r2,zero,b340 <OSTaskSuspend+0x94>
        prio = OSTCBCur->OSTCBPrio;
    b328:	d0ab4817 	ldw	r2,-21216(gp)
    b32c:	10800e83 	ldbu	r2,58(r2)
    b330:	e0bff705 	stb	r2,-36(fp)
        self = OS_TRUE;
    b334:	00800044 	movi	r2,1
    b338:	e0bfffc5 	stb	r2,-1(fp)
    b33c:	00000906 	br	b364 <OSTaskSuspend+0xb8>
    } else if (prio == OSTCBCur->OSTCBPrio) {                   /* See if suspending self              */
    b340:	d0ab4817 	ldw	r2,-21216(gp)
    b344:	10800e83 	ldbu	r2,58(r2)
    b348:	e0fff703 	ldbu	r3,-36(fp)
    b34c:	10803fcc 	andi	r2,r2,255
    b350:	1880031e 	bne	r3,r2,b360 <OSTaskSuspend+0xb4>
        self = OS_TRUE;
    b354:	00800044 	movi	r2,1
    b358:	e0bfffc5 	stb	r2,-1(fp)
    b35c:	00000106 	br	b364 <OSTaskSuspend+0xb8>
    } else {
        self = OS_FALSE;                                        /* No suspending another task          */
    b360:	e03fffc5 	stb	zero,-1(fp)
    }
    ptcb = OSTCBPrioTbl[prio];
    b364:	e0bff703 	ldbu	r2,-36(fp)
    b368:	100690ba 	slli	r3,r2,2
    b36c:	008000b4 	movhi	r2,2
    b370:	1885883a 	add	r2,r3,r2
    b374:	10a66817 	ldw	r2,-26208(r2)
    b378:	e0bffd15 	stw	r2,-12(fp)
    if (ptcb == (OS_TCB *)0) {                                  /* Task to suspend must exist          */
    b37c:	e0bffd17 	ldw	r2,-12(fp)
    b380:	1000071e 	bne	r2,zero,b3a0 <OSTaskSuspend+0xf4>
    b384:	e0bffe17 	ldw	r2,-8(fp)
    b388:	e0bffa15 	stw	r2,-24(fp)
  NIOS2_WRITE_STATUS (context);
    b38c:	e0bffa17 	ldw	r2,-24(fp)
    b390:	1001703a 	wrctl	status,r2
}
    b394:	0001883a 	nop
        OS_EXIT_CRITICAL();
        return (OS_ERR_TASK_SUSPEND_PRIO);
    b398:	00801204 	movi	r2,72
    b39c:	00003806 	br	b480 <OSTaskSuspend+0x1d4>
    }
    if (ptcb == OS_TCB_RESERVED) {                              /* See if assigned to Mutex            */
    b3a0:	e0bffd17 	ldw	r2,-12(fp)
    b3a4:	10800058 	cmpnei	r2,r2,1
    b3a8:	1000071e 	bne	r2,zero,b3c8 <OSTaskSuspend+0x11c>
    b3ac:	e0bffe17 	ldw	r2,-8(fp)
    b3b0:	e0bff915 	stw	r2,-28(fp)
  NIOS2_WRITE_STATUS (context);
    b3b4:	e0bff917 	ldw	r2,-28(fp)
    b3b8:	1001703a 	wrctl	status,r2
}
    b3bc:	0001883a 	nop
        OS_EXIT_CRITICAL();
        return (OS_ERR_TASK_NOT_EXIST);
    b3c0:	008010c4 	movi	r2,67
    b3c4:	00002e06 	br	b480 <OSTaskSuspend+0x1d4>
    }
    y            = ptcb->OSTCBY;
    b3c8:	e0bffd17 	ldw	r2,-12(fp)
    b3cc:	10800f03 	ldbu	r2,60(r2)
    b3d0:	e0bffcc5 	stb	r2,-13(fp)
    OSRdyTbl[y] &= (OS_PRIO)~ptcb->OSTCBBitX;                   /* Make task not ready                 */
    b3d4:	e0fffcc3 	ldbu	r3,-13(fp)
    b3d8:	d0ab4584 	addi	r2,gp,-21226
    b3dc:	1885883a 	add	r2,r3,r2
    b3e0:	10800003 	ldbu	r2,0(r2)
    b3e4:	e0fffd17 	ldw	r3,-12(fp)
    b3e8:	18c00f43 	ldbu	r3,61(r3)
    b3ec:	00c6303a 	nor	r3,zero,r3
    b3f0:	1809883a 	mov	r4,r3
    b3f4:	e0fffcc3 	ldbu	r3,-13(fp)
    b3f8:	1104703a 	and	r2,r2,r4
    b3fc:	1009883a 	mov	r4,r2
    b400:	d0ab4584 	addi	r2,gp,-21226
    b404:	1885883a 	add	r2,r3,r2
    b408:	11000005 	stb	r4,0(r2)
    if (OSRdyTbl[y] == 0u) {
    b40c:	e0fffcc3 	ldbu	r3,-13(fp)
    b410:	d0ab4584 	addi	r2,gp,-21226
    b414:	1885883a 	add	r2,r3,r2
    b418:	10800003 	ldbu	r2,0(r2)
    b41c:	10803fcc 	andi	r2,r2,255
    b420:	1000071e 	bne	r2,zero,b440 <OSTaskSuspend+0x194>
        OSRdyGrp &= (OS_PRIO)~ptcb->OSTCBBitY;
    b424:	e0bffd17 	ldw	r2,-12(fp)
    b428:	10800f83 	ldbu	r2,62(r2)
    b42c:	0084303a 	nor	r2,zero,r2
    b430:	1007883a 	mov	r3,r2
    b434:	d0ab4543 	ldbu	r2,-21227(gp)
    b438:	1884703a 	and	r2,r3,r2
    b43c:	d0ab4545 	stb	r2,-21227(gp)
    }
    ptcb->OSTCBStat |= OS_STAT_SUSPEND;                         /* Status of task is 'SUSPENDED'       */
    b440:	e0bffd17 	ldw	r2,-12(fp)
    b444:	10800e03 	ldbu	r2,56(r2)
    b448:	10800214 	ori	r2,r2,8
    b44c:	1007883a 	mov	r3,r2
    b450:	e0bffd17 	ldw	r2,-12(fp)
    b454:	10c00e05 	stb	r3,56(r2)
    b458:	e0bffe17 	ldw	r2,-8(fp)
    b45c:	e0bff815 	stw	r2,-32(fp)
  NIOS2_WRITE_STATUS (context);
    b460:	e0bff817 	ldw	r2,-32(fp)
    b464:	1001703a 	wrctl	status,r2
}
    b468:	0001883a 	nop
    OS_EXIT_CRITICAL();
    OS_TRACE_TASK_SUSPEND(ptcb);
    OS_TRACE_TASK_SUSPENDED(ptcb);
    if (self == OS_TRUE) {                                      /* Context switch only if SELF         */
    b46c:	e0bfffc3 	ldbu	r2,-1(fp)
    b470:	10800058 	cmpnei	r2,r2,1
    b474:	1000011e 	bne	r2,zero,b47c <OSTaskSuspend+0x1d0>
        OS_Sched();                                             /* Find new highest priority task      */
    b478:	0005c980 	call	5c98 <OS_Sched>
    }
    return (OS_ERR_NONE);
    b47c:	0005883a 	mov	r2,zero
}
    b480:	e037883a 	mov	sp,fp
    b484:	dfc00117 	ldw	ra,4(sp)
    b488:	df000017 	ldw	fp,0(sp)
    b48c:	dec00204 	addi	sp,sp,8
    b490:	f800283a 	ret

0000b494 <OSTaskQuery>:
*/

#if OS_TASK_QUERY_EN > 0u
INT8U  OSTaskQuery (INT8U    prio,
                    OS_TCB  *p_task_data)
{
    b494:	defff604 	addi	sp,sp,-40
    b498:	dfc00915 	stw	ra,36(sp)
    b49c:	df000815 	stw	fp,32(sp)
    b4a0:	df000804 	addi	fp,sp,32
    b4a4:	2005883a 	mov	r2,r4
    b4a8:	e17ff815 	stw	r5,-32(fp)
    b4ac:	e0bff905 	stb	r2,-28(fp)
    OS_TCB    *ptcb;
#if OS_CRITICAL_METHOD == 3u                     /* Allocate storage for CPU status register           */
    OS_CPU_SR  cpu_sr = 0u;
    b4b0:	e03fff15 	stw	zero,-4(fp)
#endif



#if OS_ARG_CHK_EN > 0u
    if (prio > OS_LOWEST_PRIO) {                 /* Task priority valid ?                              */
    b4b4:	e0bff903 	ldbu	r2,-28(fp)
    b4b8:	10800570 	cmpltui	r2,r2,21
    b4bc:	1000051e 	bne	r2,zero,b4d4 <OSTaskQuery+0x40>
        if (prio != OS_PRIO_SELF) {
    b4c0:	e0bff903 	ldbu	r2,-28(fp)
    b4c4:	10803fe0 	cmpeqi	r2,r2,255
    b4c8:	1000021e 	bne	r2,zero,b4d4 <OSTaskQuery+0x40>
            return (OS_ERR_PRIO_INVALID);
    b4cc:	00800a84 	movi	r2,42
    b4d0:	00003506 	br	b5a8 <OSTaskQuery+0x114>
        }
    }
    if (p_task_data == (OS_TCB *)0) {            /* Validate 'p_task_data'                             */
    b4d4:	e0bff817 	ldw	r2,-32(fp)
    b4d8:	1000021e 	bne	r2,zero,b4e4 <OSTaskQuery+0x50>
        return (OS_ERR_PDATA_NULL);
    b4dc:	00800244 	movi	r2,9
    b4e0:	00003106 	br	b5a8 <OSTaskQuery+0x114>
  NIOS2_READ_STATUS (context);
    b4e4:	0005303a 	rdctl	r2,status
    b4e8:	e0bffd15 	stw	r2,-12(fp)
  NIOS2_WRITE_STATUS (context & ~NIOS2_STATUS_PIE_MSK);
    b4ec:	e0fffd17 	ldw	r3,-12(fp)
    b4f0:	00bfff84 	movi	r2,-2
    b4f4:	1884703a 	and	r2,r3,r2
    b4f8:	1001703a 	wrctl	status,r2
  return context;
    b4fc:	e0bffd17 	ldw	r2,-12(fp)
    }
#endif
    OS_ENTER_CRITICAL();
    b500:	e0bfff15 	stw	r2,-4(fp)
    if (prio == OS_PRIO_SELF) {                  /* See if suspend SELF                                */
    b504:	e0bff903 	ldbu	r2,-28(fp)
    b508:	10803fd8 	cmpnei	r2,r2,255
    b50c:	1000031e 	bne	r2,zero,b51c <OSTaskQuery+0x88>
        prio = OSTCBCur->OSTCBPrio;
    b510:	d0ab4817 	ldw	r2,-21216(gp)
    b514:	10800e83 	ldbu	r2,58(r2)
    b518:	e0bff905 	stb	r2,-28(fp)
    }
    ptcb = OSTCBPrioTbl[prio];
    b51c:	e0bff903 	ldbu	r2,-28(fp)
    b520:	100690ba 	slli	r3,r2,2
    b524:	008000b4 	movhi	r2,2
    b528:	1885883a 	add	r2,r3,r2
    b52c:	10a66817 	ldw	r2,-26208(r2)
    b530:	e0bffe15 	stw	r2,-8(fp)
    if (ptcb == (OS_TCB *)0) {                   /* Task to query must exist                           */
    b534:	e0bffe17 	ldw	r2,-8(fp)
    b538:	1000071e 	bne	r2,zero,b558 <OSTaskQuery+0xc4>
    b53c:	e0bfff17 	ldw	r2,-4(fp)
    b540:	e0bffc15 	stw	r2,-16(fp)
  NIOS2_WRITE_STATUS (context);
    b544:	e0bffc17 	ldw	r2,-16(fp)
    b548:	1001703a 	wrctl	status,r2
}
    b54c:	0001883a 	nop
        OS_EXIT_CRITICAL();
        return (OS_ERR_PRIO);
    b550:	00800a44 	movi	r2,41
    b554:	00001406 	br	b5a8 <OSTaskQuery+0x114>
    }
    if (ptcb == OS_TCB_RESERVED) {               /* Task to query must not be assigned to a Mutex      */
    b558:	e0bffe17 	ldw	r2,-8(fp)
    b55c:	10800058 	cmpnei	r2,r2,1
    b560:	1000071e 	bne	r2,zero,b580 <OSTaskQuery+0xec>
    b564:	e0bfff17 	ldw	r2,-4(fp)
    b568:	e0bffb15 	stw	r2,-20(fp)
  NIOS2_WRITE_STATUS (context);
    b56c:	e0bffb17 	ldw	r2,-20(fp)
    b570:	1001703a 	wrctl	status,r2
}
    b574:	0001883a 	nop
        OS_EXIT_CRITICAL();
        return (OS_ERR_TASK_NOT_EXIST);
    b578:	008010c4 	movi	r2,67
    b57c:	00000a06 	br	b5a8 <OSTaskQuery+0x114>
    }
                                                 /* Copy TCB into user storage area                    */
    OS_MemCopy((INT8U *)p_task_data, (INT8U *)ptcb, sizeof(OS_TCB));
    b580:	01803604 	movi	r6,216
    b584:	e17ffe17 	ldw	r5,-8(fp)
    b588:	e13ff817 	ldw	r4,-32(fp)
    b58c:	0005c2c0 	call	5c2c <OS_MemCopy>
    b590:	e0bfff17 	ldw	r2,-4(fp)
    b594:	e0bffa15 	stw	r2,-24(fp)
  NIOS2_WRITE_STATUS (context);
    b598:	e0bffa17 	ldw	r2,-24(fp)
    b59c:	1001703a 	wrctl	status,r2
}
    b5a0:	0001883a 	nop
    OS_EXIT_CRITICAL();
    return (OS_ERR_NONE);
    b5a4:	0005883a 	mov	r2,zero
}
    b5a8:	e037883a 	mov	sp,fp
    b5ac:	dfc00117 	ldw	ra,4(sp)
    b5b0:	df000017 	ldw	fp,0(sp)
    b5b4:	dec00204 	addi	sp,sp,8
    b5b8:	f800283a 	ret

0000b5bc <OSTaskRegGet>:

#if OS_TASK_REG_TBL_SIZE > 0u
INT32U  OSTaskRegGet (INT8U   prio,
                      INT8U   id,
                      INT8U  *perr)
{
    b5bc:	defff704 	addi	sp,sp,-36
    b5c0:	df000815 	stw	fp,32(sp)
    b5c4:	df000804 	addi	fp,sp,32
    b5c8:	2005883a 	mov	r2,r4
    b5cc:	2807883a 	mov	r3,r5
    b5d0:	e1bff815 	stw	r6,-32(fp)
    b5d4:	e0bffa05 	stb	r2,-24(fp)
    b5d8:	1805883a 	mov	r2,r3
    b5dc:	e0bff905 	stb	r2,-28(fp)
#if OS_CRITICAL_METHOD == 3u                     /* Allocate storage for CPU status register           */
    OS_CPU_SR  cpu_sr = 0u;
    b5e0:	e03ffe15 	stw	zero,-8(fp)
        return (0u);
    }
#endif

#if OS_ARG_CHK_EN > 0u
    if (prio >= OS_LOWEST_PRIO) {
    b5e4:	e0bffa03 	ldbu	r2,-24(fp)
    b5e8:	10800530 	cmpltui	r2,r2,20
    b5ec:	1000081e 	bne	r2,zero,b610 <OSTaskRegGet+0x54>
        if (prio != OS_PRIO_SELF) {
    b5f0:	e0bffa03 	ldbu	r2,-24(fp)
    b5f4:	10803fe0 	cmpeqi	r2,r2,255
    b5f8:	1000051e 	bne	r2,zero,b610 <OSTaskRegGet+0x54>
            *perr = OS_ERR_PRIO_INVALID;
    b5fc:	e0bff817 	ldw	r2,-32(fp)
    b600:	00c00a84 	movi	r3,42
    b604:	10c00005 	stb	r3,0(r2)
            return (0u);
    b608:	0005883a 	mov	r2,zero
    b60c:	00002b06 	br	b6bc <OSTaskRegGet+0x100>
        }
    }
    if (id >= OS_TASK_REG_TBL_SIZE) {
    b610:	e0bff903 	ldbu	r2,-28(fp)
    b614:	10800830 	cmpltui	r2,r2,32
    b618:	1000051e 	bne	r2,zero,b630 <OSTaskRegGet+0x74>
        *perr = OS_ERR_ID_INVALID;
    b61c:	e0bff817 	ldw	r2,-32(fp)
    b620:	00c00204 	movi	r3,8
    b624:	10c00005 	stb	r3,0(r2)
        return (0u);
    b628:	0005883a 	mov	r2,zero
    b62c:	00002306 	br	b6bc <OSTaskRegGet+0x100>
  NIOS2_READ_STATUS (context);
    b630:	0005303a 	rdctl	r2,status
    b634:	e0bffc15 	stw	r2,-16(fp)
  NIOS2_WRITE_STATUS (context & ~NIOS2_STATUS_PIE_MSK);
    b638:	e0fffc17 	ldw	r3,-16(fp)
    b63c:	00bfff84 	movi	r2,-2
    b640:	1884703a 	and	r2,r3,r2
    b644:	1001703a 	wrctl	status,r2
  return context;
    b648:	e0bffc17 	ldw	r2,-16(fp)
    }
#endif
    OS_ENTER_CRITICAL();
    b64c:	e0bffe15 	stw	r2,-8(fp)
    if (prio == OS_PRIO_SELF) {                  /* See if need to get register from current task      */
    b650:	e0bffa03 	ldbu	r2,-24(fp)
    b654:	10803fd8 	cmpnei	r2,r2,255
    b658:	1000031e 	bne	r2,zero,b668 <OSTaskRegGet+0xac>
        ptcb = OSTCBCur;
    b65c:	d0ab4817 	ldw	r2,-21216(gp)
    b660:	e0bfff15 	stw	r2,-4(fp)
    b664:	00000606 	br	b680 <OSTaskRegGet+0xc4>
    } else {
        ptcb = OSTCBPrioTbl[prio];
    b668:	e0bffa03 	ldbu	r2,-24(fp)
    b66c:	100690ba 	slli	r3,r2,2
    b670:	008000b4 	movhi	r2,2
    b674:	1885883a 	add	r2,r3,r2
    b678:	10a66817 	ldw	r2,-26208(r2)
    b67c:	e0bfff15 	stw	r2,-4(fp)
    }
    value = ptcb->OSTCBRegTbl[id];
    b680:	e0bff903 	ldbu	r2,-28(fp)
    b684:	e0ffff17 	ldw	r3,-4(fp)
    b688:	10800584 	addi	r2,r2,22
    b68c:	100490ba 	slli	r2,r2,2
    b690:	1885883a 	add	r2,r3,r2
    b694:	10800017 	ldw	r2,0(r2)
    b698:	e0bffd15 	stw	r2,-12(fp)
    b69c:	e0bffe17 	ldw	r2,-8(fp)
    b6a0:	e0bffb15 	stw	r2,-20(fp)
  NIOS2_WRITE_STATUS (context);
    b6a4:	e0bffb17 	ldw	r2,-20(fp)
    b6a8:	1001703a 	wrctl	status,r2
}
    b6ac:	0001883a 	nop
    OS_EXIT_CRITICAL();
    *perr = OS_ERR_NONE;
    b6b0:	e0bff817 	ldw	r2,-32(fp)
    b6b4:	10000005 	stb	zero,0(r2)
    return (value);
    b6b8:	e0bffd17 	ldw	r2,-12(fp)
}
    b6bc:	e037883a 	mov	sp,fp
    b6c0:	df000017 	ldw	fp,0(sp)
    b6c4:	dec00104 	addi	sp,sp,4
    b6c8:	f800283a 	ret

0000b6cc <OSTaskRegGetID>:
************************************************************************************************************************
*/

#if OS_TASK_REG_TBL_SIZE > 0u
INT8U  OSTaskRegGetID (INT8U  *perr)
{
    b6cc:	defff904 	addi	sp,sp,-28
    b6d0:	df000615 	stw	fp,24(sp)
    b6d4:	df000604 	addi	fp,sp,24
    b6d8:	e13ffa15 	stw	r4,-24(fp)
#if OS_CRITICAL_METHOD == 3u                                    /* Allocate storage for CPU status register           */
    OS_CPU_SR  cpu_sr = 0u;
    b6dc:	e03fff15 	stw	zero,-4(fp)
  NIOS2_READ_STATUS (context);
    b6e0:	0005303a 	rdctl	r2,status
    b6e4:	e0bffd15 	stw	r2,-12(fp)
  NIOS2_WRITE_STATUS (context & ~NIOS2_STATUS_PIE_MSK);
    b6e8:	e0fffd17 	ldw	r3,-12(fp)
    b6ec:	00bfff84 	movi	r2,-2
    b6f0:	1884703a 	and	r2,r3,r2
    b6f4:	1001703a 	wrctl	status,r2
  return context;
    b6f8:	e0bffd17 	ldw	r2,-12(fp)
        OS_SAFETY_CRITICAL_EXCEPTION();
        return ((INT8U)OS_TASK_REG_TBL_SIZE);
    }
#endif

    OS_ENTER_CRITICAL();
    b6fc:	e0bfff15 	stw	r2,-4(fp)
    if (OSTaskRegNextAvailID >= OS_TASK_REG_TBL_SIZE) {         /* See if we exceeded the number of IDs available     */
    b700:	d0ab4f03 	ldbu	r2,-21188(gp)
    b704:	10803fcc 	andi	r2,r2,255
    b708:	10800830 	cmpltui	r2,r2,32
    b70c:	10000a1e 	bne	r2,zero,b738 <OSTaskRegGetID+0x6c>
       *perr = OS_ERR_NO_MORE_ID_AVAIL;                         /* Yes, cannot allocate more task register IDs        */
    b710:	e0bffa17 	ldw	r2,-24(fp)
    b714:	00ffe584 	movi	r3,-106
    b718:	10c00005 	stb	r3,0(r2)
    b71c:	e0bfff17 	ldw	r2,-4(fp)
    b720:	e0bffc15 	stw	r2,-16(fp)
  NIOS2_WRITE_STATUS (context);
    b724:	e0bffc17 	ldw	r2,-16(fp)
    b728:	1001703a 	wrctl	status,r2
}
    b72c:	0001883a 	nop
        OS_EXIT_CRITICAL();
        return ((INT8U)OS_TASK_REG_TBL_SIZE);
    b730:	00800804 	movi	r2,32
    b734:	00000d06 	br	b76c <OSTaskRegGetID+0xa0>
    }

    id   = OSTaskRegNextAvailID;                                /* Assign the next available ID                       */
    b738:	d0ab4f03 	ldbu	r2,-21188(gp)
    b73c:	e0bffec5 	stb	r2,-5(fp)
    OSTaskRegNextAvailID++;                                     /* Increment available ID for next request            */
    b740:	d0ab4f03 	ldbu	r2,-21188(gp)
    b744:	10800044 	addi	r2,r2,1
    b748:	d0ab4f05 	stb	r2,-21188(gp)
    b74c:	e0bfff17 	ldw	r2,-4(fp)
    b750:	e0bffb15 	stw	r2,-20(fp)
  NIOS2_WRITE_STATUS (context);
    b754:	e0bffb17 	ldw	r2,-20(fp)
    b758:	1001703a 	wrctl	status,r2
}
    b75c:	0001883a 	nop
    OS_EXIT_CRITICAL();
   *perr = OS_ERR_NONE;
    b760:	e0bffa17 	ldw	r2,-24(fp)
    b764:	10000005 	stb	zero,0(r2)
    return (id);
    b768:	e0bffec3 	ldbu	r2,-5(fp)
}
    b76c:	e037883a 	mov	sp,fp
    b770:	df000017 	ldw	fp,0(sp)
    b774:	dec00104 	addi	sp,sp,4
    b778:	f800283a 	ret

0000b77c <OSTaskRegSet>:
#if OS_TASK_REG_TBL_SIZE > 0u
void  OSTaskRegSet (INT8U    prio,
                    INT8U    id,
                    INT32U   value,
                    INT8U   *perr)
{
    b77c:	defff704 	addi	sp,sp,-36
    b780:	df000815 	stw	fp,32(sp)
    b784:	df000804 	addi	fp,sp,32
    b788:	2005883a 	mov	r2,r4
    b78c:	2807883a 	mov	r3,r5
    b790:	e1bff915 	stw	r6,-28(fp)
    b794:	e1fff815 	stw	r7,-32(fp)
    b798:	e0bffb05 	stb	r2,-20(fp)
    b79c:	1805883a 	mov	r2,r3
    b7a0:	e0bffa05 	stb	r2,-24(fp)
#if OS_CRITICAL_METHOD == 3u                     /* Allocate storage for CPU status register           */
    OS_CPU_SR  cpu_sr = 0u;
    b7a4:	e03ffe15 	stw	zero,-8(fp)
        return;
    }
#endif

#if OS_ARG_CHK_EN > 0u
    if (prio >= OS_LOWEST_PRIO) {
    b7a8:	e0bffb03 	ldbu	r2,-20(fp)
    b7ac:	10800530 	cmpltui	r2,r2,20
    b7b0:	1000071e 	bne	r2,zero,b7d0 <OSTaskRegSet+0x54>
        if (prio != OS_PRIO_SELF) {
    b7b4:	e0bffb03 	ldbu	r2,-20(fp)
    b7b8:	10803fe0 	cmpeqi	r2,r2,255
    b7bc:	1000041e 	bne	r2,zero,b7d0 <OSTaskRegSet+0x54>
            *perr = OS_ERR_PRIO_INVALID;
    b7c0:	e0bff817 	ldw	r2,-32(fp)
    b7c4:	00c00a84 	movi	r3,42
    b7c8:	10c00005 	stb	r3,0(r2)
            return;
    b7cc:	00002906 	br	b874 <OSTaskRegSet+0xf8>
        }
    }
    if (id >= OS_TASK_REG_TBL_SIZE) {
    b7d0:	e0bffa03 	ldbu	r2,-24(fp)
    b7d4:	10800830 	cmpltui	r2,r2,32
    b7d8:	1000041e 	bne	r2,zero,b7ec <OSTaskRegSet+0x70>
        *perr = OS_ERR_ID_INVALID;
    b7dc:	e0bff817 	ldw	r2,-32(fp)
    b7e0:	00c00204 	movi	r3,8
    b7e4:	10c00005 	stb	r3,0(r2)
        return;
    b7e8:	00002206 	br	b874 <OSTaskRegSet+0xf8>
  NIOS2_READ_STATUS (context);
    b7ec:	0005303a 	rdctl	r2,status
    b7f0:	e0bffd15 	stw	r2,-12(fp)
  NIOS2_WRITE_STATUS (context & ~NIOS2_STATUS_PIE_MSK);
    b7f4:	e0fffd17 	ldw	r3,-12(fp)
    b7f8:	00bfff84 	movi	r2,-2
    b7fc:	1884703a 	and	r2,r3,r2
    b800:	1001703a 	wrctl	status,r2
  return context;
    b804:	e0bffd17 	ldw	r2,-12(fp)
    }
#endif
    OS_ENTER_CRITICAL();
    b808:	e0bffe15 	stw	r2,-8(fp)
    if (prio == OS_PRIO_SELF) {                  /* See if need to get register from current task      */
    b80c:	e0bffb03 	ldbu	r2,-20(fp)
    b810:	10803fd8 	cmpnei	r2,r2,255
    b814:	1000031e 	bne	r2,zero,b824 <OSTaskRegSet+0xa8>
        ptcb = OSTCBCur;
    b818:	d0ab4817 	ldw	r2,-21216(gp)
    b81c:	e0bfff15 	stw	r2,-4(fp)
    b820:	00000606 	br	b83c <OSTaskRegSet+0xc0>
    } else {
        ptcb = OSTCBPrioTbl[prio];
    b824:	e0bffb03 	ldbu	r2,-20(fp)
    b828:	100690ba 	slli	r3,r2,2
    b82c:	008000b4 	movhi	r2,2
    b830:	1885883a 	add	r2,r3,r2
    b834:	10a66817 	ldw	r2,-26208(r2)
    b838:	e0bfff15 	stw	r2,-4(fp)
    }
    ptcb->OSTCBRegTbl[id] = value;
    b83c:	e0bffa03 	ldbu	r2,-24(fp)
    b840:	e0ffff17 	ldw	r3,-4(fp)
    b844:	10800584 	addi	r2,r2,22
    b848:	100490ba 	slli	r2,r2,2
    b84c:	1885883a 	add	r2,r3,r2
    b850:	e0fff917 	ldw	r3,-28(fp)
    b854:	10c00015 	stw	r3,0(r2)
    b858:	e0bffe17 	ldw	r2,-8(fp)
    b85c:	e0bffc15 	stw	r2,-16(fp)
  NIOS2_WRITE_STATUS (context);
    b860:	e0bffc17 	ldw	r2,-16(fp)
    b864:	1001703a 	wrctl	status,r2
}
    b868:	0001883a 	nop
    OS_EXIT_CRITICAL();
    *perr                 = OS_ERR_NONE;
    b86c:	e0bff817 	ldw	r2,-32(fp)
    b870:	10000005 	stb	zero,0(r2)
}
    b874:	e037883a 	mov	sp,fp
    b878:	df000017 	ldw	fp,0(sp)
    b87c:	dec00104 	addi	sp,sp,4
    b880:	f800283a 	ret

0000b884 <OS_TaskReturn>:
* Note(s)    : This function is INTERNAL to uC/OS-II and your application should not call it.
*********************************************************************************************************
*/

void  OS_TaskReturn (void)
{
    b884:	defffe04 	addi	sp,sp,-8
    b888:	dfc00115 	stw	ra,4(sp)
    b88c:	df000015 	stw	fp,0(sp)
    b890:	d839883a 	mov	fp,sp
    OSTaskReturnHook(OSTCBCur);                   /* Call hook to let user decide on what to do        */
    b894:	d0ab4817 	ldw	r2,-21216(gp)
    b898:	1009883a 	mov	r4,r2
    b89c:	000e0c00 	call	e0c0 <OSTaskReturnHook>

#if OS_TASK_DEL_EN > 0u
    (void)OSTaskDel(OS_PRIO_SELF);                /* Delete task if it accidentally returns!           */
    b8a0:	01003fc4 	movi	r4,255
    b8a4:	000a78c0 	call	a78c <OSTaskDel>
#else
    for (;;) {
        OSTimeDly(OS_TICKS_PER_SEC);
    }
#endif
}
    b8a8:	0001883a 	nop
    b8ac:	e037883a 	mov	sp,fp
    b8b0:	dfc00117 	ldw	ra,4(sp)
    b8b4:	df000017 	ldw	fp,0(sp)
    b8b8:	dec00204 	addi	sp,sp,8
    b8bc:	f800283a 	ret

0000b8c0 <OS_TaskStkClr>:
*/
#if (OS_TASK_STAT_STK_CHK_EN > 0u) && (OS_TASK_CREATE_EXT_EN > 0u)
void  OS_TaskStkClr (OS_STK  *pbos,
                     INT32U   size,
                     INT16U   opt)
{
    b8c0:	defffc04 	addi	sp,sp,-16
    b8c4:	df000315 	stw	fp,12(sp)
    b8c8:	df000304 	addi	fp,sp,12
    b8cc:	e13fff15 	stw	r4,-4(fp)
    b8d0:	e17ffe15 	stw	r5,-8(fp)
    b8d4:	3005883a 	mov	r2,r6
    b8d8:	e0bffd0d 	sth	r2,-12(fp)
    if ((opt & OS_TASK_OPT_STK_CHK) != 0x0000u) {      /* See if stack checking has been enabled       */
    b8dc:	e0bffd0b 	ldhu	r2,-12(fp)
    b8e0:	1080004c 	andi	r2,r2,1
    b8e4:	10000d26 	beq	r2,zero,b91c <OS_TaskStkClr+0x5c>
        if ((opt & OS_TASK_OPT_STK_CLR) != 0x0000u) {  /* See if stack needs to be cleared             */
    b8e8:	e0bffd0b 	ldhu	r2,-12(fp)
    b8ec:	1080008c 	andi	r2,r2,2
    b8f0:	10000a26 	beq	r2,zero,b91c <OS_TaskStkClr+0x5c>
#if OS_STK_GROWTH == 1u
            while (size > 0u) {                        /* Stack grows from HIGH to LOW memory          */
    b8f4:	00000706 	br	b914 <OS_TaskStkClr+0x54>
                size--;
    b8f8:	e0bffe17 	ldw	r2,-8(fp)
    b8fc:	10bfffc4 	addi	r2,r2,-1
    b900:	e0bffe15 	stw	r2,-8(fp)
                *pbos++ = (OS_STK)0;                   /* Clear from bottom of stack and up!           */
    b904:	e0bfff17 	ldw	r2,-4(fp)
    b908:	10c00104 	addi	r3,r2,4
    b90c:	e0ffff15 	stw	r3,-4(fp)
    b910:	10000015 	stw	zero,0(r2)
            while (size > 0u) {                        /* Stack grows from HIGH to LOW memory          */
    b914:	e0bffe17 	ldw	r2,-8(fp)
    b918:	103ff71e 	bne	r2,zero,b8f8 <OS_TaskStkClr+0x38>
                *pbos-- = (OS_STK)0;                   /* Clear from bottom of stack and down          */
            }
#endif
        }
    }
}
    b91c:	0001883a 	nop
    b920:	e037883a 	mov	sp,fp
    b924:	df000017 	ldw	fp,0(sp)
    b928:	dec00104 	addi	sp,sp,4
    b92c:	f800283a 	ret

0000b930 <OSTimeDly>:
* Returns    : none
*********************************************************************************************************
*/

void  OSTimeDly (INT32U ticks)
{
    b930:	defff904 	addi	sp,sp,-28
    b934:	dfc00615 	stw	ra,24(sp)
    b938:	df000515 	stw	fp,20(sp)
    b93c:	df000504 	addi	fp,sp,20
    b940:	e13ffb15 	stw	r4,-20(fp)
    INT8U      y;
#if OS_CRITICAL_METHOD == 3u                     /* Allocate storage for CPU status register           */
    OS_CPU_SR  cpu_sr = 0u;
    b944:	e03fff15 	stw	zero,-4(fp)
#endif



    if (OSIntNesting > 0u) {                     /* See if trying to call from an ISR                  */
    b948:	d0ab4443 	ldbu	r2,-21231(gp)
    b94c:	10803fcc 	andi	r2,r2,255
    b950:	1000351e 	bne	r2,zero,ba28 <OSTimeDly+0xf8>
        return;
    }
    if (OSLockNesting > 0u) {                    /* See if called with scheduler locked                */
    b954:	d0ab4483 	ldbu	r2,-21230(gp)
    b958:	10803fcc 	andi	r2,r2,255
    b95c:	1000341e 	bne	r2,zero,ba30 <OSTimeDly+0x100>
        return;
    }
    if (ticks > 0u) {                            /* 0 means no delay!                                  */
    b960:	e0bffb17 	ldw	r2,-20(fp)
    b964:	10003326 	beq	r2,zero,ba34 <OSTimeDly+0x104>
  NIOS2_READ_STATUS (context);
    b968:	0005303a 	rdctl	r2,status
    b96c:	e0bffd15 	stw	r2,-12(fp)
  NIOS2_WRITE_STATUS (context & ~NIOS2_STATUS_PIE_MSK);
    b970:	e0fffd17 	ldw	r3,-12(fp)
    b974:	00bfff84 	movi	r2,-2
    b978:	1884703a 	and	r2,r3,r2
    b97c:	1001703a 	wrctl	status,r2
  return context;
    b980:	e0bffd17 	ldw	r2,-12(fp)
        OS_ENTER_CRITICAL();
    b984:	e0bfff15 	stw	r2,-4(fp)
        y            =  OSTCBCur->OSTCBY;        /* Delay current task                                 */
    b988:	d0ab4817 	ldw	r2,-21216(gp)
    b98c:	10800f03 	ldbu	r2,60(r2)
    b990:	e0bffec5 	stb	r2,-5(fp)
        OSRdyTbl[y] &= (OS_PRIO)~OSTCBCur->OSTCBBitX;
    b994:	e0fffec3 	ldbu	r3,-5(fp)
    b998:	d0ab4584 	addi	r2,gp,-21226
    b99c:	1885883a 	add	r2,r3,r2
    b9a0:	10800003 	ldbu	r2,0(r2)
    b9a4:	d0eb4817 	ldw	r3,-21216(gp)
    b9a8:	18c00f43 	ldbu	r3,61(r3)
    b9ac:	00c6303a 	nor	r3,zero,r3
    b9b0:	1809883a 	mov	r4,r3
    b9b4:	e0fffec3 	ldbu	r3,-5(fp)
    b9b8:	1104703a 	and	r2,r2,r4
    b9bc:	1009883a 	mov	r4,r2
    b9c0:	d0ab4584 	addi	r2,gp,-21226
    b9c4:	1885883a 	add	r2,r3,r2
    b9c8:	11000005 	stb	r4,0(r2)
        OS_TRACE_TASK_SUSPENDED(OSTCBCur);
        if (OSRdyTbl[y] == 0u) {
    b9cc:	e0fffec3 	ldbu	r3,-5(fp)
    b9d0:	d0ab4584 	addi	r2,gp,-21226
    b9d4:	1885883a 	add	r2,r3,r2
    b9d8:	10800003 	ldbu	r2,0(r2)
    b9dc:	10803fcc 	andi	r2,r2,255
    b9e0:	1000071e 	bne	r2,zero,ba00 <OSTimeDly+0xd0>
            OSRdyGrp &= (OS_PRIO)~OSTCBCur->OSTCBBitY;
    b9e4:	d0ab4817 	ldw	r2,-21216(gp)
    b9e8:	10800f83 	ldbu	r2,62(r2)
    b9ec:	0084303a 	nor	r2,zero,r2
    b9f0:	1007883a 	mov	r3,r2
    b9f4:	d0ab4543 	ldbu	r2,-21227(gp)
    b9f8:	1884703a 	and	r2,r3,r2
    b9fc:	d0ab4545 	stb	r2,-21227(gp)
        }
        OSTCBCur->OSTCBDly = ticks;              /* Load ticks in TCB                                  */
    ba00:	d0ab4817 	ldw	r2,-21216(gp)
    ba04:	e0fffb17 	ldw	r3,-20(fp)
    ba08:	10c00d15 	stw	r3,52(r2)
    ba0c:	e0bfff17 	ldw	r2,-4(fp)
    ba10:	e0bffc15 	stw	r2,-16(fp)
  NIOS2_WRITE_STATUS (context);
    ba14:	e0bffc17 	ldw	r2,-16(fp)
    ba18:	1001703a 	wrctl	status,r2
}
    ba1c:	0001883a 	nop
        OS_TRACE_TASK_DLY(ticks);
        OS_EXIT_CRITICAL();
        OS_Sched();                              /* Find next task to run!                             */
    ba20:	0005c980 	call	5c98 <OS_Sched>
    ba24:	00000306 	br	ba34 <OSTimeDly+0x104>
        return;
    ba28:	0001883a 	nop
    ba2c:	00000106 	br	ba34 <OSTimeDly+0x104>
        return;
    ba30:	0001883a 	nop
    }
}
    ba34:	e037883a 	mov	sp,fp
    ba38:	dfc00117 	ldw	ra,4(sp)
    ba3c:	df000017 	ldw	fp,0(sp)
    ba40:	dec00204 	addi	sp,sp,8
    ba44:	f800283a 	ret

0000ba48 <OSTimeDlyHMSM>:
#if OS_TIME_DLY_HMSM_EN > 0u
INT8U  OSTimeDlyHMSM (INT8U   hours,
                      INT8U   minutes,
                      INT8U   seconds,
                      INT16U  ms)
{
    ba48:	defff804 	addi	sp,sp,-32
    ba4c:	dfc00715 	stw	ra,28(sp)
    ba50:	df000615 	stw	fp,24(sp)
    ba54:	dc000515 	stw	r16,20(sp)
    ba58:	df000604 	addi	fp,sp,24
    ba5c:	2005883a 	mov	r2,r4
    ba60:	3009883a 	mov	r4,r6
    ba64:	3807883a 	mov	r3,r7
    ba68:	e0bffd05 	stb	r2,-12(fp)
    ba6c:	2805883a 	mov	r2,r5
    ba70:	e0bffc05 	stb	r2,-16(fp)
    ba74:	2005883a 	mov	r2,r4
    ba78:	e0bffb05 	stb	r2,-20(fp)
    ba7c:	1805883a 	mov	r2,r3
    ba80:	e0bffa0d 	sth	r2,-24(fp)
    INT32U ticks;


    if (OSIntNesting > 0u) {                     /* See if trying to call from an ISR                  */
    ba84:	d0ab4443 	ldbu	r2,-21231(gp)
    ba88:	10803fcc 	andi	r2,r2,255
    ba8c:	10000226 	beq	r2,zero,ba98 <OSTimeDlyHMSM+0x50>
        return (OS_ERR_TIME_DLY_ISR);
    ba90:	00801544 	movi	r2,85
    ba94:	00003006 	br	bb58 <OSTimeDlyHMSM+0x110>
    }
    if (OSLockNesting > 0u) {                    /* See if called with scheduler locked                */
    ba98:	d0ab4483 	ldbu	r2,-21230(gp)
    ba9c:	10803fcc 	andi	r2,r2,255
    baa0:	10000226 	beq	r2,zero,baac <OSTimeDlyHMSM+0x64>
        return (OS_ERR_SCHED_LOCKED);
    baa4:	00800c84 	movi	r2,50
    baa8:	00002b06 	br	bb58 <OSTimeDlyHMSM+0x110>
    }
#if OS_ARG_CHK_EN > 0u
    if (hours == 0u) {
    baac:	e0bffd03 	ldbu	r2,-12(fp)
    bab0:	1000081e 	bne	r2,zero,bad4 <OSTimeDlyHMSM+0x8c>
        if (minutes == 0u) {
    bab4:	e0bffc03 	ldbu	r2,-16(fp)
    bab8:	1000061e 	bne	r2,zero,bad4 <OSTimeDlyHMSM+0x8c>
            if (seconds == 0u) {
    babc:	e0bffb03 	ldbu	r2,-20(fp)
    bac0:	1000041e 	bne	r2,zero,bad4 <OSTimeDlyHMSM+0x8c>
                if (ms == 0u) {
    bac4:	e0bffa0b 	ldhu	r2,-24(fp)
    bac8:	1000021e 	bne	r2,zero,bad4 <OSTimeDlyHMSM+0x8c>
                    return (OS_ERR_TIME_ZERO_DLY);
    bacc:	00801504 	movi	r2,84
    bad0:	00002106 	br	bb58 <OSTimeDlyHMSM+0x110>
                }
            }
        }
    }
    if (minutes > 59u) {
    bad4:	e0bffc03 	ldbu	r2,-16(fp)
    bad8:	10800f30 	cmpltui	r2,r2,60
    badc:	1000021e 	bne	r2,zero,bae8 <OSTimeDlyHMSM+0xa0>
        return (OS_ERR_TIME_INVALID_MINUTES);    /* Validate arguments to be within range              */
    bae0:	00801444 	movi	r2,81
    bae4:	00001c06 	br	bb58 <OSTimeDlyHMSM+0x110>
    }
    if (seconds > 59u) {
    bae8:	e0bffb03 	ldbu	r2,-20(fp)
    baec:	10800f30 	cmpltui	r2,r2,60
    baf0:	1000021e 	bne	r2,zero,bafc <OSTimeDlyHMSM+0xb4>
        return (OS_ERR_TIME_INVALID_SECONDS);
    baf4:	00801484 	movi	r2,82
    baf8:	00001706 	br	bb58 <OSTimeDlyHMSM+0x110>
    }
    if (ms > 999u) {
    bafc:	e0bffa0b 	ldhu	r2,-24(fp)
    bb00:	1080fa30 	cmpltui	r2,r2,1000
    bb04:	1000021e 	bne	r2,zero,bb10 <OSTimeDlyHMSM+0xc8>
        return (OS_ERR_TIME_INVALID_MS);
    bb08:	008014c4 	movi	r2,83
    bb0c:	00001206 	br	bb58 <OSTimeDlyHMSM+0x110>
    }
#endif
                                                 /* Compute the total number of clock ticks required.. */
                                                 /* .. (rounded to the nearest tick)                   */
    ticks = ((INT32U)hours * 3600uL + (INT32U)minutes * 60uL + (INT32U)seconds) * OS_TICKS_PER_SEC
    bb10:	e0bffd03 	ldbu	r2,-12(fp)
    bb14:	10c38424 	muli	r3,r2,3600
    bb18:	e0bffc03 	ldbu	r2,-16(fp)
    bb1c:	10800f24 	muli	r2,r2,60
    bb20:	1887883a 	add	r3,r3,r2
    bb24:	e0bffb03 	ldbu	r2,-20(fp)
    bb28:	1885883a 	add	r2,r3,r2
    bb2c:	1400fa24 	muli	r16,r2,1000
          + OS_TICKS_PER_SEC * ((INT32U)ms + 500uL / OS_TICKS_PER_SEC) / 1000uL;
    bb30:	e0bffa0b 	ldhu	r2,-24(fp)
    bb34:	1080fa24 	muli	r2,r2,1000
    bb38:	0140fa04 	movi	r5,1000
    bb3c:	1009883a 	mov	r4,r2
    bb40:	00036480 	call	3648 <__udivsi3>
    ticks = ((INT32U)hours * 3600uL + (INT32U)minutes * 60uL + (INT32U)seconds) * OS_TICKS_PER_SEC
    bb44:	8085883a 	add	r2,r16,r2
    bb48:	e0bffe15 	stw	r2,-8(fp)
    OSTimeDly(ticks);
    bb4c:	e13ffe17 	ldw	r4,-8(fp)
    bb50:	000b9300 	call	b930 <OSTimeDly>
    return (OS_ERR_NONE);
    bb54:	0005883a 	mov	r2,zero
}
    bb58:	e6ffff04 	addi	sp,fp,-4
    bb5c:	dfc00217 	ldw	ra,8(sp)
    bb60:	df000117 	ldw	fp,4(sp)
    bb64:	dc000017 	ldw	r16,0(sp)
    bb68:	dec00304 	addi	sp,sp,12
    bb6c:	f800283a 	ret

0000bb70 <OSTimeDlyResume>:
*********************************************************************************************************
*/

#if OS_TIME_DLY_RESUME_EN > 0u
INT8U  OSTimeDlyResume (INT8U prio)
{
    bb70:	defff504 	addi	sp,sp,-44
    bb74:	dfc00a15 	stw	ra,40(sp)
    bb78:	df000915 	stw	fp,36(sp)
    bb7c:	df000904 	addi	fp,sp,36
    bb80:	2005883a 	mov	r2,r4
    bb84:	e0bff705 	stb	r2,-36(fp)
    OS_TCB    *ptcb;
#if OS_CRITICAL_METHOD == 3u                                   /* Storage for CPU status register      */
    OS_CPU_SR  cpu_sr = 0u;
    bb88:	e03fff15 	stw	zero,-4(fp)
#endif



    if (prio >= OS_LOWEST_PRIO) {
    bb8c:	e0bff703 	ldbu	r2,-36(fp)
    bb90:	10800530 	cmpltui	r2,r2,20
    bb94:	1000021e 	bne	r2,zero,bba0 <OSTimeDlyResume+0x30>
        return (OS_ERR_PRIO_INVALID);
    bb98:	00800a84 	movi	r2,42
    bb9c:	00006606 	br	bd38 <OSTimeDlyResume+0x1c8>
  NIOS2_READ_STATUS (context);
    bba0:	0005303a 	rdctl	r2,status
    bba4:	e0bffd15 	stw	r2,-12(fp)
  NIOS2_WRITE_STATUS (context & ~NIOS2_STATUS_PIE_MSK);
    bba8:	e0fffd17 	ldw	r3,-12(fp)
    bbac:	00bfff84 	movi	r2,-2
    bbb0:	1884703a 	and	r2,r3,r2
    bbb4:	1001703a 	wrctl	status,r2
  return context;
    bbb8:	e0bffd17 	ldw	r2,-12(fp)
    }
    OS_ENTER_CRITICAL();
    bbbc:	e0bfff15 	stw	r2,-4(fp)
    ptcb = OSTCBPrioTbl[prio];                                 /* Make sure that task exist            */
    bbc0:	e0bff703 	ldbu	r2,-36(fp)
    bbc4:	100690ba 	slli	r3,r2,2
    bbc8:	008000b4 	movhi	r2,2
    bbcc:	1885883a 	add	r2,r3,r2
    bbd0:	10a66817 	ldw	r2,-26208(r2)
    bbd4:	e0bffe15 	stw	r2,-8(fp)
    if (ptcb == (OS_TCB *)0) {
    bbd8:	e0bffe17 	ldw	r2,-8(fp)
    bbdc:	1000071e 	bne	r2,zero,bbfc <OSTimeDlyResume+0x8c>
    bbe0:	e0bfff17 	ldw	r2,-4(fp)
    bbe4:	e0bffc15 	stw	r2,-16(fp)
  NIOS2_WRITE_STATUS (context);
    bbe8:	e0bffc17 	ldw	r2,-16(fp)
    bbec:	1001703a 	wrctl	status,r2
}
    bbf0:	0001883a 	nop
        OS_EXIT_CRITICAL();
        return (OS_ERR_TASK_NOT_EXIST);                        /* The task does not exist              */
    bbf4:	008010c4 	movi	r2,67
    bbf8:	00004f06 	br	bd38 <OSTimeDlyResume+0x1c8>
    }
    if (ptcb == OS_TCB_RESERVED) {
    bbfc:	e0bffe17 	ldw	r2,-8(fp)
    bc00:	10800058 	cmpnei	r2,r2,1
    bc04:	1000071e 	bne	r2,zero,bc24 <OSTimeDlyResume+0xb4>
    bc08:	e0bfff17 	ldw	r2,-4(fp)
    bc0c:	e0bffb15 	stw	r2,-20(fp)
  NIOS2_WRITE_STATUS (context);
    bc10:	e0bffb17 	ldw	r2,-20(fp)
    bc14:	1001703a 	wrctl	status,r2
}
    bc18:	0001883a 	nop
        OS_EXIT_CRITICAL();
        return (OS_ERR_TASK_NOT_EXIST);                        /* The task does not exist              */
    bc1c:	008010c4 	movi	r2,67
    bc20:	00004506 	br	bd38 <OSTimeDlyResume+0x1c8>
    }
    if (ptcb->OSTCBDly == 0u) {                                /* See if task is delayed               */
    bc24:	e0bffe17 	ldw	r2,-8(fp)
    bc28:	10800d17 	ldw	r2,52(r2)
    bc2c:	1000071e 	bne	r2,zero,bc4c <OSTimeDlyResume+0xdc>
    bc30:	e0bfff17 	ldw	r2,-4(fp)
    bc34:	e0bffa15 	stw	r2,-24(fp)
  NIOS2_WRITE_STATUS (context);
    bc38:	e0bffa17 	ldw	r2,-24(fp)
    bc3c:	1001703a 	wrctl	status,r2
}
    bc40:	0001883a 	nop
        OS_EXIT_CRITICAL();
        return (OS_ERR_TIME_NOT_DLY);                          /* Indicate that task was not delayed   */
    bc44:	00801404 	movi	r2,80
    bc48:	00003b06 	br	bd38 <OSTimeDlyResume+0x1c8>
    }

    ptcb->OSTCBDly = 0u;                                       /* Clear the time delay                 */
    bc4c:	e0bffe17 	ldw	r2,-8(fp)
    bc50:	10000d15 	stw	zero,52(r2)
    if ((ptcb->OSTCBStat & OS_STAT_PEND_ANY) != OS_STAT_RDY) {
    bc54:	e0bffe17 	ldw	r2,-8(fp)
    bc58:	10800e03 	ldbu	r2,56(r2)
    bc5c:	10803fcc 	andi	r2,r2,255
    bc60:	10800dcc 	andi	r2,r2,55
    bc64:	10000b26 	beq	r2,zero,bc94 <OSTimeDlyResume+0x124>
        ptcb->OSTCBStat     &= ~OS_STAT_PEND_ANY;              /* Yes, Clear status flag               */
    bc68:	e0bffe17 	ldw	r2,-8(fp)
    bc6c:	10c00e03 	ldbu	r3,56(r2)
    bc70:	00bff204 	movi	r2,-56
    bc74:	1884703a 	and	r2,r3,r2
    bc78:	1007883a 	mov	r3,r2
    bc7c:	e0bffe17 	ldw	r2,-8(fp)
    bc80:	10c00e05 	stb	r3,56(r2)
        ptcb->OSTCBStatPend  =  OS_STAT_PEND_TO;               /* Indicate PEND timeout                */
    bc84:	e0bffe17 	ldw	r2,-8(fp)
    bc88:	00c00044 	movi	r3,1
    bc8c:	10c00e45 	stb	r3,57(r2)
    bc90:	00000206 	br	bc9c <OSTimeDlyResume+0x12c>
    } else {
        ptcb->OSTCBStatPend  =  OS_STAT_PEND_OK;
    bc94:	e0bffe17 	ldw	r2,-8(fp)
    bc98:	10000e45 	stb	zero,57(r2)
    }
    if ((ptcb->OSTCBStat & OS_STAT_SUSPEND) == OS_STAT_RDY) {  /* Is task suspended?                   */
    bc9c:	e0bffe17 	ldw	r2,-8(fp)
    bca0:	10800e03 	ldbu	r2,56(r2)
    bca4:	10803fcc 	andi	r2,r2,255
    bca8:	1080020c 	andi	r2,r2,8
    bcac:	10001c1e 	bne	r2,zero,bd20 <OSTimeDlyResume+0x1b0>
        OSRdyGrp               |= ptcb->OSTCBBitY;             /* No,  Make ready                      */
    bcb0:	e0bffe17 	ldw	r2,-8(fp)
    bcb4:	10c00f83 	ldbu	r3,62(r2)
    bcb8:	d0ab4543 	ldbu	r2,-21227(gp)
    bcbc:	1884b03a 	or	r2,r3,r2
    bcc0:	d0ab4545 	stb	r2,-21227(gp)
        OSRdyTbl[ptcb->OSTCBY] |= ptcb->OSTCBBitX;
    bcc4:	e0bffe17 	ldw	r2,-8(fp)
    bcc8:	10800f03 	ldbu	r2,60(r2)
    bccc:	10c03fcc 	andi	r3,r2,255
    bcd0:	d0ab4584 	addi	r2,gp,-21226
    bcd4:	1885883a 	add	r2,r3,r2
    bcd8:	11000003 	ldbu	r4,0(r2)
    bcdc:	e0bffe17 	ldw	r2,-8(fp)
    bce0:	10800f43 	ldbu	r2,61(r2)
    bce4:	e0fffe17 	ldw	r3,-8(fp)
    bce8:	18c00f03 	ldbu	r3,60(r3)
    bcec:	18c03fcc 	andi	r3,r3,255
    bcf0:	2084b03a 	or	r2,r4,r2
    bcf4:	1009883a 	mov	r4,r2
    bcf8:	d0ab4584 	addi	r2,gp,-21226
    bcfc:	1885883a 	add	r2,r3,r2
    bd00:	11000005 	stb	r4,0(r2)
    bd04:	e0bfff17 	ldw	r2,-4(fp)
    bd08:	e0bff915 	stw	r2,-28(fp)
  NIOS2_WRITE_STATUS (context);
    bd0c:	e0bff917 	ldw	r2,-28(fp)
    bd10:	1001703a 	wrctl	status,r2
}
    bd14:	0001883a 	nop
        OS_TRACE_TASK_READY(ptcb);
        OS_EXIT_CRITICAL();
        OS_Sched();                                            /* See if this is new highest priority  */
    bd18:	0005c980 	call	5c98 <OS_Sched>
    bd1c:	00000506 	br	bd34 <OSTimeDlyResume+0x1c4>
    bd20:	e0bfff17 	ldw	r2,-4(fp)
    bd24:	e0bff815 	stw	r2,-32(fp)
  NIOS2_WRITE_STATUS (context);
    bd28:	e0bff817 	ldw	r2,-32(fp)
    bd2c:	1001703a 	wrctl	status,r2
}
    bd30:	0001883a 	nop
    } else {
        OS_EXIT_CRITICAL();                                    /* Task may be suspended                */
    }
    return (OS_ERR_NONE);
    bd34:	0005883a 	mov	r2,zero
}
    bd38:	e037883a 	mov	sp,fp
    bd3c:	dfc00117 	ldw	ra,4(sp)
    bd40:	df000017 	ldw	fp,0(sp)
    bd44:	dec00204 	addi	sp,sp,8
    bd48:	f800283a 	ret

0000bd4c <OSTimeGet>:
*********************************************************************************************************
*/

#if OS_TIME_GET_SET_EN > 0u
INT32U  OSTimeGet (void)
{
    bd4c:	defffb04 	addi	sp,sp,-20
    bd50:	df000415 	stw	fp,16(sp)
    bd54:	df000404 	addi	fp,sp,16
    INT32U     ticks;
#if OS_CRITICAL_METHOD == 3u                     /* Allocate storage for CPU status register           */
    OS_CPU_SR  cpu_sr = 0u;
    bd58:	e03fff15 	stw	zero,-4(fp)
  NIOS2_READ_STATUS (context);
    bd5c:	0005303a 	rdctl	r2,status
    bd60:	e0bffc15 	stw	r2,-16(fp)
  NIOS2_WRITE_STATUS (context & ~NIOS2_STATUS_PIE_MSK);
    bd64:	e0fffc17 	ldw	r3,-16(fp)
    bd68:	00bfff84 	movi	r2,-2
    bd6c:	1884703a 	and	r2,r3,r2
    bd70:	1001703a 	wrctl	status,r2
  return context;
    bd74:	e0bffc17 	ldw	r2,-16(fp)
#endif



    OS_ENTER_CRITICAL();
    bd78:	e0bfff15 	stw	r2,-4(fp)
    ticks = OSTime;
    bd7c:	d0ab5017 	ldw	r2,-21184(gp)
    bd80:	e0bffe15 	stw	r2,-8(fp)
    bd84:	e0bfff17 	ldw	r2,-4(fp)
    bd88:	e0bffd15 	stw	r2,-12(fp)
  NIOS2_WRITE_STATUS (context);
    bd8c:	e0bffd17 	ldw	r2,-12(fp)
    bd90:	1001703a 	wrctl	status,r2
}
    bd94:	0001883a 	nop
    OS_EXIT_CRITICAL();
    return (ticks);
    bd98:	e0bffe17 	ldw	r2,-8(fp)
}
    bd9c:	e037883a 	mov	sp,fp
    bda0:	df000017 	ldw	fp,0(sp)
    bda4:	dec00104 	addi	sp,sp,4
    bda8:	f800283a 	ret

0000bdac <OSTimeSet>:
*********************************************************************************************************
*/

#if OS_TIME_GET_SET_EN > 0u
void  OSTimeSet (INT32U ticks)
{
    bdac:	defffb04 	addi	sp,sp,-20
    bdb0:	df000415 	stw	fp,16(sp)
    bdb4:	df000404 	addi	fp,sp,16
    bdb8:	e13ffc15 	stw	r4,-16(fp)
#if OS_CRITICAL_METHOD == 3u                     /* Allocate storage for CPU status register           */
    OS_CPU_SR  cpu_sr = 0u;
    bdbc:	e03fff15 	stw	zero,-4(fp)
  NIOS2_READ_STATUS (context);
    bdc0:	0005303a 	rdctl	r2,status
    bdc4:	e0bffd15 	stw	r2,-12(fp)
  NIOS2_WRITE_STATUS (context & ~NIOS2_STATUS_PIE_MSK);
    bdc8:	e0fffd17 	ldw	r3,-12(fp)
    bdcc:	00bfff84 	movi	r2,-2
    bdd0:	1884703a 	and	r2,r3,r2
    bdd4:	1001703a 	wrctl	status,r2
  return context;
    bdd8:	e0bffd17 	ldw	r2,-12(fp)
#endif



    OS_ENTER_CRITICAL();
    bddc:	e0bfff15 	stw	r2,-4(fp)
    OSTime = ticks;
    bde0:	e0bffc17 	ldw	r2,-16(fp)
    bde4:	d0ab5015 	stw	r2,-21184(gp)
    bde8:	e0bfff17 	ldw	r2,-4(fp)
    bdec:	e0bffe15 	stw	r2,-8(fp)
  NIOS2_WRITE_STATUS (context);
    bdf0:	e0bffe17 	ldw	r2,-8(fp)
    bdf4:	1001703a 	wrctl	status,r2
}
    bdf8:	0001883a 	nop
    OS_EXIT_CRITICAL();
}
    bdfc:	0001883a 	nop
    be00:	e037883a 	mov	sp,fp
    be04:	df000017 	ldw	fp,0(sp)
    be08:	dec00104 	addi	sp,sp,4
    be0c:	f800283a 	ret

0000be10 <alt_dev_reg>:
 */

extern int alt_fs_reg  (alt_dev* dev); 

static ALT_INLINE int alt_dev_reg (alt_dev* dev)
{
    be10:	defffd04 	addi	sp,sp,-12
    be14:	dfc00215 	stw	ra,8(sp)
    be18:	df000115 	stw	fp,4(sp)
    be1c:	df000104 	addi	fp,sp,4
    be20:	e13fff15 	stw	r4,-4(fp)
  extern alt_llist alt_dev_list;

  return alt_dev_llist_insert ((alt_dev_llist*) dev, &alt_dev_list);
    be24:	d1600604 	addi	r5,gp,-32744
    be28:	e13fff17 	ldw	r4,-4(fp)
    be2c:	000d3f80 	call	d3f8 <alt_dev_llist_insert>
}
    be30:	e037883a 	mov	sp,fp
    be34:	dfc00117 	ldw	ra,4(sp)
    be38:	df000017 	ldw	fp,0(sp)
    be3c:	dec00204 	addi	sp,sp,8
    be40:	f800283a 	ret

0000be44 <alt_irq_init>:
 * The "base" parameter is ignored and only
 * present for backwards-compatibility.
 */

void alt_irq_init ( const void* base )
{
    be44:	defffd04 	addi	sp,sp,-12
    be48:	dfc00215 	stw	ra,8(sp)
    be4c:	df000115 	stw	fp,4(sp)
    be50:	df000104 	addi	fp,sp,4
    be54:	e13fff15 	stw	r4,-4(fp)
    ALTERA_NIOS2_GEN2_IRQ_INIT ( NIOS2, nios2);
    be58:	000dd780 	call	dd78 <altera_nios2_gen2_irq_init>
    NIOS2_WRITE_STATUS(NIOS2_STATUS_PIE_MSK
    be5c:	00800044 	movi	r2,1
    be60:	1001703a 	wrctl	status,r2
}
    be64:	0001883a 	nop
    alt_irq_cpu_enable_interrupts();
}
    be68:	0001883a 	nop
    be6c:	e037883a 	mov	sp,fp
    be70:	dfc00117 	ldw	ra,4(sp)
    be74:	df000017 	ldw	fp,0(sp)
    be78:	dec00204 	addi	sp,sp,8
    be7c:	f800283a 	ret

0000be80 <alt_sys_init>:
 * Initialize the non-interrupt controller devices.
 * Called after alt_irq_init().
 */

void alt_sys_init( void )
{
    be80:	defffc04 	addi	sp,sp,-16
    be84:	dfc00315 	stw	ra,12(sp)
    be88:	df000215 	stw	fp,8(sp)
    be8c:	df000204 	addi	fp,sp,8
    ALTERA_AVALON_TIMER_INIT ( TIMER, timer);
    be90:	01c0fa04 	movi	r7,1000
    be94:	000d883a 	mov	r6,zero
    be98:	000b883a 	mov	r5,zero
    be9c:	0103c034 	movhi	r4,3840
    bea0:	21001004 	addi	r4,r4,64
    bea4:	000d18c0 	call	d18c <alt_avalon_timer_sc_init>
    ALTERA_AVALON_JTAG_UART_INIT ( JTAG_UART, jtag_uart);
    bea8:	01800044 	movi	r6,1
    beac:	000b883a 	mov	r5,zero
    beb0:	01000074 	movhi	r4,1
    beb4:	21013c04 	addi	r4,r4,1264
    beb8:	000c5140 	call	c514 <altera_avalon_jtag_uart_init>
    bebc:	01000074 	movhi	r4,1
    bec0:	21013204 	addi	r4,r4,1224
    bec4:	000be100 	call	be10 <alt_dev_reg>
    ALTERA_UP_AVALON_VIDEO_DMA_CONTROLLER_INIT ( VGA_CHAR_BUF_SUBSYSTEM_CHAR_BUF_DMA, VGA_Char_Buf_Subsystem_Char_Buf_DMA);
    bec8:	00800074 	movhi	r2,1
    becc:	10855717 	ldw	r2,5468(r2)
    bed0:	10800017 	ldw	r2,0(r2)
    bed4:	1007883a 	mov	r3,r2
    bed8:	00800074 	movhi	r2,1
    bedc:	10c55815 	stw	r3,5472(r2)
    bee0:	00800074 	movhi	r2,1
    bee4:	10855717 	ldw	r2,5468(r2)
    bee8:	10800104 	addi	r2,r2,4
    beec:	10800017 	ldw	r2,0(r2)
    bef0:	1007883a 	mov	r3,r2
    bef4:	00800074 	movhi	r2,1
    bef8:	10c55915 	stw	r3,5476(r2)
    befc:	00800074 	movhi	r2,1
    bf00:	10855717 	ldw	r2,5468(r2)
    bf04:	10800204 	addi	r2,r2,8
    bf08:	10800017 	ldw	r2,0(r2)
    bf0c:	10ffffcc 	andi	r3,r2,65535
    bf10:	00800074 	movhi	r2,1
    bf14:	10c55e15 	stw	r3,5496(r2)
    bf18:	00800074 	movhi	r2,1
    bf1c:	10855717 	ldw	r2,5468(r2)
    bf20:	10800204 	addi	r2,r2,8
    bf24:	10800017 	ldw	r2,0(r2)
    bf28:	1006d43a 	srli	r3,r2,16
    bf2c:	00800074 	movhi	r2,1
    bf30:	10c55f15 	stw	r3,5500(r2)
    bf34:	00800074 	movhi	r2,1
    bf38:	10855717 	ldw	r2,5468(r2)
    bf3c:	10800304 	addi	r2,r2,12
    bf40:	10800017 	ldw	r2,0(r2)
    bf44:	1005d07a 	srai	r2,r2,1
    bf48:	10c0004c 	andi	r3,r2,1
    bf4c:	00800074 	movhi	r2,1
    bf50:	10c55a15 	stw	r3,5480(r2)
    bf54:	00800074 	movhi	r2,1
    bf58:	10855717 	ldw	r2,5468(r2)
    bf5c:	10800304 	addi	r2,r2,12
    bf60:	10800017 	ldw	r2,0(r2)
    bf64:	1005d23a 	srai	r2,r2,8
    bf68:	108003cc 	andi	r2,r2,15
    bf6c:	10800044 	addi	r2,r2,1
    bf70:	1007883a 	mov	r3,r2
    bf74:	00800074 	movhi	r2,1
    bf78:	10c55b15 	stw	r3,5484(r2)
    bf7c:	00800074 	movhi	r2,1
    bf80:	10855717 	ldw	r2,5468(r2)
    bf84:	10800304 	addi	r2,r2,12
    bf88:	10800017 	ldw	r2,0(r2)
    bf8c:	1005d1ba 	srai	r2,r2,6
    bf90:	108000cc 	andi	r2,r2,3
    bf94:	10800044 	addi	r2,r2,1
    bf98:	1007883a 	mov	r3,r2
    bf9c:	00800074 	movhi	r2,1
    bfa0:	10c55c15 	stw	r3,5488(r2)
    bfa4:	00800074 	movhi	r2,1
    bfa8:	10855b17 	ldw	r2,5484(r2)
    bfac:	1007883a 	mov	r3,r2
    bfb0:	00800074 	movhi	r2,1
    bfb4:	10855c17 	ldw	r2,5488(r2)
    bfb8:	1885383a 	mul	r2,r3,r2
    bfbc:	e0bfffc5 	stb	r2,-1(fp)
    bfc0:	e0bfffc3 	ldbu	r2,-1(fp)
    bfc4:	10800268 	cmpgeui	r2,r2,9
    bfc8:	1000041e 	bne	r2,zero,bfdc <alt_sys_init+0x15c>
    bfcc:	00c00044 	movi	r3,1
    bfd0:	00800074 	movhi	r2,1
    bfd4:	10c55d15 	stw	r3,5492(r2)
    bfd8:	00000a06 	br	c004 <alt_sys_init+0x184>
    bfdc:	e0bfffc3 	ldbu	r2,-1(fp)
    bfe0:	10800468 	cmpgeui	r2,r2,17
    bfe4:	1000041e 	bne	r2,zero,bff8 <alt_sys_init+0x178>
    bfe8:	00c00084 	movi	r3,2
    bfec:	00800074 	movhi	r2,1
    bff0:	10c55d15 	stw	r3,5492(r2)
    bff4:	00000306 	br	c004 <alt_sys_init+0x184>
    bff8:	00c00104 	movi	r3,4
    bffc:	00800074 	movhi	r2,1
    c000:	10c55d15 	stw	r3,5492(r2)
    c004:	00800074 	movhi	r2,1
    c008:	10855717 	ldw	r2,5468(r2)
    c00c:	10800304 	addi	r2,r2,12
    c010:	10800017 	ldw	r2,0(r2)
    c014:	1005d43a 	srai	r2,r2,16
    c018:	e0bfff85 	stb	r2,-2(fp)
    c01c:	00800074 	movhi	r2,1
    c020:	10855717 	ldw	r2,5468(r2)
    c024:	10800304 	addi	r2,r2,12
    c028:	10800017 	ldw	r2,0(r2)
    c02c:	1004d63a 	srli	r2,r2,24
    c030:	e0bfff45 	stb	r2,-3(fp)
    c034:	00800074 	movhi	r2,1
    c038:	10855d17 	ldw	r2,5492(r2)
    c03c:	10800058 	cmpnei	r2,r2,1
    c040:	1000031e 	bne	r2,zero,c050 <alt_sys_init+0x1d0>
    c044:	00800074 	movhi	r2,1
    c048:	10056015 	stw	zero,5504(r2)
    c04c:	00000b06 	br	c07c <alt_sys_init+0x1fc>
    c050:	00800074 	movhi	r2,1
    c054:	10855d17 	ldw	r2,5492(r2)
    c058:	10800098 	cmpnei	r2,r2,2
    c05c:	1000041e 	bne	r2,zero,c070 <alt_sys_init+0x1f0>
    c060:	00c00044 	movi	r3,1
    c064:	00800074 	movhi	r2,1
    c068:	10c56015 	stw	r3,5504(r2)
    c06c:	00000306 	br	c07c <alt_sys_init+0x1fc>
    c070:	00c00084 	movi	r3,2
    c074:	00800074 	movhi	r2,1
    c078:	10c56015 	stw	r3,5504(r2)
    c07c:	e0bfff83 	ldbu	r2,-2(fp)
    c080:	00c00804 	movi	r3,32
    c084:	1885c83a 	sub	r2,r3,r2
    c088:	00ffffc4 	movi	r3,-1
    c08c:	1886d83a 	srl	r3,r3,r2
    c090:	00800074 	movhi	r2,1
    c094:	10c56115 	stw	r3,5508(r2)
    c098:	e0ffff83 	ldbu	r3,-2(fp)
    c09c:	00800074 	movhi	r2,1
    c0a0:	10856017 	ldw	r2,5504(r2)
    c0a4:	1887883a 	add	r3,r3,r2
    c0a8:	00800074 	movhi	r2,1
    c0ac:	10c56215 	stw	r3,5512(r2)
    c0b0:	e0bfff43 	ldbu	r2,-3(fp)
    c0b4:	00c00804 	movi	r3,32
    c0b8:	1885c83a 	sub	r2,r3,r2
    c0bc:	00ffffc4 	movi	r3,-1
    c0c0:	1886d83a 	srl	r3,r3,r2
    c0c4:	00800074 	movhi	r2,1
    c0c8:	10c56315 	stw	r3,5516(r2)
    c0cc:	01000074 	movhi	r4,1
    c0d0:	21054d04 	addi	r4,r4,5428
    c0d4:	000be100 	call	be10 <alt_dev_reg>
    ALTERA_UP_AVALON_VIDEO_DMA_CONTROLLER_INIT ( VGA_VGA_PIXEL_DMA, VGA_VGA_Pixel_DMA);
    c0d8:	00800074 	movhi	r2,1
    c0dc:	10856e17 	ldw	r2,5560(r2)
    c0e0:	10800017 	ldw	r2,0(r2)
    c0e4:	1007883a 	mov	r3,r2
    c0e8:	00800074 	movhi	r2,1
    c0ec:	10c56f15 	stw	r3,5564(r2)
    c0f0:	00800074 	movhi	r2,1
    c0f4:	10856e17 	ldw	r2,5560(r2)
    c0f8:	10800104 	addi	r2,r2,4
    c0fc:	10800017 	ldw	r2,0(r2)
    c100:	1007883a 	mov	r3,r2
    c104:	00800074 	movhi	r2,1
    c108:	10c57015 	stw	r3,5568(r2)
    c10c:	00800074 	movhi	r2,1
    c110:	10856e17 	ldw	r2,5560(r2)
    c114:	10800204 	addi	r2,r2,8
    c118:	10800017 	ldw	r2,0(r2)
    c11c:	10ffffcc 	andi	r3,r2,65535
    c120:	00800074 	movhi	r2,1
    c124:	10c57515 	stw	r3,5588(r2)
    c128:	00800074 	movhi	r2,1
    c12c:	10856e17 	ldw	r2,5560(r2)
    c130:	10800204 	addi	r2,r2,8
    c134:	10800017 	ldw	r2,0(r2)
    c138:	1006d43a 	srli	r3,r2,16
    c13c:	00800074 	movhi	r2,1
    c140:	10c57615 	stw	r3,5592(r2)
    c144:	00800074 	movhi	r2,1
    c148:	10856e17 	ldw	r2,5560(r2)
    c14c:	10800304 	addi	r2,r2,12
    c150:	10800017 	ldw	r2,0(r2)
    c154:	1005d07a 	srai	r2,r2,1
    c158:	10c0004c 	andi	r3,r2,1
    c15c:	00800074 	movhi	r2,1
    c160:	10c57115 	stw	r3,5572(r2)
    c164:	00800074 	movhi	r2,1
    c168:	10856e17 	ldw	r2,5560(r2)
    c16c:	10800304 	addi	r2,r2,12
    c170:	10800017 	ldw	r2,0(r2)
    c174:	1005d23a 	srai	r2,r2,8
    c178:	108003cc 	andi	r2,r2,15
    c17c:	10800044 	addi	r2,r2,1
    c180:	1007883a 	mov	r3,r2
    c184:	00800074 	movhi	r2,1
    c188:	10c57215 	stw	r3,5576(r2)
    c18c:	00800074 	movhi	r2,1
    c190:	10856e17 	ldw	r2,5560(r2)
    c194:	10800304 	addi	r2,r2,12
    c198:	10800017 	ldw	r2,0(r2)
    c19c:	1005d1ba 	srai	r2,r2,6
    c1a0:	108000cc 	andi	r2,r2,3
    c1a4:	10800044 	addi	r2,r2,1
    c1a8:	1007883a 	mov	r3,r2
    c1ac:	00800074 	movhi	r2,1
    c1b0:	10c57315 	stw	r3,5580(r2)
    c1b4:	00800074 	movhi	r2,1
    c1b8:	10857217 	ldw	r2,5576(r2)
    c1bc:	1007883a 	mov	r3,r2
    c1c0:	00800074 	movhi	r2,1
    c1c4:	10857317 	ldw	r2,5580(r2)
    c1c8:	1885383a 	mul	r2,r3,r2
    c1cc:	e0bfff05 	stb	r2,-4(fp)
    c1d0:	e0bfff03 	ldbu	r2,-4(fp)
    c1d4:	10800268 	cmpgeui	r2,r2,9
    c1d8:	1000041e 	bne	r2,zero,c1ec <alt_sys_init+0x36c>
    c1dc:	00c00044 	movi	r3,1
    c1e0:	00800074 	movhi	r2,1
    c1e4:	10c57415 	stw	r3,5584(r2)
    c1e8:	00000a06 	br	c214 <alt_sys_init+0x394>
    c1ec:	e0bfff03 	ldbu	r2,-4(fp)
    c1f0:	10800468 	cmpgeui	r2,r2,17
    c1f4:	1000041e 	bne	r2,zero,c208 <alt_sys_init+0x388>
    c1f8:	00c00084 	movi	r3,2
    c1fc:	00800074 	movhi	r2,1
    c200:	10c57415 	stw	r3,5584(r2)
    c204:	00000306 	br	c214 <alt_sys_init+0x394>
    c208:	00c00104 	movi	r3,4
    c20c:	00800074 	movhi	r2,1
    c210:	10c57415 	stw	r3,5584(r2)
    c214:	00800074 	movhi	r2,1
    c218:	10856e17 	ldw	r2,5560(r2)
    c21c:	10800304 	addi	r2,r2,12
    c220:	10800017 	ldw	r2,0(r2)
    c224:	1005d43a 	srai	r2,r2,16
    c228:	e0bffec5 	stb	r2,-5(fp)
    c22c:	00800074 	movhi	r2,1
    c230:	10856e17 	ldw	r2,5560(r2)
    c234:	10800304 	addi	r2,r2,12
    c238:	10800017 	ldw	r2,0(r2)
    c23c:	1004d63a 	srli	r2,r2,24
    c240:	e0bffe85 	stb	r2,-6(fp)
    c244:	00800074 	movhi	r2,1
    c248:	10857417 	ldw	r2,5584(r2)
    c24c:	10800058 	cmpnei	r2,r2,1
    c250:	1000031e 	bne	r2,zero,c260 <alt_sys_init+0x3e0>
    c254:	00800074 	movhi	r2,1
    c258:	10057715 	stw	zero,5596(r2)
    c25c:	00000b06 	br	c28c <alt_sys_init+0x40c>
    c260:	00800074 	movhi	r2,1
    c264:	10857417 	ldw	r2,5584(r2)
    c268:	10800098 	cmpnei	r2,r2,2
    c26c:	1000041e 	bne	r2,zero,c280 <alt_sys_init+0x400>
    c270:	00c00044 	movi	r3,1
    c274:	00800074 	movhi	r2,1
    c278:	10c57715 	stw	r3,5596(r2)
    c27c:	00000306 	br	c28c <alt_sys_init+0x40c>
    c280:	00c00084 	movi	r3,2
    c284:	00800074 	movhi	r2,1
    c288:	10c57715 	stw	r3,5596(r2)
    c28c:	e0bffec3 	ldbu	r2,-5(fp)
    c290:	00c00804 	movi	r3,32
    c294:	1885c83a 	sub	r2,r3,r2
    c298:	00ffffc4 	movi	r3,-1
    c29c:	1886d83a 	srl	r3,r3,r2
    c2a0:	00800074 	movhi	r2,1
    c2a4:	10c57815 	stw	r3,5600(r2)
    c2a8:	e0fffec3 	ldbu	r3,-5(fp)
    c2ac:	00800074 	movhi	r2,1
    c2b0:	10857717 	ldw	r2,5596(r2)
    c2b4:	1887883a 	add	r3,r3,r2
    c2b8:	00800074 	movhi	r2,1
    c2bc:	10c57915 	stw	r3,5604(r2)
    c2c0:	e0bffe83 	ldbu	r2,-6(fp)
    c2c4:	00c00804 	movi	r3,32
    c2c8:	1885c83a 	sub	r2,r3,r2
    c2cc:	00ffffc4 	movi	r3,-1
    c2d0:	1886d83a 	srl	r3,r3,r2
    c2d4:	00800074 	movhi	r2,1
    c2d8:	10c57a15 	stw	r3,5608(r2)
    c2dc:	01000074 	movhi	r4,1
    c2e0:	21056404 	addi	r4,r4,5520
    c2e4:	000be100 	call	be10 <alt_dev_reg>
    ALTERA_UP_AVALON_VIDEO_RGB_RESAMPLER_INIT ( VGA_VGA_PIXEL_RGB_RESAMPLER, VGA_VGA_Pixel_RGB_Resampler);
    c2e8:	00800074 	movhi	r2,1
    c2ec:	10858517 	ldw	r2,5652(r2)
    c2f0:	10800017 	ldw	r2,0(r2)
    c2f4:	10c003cc 	andi	r3,r2,15
    c2f8:	00800074 	movhi	r2,1
    c2fc:	10c58615 	stw	r3,5656(r2)
    c300:	00800074 	movhi	r2,1
    c304:	10858517 	ldw	r2,5652(r2)
    c308:	10800017 	ldw	r2,0(r2)
    c30c:	1005d13a 	srai	r2,r2,4
    c310:	10c0004c 	andi	r3,r2,1
    c314:	00800074 	movhi	r2,1
    c318:	10c58715 	stw	r3,5660(r2)
    c31c:	00800074 	movhi	r2,1
    c320:	10858517 	ldw	r2,5652(r2)
    c324:	10800017 	ldw	r2,0(r2)
    c328:	1005d17a 	srai	r2,r2,5
    c32c:	10c0004c 	andi	r3,r2,1
    c330:	00800074 	movhi	r2,1
    c334:	10c58815 	stw	r3,5664(r2)
    c338:	00800074 	movhi	r2,1
    c33c:	10858517 	ldw	r2,5652(r2)
    c340:	10800017 	ldw	r2,0(r2)
    c344:	1005d43a 	srai	r2,r2,16
    c348:	10c003cc 	andi	r3,r2,15
    c34c:	00800074 	movhi	r2,1
    c350:	10c58915 	stw	r3,5668(r2)
    c354:	00800074 	movhi	r2,1
    c358:	10858517 	ldw	r2,5652(r2)
    c35c:	10800017 	ldw	r2,0(r2)
    c360:	1005d53a 	srai	r2,r2,20
    c364:	10c0004c 	andi	r3,r2,1
    c368:	00800074 	movhi	r2,1
    c36c:	10c58a15 	stw	r3,5672(r2)
    c370:	00800074 	movhi	r2,1
    c374:	10858517 	ldw	r2,5652(r2)
    c378:	10800017 	ldw	r2,0(r2)
    c37c:	1005d57a 	srai	r2,r2,21
    c380:	10c0004c 	andi	r3,r2,1
    c384:	00800074 	movhi	r2,1
    c388:	10c58b15 	stw	r3,5676(r2)
    c38c:	01000074 	movhi	r4,1
    c390:	21057b04 	addi	r4,r4,5612
    c394:	000be100 	call	be10 <alt_dev_reg>
}
    c398:	0001883a 	nop
    c39c:	e037883a 	mov	sp,fp
    c3a0:	dfc00117 	ldw	ra,4(sp)
    c3a4:	df000017 	ldw	fp,0(sp)
    c3a8:	dec00204 	addi	sp,sp,8
    c3ac:	f800283a 	ret

0000c3b0 <altera_avalon_jtag_uart_read_fd>:
 *
 */

int 
altera_avalon_jtag_uart_read_fd(alt_fd* fd, char* buffer, int space)
{
    c3b0:	defffa04 	addi	sp,sp,-24
    c3b4:	dfc00515 	stw	ra,20(sp)
    c3b8:	df000415 	stw	fp,16(sp)
    c3bc:	df000404 	addi	fp,sp,16
    c3c0:	e13ffe15 	stw	r4,-8(fp)
    c3c4:	e17ffd15 	stw	r5,-12(fp)
    c3c8:	e1bffc15 	stw	r6,-16(fp)
    altera_avalon_jtag_uart_dev* dev = (altera_avalon_jtag_uart_dev*) fd->dev; 
    c3cc:	e0bffe17 	ldw	r2,-8(fp)
    c3d0:	10800017 	ldw	r2,0(r2)
    c3d4:	e0bfff15 	stw	r2,-4(fp)

    return altera_avalon_jtag_uart_read(&dev->state, buffer, space,
    c3d8:	e0bfff17 	ldw	r2,-4(fp)
    c3dc:	10c00a04 	addi	r3,r2,40
    c3e0:	e0bffe17 	ldw	r2,-8(fp)
    c3e4:	10800217 	ldw	r2,8(r2)
    c3e8:	100f883a 	mov	r7,r2
    c3ec:	e1bffc17 	ldw	r6,-16(fp)
    c3f0:	e17ffd17 	ldw	r5,-12(fp)
    c3f4:	1809883a 	mov	r4,r3
    c3f8:	000cb780 	call	cb78 <altera_avalon_jtag_uart_read>
      fd->fd_flags);
}
    c3fc:	e037883a 	mov	sp,fp
    c400:	dfc00117 	ldw	ra,4(sp)
    c404:	df000017 	ldw	fp,0(sp)
    c408:	dec00204 	addi	sp,sp,8
    c40c:	f800283a 	ret

0000c410 <altera_avalon_jtag_uart_write_fd>:

int 
altera_avalon_jtag_uart_write_fd(alt_fd* fd, const char* buffer, int space)
{
    c410:	defffa04 	addi	sp,sp,-24
    c414:	dfc00515 	stw	ra,20(sp)
    c418:	df000415 	stw	fp,16(sp)
    c41c:	df000404 	addi	fp,sp,16
    c420:	e13ffe15 	stw	r4,-8(fp)
    c424:	e17ffd15 	stw	r5,-12(fp)
    c428:	e1bffc15 	stw	r6,-16(fp)
    altera_avalon_jtag_uart_dev* dev = (altera_avalon_jtag_uart_dev*) fd->dev; 
    c42c:	e0bffe17 	ldw	r2,-8(fp)
    c430:	10800017 	ldw	r2,0(r2)
    c434:	e0bfff15 	stw	r2,-4(fp)

    return altera_avalon_jtag_uart_write(&dev->state, buffer, space,
    c438:	e0bfff17 	ldw	r2,-4(fp)
    c43c:	10c00a04 	addi	r3,r2,40
    c440:	e0bffe17 	ldw	r2,-8(fp)
    c444:	10800217 	ldw	r2,8(r2)
    c448:	100f883a 	mov	r7,r2
    c44c:	e1bffc17 	ldw	r6,-16(fp)
    c450:	e17ffd17 	ldw	r5,-12(fp)
    c454:	1809883a 	mov	r4,r3
    c458:	000ce400 	call	ce40 <altera_avalon_jtag_uart_write>
      fd->fd_flags);
}
    c45c:	e037883a 	mov	sp,fp
    c460:	dfc00117 	ldw	ra,4(sp)
    c464:	df000017 	ldw	fp,0(sp)
    c468:	dec00204 	addi	sp,sp,8
    c46c:	f800283a 	ret

0000c470 <altera_avalon_jtag_uart_close_fd>:

#ifndef ALTERA_AVALON_JTAG_UART_SMALL

int 
altera_avalon_jtag_uart_close_fd(alt_fd* fd)
{
    c470:	defffc04 	addi	sp,sp,-16
    c474:	dfc00315 	stw	ra,12(sp)
    c478:	df000215 	stw	fp,8(sp)
    c47c:	df000204 	addi	fp,sp,8
    c480:	e13ffe15 	stw	r4,-8(fp)
    altera_avalon_jtag_uart_dev* dev = (altera_avalon_jtag_uart_dev*) fd->dev; 
    c484:	e0bffe17 	ldw	r2,-8(fp)
    c488:	10800017 	ldw	r2,0(r2)
    c48c:	e0bfff15 	stw	r2,-4(fp)

    return altera_avalon_jtag_uart_close(&dev->state, fd->fd_flags);
    c490:	e0bfff17 	ldw	r2,-4(fp)
    c494:	10c00a04 	addi	r3,r2,40
    c498:	e0bffe17 	ldw	r2,-8(fp)
    c49c:	10800217 	ldw	r2,8(r2)
    c4a0:	100b883a 	mov	r5,r2
    c4a4:	1809883a 	mov	r4,r3
    c4a8:	000ca1c0 	call	ca1c <altera_avalon_jtag_uart_close>
}
    c4ac:	e037883a 	mov	sp,fp
    c4b0:	dfc00117 	ldw	ra,4(sp)
    c4b4:	df000017 	ldw	fp,0(sp)
    c4b8:	dec00204 	addi	sp,sp,8
    c4bc:	f800283a 	ret

0000c4c0 <altera_avalon_jtag_uart_ioctl_fd>:

int 
altera_avalon_jtag_uart_ioctl_fd(alt_fd* fd, int req, void* arg)
{
    c4c0:	defffa04 	addi	sp,sp,-24
    c4c4:	dfc00515 	stw	ra,20(sp)
    c4c8:	df000415 	stw	fp,16(sp)
    c4cc:	df000404 	addi	fp,sp,16
    c4d0:	e13ffe15 	stw	r4,-8(fp)
    c4d4:	e17ffd15 	stw	r5,-12(fp)
    c4d8:	e1bffc15 	stw	r6,-16(fp)
    altera_avalon_jtag_uart_dev* dev = (altera_avalon_jtag_uart_dev*) fd->dev;
    c4dc:	e0bffe17 	ldw	r2,-8(fp)
    c4e0:	10800017 	ldw	r2,0(r2)
    c4e4:	e0bfff15 	stw	r2,-4(fp)

    return altera_avalon_jtag_uart_ioctl(&dev->state, req, arg);
    c4e8:	e0bfff17 	ldw	r2,-4(fp)
    c4ec:	10800a04 	addi	r2,r2,40
    c4f0:	e1bffc17 	ldw	r6,-16(fp)
    c4f4:	e17ffd17 	ldw	r5,-12(fp)
    c4f8:	1009883a 	mov	r4,r2
    c4fc:	000ca840 	call	ca84 <altera_avalon_jtag_uart_ioctl>
}
    c500:	e037883a 	mov	sp,fp
    c504:	dfc00117 	ldw	ra,4(sp)
    c508:	df000017 	ldw	fp,0(sp)
    c50c:	dec00204 	addi	sp,sp,8
    c510:	f800283a 	ret

0000c514 <altera_avalon_jtag_uart_init>:
 * Return 1 on sucessful IRQ register and 0 on failure.
 */

void altera_avalon_jtag_uart_init(altera_avalon_jtag_uart_state* sp, 
                                  int irq_controller_id, int irq)
{
    c514:	defff404 	addi	sp,sp,-48
    c518:	dfc00b15 	stw	ra,44(sp)
    c51c:	df000a15 	stw	fp,40(sp)
    c520:	df000a04 	addi	fp,sp,40
    c524:	e13ff915 	stw	r4,-28(fp)
    c528:	e17ff815 	stw	r5,-32(fp)
    c52c:	e1bff715 	stw	r6,-36(fp)
  ALT_FLAG_CREATE(&sp->events, 0);
    c530:	e0bff917 	ldw	r2,-28(fp)
    c534:	10800c04 	addi	r2,r2,48
    c538:	e0bffb15 	stw	r2,-20(fp)
    c53c:	e03ffa8d 	sth	zero,-22(fp)

static ALT_INLINE int ALT_ALWAYS_INLINE alt_flag_create (OS_FLAG_GRP** pgroup, 
               OS_FLAGS flags)
{
  INT8U err;
  *pgroup = OSFlagCreate (flags, &err);
    c540:	e0bffa8b 	ldhu	r2,-22(fp)
    c544:	e0fffa44 	addi	r3,fp,-23
    c548:	180b883a 	mov	r5,r3
    c54c:	1009883a 	mov	r4,r2
    c550:	00068bc0 	call	68bc <OSFlagCreate>
    c554:	1007883a 	mov	r3,r2
    c558:	e0bffb17 	ldw	r2,-20(fp)
    c55c:	10c00015 	stw	r3,0(r2)
  ALT_SEM_CREATE(&sp->read_lock, 1);
    c560:	e0bff917 	ldw	r2,-28(fp)
    c564:	10800a04 	addi	r2,r2,40
    c568:	e0bffd15 	stw	r2,-12(fp)
    c56c:	00800044 	movi	r2,1
    c570:	e0bffc8d 	sth	r2,-14(fp)
  *sem = OSSemCreate (value);
    c574:	e0bffc8b 	ldhu	r2,-14(fp)
    c578:	1009883a 	mov	r4,r2
    c57c:	00095b40 	call	95b4 <OSSemCreate>
    c580:	1007883a 	mov	r3,r2
    c584:	e0bffd17 	ldw	r2,-12(fp)
    c588:	10c00015 	stw	r3,0(r2)
  return *sem ? 0 : -1;
    c58c:	0001883a 	nop
  ALT_SEM_CREATE(&sp->write_lock, 1);
    c590:	e0bff917 	ldw	r2,-28(fp)
    c594:	10800b04 	addi	r2,r2,44
    c598:	e0bfff15 	stw	r2,-4(fp)
    c59c:	00800044 	movi	r2,1
    c5a0:	e0bffe8d 	sth	r2,-6(fp)
  *sem = OSSemCreate (value);
    c5a4:	e0bffe8b 	ldhu	r2,-6(fp)
    c5a8:	1009883a 	mov	r4,r2
    c5ac:	00095b40 	call	95b4 <OSSemCreate>
    c5b0:	1007883a 	mov	r3,r2
    c5b4:	e0bfff17 	ldw	r2,-4(fp)
    c5b8:	10c00015 	stw	r3,0(r2)
  return *sem ? 0 : -1;
    c5bc:	0001883a 	nop

  /* enable read interrupts at the device */
  sp->irq_enable = ALTERA_AVALON_JTAG_UART_CONTROL_RE_MSK;
    c5c0:	e0bff917 	ldw	r2,-28(fp)
    c5c4:	00c00044 	movi	r3,1
    c5c8:	10c00815 	stw	r3,32(r2)

  IOWR_ALTERA_AVALON_JTAG_UART_CONTROL(sp->base, sp->irq_enable); 
    c5cc:	e0bff917 	ldw	r2,-28(fp)
    c5d0:	10800017 	ldw	r2,0(r2)
    c5d4:	10800104 	addi	r2,r2,4
    c5d8:	1007883a 	mov	r3,r2
    c5dc:	e0bff917 	ldw	r2,-28(fp)
    c5e0:	10800817 	ldw	r2,32(r2)
    c5e4:	18800035 	stwio	r2,0(r3)
  
  /* register the interrupt handler */
#ifdef ALT_ENHANCED_INTERRUPT_API_PRESENT
  alt_ic_isr_register(irq_controller_id, irq, altera_avalon_jtag_uart_irq, 
    c5e8:	e0bff817 	ldw	r2,-32(fp)
    c5ec:	e0fff717 	ldw	r3,-36(fp)
    c5f0:	d8000015 	stw	zero,0(sp)
    c5f4:	e1fff917 	ldw	r7,-28(fp)
    c5f8:	01800074 	movhi	r6,1
    c5fc:	31b19904 	addi	r6,r6,-14748
    c600:	180b883a 	mov	r5,r3
    c604:	1009883a 	mov	r4,r2
    c608:	000d59c0 	call	d59c <alt_ic_isr_register>
#else
  alt_irq_register(irq, sp, altera_avalon_jtag_uart_irq);
#endif  

  /* Register an alarm to go off every second to check for presence of host */
  sp->host_inactive = 0;
    c60c:	e0bff917 	ldw	r2,-28(fp)
    c610:	10000915 	stw	zero,36(r2)

  if (alt_alarm_start(&sp->alarm, alt_ticks_per_second(), 
    c614:	e0bff917 	ldw	r2,-28(fp)
    c618:	10800204 	addi	r2,r2,8
 * Obtain the system clock rate in ticks/s. 
 */

static ALT_INLINE alt_u32 ALT_ALWAYS_INLINE alt_ticks_per_second (void)
{
  return _alt_tick_rate;
    c61c:	d0eb5217 	ldw	r3,-21176(gp)
    c620:	e1fff917 	ldw	r7,-28(fp)
    c624:	01800074 	movhi	r6,1
    c628:	31b24404 	addi	r6,r6,-14064
    c62c:	180b883a 	mov	r5,r3
    c630:	1009883a 	mov	r4,r2
    c634:	000d2100 	call	d210 <alt_alarm_start>
    c638:	1000040e 	bge	r2,zero,c64c <altera_avalon_jtag_uart_init+0x138>
    &altera_avalon_jtag_uart_timeout, sp) < 0)
  {
    /* If we can't set the alarm then record "don't know if host present" 
     * and behave as though the host is present.
     */
    sp->timeout = INT_MAX;
    c63c:	e0fff917 	ldw	r3,-28(fp)
    c640:	00a00034 	movhi	r2,32768
    c644:	10bfffc4 	addi	r2,r2,-1
    c648:	18800115 	stw	r2,4(r3)
  }

  /* ALT_LOG - see altera_hal/HAL/inc/sys/alt_log_printf.h */ 
  ALT_LOG_JTAG_UART_ALARM_REGISTER(sp, sp->base);
}
    c64c:	0001883a 	nop
    c650:	e037883a 	mov	sp,fp
    c654:	dfc00117 	ldw	ra,4(sp)
    c658:	df000017 	ldw	fp,0(sp)
    c65c:	dec00204 	addi	sp,sp,8
    c660:	f800283a 	ret

0000c664 <altera_avalon_jtag_uart_irq>:
#ifdef ALT_ENHANCED_INTERRUPT_API_PRESENT
static void altera_avalon_jtag_uart_irq(void* context)
#else
static void altera_avalon_jtag_uart_irq(void* context, alt_u32 id)
#endif
{
    c664:	defff204 	addi	sp,sp,-56
    c668:	dfc00d15 	stw	ra,52(sp)
    c66c:	df000c15 	stw	fp,48(sp)
    c670:	df000c04 	addi	fp,sp,48
    c674:	e13ff415 	stw	r4,-48(fp)
  altera_avalon_jtag_uart_state* sp = (altera_avalon_jtag_uart_state*) context;
    c678:	e0bff417 	ldw	r2,-48(fp)
    c67c:	e0bffd15 	stw	r2,-12(fp)
  unsigned int base = sp->base;
    c680:	e0bffd17 	ldw	r2,-12(fp)
    c684:	10800017 	ldw	r2,0(r2)
    c688:	e0bffc15 	stw	r2,-16(fp)
  /* ALT_LOG - see altera_hal/HAL/inc/sys/alt_log_printf.h */ 
  ALT_LOG_JTAG_UART_ISR_FUNCTION(base, sp);

  for ( ; ; )
  {
    unsigned int control = IORD_ALTERA_AVALON_JTAG_UART_CONTROL(base);
    c68c:	e0bffc17 	ldw	r2,-16(fp)
    c690:	10800104 	addi	r2,r2,4
    c694:	10800037 	ldwio	r2,0(r2)
    c698:	e0bffb15 	stw	r2,-20(fp)

    /* Return once nothing more to do */
    if ((control & (ALTERA_AVALON_JTAG_UART_CONTROL_RI_MSK | ALTERA_AVALON_JTAG_UART_CONTROL_WI_MSK)) == 0)
    c69c:	e0bffb17 	ldw	r2,-20(fp)
    c6a0:	1080c00c 	andi	r2,r2,768
    c6a4:	10009326 	beq	r2,zero,c8f4 <altera_avalon_jtag_uart_irq+0x290>
      break;

    if (control & ALTERA_AVALON_JTAG_UART_CONTROL_RI_MSK)
    c6a8:	e0bffb17 	ldw	r2,-20(fp)
    c6ac:	1080400c 	andi	r2,r2,256
    c6b0:	10004826 	beq	r2,zero,c7d4 <altera_avalon_jtag_uart_irq+0x170>
    {
      /* process a read irq.  Start by assuming that there is data in the
       * receive FIFO (otherwise why would we have been interrupted?)
       */
      unsigned int data = 1 << ALTERA_AVALON_JTAG_UART_DATA_RAVAIL_OFST;
    c6b4:	00800074 	movhi	r2,1
    c6b8:	e0bfff15 	stw	r2,-4(fp)
      for ( ; ; )
      {
        /* Check whether there is space in the buffer.  If not then we must not
         * read any characters from the buffer as they will be lost.
         */
        unsigned int next = (sp->rx_in + 1) % ALTERA_AVALON_JTAG_UART_BUF_LEN;
    c6bc:	e0bffd17 	ldw	r2,-12(fp)
    c6c0:	10800d17 	ldw	r2,52(r2)
    c6c4:	10800044 	addi	r2,r2,1
    c6c8:	1081ffcc 	andi	r2,r2,2047
    c6cc:	e0bffa15 	stw	r2,-24(fp)
        if (next == sp->rx_out)
    c6d0:	e0bffd17 	ldw	r2,-12(fp)
    c6d4:	10800e17 	ldw	r2,56(r2)
    c6d8:	e0fffa17 	ldw	r3,-24(fp)
    c6dc:	18802826 	beq	r3,r2,c780 <altera_avalon_jtag_uart_irq+0x11c>
          break;

        /* Try to remove a character from the FIFO and find out whether there
         * are any more characters remaining.
         */
        data = IORD_ALTERA_AVALON_JTAG_UART_DATA(base);
    c6e0:	e0bffc17 	ldw	r2,-16(fp)
    c6e4:	10800037 	ldwio	r2,0(r2)
    c6e8:	e0bfff15 	stw	r2,-4(fp)
        
        if ((data & ALTERA_AVALON_JTAG_UART_DATA_RVALID_MSK) == 0)
    c6ec:	e0bfff17 	ldw	r2,-4(fp)
    c6f0:	10a0000c 	andi	r2,r2,32768
    c6f4:	10002426 	beq	r2,zero,c788 <altera_avalon_jtag_uart_irq+0x124>
          break;

        sp->rx_buf[sp->rx_in] = (data & ALTERA_AVALON_JTAG_UART_DATA_DATA_MSK) >> ALTERA_AVALON_JTAG_UART_DATA_DATA_OFST;
    c6f8:	e0bffd17 	ldw	r2,-12(fp)
    c6fc:	10800d17 	ldw	r2,52(r2)
    c700:	e0ffff17 	ldw	r3,-4(fp)
    c704:	1809883a 	mov	r4,r3
    c708:	e0fffd17 	ldw	r3,-12(fp)
    c70c:	1885883a 	add	r2,r3,r2
    c710:	11001105 	stb	r4,68(r2)
        sp->rx_in = (sp->rx_in + 1) % ALTERA_AVALON_JTAG_UART_BUF_LEN;
    c714:	e0bffd17 	ldw	r2,-12(fp)
    c718:	10800d17 	ldw	r2,52(r2)
    c71c:	10800044 	addi	r2,r2,1
    c720:	10c1ffcc 	andi	r3,r2,2047
    c724:	e0bffd17 	ldw	r2,-12(fp)
    c728:	10c00d15 	stw	r3,52(r2)

        /* Post an event to notify jtag_uart_read that a character has been read */
        ALT_FLAG_POST (sp->events, ALT_JTAG_UART_READ_RDY, OS_FLAG_SET);
    c72c:	e0bffd17 	ldw	r2,-12(fp)
    c730:	10800c17 	ldw	r2,48(r2)
    c734:	e0bff915 	stw	r2,-28(fp)
    c738:	00800044 	movi	r2,1
    c73c:	e0bff88d 	sth	r2,-30(fp)
    c740:	00800044 	movi	r2,1
    c744:	e0bff845 	stb	r2,-31(fp)
                   OS_FLAGS     flags, 
                   INT8U        opt)
{
  INT8U err;

  if (OSRunning)
    c748:	d0ab4643 	ldbu	r2,-21223(gp)
    c74c:	10803fcc 	andi	r2,r2,255
    c750:	10000926 	beq	r2,zero,c778 <altera_avalon_jtag_uart_irq+0x114>
  {
    OSFlagPost (group, flags, opt, &err);
    c754:	e0bff88b 	ldhu	r2,-30(fp)
    c758:	e0fff843 	ldbu	r3,-31(fp)
    c75c:	e13ff604 	addi	r4,fp,-40
    c760:	200f883a 	mov	r7,r4
    c764:	180d883a 	mov	r6,r3
    c768:	100b883a 	mov	r5,r2
    c76c:	e13ff917 	ldw	r4,-28(fp)
    c770:	00074600 	call	7460 <OSFlagPost>
    return err;
    c774:	00000106 	br	c77c <altera_avalon_jtag_uart_irq+0x118>
  }
  return OS_ERR_PEND_ISR;
    c778:	0001883a 	nop
      {
    c77c:	003fcf06 	br	c6bc <altera_avalon_jtag_uart_irq+0x58>
          break;
    c780:	0001883a 	nop
    c784:	00000106 	br	c78c <altera_avalon_jtag_uart_irq+0x128>
          break;
    c788:	0001883a 	nop
      }

      if (data & ALTERA_AVALON_JTAG_UART_DATA_RAVAIL_MSK)
    c78c:	e0bfff17 	ldw	r2,-4(fp)
    c790:	10bfffec 	andhi	r2,r2,65535
    c794:	10000f26 	beq	r2,zero,c7d4 <altera_avalon_jtag_uart_irq+0x170>
      {
        /* If there is still data available here then the buffer is full 
         * so turn off receive interrupts until some space becomes available.
         */
        sp->irq_enable &= ~ALTERA_AVALON_JTAG_UART_CONTROL_RE_MSK;
    c798:	e0bffd17 	ldw	r2,-12(fp)
    c79c:	10c00817 	ldw	r3,32(r2)
    c7a0:	00bfff84 	movi	r2,-2
    c7a4:	1886703a 	and	r3,r3,r2
    c7a8:	e0bffd17 	ldw	r2,-12(fp)
    c7ac:	10c00815 	stw	r3,32(r2)
        IOWR_ALTERA_AVALON_JTAG_UART_CONTROL(base, sp->irq_enable);
    c7b0:	e0bffc17 	ldw	r2,-16(fp)
    c7b4:	10800104 	addi	r2,r2,4
    c7b8:	1007883a 	mov	r3,r2
    c7bc:	e0bffd17 	ldw	r2,-12(fp)
    c7c0:	10800817 	ldw	r2,32(r2)
    c7c4:	18800035 	stwio	r2,0(r3)
        
        /* Dummy read to ensure IRQ is cleared prior to ISR completion */
        IORD_ALTERA_AVALON_JTAG_UART_CONTROL(base);
    c7c8:	e0bffc17 	ldw	r2,-16(fp)
    c7cc:	10800104 	addi	r2,r2,4
    c7d0:	10800037 	ldwio	r2,0(r2)
      }
    }

    if (control & ALTERA_AVALON_JTAG_UART_CONTROL_WI_MSK)
    c7d4:	e0bffb17 	ldw	r2,-20(fp)
    c7d8:	1080800c 	andi	r2,r2,512
    c7dc:	103fab26 	beq	r2,zero,c68c <altera_avalon_jtag_uart_irq+0x28>
    {
      /* process a write irq */
      unsigned int space = (control & ALTERA_AVALON_JTAG_UART_CONTROL_WSPACE_MSK) >> ALTERA_AVALON_JTAG_UART_CONTROL_WSPACE_OFST;
    c7e0:	e0bffb17 	ldw	r2,-20(fp)
    c7e4:	1004d43a 	srli	r2,r2,16
    c7e8:	e0bffe15 	stw	r2,-8(fp)

      while (space > 0 && sp->tx_out != sp->tx_in)
    c7ec:	00002706 	br	c88c <altera_avalon_jtag_uart_irq+0x228>
      {
        IOWR_ALTERA_AVALON_JTAG_UART_DATA(base, sp->tx_buf[sp->tx_out]);
    c7f0:	e0bffc17 	ldw	r2,-16(fp)
    c7f4:	e0fffd17 	ldw	r3,-12(fp)
    c7f8:	18c01017 	ldw	r3,64(r3)
    c7fc:	e13ffd17 	ldw	r4,-12(fp)
    c800:	20c7883a 	add	r3,r4,r3
    c804:	18c21103 	ldbu	r3,2116(r3)
    c808:	18c03fcc 	andi	r3,r3,255
    c80c:	18c0201c 	xori	r3,r3,128
    c810:	18ffe004 	addi	r3,r3,-128
    c814:	10c00035 	stwio	r3,0(r2)

        sp->tx_out = (sp->tx_out + 1) % ALTERA_AVALON_JTAG_UART_BUF_LEN;
    c818:	e0bffd17 	ldw	r2,-12(fp)
    c81c:	10801017 	ldw	r2,64(r2)
    c820:	10800044 	addi	r2,r2,1
    c824:	10c1ffcc 	andi	r3,r2,2047
    c828:	e0bffd17 	ldw	r2,-12(fp)
    c82c:	10c01015 	stw	r3,64(r2)

        /* Post an event to notify jtag_uart_write that a character has been written */
        ALT_FLAG_POST (sp->events, ALT_JTAG_UART_WRITE_RDY, OS_FLAG_SET);
    c830:	e0bffd17 	ldw	r2,-12(fp)
    c834:	10800c17 	ldw	r2,48(r2)
    c838:	e0bff715 	stw	r2,-36(fp)
    c83c:	00800084 	movi	r2,2
    c840:	e0bff68d 	sth	r2,-38(fp)
    c844:	00800044 	movi	r2,1
    c848:	e0bff645 	stb	r2,-39(fp)
  if (OSRunning)
    c84c:	d0ab4643 	ldbu	r2,-21223(gp)
    c850:	10803fcc 	andi	r2,r2,255
    c854:	10000926 	beq	r2,zero,c87c <altera_avalon_jtag_uart_irq+0x218>
    OSFlagPost (group, flags, opt, &err);
    c858:	e0bff68b 	ldhu	r2,-38(fp)
    c85c:	e0fff643 	ldbu	r3,-39(fp)
    c860:	e13ff5c4 	addi	r4,fp,-41
    c864:	200f883a 	mov	r7,r4
    c868:	180d883a 	mov	r6,r3
    c86c:	100b883a 	mov	r5,r2
    c870:	e13ff717 	ldw	r4,-36(fp)
    c874:	00074600 	call	7460 <OSFlagPost>
    return err;
    c878:	00000106 	br	c880 <altera_avalon_jtag_uart_irq+0x21c>
  return OS_ERR_PEND_ISR;
    c87c:	0001883a 	nop

        space--;
    c880:	e0bffe17 	ldw	r2,-8(fp)
    c884:	10bfffc4 	addi	r2,r2,-1
    c888:	e0bffe15 	stw	r2,-8(fp)
      while (space > 0 && sp->tx_out != sp->tx_in)
    c88c:	e0bffe17 	ldw	r2,-8(fp)
    c890:	10000526 	beq	r2,zero,c8a8 <altera_avalon_jtag_uart_irq+0x244>
    c894:	e0bffd17 	ldw	r2,-12(fp)
    c898:	10c01017 	ldw	r3,64(r2)
    c89c:	e0bffd17 	ldw	r2,-12(fp)
    c8a0:	10800f17 	ldw	r2,60(r2)
    c8a4:	18bfd21e 	bne	r3,r2,c7f0 <altera_avalon_jtag_uart_irq+0x18c>
      }

      if (space > 0)
    c8a8:	e0bffe17 	ldw	r2,-8(fp)
    c8ac:	103f7726 	beq	r2,zero,c68c <altera_avalon_jtag_uart_irq+0x28>
      {
        /* If we don't have any more data available then turn off the TX interrupt */
        sp->irq_enable &= ~ALTERA_AVALON_JTAG_UART_CONTROL_WE_MSK;
    c8b0:	e0bffd17 	ldw	r2,-12(fp)
    c8b4:	10c00817 	ldw	r3,32(r2)
    c8b8:	00bfff44 	movi	r2,-3
    c8bc:	1886703a 	and	r3,r3,r2
    c8c0:	e0bffd17 	ldw	r2,-12(fp)
    c8c4:	10c00815 	stw	r3,32(r2)
        IOWR_ALTERA_AVALON_JTAG_UART_CONTROL(sp->base, sp->irq_enable);
    c8c8:	e0bffd17 	ldw	r2,-12(fp)
    c8cc:	10800017 	ldw	r2,0(r2)
    c8d0:	10800104 	addi	r2,r2,4
    c8d4:	1007883a 	mov	r3,r2
    c8d8:	e0bffd17 	ldw	r2,-12(fp)
    c8dc:	10800817 	ldw	r2,32(r2)
    c8e0:	18800035 	stwio	r2,0(r3)
        
        /* Dummy read to ensure IRQ is cleared prior to ISR completion */
        IORD_ALTERA_AVALON_JTAG_UART_CONTROL(base);
    c8e4:	e0bffc17 	ldw	r2,-16(fp)
    c8e8:	10800104 	addi	r2,r2,4
    c8ec:	10800037 	ldwio	r2,0(r2)
  {
    c8f0:	003f6606 	br	c68c <altera_avalon_jtag_uart_irq+0x28>
      break;
    c8f4:	0001883a 	nop
      }
    }
  }
}
    c8f8:	0001883a 	nop
    c8fc:	e037883a 	mov	sp,fp
    c900:	dfc00117 	ldw	ra,4(sp)
    c904:	df000017 	ldw	fp,0(sp)
    c908:	dec00204 	addi	sp,sp,8
    c90c:	f800283a 	ret

0000c910 <altera_avalon_jtag_uart_timeout>:
 * Timeout routine is called every second
 */

static alt_u32 
altera_avalon_jtag_uart_timeout(void* context) 
{
    c910:	defff904 	addi	sp,sp,-28
    c914:	dfc00615 	stw	ra,24(sp)
    c918:	df000515 	stw	fp,20(sp)
    c91c:	df000504 	addi	fp,sp,20
    c920:	e13ffb15 	stw	r4,-20(fp)
  altera_avalon_jtag_uart_state* sp = (altera_avalon_jtag_uart_state *) context;
    c924:	e0bffb17 	ldw	r2,-20(fp)
    c928:	e0bfff15 	stw	r2,-4(fp)

  unsigned int control = IORD_ALTERA_AVALON_JTAG_UART_CONTROL(sp->base);
    c92c:	e0bfff17 	ldw	r2,-4(fp)
    c930:	10800017 	ldw	r2,0(r2)
    c934:	10800104 	addi	r2,r2,4
    c938:	10800037 	ldwio	r2,0(r2)
    c93c:	e0bffe15 	stw	r2,-8(fp)

  if (control & ALTERA_AVALON_JTAG_UART_CONTROL_AC_MSK)
    c940:	e0bffe17 	ldw	r2,-8(fp)
    c944:	1081000c 	andi	r2,r2,1024
    c948:	10000b26 	beq	r2,zero,c978 <altera_avalon_jtag_uart_timeout+0x68>
  {
    IOWR_ALTERA_AVALON_JTAG_UART_CONTROL(sp->base, sp->irq_enable | ALTERA_AVALON_JTAG_UART_CONTROL_AC_MSK);
    c94c:	e0bfff17 	ldw	r2,-4(fp)
    c950:	10800017 	ldw	r2,0(r2)
    c954:	10800104 	addi	r2,r2,4
    c958:	1007883a 	mov	r3,r2
    c95c:	e0bfff17 	ldw	r2,-4(fp)
    c960:	10800817 	ldw	r2,32(r2)
    c964:	10810014 	ori	r2,r2,1024
    c968:	18800035 	stwio	r2,0(r3)
    sp->host_inactive = 0;
    c96c:	e0bfff17 	ldw	r2,-4(fp)
    c970:	10000915 	stw	zero,36(r2)
    c974:	00002306 	br	ca04 <altera_avalon_jtag_uart_timeout+0xf4>
  }
  else if (sp->host_inactive < INT_MAX - 2) {
    c978:	e0bfff17 	ldw	r2,-4(fp)
    c97c:	10c00917 	ldw	r3,36(r2)
    c980:	00a00034 	movhi	r2,32768
    c984:	10bfff04 	addi	r2,r2,-4
    c988:	10c01e36 	bltu	r2,r3,ca04 <altera_avalon_jtag_uart_timeout+0xf4>
    sp->host_inactive++;
    c98c:	e0bfff17 	ldw	r2,-4(fp)
    c990:	10800917 	ldw	r2,36(r2)
    c994:	10c00044 	addi	r3,r2,1
    c998:	e0bfff17 	ldw	r2,-4(fp)
    c99c:	10c00915 	stw	r3,36(r2)
    
    if (sp->host_inactive >= sp->timeout) {
    c9a0:	e0bfff17 	ldw	r2,-4(fp)
    c9a4:	10c00917 	ldw	r3,36(r2)
    c9a8:	e0bfff17 	ldw	r2,-4(fp)
    c9ac:	10800117 	ldw	r2,4(r2)
    c9b0:	18801436 	bltu	r3,r2,ca04 <altera_avalon_jtag_uart_timeout+0xf4>
      /* Post an event to indicate host is inactive (for jtag_uart_read */
      ALT_FLAG_POST (sp->events, ALT_JTAG_UART_TIMEOUT, OS_FLAG_SET);
    c9b4:	e0bfff17 	ldw	r2,-4(fp)
    c9b8:	10800c17 	ldw	r2,48(r2)
    c9bc:	e0bffd15 	stw	r2,-12(fp)
    c9c0:	00800104 	movi	r2,4
    c9c4:	e0bffc8d 	sth	r2,-14(fp)
    c9c8:	00800044 	movi	r2,1
    c9cc:	e0bffc45 	stb	r2,-15(fp)
  if (OSRunning)
    c9d0:	d0ab4643 	ldbu	r2,-21223(gp)
    c9d4:	10803fcc 	andi	r2,r2,255
    c9d8:	10000926 	beq	r2,zero,ca00 <altera_avalon_jtag_uart_timeout+0xf0>
    OSFlagPost (group, flags, opt, &err);
    c9dc:	e0bffc8b 	ldhu	r2,-14(fp)
    c9e0:	e0fffc43 	ldbu	r3,-15(fp)
    c9e4:	e13ffc04 	addi	r4,fp,-16
    c9e8:	200f883a 	mov	r7,r4
    c9ec:	180d883a 	mov	r6,r3
    c9f0:	100b883a 	mov	r5,r2
    c9f4:	e13ffd17 	ldw	r4,-12(fp)
    c9f8:	00074600 	call	7460 <OSFlagPost>
    return err;
    c9fc:	00000106 	br	ca04 <altera_avalon_jtag_uart_timeout+0xf4>
  return OS_ERR_PEND_ISR;
    ca00:	0001883a 	nop
    ca04:	d0ab5217 	ldw	r2,-21176(gp)
    }
  }

  return alt_ticks_per_second();
}
    ca08:	e037883a 	mov	sp,fp
    ca0c:	dfc00117 	ldw	ra,4(sp)
    ca10:	df000017 	ldw	fp,0(sp)
    ca14:	dec00204 	addi	sp,sp,8
    ca18:	f800283a 	ret

0000ca1c <altera_avalon_jtag_uart_close>:
 * The close routine is not implemented for the small driver; instead it will
 * map to null. This is because the small driver simply waits while characters
 * are transmitted; there is no interrupt-serviced buffer to empty 
 */
int altera_avalon_jtag_uart_close(altera_avalon_jtag_uart_state* sp, int flags)
{
    ca1c:	defffd04 	addi	sp,sp,-12
    ca20:	df000215 	stw	fp,8(sp)
    ca24:	df000204 	addi	fp,sp,8
    ca28:	e13fff15 	stw	r4,-4(fp)
    ca2c:	e17ffe15 	stw	r5,-8(fp)
  /* 
   * Wait for all transmit data to be emptied by the JTAG UART ISR, or
   * for a host-inactivity timeout, in which case transmit data will be lost
   */
  while ( (sp->tx_out != sp->tx_in) && (sp->host_inactive < sp->timeout) ) {
    ca30:	00000506 	br	ca48 <altera_avalon_jtag_uart_close+0x2c>
    if (flags & O_NONBLOCK) {
    ca34:	e0bffe17 	ldw	r2,-8(fp)
    ca38:	1090000c 	andi	r2,r2,16384
    ca3c:	10000226 	beq	r2,zero,ca48 <altera_avalon_jtag_uart_close+0x2c>
      return -EWOULDBLOCK; 
    ca40:	00bffd44 	movi	r2,-11
    ca44:	00000b06 	br	ca74 <altera_avalon_jtag_uart_close+0x58>
  while ( (sp->tx_out != sp->tx_in) && (sp->host_inactive < sp->timeout) ) {
    ca48:	e0bfff17 	ldw	r2,-4(fp)
    ca4c:	10c01017 	ldw	r3,64(r2)
    ca50:	e0bfff17 	ldw	r2,-4(fp)
    ca54:	10800f17 	ldw	r2,60(r2)
    ca58:	18800526 	beq	r3,r2,ca70 <altera_avalon_jtag_uart_close+0x54>
    ca5c:	e0bfff17 	ldw	r2,-4(fp)
    ca60:	10c00917 	ldw	r3,36(r2)
    ca64:	e0bfff17 	ldw	r2,-4(fp)
    ca68:	10800117 	ldw	r2,4(r2)
    ca6c:	18bff136 	bltu	r3,r2,ca34 <altera_avalon_jtag_uart_close+0x18>
    }
  }

  return 0;
    ca70:	0005883a 	mov	r2,zero
}
    ca74:	e037883a 	mov	sp,fp
    ca78:	df000017 	ldw	fp,0(sp)
    ca7c:	dec00104 	addi	sp,sp,4
    ca80:	f800283a 	ret

0000ca84 <altera_avalon_jtag_uart_ioctl>:
/* ----------------------------------------------------------- */

int 
altera_avalon_jtag_uart_ioctl(altera_avalon_jtag_uart_state* sp, int req,
  void* arg)
{
    ca84:	defffa04 	addi	sp,sp,-24
    ca88:	df000515 	stw	fp,20(sp)
    ca8c:	df000504 	addi	fp,sp,20
    ca90:	e13ffd15 	stw	r4,-12(fp)
    ca94:	e17ffc15 	stw	r5,-16(fp)
    ca98:	e1bffb15 	stw	r6,-20(fp)
  int rc = -ENOTTY;
    ca9c:	00bff9c4 	movi	r2,-25
    caa0:	e0bfff15 	stw	r2,-4(fp)

  switch (req)
    caa4:	e0bffc17 	ldw	r2,-16(fp)
    caa8:	109a8060 	cmpeqi	r2,r2,27137
    caac:	1000041e 	bne	r2,zero,cac0 <altera_avalon_jtag_uart_ioctl+0x3c>
    cab0:	e0bffc17 	ldw	r2,-16(fp)
    cab4:	109a80a0 	cmpeqi	r2,r2,27138
    cab8:	1000181e 	bne	r2,zero,cb1c <altera_avalon_jtag_uart_ioctl+0x98>
      rc = 0;
    }
    break;

  default:
    break;
    cabc:	00002906 	br	cb64 <altera_avalon_jtag_uart_ioctl+0xe0>
    if (sp->timeout != INT_MAX)
    cac0:	e0bffd17 	ldw	r2,-12(fp)
    cac4:	10c00117 	ldw	r3,4(r2)
    cac8:	00a00034 	movhi	r2,32768
    cacc:	10bfffc4 	addi	r2,r2,-1
    cad0:	18802126 	beq	r3,r2,cb58 <altera_avalon_jtag_uart_ioctl+0xd4>
      int timeout = *((int *)arg);
    cad4:	e0bffb17 	ldw	r2,-20(fp)
    cad8:	10800017 	ldw	r2,0(r2)
    cadc:	e0bffe15 	stw	r2,-8(fp)
      sp->timeout = (timeout >= 2 && timeout < INT_MAX) ? timeout : INT_MAX - 1;
    cae0:	e0bffe17 	ldw	r2,-8(fp)
    cae4:	10800090 	cmplti	r2,r2,2
    cae8:	1000061e 	bne	r2,zero,cb04 <altera_avalon_jtag_uart_ioctl+0x80>
    caec:	e0fffe17 	ldw	r3,-8(fp)
    caf0:	00a00034 	movhi	r2,32768
    caf4:	10bfffc4 	addi	r2,r2,-1
    caf8:	18800226 	beq	r3,r2,cb04 <altera_avalon_jtag_uart_ioctl+0x80>
    cafc:	e0bffe17 	ldw	r2,-8(fp)
    cb00:	00000206 	br	cb0c <altera_avalon_jtag_uart_ioctl+0x88>
    cb04:	00a00034 	movhi	r2,32768
    cb08:	10bfff84 	addi	r2,r2,-2
    cb0c:	e0fffd17 	ldw	r3,-12(fp)
    cb10:	18800115 	stw	r2,4(r3)
      rc = 0;
    cb14:	e03fff15 	stw	zero,-4(fp)
    break;
    cb18:	00000f06 	br	cb58 <altera_avalon_jtag_uart_ioctl+0xd4>
    if (sp->timeout != INT_MAX)
    cb1c:	e0bffd17 	ldw	r2,-12(fp)
    cb20:	10c00117 	ldw	r3,4(r2)
    cb24:	00a00034 	movhi	r2,32768
    cb28:	10bfffc4 	addi	r2,r2,-1
    cb2c:	18800c26 	beq	r3,r2,cb60 <altera_avalon_jtag_uart_ioctl+0xdc>
      *((int *)arg) = (sp->host_inactive < sp->timeout) ? 1 : 0;
    cb30:	e0bffd17 	ldw	r2,-12(fp)
    cb34:	10c00917 	ldw	r3,36(r2)
    cb38:	e0bffd17 	ldw	r2,-12(fp)
    cb3c:	10800117 	ldw	r2,4(r2)
    cb40:	1885803a 	cmpltu	r2,r3,r2
    cb44:	10c03fcc 	andi	r3,r2,255
    cb48:	e0bffb17 	ldw	r2,-20(fp)
    cb4c:	10c00015 	stw	r3,0(r2)
      rc = 0;
    cb50:	e03fff15 	stw	zero,-4(fp)
    break;
    cb54:	00000206 	br	cb60 <altera_avalon_jtag_uart_ioctl+0xdc>
    break;
    cb58:	0001883a 	nop
    cb5c:	00000106 	br	cb64 <altera_avalon_jtag_uart_ioctl+0xe0>
    break;
    cb60:	0001883a 	nop
  }

  return rc;
    cb64:	e0bfff17 	ldw	r2,-4(fp)
}
    cb68:	e037883a 	mov	sp,fp
    cb6c:	df000017 	ldw	fp,0(sp)
    cb70:	dec00104 	addi	sp,sp,4
    cb74:	f800283a 	ret

0000cb78 <altera_avalon_jtag_uart_read>:
/* ----------------------------------------------------------- */

int 
altera_avalon_jtag_uart_read(altera_avalon_jtag_uart_state* sp, 
  char * buffer, int space, int flags)
{
    cb78:	deffec04 	addi	sp,sp,-80
    cb7c:	dfc01315 	stw	ra,76(sp)
    cb80:	df001215 	stw	fp,72(sp)
    cb84:	df001204 	addi	fp,sp,72
    cb88:	e13ff215 	stw	r4,-56(fp)
    cb8c:	e17ff115 	stw	r5,-60(fp)
    cb90:	e1bff015 	stw	r6,-64(fp)
    cb94:	e1ffef15 	stw	r7,-68(fp)
  char * ptr = buffer;
    cb98:	e0bff117 	ldw	r2,-60(fp)
    cb9c:	e0bfff15 	stw	r2,-4(fp)

  /*
   * When running in a multi threaded environment, obtain the "read_lock"
   * semaphore. This ensures that reading from the device is thread-safe.
   */
  ALT_SEM_PEND (sp->read_lock, 0);
    cba0:	e0bff217 	ldw	r2,-56(fp)
    cba4:	10800a17 	ldw	r2,40(r2)
    cba8:	e0bffa15 	stw	r2,-24(fp)
    cbac:	e03ff98d 	sth	zero,-26(fp)

static ALT_INLINE int ALT_ALWAYS_INLINE alt_sem_pend (OS_EVENT* sem, 
                  INT16U timeout)
{
  INT8U err;
  OSSemPend (sem, timeout, &err);
    cbb0:	e0bff98b 	ldhu	r2,-26(fp)
    cbb4:	e0fff3c4 	addi	r3,fp,-49
    cbb8:	180d883a 	mov	r6,r3
    cbbc:	100b883a 	mov	r5,r2
    cbc0:	e13ffa17 	ldw	r4,-24(fp)
    cbc4:	00098c40 	call	98c4 <OSSemPend>

  while (space > 0)
    cbc8:	00006306 	br	cd58 <altera_avalon_jtag_uart_read+0x1e0>
    unsigned int in, out;

    /* Read as much data as possible */
    do
    {
      in  = sp->rx_in;
    cbcc:	e0bff217 	ldw	r2,-56(fp)
    cbd0:	10800d17 	ldw	r2,52(r2)
    cbd4:	e0bffd15 	stw	r2,-12(fp)
      out = sp->rx_out;
    cbd8:	e0bff217 	ldw	r2,-56(fp)
    cbdc:	10800e17 	ldw	r2,56(r2)
    cbe0:	e0bffc15 	stw	r2,-16(fp)

      if (in >= out)
    cbe4:	e0fffd17 	ldw	r3,-12(fp)
    cbe8:	e0bffc17 	ldw	r2,-16(fp)
    cbec:	18800536 	bltu	r3,r2,cc04 <altera_avalon_jtag_uart_read+0x8c>
        n = in - out;
    cbf0:	e0fffd17 	ldw	r3,-12(fp)
    cbf4:	e0bffc17 	ldw	r2,-16(fp)
    cbf8:	1885c83a 	sub	r2,r3,r2
    cbfc:	e0bffe15 	stw	r2,-8(fp)
    cc00:	00000406 	br	cc14 <altera_avalon_jtag_uart_read+0x9c>
      else
        n = ALTERA_AVALON_JTAG_UART_BUF_LEN - out;
    cc04:	00c20004 	movi	r3,2048
    cc08:	e0bffc17 	ldw	r2,-16(fp)
    cc0c:	1885c83a 	sub	r2,r3,r2
    cc10:	e0bffe15 	stw	r2,-8(fp)

      if (n == 0)
    cc14:	e0bffe17 	ldw	r2,-8(fp)
    cc18:	10001e26 	beq	r2,zero,cc94 <altera_avalon_jtag_uart_read+0x11c>
        break; /* No more data available */

      if (n > space)
    cc1c:	e0fff017 	ldw	r3,-64(fp)
    cc20:	e0bffe17 	ldw	r2,-8(fp)
    cc24:	1880022e 	bgeu	r3,r2,cc30 <altera_avalon_jtag_uart_read+0xb8>
        n = space;
    cc28:	e0bff017 	ldw	r2,-64(fp)
    cc2c:	e0bffe15 	stw	r2,-8(fp)

      memcpy(ptr, sp->rx_buf + out, n);
    cc30:	e0bff217 	ldw	r2,-56(fp)
    cc34:	10c01104 	addi	r3,r2,68
    cc38:	e0bffc17 	ldw	r2,-16(fp)
    cc3c:	1885883a 	add	r2,r3,r2
    cc40:	e1bffe17 	ldw	r6,-8(fp)
    cc44:	100b883a 	mov	r5,r2
    cc48:	e13fff17 	ldw	r4,-4(fp)
    cc4c:	0001d200 	call	1d20 <memcpy>
      ptr   += n;
    cc50:	e0ffff17 	ldw	r3,-4(fp)
    cc54:	e0bffe17 	ldw	r2,-8(fp)
    cc58:	1885883a 	add	r2,r3,r2
    cc5c:	e0bfff15 	stw	r2,-4(fp)
      space -= n;
    cc60:	e0fff017 	ldw	r3,-64(fp)
    cc64:	e0bffe17 	ldw	r2,-8(fp)
    cc68:	1885c83a 	sub	r2,r3,r2
    cc6c:	e0bff015 	stw	r2,-64(fp)

      sp->rx_out = (out + n) % ALTERA_AVALON_JTAG_UART_BUF_LEN;
    cc70:	e0fffc17 	ldw	r3,-16(fp)
    cc74:	e0bffe17 	ldw	r2,-8(fp)
    cc78:	1885883a 	add	r2,r3,r2
    cc7c:	10c1ffcc 	andi	r3,r2,2047
    cc80:	e0bff217 	ldw	r2,-56(fp)
    cc84:	10c00e15 	stw	r3,56(r2)
    }
    while (space > 0);
    cc88:	e0bff017 	ldw	r2,-64(fp)
    cc8c:	00bfcf16 	blt	zero,r2,cbcc <altera_avalon_jtag_uart_read+0x54>
    cc90:	00000106 	br	cc98 <altera_avalon_jtag_uart_read+0x120>
        break; /* No more data available */
    cc94:	0001883a 	nop

    /* If we read any data then return it */
    if (ptr != buffer)
    cc98:	e0ffff17 	ldw	r3,-4(fp)
    cc9c:	e0bff117 	ldw	r2,-60(fp)
    cca0:	1880301e 	bne	r3,r2,cd64 <altera_avalon_jtag_uart_read+0x1ec>
      break;

    /* If in non-blocking mode then return error */
    if (flags & O_NONBLOCK)
    cca4:	e0bfef17 	ldw	r2,-68(fp)
    cca8:	1090000c 	andi	r2,r2,16384
    ccac:	10002f1e 	bne	r2,zero,cd6c <altera_avalon_jtag_uart_read+0x1f4>
      break;

#ifdef __ucosii__
    /* OS Present: Pend on a flag if the OS is running, otherwise spin */
    if(OSRunning == OS_TRUE) {
    ccb0:	d0ab4643 	ldbu	r2,-21223(gp)
    ccb4:	10803fcc 	andi	r2,r2,255
    ccb8:	10800058 	cmpnei	r2,r2,1
    ccbc:	1000161e 	bne	r2,zero,cd18 <altera_avalon_jtag_uart_read+0x1a0>
       * When running in a multi-threaded mode, we pend on the read event
       * flag set and timeout event flag set in the isr. This avoids wasting CPU
       * cycles waiting in this thread, when we could be doing something more
       * profitable elsewhere.
       */
      ALT_FLAG_PEND (sp->events,
    ccc0:	e0bff217 	ldw	r2,-56(fp)
    ccc4:	10800c17 	ldw	r2,48(r2)
    ccc8:	e0bff815 	stw	r2,-32(fp)
    cccc:	00800144 	movi	r2,5
    ccd0:	e0bff78d 	sth	r2,-34(fp)
    ccd4:	00bfe0c4 	movi	r2,-125
    ccd8:	e0bff745 	stb	r2,-35(fp)
    ccdc:	e03ff68d 	sth	zero,-38(fp)
  if (OSRunning)
    cce0:	d0ab4643 	ldbu	r2,-21223(gp)
    cce4:	10803fcc 	andi	r2,r2,255
    cce8:	10001626 	beq	r2,zero,cd44 <altera_avalon_jtag_uart_read+0x1cc>
    OSFlagPend (group, flags, wait_type, timeout, &err);
    ccec:	e0fff78b 	ldhu	r3,-34(fp)
    ccf0:	e13ff743 	ldbu	r4,-35(fp)
    ccf4:	e17ff68b 	ldhu	r5,-38(fp)
    ccf8:	e0bff384 	addi	r2,fp,-50
    ccfc:	d8800015 	stw	r2,0(sp)
    cd00:	280f883a 	mov	r7,r5
    cd04:	200d883a 	mov	r6,r4
    cd08:	180b883a 	mov	r5,r3
    cd0c:	e13ff817 	ldw	r4,-32(fp)
    cd10:	0006e240 	call	6e24 <OSFlagPend>
    return err;
    cd14:	00000c06 	br	cd48 <altera_avalon_jtag_uart_read+0x1d0>
                     OS_FLAG_WAIT_SET_ANY + OS_FLAG_CONSUME,
                     0);
    }
    else {
      /* Spin until more data arrives or until host disconnects */
      while (in == sp->rx_in && sp->host_inactive < sp->timeout)
    cd18:	0001883a 	nop
    cd1c:	e0bff217 	ldw	r2,-56(fp)
    cd20:	10800d17 	ldw	r2,52(r2)
    cd24:	e0fffd17 	ldw	r3,-12(fp)
    cd28:	1880071e 	bne	r3,r2,cd48 <altera_avalon_jtag_uart_read+0x1d0>
    cd2c:	e0bff217 	ldw	r2,-56(fp)
    cd30:	10c00917 	ldw	r3,36(r2)
    cd34:	e0bff217 	ldw	r2,-56(fp)
    cd38:	10800117 	ldw	r2,4(r2)
    cd3c:	18bff736 	bltu	r3,r2,cd1c <altera_avalon_jtag_uart_read+0x1a4>
    cd40:	00000106 	br	cd48 <altera_avalon_jtag_uart_read+0x1d0>
  return OS_ERR_PEND_ISR;
    cd44:	0001883a 	nop
    /* No OS: Always spin */
    while (in == sp->rx_in && sp->host_inactive < sp->timeout)
      ;
#endif /* __ucosii__ */

    if (in == sp->rx_in)
    cd48:	e0bff217 	ldw	r2,-56(fp)
    cd4c:	10800d17 	ldw	r2,52(r2)
    cd50:	e0fffd17 	ldw	r3,-12(fp)
    cd54:	18800726 	beq	r3,r2,cd74 <altera_avalon_jtag_uart_read+0x1fc>
  while (space > 0)
    cd58:	e0bff017 	ldw	r2,-64(fp)
    cd5c:	00bf9b16 	blt	zero,r2,cbcc <altera_avalon_jtag_uart_read+0x54>
    cd60:	00000506 	br	cd78 <altera_avalon_jtag_uart_read+0x200>
      break;
    cd64:	0001883a 	nop
    cd68:	00000306 	br	cd78 <altera_avalon_jtag_uart_read+0x200>
      break;
    cd6c:	0001883a 	nop
    cd70:	00000106 	br	cd78 <altera_avalon_jtag_uart_read+0x200>
      break;
    cd74:	0001883a 	nop
  /*
   * Now that access to the circular buffer is complete, release the read
   * semaphore so that other threads can access the buffer.
   */

  ALT_SEM_POST (sp->read_lock);
    cd78:	e0bff217 	ldw	r2,-56(fp)
    cd7c:	10800a17 	ldw	r2,40(r2)
    cd80:	1009883a 	mov	r4,r2
    cd84:	0009c340 	call	9c34 <OSSemPost>

  if (ptr != buffer)
    cd88:	e0ffff17 	ldw	r3,-4(fp)
    cd8c:	e0bff117 	ldw	r2,-60(fp)
    cd90:	18801926 	beq	r3,r2,cdf8 <altera_avalon_jtag_uart_read+0x280>
  NIOS2_READ_STATUS (context);
    cd94:	0005303a 	rdctl	r2,status
    cd98:	e0bff415 	stw	r2,-48(fp)
  NIOS2_WRITE_STATUS (context & ~NIOS2_STATUS_PIE_MSK);
    cd9c:	e0fff417 	ldw	r3,-48(fp)
    cda0:	00bfff84 	movi	r2,-2
    cda4:	1884703a 	and	r2,r3,r2
    cda8:	1001703a 	wrctl	status,r2
  return context;
    cdac:	e0bff417 	ldw	r2,-48(fp)
  {
    /* If we read any data then there is space in the buffer so enable interrupts */
    context = alt_irq_disable_all();
    cdb0:	e0bffb15 	stw	r2,-20(fp)
    sp->irq_enable |= ALTERA_AVALON_JTAG_UART_CONTROL_RE_MSK;
    cdb4:	e0bff217 	ldw	r2,-56(fp)
    cdb8:	10800817 	ldw	r2,32(r2)
    cdbc:	10c00054 	ori	r3,r2,1
    cdc0:	e0bff217 	ldw	r2,-56(fp)
    cdc4:	10c00815 	stw	r3,32(r2)
    IOWR_ALTERA_AVALON_JTAG_UART_CONTROL(sp->base, sp->irq_enable);
    cdc8:	e0bff217 	ldw	r2,-56(fp)
    cdcc:	10800017 	ldw	r2,0(r2)
    cdd0:	10800104 	addi	r2,r2,4
    cdd4:	1007883a 	mov	r3,r2
    cdd8:	e0bff217 	ldw	r2,-56(fp)
    cddc:	10800817 	ldw	r2,32(r2)
    cde0:	18800035 	stwio	r2,0(r3)
    cde4:	e0bffb17 	ldw	r2,-20(fp)
    cde8:	e0bff515 	stw	r2,-44(fp)
  NIOS2_WRITE_STATUS (context);
    cdec:	e0bff517 	ldw	r2,-44(fp)
    cdf0:	1001703a 	wrctl	status,r2
}
    cdf4:	0001883a 	nop
    alt_irq_enable_all(context);
  }

  if (ptr != buffer)
    cdf8:	e0ffff17 	ldw	r3,-4(fp)
    cdfc:	e0bff117 	ldw	r2,-60(fp)
    ce00:	18800426 	beq	r3,r2,ce14 <altera_avalon_jtag_uart_read+0x29c>
    return ptr - buffer;
    ce04:	e0ffff17 	ldw	r3,-4(fp)
    ce08:	e0bff117 	ldw	r2,-60(fp)
    ce0c:	1885c83a 	sub	r2,r3,r2
    ce10:	00000606 	br	ce2c <altera_avalon_jtag_uart_read+0x2b4>
  else if (flags & O_NONBLOCK)
    ce14:	e0bfef17 	ldw	r2,-68(fp)
    ce18:	1090000c 	andi	r2,r2,16384
    ce1c:	10000226 	beq	r2,zero,ce28 <altera_avalon_jtag_uart_read+0x2b0>
    return -EWOULDBLOCK;
    ce20:	00bffd44 	movi	r2,-11
    ce24:	00000106 	br	ce2c <altera_avalon_jtag_uart_read+0x2b4>
  else
    return -EIO;
    ce28:	00bffec4 	movi	r2,-5
}
    ce2c:	e037883a 	mov	sp,fp
    ce30:	dfc00117 	ldw	ra,4(sp)
    ce34:	df000017 	ldw	fp,0(sp)
    ce38:	dec00204 	addi	sp,sp,8
    ce3c:	f800283a 	ret

0000ce40 <altera_avalon_jtag_uart_write>:
/* ----------------------------------------------------------- */

int 
altera_avalon_jtag_uart_write(altera_avalon_jtag_uart_state* sp, 
  const char * ptr, int count, int flags)
{
    ce40:	deffed04 	addi	sp,sp,-76
    ce44:	dfc01215 	stw	ra,72(sp)
    ce48:	df001115 	stw	fp,68(sp)
    ce4c:	df001104 	addi	fp,sp,68
    ce50:	e13ff315 	stw	r4,-52(fp)
    ce54:	e17ff215 	stw	r5,-56(fp)
    ce58:	e1bff115 	stw	r6,-60(fp)
    ce5c:	e1fff015 	stw	r7,-64(fp)
  /* Remove warning at optimisation level 03 by seting out to 0 */
  unsigned int in, out=0;
    ce60:	e03fff15 	stw	zero,-4(fp)
  unsigned int n;
  alt_irq_context context;

  const char * start = ptr;
    ce64:	e0bff217 	ldw	r2,-56(fp)
    ce68:	e0bffd15 	stw	r2,-12(fp)

  /*
   * When running in a multi threaded environment, obtain the "write_lock"
   * semaphore. This ensures that writing to the device is thread-safe.
   */
  ALT_SEM_PEND (sp->write_lock, 0);
    ce6c:	e0bff317 	ldw	r2,-52(fp)
    ce70:	10800b17 	ldw	r2,44(r2)
    ce74:	e0bffa15 	stw	r2,-24(fp)
    ce78:	e03ff98d 	sth	zero,-26(fp)
    ce7c:	e0bff98b 	ldhu	r2,-26(fp)
    ce80:	e0fff404 	addi	r3,fp,-48
    ce84:	180d883a 	mov	r6,r3
    ce88:	100b883a 	mov	r5,r2
    ce8c:	e13ffa17 	ldw	r4,-24(fp)
    ce90:	00098c40 	call	98c4 <OSSemPend>

  do
  {
    /* Copy as much as we can into the transmit buffer */
    while (count > 0)
    ce94:	00003706 	br	cf74 <altera_avalon_jtag_uart_write+0x134>
    {
      /* We need a stable value of the out pointer to calculate the space available */
      in  = sp->tx_in;
    ce98:	e0bff317 	ldw	r2,-52(fp)
    ce9c:	10800f17 	ldw	r2,60(r2)
    cea0:	e0bffc15 	stw	r2,-16(fp)
      out = sp->tx_out;
    cea4:	e0bff317 	ldw	r2,-52(fp)
    cea8:	10801017 	ldw	r2,64(r2)
    ceac:	e0bfff15 	stw	r2,-4(fp)

      if (in < out)
    ceb0:	e0fffc17 	ldw	r3,-16(fp)
    ceb4:	e0bfff17 	ldw	r2,-4(fp)
    ceb8:	1880062e 	bgeu	r3,r2,ced4 <altera_avalon_jtag_uart_write+0x94>
        n = out - 1 - in;
    cebc:	e0ffff17 	ldw	r3,-4(fp)
    cec0:	e0bffc17 	ldw	r2,-16(fp)
    cec4:	1885c83a 	sub	r2,r3,r2
    cec8:	10bfffc4 	addi	r2,r2,-1
    cecc:	e0bffe15 	stw	r2,-8(fp)
    ced0:	00000b06 	br	cf00 <altera_avalon_jtag_uart_write+0xc0>
      else if (out > 0)
    ced4:	e0bfff17 	ldw	r2,-4(fp)
    ced8:	10000526 	beq	r2,zero,cef0 <altera_avalon_jtag_uart_write+0xb0>
        n = ALTERA_AVALON_JTAG_UART_BUF_LEN - in;
    cedc:	00c20004 	movi	r3,2048
    cee0:	e0bffc17 	ldw	r2,-16(fp)
    cee4:	1885c83a 	sub	r2,r3,r2
    cee8:	e0bffe15 	stw	r2,-8(fp)
    ceec:	00000406 	br	cf00 <altera_avalon_jtag_uart_write+0xc0>
      else
        n = ALTERA_AVALON_JTAG_UART_BUF_LEN - 1 - in;
    cef0:	00c1ffc4 	movi	r3,2047
    cef4:	e0bffc17 	ldw	r2,-16(fp)
    cef8:	1885c83a 	sub	r2,r3,r2
    cefc:	e0bffe15 	stw	r2,-8(fp)

      if (n == 0)
    cf00:	e0bffe17 	ldw	r2,-8(fp)
    cf04:	10001e26 	beq	r2,zero,cf80 <altera_avalon_jtag_uart_write+0x140>
        break;

      if (n > count)
    cf08:	e0fff117 	ldw	r3,-60(fp)
    cf0c:	e0bffe17 	ldw	r2,-8(fp)
    cf10:	1880022e 	bgeu	r3,r2,cf1c <altera_avalon_jtag_uart_write+0xdc>
        n = count;
    cf14:	e0bff117 	ldw	r2,-60(fp)
    cf18:	e0bffe15 	stw	r2,-8(fp)

      memcpy(sp->tx_buf + in, ptr, n);
    cf1c:	e0bff317 	ldw	r2,-52(fp)
    cf20:	10c21104 	addi	r3,r2,2116
    cf24:	e0bffc17 	ldw	r2,-16(fp)
    cf28:	1885883a 	add	r2,r3,r2
    cf2c:	e1bffe17 	ldw	r6,-8(fp)
    cf30:	e17ff217 	ldw	r5,-56(fp)
    cf34:	1009883a 	mov	r4,r2
    cf38:	0001d200 	call	1d20 <memcpy>
      ptr   += n;
    cf3c:	e0fff217 	ldw	r3,-56(fp)
    cf40:	e0bffe17 	ldw	r2,-8(fp)
    cf44:	1885883a 	add	r2,r3,r2
    cf48:	e0bff215 	stw	r2,-56(fp)
      count -= n;
    cf4c:	e0fff117 	ldw	r3,-60(fp)
    cf50:	e0bffe17 	ldw	r2,-8(fp)
    cf54:	1885c83a 	sub	r2,r3,r2
    cf58:	e0bff115 	stw	r2,-60(fp)

      sp->tx_in = (in + n) % ALTERA_AVALON_JTAG_UART_BUF_LEN;
    cf5c:	e0fffc17 	ldw	r3,-16(fp)
    cf60:	e0bffe17 	ldw	r2,-8(fp)
    cf64:	1885883a 	add	r2,r3,r2
    cf68:	10c1ffcc 	andi	r3,r2,2047
    cf6c:	e0bff317 	ldw	r2,-52(fp)
    cf70:	10c00f15 	stw	r3,60(r2)
    while (count > 0)
    cf74:	e0bff117 	ldw	r2,-60(fp)
    cf78:	00bfc716 	blt	zero,r2,ce98 <altera_avalon_jtag_uart_write+0x58>
    cf7c:	00000106 	br	cf84 <altera_avalon_jtag_uart_write+0x144>
        break;
    cf80:	0001883a 	nop
  NIOS2_READ_STATUS (context);
    cf84:	0005303a 	rdctl	r2,status
    cf88:	e0bff715 	stw	r2,-36(fp)
  NIOS2_WRITE_STATUS (context & ~NIOS2_STATUS_PIE_MSK);
    cf8c:	e0fff717 	ldw	r3,-36(fp)
    cf90:	00bfff84 	movi	r2,-2
    cf94:	1884703a 	and	r2,r3,r2
    cf98:	1001703a 	wrctl	status,r2
  return context;
    cf9c:	e0bff717 	ldw	r2,-36(fp)
     * to enable interrupts if there is no space left in the FIFO
     *
     * For now kick the interrupt routine every time to make it transmit 
     * the data 
     */
    context = alt_irq_disable_all();
    cfa0:	e0bffb15 	stw	r2,-20(fp)
    sp->irq_enable |= ALTERA_AVALON_JTAG_UART_CONTROL_WE_MSK;
    cfa4:	e0bff317 	ldw	r2,-52(fp)
    cfa8:	10800817 	ldw	r2,32(r2)
    cfac:	10c00094 	ori	r3,r2,2
    cfb0:	e0bff317 	ldw	r2,-52(fp)
    cfb4:	10c00815 	stw	r3,32(r2)
    IOWR_ALTERA_AVALON_JTAG_UART_CONTROL(sp->base, sp->irq_enable);
    cfb8:	e0bff317 	ldw	r2,-52(fp)
    cfbc:	10800017 	ldw	r2,0(r2)
    cfc0:	10800104 	addi	r2,r2,4
    cfc4:	1007883a 	mov	r3,r2
    cfc8:	e0bff317 	ldw	r2,-52(fp)
    cfcc:	10800817 	ldw	r2,32(r2)
    cfd0:	18800035 	stwio	r2,0(r3)
    cfd4:	e0bffb17 	ldw	r2,-20(fp)
    cfd8:	e0bff815 	stw	r2,-32(fp)
  NIOS2_WRITE_STATUS (context);
    cfdc:	e0bff817 	ldw	r2,-32(fp)
    cfe0:	1001703a 	wrctl	status,r2
}
    cfe4:	0001883a 	nop
    /* 
     * If there is any data left then either return now or block until 
     * some has been sent 
     */
    /* consider: test whether there is anything there while doing this and delay for at most 2s. */
    if (count > 0)
    cfe8:	e0bff117 	ldw	r2,-60(fp)
    cfec:	00802c0e 	bge	zero,r2,d0a0 <altera_avalon_jtag_uart_write+0x260>
    {
      if (flags & O_NONBLOCK)
    cff0:	e0bff017 	ldw	r2,-64(fp)
    cff4:	1090000c 	andi	r2,r2,16384
    cff8:	10002c1e 	bne	r2,zero,d0ac <altera_avalon_jtag_uart_write+0x26c>
        break;

#ifdef __ucosii__
      /* OS Present: Pend on a flag if the OS is running, otherwise spin */
      if(OSRunning == OS_TRUE) {
    cffc:	d0ab4643 	ldbu	r2,-21223(gp)
    d000:	10803fcc 	andi	r2,r2,255
    d004:	10800058 	cmpnei	r2,r2,1
    d008:	1000161e 	bne	r2,zero,d064 <altera_avalon_jtag_uart_write+0x224>
         * more profitable elsewhere.
         */
#ifdef ALTERA_AVALON_JTAG_UART_IGNORE_FIFO_FULL_ERROR
        if(!sp->host_inactive)
#endif
        ALT_FLAG_PEND (sp->events,
    d00c:	e0bff317 	ldw	r2,-52(fp)
    d010:	10800c17 	ldw	r2,48(r2)
    d014:	e0bff615 	stw	r2,-40(fp)
    d018:	00800184 	movi	r2,6
    d01c:	e0bff58d 	sth	r2,-42(fp)
    d020:	00bfe0c4 	movi	r2,-125
    d024:	e0bff545 	stb	r2,-43(fp)
    d028:	e03ff48d 	sth	zero,-46(fp)
  if (OSRunning)
    d02c:	d0ab4643 	ldbu	r2,-21223(gp)
    d030:	10803fcc 	andi	r2,r2,255
    d034:	10001626 	beq	r2,zero,d090 <altera_avalon_jtag_uart_write+0x250>
    OSFlagPend (group, flags, wait_type, timeout, &err);
    d038:	e0fff58b 	ldhu	r3,-42(fp)
    d03c:	e13ff543 	ldbu	r4,-43(fp)
    d040:	e17ff48b 	ldhu	r5,-46(fp)
    d044:	e0bff444 	addi	r2,fp,-47
    d048:	d8800015 	stw	r2,0(sp)
    d04c:	280f883a 	mov	r7,r5
    d050:	200d883a 	mov	r6,r4
    d054:	180b883a 	mov	r5,r3
    d058:	e13ff617 	ldw	r4,-40(fp)
    d05c:	0006e240 	call	6e24 <OSFlagPend>
    return err;
    d060:	00000c06 	br	d094 <altera_avalon_jtag_uart_write+0x254>
        /*
         * OS not running: Wait for data to be removed from buffer.
         * Once the interrupt routine has removed some data then we
         * will be able to insert some more.
         */
        while (out == sp->tx_out && sp->host_inactive < sp->timeout)
    d064:	0001883a 	nop
    d068:	e0bff317 	ldw	r2,-52(fp)
    d06c:	10801017 	ldw	r2,64(r2)
    d070:	e0ffff17 	ldw	r3,-4(fp)
    d074:	1880071e 	bne	r3,r2,d094 <altera_avalon_jtag_uart_write+0x254>
    d078:	e0bff317 	ldw	r2,-52(fp)
    d07c:	10c00917 	ldw	r3,36(r2)
    d080:	e0bff317 	ldw	r2,-52(fp)
    d084:	10800117 	ldw	r2,4(r2)
    d088:	18bff736 	bltu	r3,r2,d068 <altera_avalon_jtag_uart_write+0x228>
    d08c:	00000106 	br	d094 <altera_avalon_jtag_uart_write+0x254>
  return OS_ERR_PEND_ISR;
    d090:	0001883a 	nop
       */
      while (out == sp->tx_out && sp->host_inactive < sp->timeout)
        ;
#endif /* __ucosii__ */

      if  (sp->host_inactive)
    d094:	e0bff317 	ldw	r2,-52(fp)
    d098:	10800917 	ldw	r2,36(r2)
    d09c:	1000051e 	bne	r2,zero,d0b4 <altera_avalon_jtag_uart_write+0x274>
         break;
    }
  }
  while (count > 0);
    d0a0:	e0bff117 	ldw	r2,-60(fp)
    d0a4:	00bfb316 	blt	zero,r2,cf74 <altera_avalon_jtag_uart_write+0x134>
    d0a8:	00000306 	br	d0b8 <altera_avalon_jtag_uart_write+0x278>
        break;
    d0ac:	0001883a 	nop
    d0b0:	00000106 	br	d0b8 <altera_avalon_jtag_uart_write+0x278>
         break;
    d0b4:	0001883a 	nop

  /*
   * Now that access to the circular buffer is complete, release the write
   * semaphore so that other threads can access the buffer.
   */
  ALT_SEM_POST (sp->write_lock);
    d0b8:	e0bff317 	ldw	r2,-52(fp)
    d0bc:	10800b17 	ldw	r2,44(r2)
    d0c0:	1009883a 	mov	r4,r2
    d0c4:	0009c340 	call	9c34 <OSSemPost>

  if (ptr != start)
    d0c8:	e0fff217 	ldw	r3,-56(fp)
    d0cc:	e0bffd17 	ldw	r2,-12(fp)
    d0d0:	18800426 	beq	r3,r2,d0e4 <altera_avalon_jtag_uart_write+0x2a4>
    return ptr - start;
    d0d4:	e0fff217 	ldw	r3,-56(fp)
    d0d8:	e0bffd17 	ldw	r2,-12(fp)
    d0dc:	1885c83a 	sub	r2,r3,r2
    d0e0:	00000606 	br	d0fc <altera_avalon_jtag_uart_write+0x2bc>
  else if (flags & O_NONBLOCK)
    d0e4:	e0bff017 	ldw	r2,-64(fp)
    d0e8:	1090000c 	andi	r2,r2,16384
    d0ec:	10000226 	beq	r2,zero,d0f8 <altera_avalon_jtag_uart_write+0x2b8>
    return -EWOULDBLOCK;
    d0f0:	00bffd44 	movi	r2,-11
    d0f4:	00000106 	br	d0fc <altera_avalon_jtag_uart_write+0x2bc>
    sp->tx_out = sp->tx_in = 0;
    return ptr - start + count;
  }
#endif
  else
    return -EIO; /* Host not connected */
    d0f8:	00bffec4 	movi	r2,-5
}
    d0fc:	e037883a 	mov	sp,fp
    d100:	dfc00117 	ldw	ra,4(sp)
    d104:	df000017 	ldw	fp,0(sp)
    d108:	dec00204 	addi	sp,sp,8
    d10c:	f800283a 	ret

0000d110 <alt_avalon_timer_sc_irq>:
#ifdef ALT_ENHANCED_INTERRUPT_API_PRESENT
static void alt_avalon_timer_sc_irq (void* base)
#else
static void alt_avalon_timer_sc_irq (void* base, alt_u32 id)
#endif
{
    d110:	defffa04 	addi	sp,sp,-24
    d114:	dfc00515 	stw	ra,20(sp)
    d118:	df000415 	stw	fp,16(sp)
    d11c:	df000404 	addi	fp,sp,16
    d120:	e13ffc15 	stw	r4,-16(fp)
  alt_irq_context cpu_sr;
  
  /* clear the interrupt */
  IOWR_ALTERA_AVALON_TIMER_STATUS (base, 0);
    d124:	0007883a 	mov	r3,zero
    d128:	e0bffc17 	ldw	r2,-16(fp)
    d12c:	10c00035 	stwio	r3,0(r2)
  /* 
   * Dummy read to ensure IRQ is negated before the ISR returns.
   * The control register is read because reading the status
   * register has side-effects per the register map documentation.
   */
  IORD_ALTERA_AVALON_TIMER_CONTROL (base);
    d130:	e0bffc17 	ldw	r2,-16(fp)
    d134:	10800104 	addi	r2,r2,4
    d138:	10800037 	ldwio	r2,0(r2)
  NIOS2_READ_STATUS (context);
    d13c:	0005303a 	rdctl	r2,status
    d140:	e0bffd15 	stw	r2,-12(fp)
  NIOS2_WRITE_STATUS (context & ~NIOS2_STATUS_PIE_MSK);
    d144:	e0fffd17 	ldw	r3,-12(fp)
    d148:	00bfff84 	movi	r2,-2
    d14c:	1884703a 	and	r2,r3,r2
    d150:	1001703a 	wrctl	status,r2
  return context;
    d154:	e0bffd17 	ldw	r2,-12(fp)

  /* 
   * Notify the system of a clock tick. disable interrupts 
   * during this time to safely support ISR preemption
   */
  cpu_sr = alt_irq_disable_all();
    d158:	e0bfff15 	stw	r2,-4(fp)
  alt_tick ();
    d15c:	000dc4c0 	call	dc4c <alt_tick>
    d160:	e0bfff17 	ldw	r2,-4(fp)
    d164:	e0bffe15 	stw	r2,-8(fp)
  NIOS2_WRITE_STATUS (context);
    d168:	e0bffe17 	ldw	r2,-8(fp)
    d16c:	1001703a 	wrctl	status,r2
}
    d170:	0001883a 	nop
  alt_irq_enable_all(cpu_sr);
}
    d174:	0001883a 	nop
    d178:	e037883a 	mov	sp,fp
    d17c:	dfc00117 	ldw	ra,4(sp)
    d180:	df000017 	ldw	fp,0(sp)
    d184:	dec00204 	addi	sp,sp,8
    d188:	f800283a 	ret

0000d18c <alt_avalon_timer_sc_init>:
 * auto-generated alt_sys_init() function.
 */

void alt_avalon_timer_sc_init (void* base, alt_u32 irq_controller_id, 
                                alt_u32 irq, alt_u32 freq)
{
    d18c:	defff804 	addi	sp,sp,-32
    d190:	dfc00715 	stw	ra,28(sp)
    d194:	df000615 	stw	fp,24(sp)
    d198:	df000604 	addi	fp,sp,24
    d19c:	e13ffe15 	stw	r4,-8(fp)
    d1a0:	e17ffd15 	stw	r5,-12(fp)
    d1a4:	e1bffc15 	stw	r6,-16(fp)
    d1a8:	e1fffb15 	stw	r7,-20(fp)
    d1ac:	e0bffb17 	ldw	r2,-20(fp)
    d1b0:	e0bfff15 	stw	r2,-4(fp)
 * in order to initialise the value of the clock frequency.
 */

static ALT_INLINE int ALT_ALWAYS_INLINE alt_sysclk_init (alt_u32 nticks)
{
  if (! _alt_tick_rate)
    d1b4:	d0ab5217 	ldw	r2,-21176(gp)
    d1b8:	1000031e 	bne	r2,zero,d1c8 <alt_avalon_timer_sc_init+0x3c>
  {
    _alt_tick_rate = nticks;
    d1bc:	e0bfff17 	ldw	r2,-4(fp)
    d1c0:	d0ab5215 	stw	r2,-21176(gp)
    return 0;
    d1c4:	00000106 	br	d1cc <alt_avalon_timer_sc_init+0x40>
  }
  else
  {
    return -1;
    d1c8:	0001883a 	nop
  
  alt_sysclk_init (freq);
  
  /* set to free running mode */
  
  IOWR_ALTERA_AVALON_TIMER_CONTROL (base, 
    d1cc:	e0bffe17 	ldw	r2,-8(fp)
    d1d0:	10800104 	addi	r2,r2,4
    d1d4:	00c001c4 	movi	r3,7
    d1d8:	10c00035 	stwio	r3,0(r2)
            ALTERA_AVALON_TIMER_CONTROL_CONT_MSK |
            ALTERA_AVALON_TIMER_CONTROL_START_MSK);

  /* register the interrupt handler, and enable the interrupt */
#ifdef ALT_ENHANCED_INTERRUPT_API_PRESENT
  alt_ic_isr_register(irq_controller_id, irq, alt_avalon_timer_sc_irq, 
    d1dc:	d8000015 	stw	zero,0(sp)
    d1e0:	e1fffe17 	ldw	r7,-8(fp)
    d1e4:	01800074 	movhi	r6,1
    d1e8:	31b44404 	addi	r6,r6,-12016
    d1ec:	e17ffc17 	ldw	r5,-16(fp)
    d1f0:	e13ffd17 	ldw	r4,-12(fp)
    d1f4:	000d59c0 	call	d59c <alt_ic_isr_register>
                      base, NULL);
#else
  alt_irq_register (irq, base, alt_avalon_timer_sc_irq);
#endif  
}
    d1f8:	0001883a 	nop
    d1fc:	e037883a 	mov	sp,fp
    d200:	dfc00117 	ldw	ra,4(sp)
    d204:	df000017 	ldw	fp,0(sp)
    d208:	dec00204 	addi	sp,sp,8
    d20c:	f800283a 	ret

0000d210 <alt_alarm_start>:
 */ 

int alt_alarm_start (alt_alarm* alarm, alt_u32 nticks,
                     alt_u32 (*callback) (void* context),
                     void* context)
{
    d210:	defff404 	addi	sp,sp,-48
    d214:	df000b15 	stw	fp,44(sp)
    d218:	df000b04 	addi	fp,sp,44
    d21c:	e13ff815 	stw	r4,-32(fp)
    d220:	e17ff715 	stw	r5,-36(fp)
    d224:	e1bff615 	stw	r6,-40(fp)
    d228:	e1fff515 	stw	r7,-44(fp)
  alt_irq_context irq_context;
  alt_u64 current_nticks = 0;
    d22c:	e03ffe15 	stw	zero,-8(fp)
    d230:	e03fff15 	stw	zero,-4(fp)
  return _alt_tick_rate;
    d234:	d0ab5217 	ldw	r2,-21176(gp)
  
  if (alt_ticks_per_second ())
    d238:	10004826 	beq	r2,zero,d35c <alt_alarm_start+0x14c>
  {
    if (alarm)
    d23c:	e0bff817 	ldw	r2,-32(fp)
    d240:	10004426 	beq	r2,zero,d354 <alt_alarm_start+0x144>
    {
      alarm->callback = callback;
    d244:	e0bff817 	ldw	r2,-32(fp)
    d248:	e0fff617 	ldw	r3,-40(fp)
    d24c:	10c00415 	stw	r3,16(r2)
      alarm->context  = context;
    d250:	e0bff817 	ldw	r2,-32(fp)
    d254:	e0fff517 	ldw	r3,-44(fp)
    d258:	10c00515 	stw	r3,20(r2)
  NIOS2_READ_STATUS (context);
    d25c:	0005303a 	rdctl	r2,status
    d260:	e0bff915 	stw	r2,-28(fp)
  NIOS2_WRITE_STATUS (context & ~NIOS2_STATUS_PIE_MSK);
    d264:	e0fff917 	ldw	r3,-28(fp)
    d268:	00bfff84 	movi	r2,-2
    d26c:	1884703a 	and	r2,r3,r2
    d270:	1001703a 	wrctl	status,r2
  return context;
    d274:	e0bff917 	ldw	r2,-28(fp)
 
      irq_context = alt_irq_disable_all ();
    d278:	e0bffd15 	stw	r2,-12(fp)
 * alt_nticks() returns the elapsed number of system clock ticks since reset.
 */

static ALT_INLINE alt_u64 ALT_ALWAYS_INLINE alt_nticks (void)
{
  return _alt_nticks;
    d27c:	d0ab5317 	ldw	r2,-21172(gp)
    d280:	d0eb5417 	ldw	r3,-21168(gp)
      
      current_nticks = alt_nticks();
    d284:	e0bffe15 	stw	r2,-8(fp)
    d288:	e0ffff15 	stw	r3,-4(fp)
      
      alarm->time = (alt_u64)nticks + current_nticks + 1; 
    d28c:	e0bff717 	ldw	r2,-36(fp)
    d290:	1011883a 	mov	r8,r2
    d294:	0013883a 	mov	r9,zero
    d298:	e13ffe17 	ldw	r4,-8(fp)
    d29c:	e17fff17 	ldw	r5,-4(fp)
    d2a0:	4105883a 	add	r2,r8,r4
    d2a4:	120d803a 	cmpltu	r6,r2,r8
    d2a8:	4947883a 	add	r3,r9,r5
    d2ac:	30c9883a 	add	r4,r6,r3
    d2b0:	2007883a 	mov	r3,r4
    d2b4:	1009883a 	mov	r4,r2
    d2b8:	180b883a 	mov	r5,r3
    d2bc:	01800044 	movi	r6,1
    d2c0:	000f883a 	mov	r7,zero
    d2c4:	2185883a 	add	r2,r4,r6
    d2c8:	1111803a 	cmpltu	r8,r2,r4
    d2cc:	29c7883a 	add	r3,r5,r7
    d2d0:	40c9883a 	add	r4,r8,r3
    d2d4:	2007883a 	mov	r3,r4
    d2d8:	1009883a 	mov	r4,r2
    d2dc:	180b883a 	mov	r5,r3
    d2e0:	e0bff817 	ldw	r2,-32(fp)
    d2e4:	11000215 	stw	r4,8(r2)
    d2e8:	11400315 	stw	r5,12(r2)
          
      alt_llist_insert (&alt_alarm_list, &alarm->llist);
    d2ec:	e0bff817 	ldw	r2,-32(fp)
    d2f0:	d0e02c04 	addi	r3,gp,-32592
    d2f4:	e0fffb15 	stw	r3,-20(fp)
    d2f8:	e0bffa15 	stw	r2,-24(fp)
 */

static ALT_INLINE void ALT_ALWAYS_INLINE alt_llist_insert(alt_llist* list, 
                alt_llist* entry)
{
  entry->previous = list;
    d2fc:	e0bffa17 	ldw	r2,-24(fp)
    d300:	e0fffb17 	ldw	r3,-20(fp)
    d304:	10c00115 	stw	r3,4(r2)
  entry->next     = list->next;
    d308:	e0bffb17 	ldw	r2,-20(fp)
    d30c:	10c00017 	ldw	r3,0(r2)
    d310:	e0bffa17 	ldw	r2,-24(fp)
    d314:	10c00015 	stw	r3,0(r2)

  list->next->previous = entry;
    d318:	e0bffb17 	ldw	r2,-20(fp)
    d31c:	10800017 	ldw	r2,0(r2)
    d320:	e0fffa17 	ldw	r3,-24(fp)
    d324:	10c00115 	stw	r3,4(r2)
  list->next           = entry;
    d328:	e0bffb17 	ldw	r2,-20(fp)
    d32c:	e0fffa17 	ldw	r3,-24(fp)
    d330:	10c00015 	stw	r3,0(r2)
}
    d334:	0001883a 	nop
    d338:	e0bffd17 	ldw	r2,-12(fp)
    d33c:	e0bffc15 	stw	r2,-16(fp)
  NIOS2_WRITE_STATUS (context);
    d340:	e0bffc17 	ldw	r2,-16(fp)
    d344:	1001703a 	wrctl	status,r2
}
    d348:	0001883a 	nop
      alt_irq_enable_all (irq_context);

      return 0;
    d34c:	0005883a 	mov	r2,zero
    d350:	00000306 	br	d360 <alt_alarm_start+0x150>
    }
    else
    {
      return -EINVAL;
    d354:	00bffa84 	movi	r2,-22
    d358:	00000106 	br	d360 <alt_alarm_start+0x150>
    }
  }
  else
  {
    return -ENOTSUP;
    d35c:	00bfde84 	movi	r2,-134
  }
}
    d360:	e037883a 	mov	sp,fp
    d364:	df000017 	ldw	fp,0(sp)
    d368:	dec00104 	addi	sp,sp,4
    d36c:	f800283a 	ret

0000d370 <alt_dcache_flush_all>:
/*
 * alt_dcache_flush_all() is called to flush the entire data cache.
 */

void alt_dcache_flush_all (void)
{
    d370:	defffe04 	addi	sp,sp,-8
    d374:	df000115 	stw	fp,4(sp)
    d378:	df000104 	addi	fp,sp,4
#if NIOS2_DCACHE_SIZE > 0
  char* i;
  
  for (i = (char*) 0; i < (char*) NIOS2_DCACHE_SIZE; i+= NIOS2_DCACHE_LINE_SIZE)
    d37c:	e03fff15 	stw	zero,-4(fp)
    d380:	00000506 	br	d398 <alt_dcache_flush_all+0x28>
  { 
    __asm__ volatile ("flushd (%0)" :: "r" (i));
    d384:	e0bfff17 	ldw	r2,-4(fp)
    d388:	1000003b 	flushd	0(r2)
  for (i = (char*) 0; i < (char*) NIOS2_DCACHE_SIZE; i+= NIOS2_DCACHE_LINE_SIZE)
    d38c:	e0bfff17 	ldw	r2,-4(fp)
    d390:	10800804 	addi	r2,r2,32
    d394:	e0bfff15 	stw	r2,-4(fp)
    d398:	e0bfff17 	ldw	r2,-4(fp)
    d39c:	10820030 	cmpltui	r2,r2,2048
    d3a0:	103ff81e 	bne	r2,zero,d384 <alt_dcache_flush_all+0x14>
  }
#endif /* NIOS2_DCACHE_SIZE > 0 */
}
    d3a4:	0001883a 	nop
    d3a8:	0001883a 	nop
    d3ac:	e037883a 	mov	sp,fp
    d3b0:	df000017 	ldw	fp,0(sp)
    d3b4:	dec00104 	addi	sp,sp,4
    d3b8:	f800283a 	ret

0000d3bc <alt_get_errno>:
{
    d3bc:	defffe04 	addi	sp,sp,-8
    d3c0:	dfc00115 	stw	ra,4(sp)
    d3c4:	df000015 	stw	fp,0(sp)
    d3c8:	d839883a 	mov	fp,sp
  return ((alt_errno) ? alt_errno() : &errno);
    d3cc:	d0a00917 	ldw	r2,-32732(gp)
    d3d0:	10000326 	beq	r2,zero,d3e0 <alt_get_errno+0x24>
    d3d4:	d0a00917 	ldw	r2,-32732(gp)
    d3d8:	103ee83a 	callr	r2
    d3dc:	00000106 	br	d3e4 <alt_get_errno+0x28>
    d3e0:	d0ab3504 	addi	r2,gp,-21292
}
    d3e4:	e037883a 	mov	sp,fp
    d3e8:	dfc00117 	ldw	ra,4(sp)
    d3ec:	df000017 	ldw	fp,0(sp)
    d3f0:	dec00204 	addi	sp,sp,8
    d3f4:	f800283a 	ret

0000d3f8 <alt_dev_llist_insert>:
/*
 *
 */

int alt_dev_llist_insert (alt_dev_llist* dev, alt_llist* list)
{
    d3f8:	defffa04 	addi	sp,sp,-24
    d3fc:	dfc00515 	stw	ra,20(sp)
    d400:	df000415 	stw	fp,16(sp)
    d404:	df000404 	addi	fp,sp,16
    d408:	e13ffd15 	stw	r4,-12(fp)
    d40c:	e17ffc15 	stw	r5,-16(fp)
  /*
   * check that the device exists, and that it has a valid name.
   */

  if (!dev || !dev->name)
    d410:	e0bffd17 	ldw	r2,-12(fp)
    d414:	10000326 	beq	r2,zero,d424 <alt_dev_llist_insert+0x2c>
    d418:	e0bffd17 	ldw	r2,-12(fp)
    d41c:	10800217 	ldw	r2,8(r2)
    d420:	1000061e 	bne	r2,zero,d43c <alt_dev_llist_insert+0x44>
  {
    ALT_ERRNO = EINVAL;
    d424:	000d3bc0 	call	d3bc <alt_get_errno>
    d428:	1007883a 	mov	r3,r2
    d42c:	00800584 	movi	r2,22
    d430:	18800015 	stw	r2,0(r3)
    return -EINVAL;
    d434:	00bffa84 	movi	r2,-22
    d438:	00001406 	br	d48c <alt_dev_llist_insert+0x94>
  
  /*
   * register the device.
   */
  
  alt_llist_insert(list, &dev->llist);
    d43c:	e0bffd17 	ldw	r2,-12(fp)
    d440:	e0fffc17 	ldw	r3,-16(fp)
    d444:	e0ffff15 	stw	r3,-4(fp)
    d448:	e0bffe15 	stw	r2,-8(fp)
  entry->previous = list;
    d44c:	e0bffe17 	ldw	r2,-8(fp)
    d450:	e0ffff17 	ldw	r3,-4(fp)
    d454:	10c00115 	stw	r3,4(r2)
  entry->next     = list->next;
    d458:	e0bfff17 	ldw	r2,-4(fp)
    d45c:	10c00017 	ldw	r3,0(r2)
    d460:	e0bffe17 	ldw	r2,-8(fp)
    d464:	10c00015 	stw	r3,0(r2)
  list->next->previous = entry;
    d468:	e0bfff17 	ldw	r2,-4(fp)
    d46c:	10800017 	ldw	r2,0(r2)
    d470:	e0fffe17 	ldw	r3,-8(fp)
    d474:	10c00115 	stw	r3,4(r2)
  list->next           = entry;
    d478:	e0bfff17 	ldw	r2,-4(fp)
    d47c:	e0fffe17 	ldw	r3,-8(fp)
    d480:	10c00015 	stw	r3,0(r2)
}
    d484:	0001883a 	nop

  return 0;  
    d488:	0005883a 	mov	r2,zero
}
    d48c:	e037883a 	mov	sp,fp
    d490:	dfc00117 	ldw	ra,4(sp)
    d494:	df000017 	ldw	fp,0(sp)
    d498:	dec00204 	addi	sp,sp,8
    d49c:	f800283a 	ret

0000d4a0 <_do_ctors>:
/*
 * Run the C++ static constructors.
 */

void _do_ctors(void)
{
    d4a0:	defffd04 	addi	sp,sp,-12
    d4a4:	dfc00215 	stw	ra,8(sp)
    d4a8:	df000115 	stw	fp,4(sp)
    d4ac:	df000104 	addi	fp,sp,4
  constructor* ctor;

  for (ctor = &__CTOR_END__[-1]; ctor >= __CTOR_LIST__; ctor--)
    d4b0:	00800074 	movhi	r2,1
    d4b4:	10b9c804 	addi	r2,r2,-6368
    d4b8:	e0bfff15 	stw	r2,-4(fp)
    d4bc:	00000606 	br	d4d8 <_do_ctors+0x38>
        (*ctor) (); 
    d4c0:	e0bfff17 	ldw	r2,-4(fp)
    d4c4:	10800017 	ldw	r2,0(r2)
    d4c8:	103ee83a 	callr	r2
  for (ctor = &__CTOR_END__[-1]; ctor >= __CTOR_LIST__; ctor--)
    d4cc:	e0bfff17 	ldw	r2,-4(fp)
    d4d0:	10bfff04 	addi	r2,r2,-4
    d4d4:	e0bfff15 	stw	r2,-4(fp)
    d4d8:	e0ffff17 	ldw	r3,-4(fp)
    d4dc:	00800074 	movhi	r2,1
    d4e0:	10b9c904 	addi	r2,r2,-6364
    d4e4:	18bff62e 	bgeu	r3,r2,d4c0 <_do_ctors+0x20>
}
    d4e8:	0001883a 	nop
    d4ec:	0001883a 	nop
    d4f0:	e037883a 	mov	sp,fp
    d4f4:	dfc00117 	ldw	ra,4(sp)
    d4f8:	df000017 	ldw	fp,0(sp)
    d4fc:	dec00204 	addi	sp,sp,8
    d500:	f800283a 	ret

0000d504 <_do_dtors>:
/*
 * Run the C++ static destructors.
 */

void _do_dtors(void)
{
    d504:	defffd04 	addi	sp,sp,-12
    d508:	dfc00215 	stw	ra,8(sp)
    d50c:	df000115 	stw	fp,4(sp)
    d510:	df000104 	addi	fp,sp,4
  destructor* dtor;

  for (dtor = &__DTOR_END__[-1]; dtor >= __DTOR_LIST__; dtor--)
    d514:	00800074 	movhi	r2,1
    d518:	10b9c804 	addi	r2,r2,-6368
    d51c:	e0bfff15 	stw	r2,-4(fp)
    d520:	00000606 	br	d53c <_do_dtors+0x38>
        (*dtor) (); 
    d524:	e0bfff17 	ldw	r2,-4(fp)
    d528:	10800017 	ldw	r2,0(r2)
    d52c:	103ee83a 	callr	r2
  for (dtor = &__DTOR_END__[-1]; dtor >= __DTOR_LIST__; dtor--)
    d530:	e0bfff17 	ldw	r2,-4(fp)
    d534:	10bfff04 	addi	r2,r2,-4
    d538:	e0bfff15 	stw	r2,-4(fp)
    d53c:	e0ffff17 	ldw	r3,-4(fp)
    d540:	00800074 	movhi	r2,1
    d544:	10b9c904 	addi	r2,r2,-6364
    d548:	18bff62e 	bgeu	r3,r2,d524 <_do_dtors+0x20>
}
    d54c:	0001883a 	nop
    d550:	0001883a 	nop
    d554:	e037883a 	mov	sp,fp
    d558:	dfc00117 	ldw	ra,4(sp)
    d55c:	df000017 	ldw	fp,0(sp)
    d560:	dec00204 	addi	sp,sp,8
    d564:	f800283a 	ret

0000d568 <alt_icache_flush_all>:
/*
 * alt_icache_flush_all() is called to flush the entire instruction cache.
 */

void alt_icache_flush_all (void)
{
    d568:	defffe04 	addi	sp,sp,-8
    d56c:	dfc00115 	stw	ra,4(sp)
    d570:	df000015 	stw	fp,0(sp)
    d574:	d839883a 	mov	fp,sp
#if NIOS2_ICACHE_SIZE > 0
  alt_icache_flush (0, NIOS2_ICACHE_SIZE);
    d578:	01440004 	movi	r5,4096
    d57c:	0009883a 	mov	r4,zero
    d580:	000e3780 	call	e378 <alt_icache_flush>
#endif
}
    d584:	0001883a 	nop
    d588:	e037883a 	mov	sp,fp
    d58c:	dfc00117 	ldw	ra,4(sp)
    d590:	df000017 	ldw	fp,0(sp)
    d594:	dec00204 	addi	sp,sp,8
    d598:	f800283a 	ret

0000d59c <alt_ic_isr_register>:
  * @param irq              IRQ number
  * @return                 0 if successful, else error (-1)
  */
int alt_ic_isr_register(alt_u32 ic_id, alt_u32 irq, alt_isr_func isr, 
  void *isr_context, void *flags)
{
    d59c:	defff904 	addi	sp,sp,-28
    d5a0:	dfc00615 	stw	ra,24(sp)
    d5a4:	df000515 	stw	fp,20(sp)
    d5a8:	df000504 	addi	fp,sp,20
    d5ac:	e13fff15 	stw	r4,-4(fp)
    d5b0:	e17ffe15 	stw	r5,-8(fp)
    d5b4:	e1bffd15 	stw	r6,-12(fp)
    d5b8:	e1fffc15 	stw	r7,-16(fp)
    return alt_iic_isr_register(ic_id, irq, isr, isr_context, flags);
    d5bc:	e0800217 	ldw	r2,8(fp)
    d5c0:	d8800015 	stw	r2,0(sp)
    d5c4:	e1fffc17 	ldw	r7,-16(fp)
    d5c8:	e1bffd17 	ldw	r6,-12(fp)
    d5cc:	e17ffe17 	ldw	r5,-8(fp)
    d5d0:	e13fff17 	ldw	r4,-4(fp)
    d5d4:	000d74c0 	call	d74c <alt_iic_isr_register>
}  
    d5d8:	e037883a 	mov	sp,fp
    d5dc:	dfc00117 	ldw	ra,4(sp)
    d5e0:	df000017 	ldw	fp,0(sp)
    d5e4:	dec00204 	addi	sp,sp,8
    d5e8:	f800283a 	ret

0000d5ec <alt_ic_irq_enable>:
  * @param ic_id            Ignored.
  * @param irq              IRQ number
  * @return                 0 if successful, else error (-1)
  */
int alt_ic_irq_enable (alt_u32 ic_id, alt_u32 irq)
{
    d5ec:	defff904 	addi	sp,sp,-28
    d5f0:	df000615 	stw	fp,24(sp)
    d5f4:	df000604 	addi	fp,sp,24
    d5f8:	e13ffb15 	stw	r4,-20(fp)
    d5fc:	e17ffa15 	stw	r5,-24(fp)
    d600:	e0bffa17 	ldw	r2,-24(fp)
    d604:	e0bfff15 	stw	r2,-4(fp)
  NIOS2_READ_STATUS (context);
    d608:	0005303a 	rdctl	r2,status
    d60c:	e0bffe15 	stw	r2,-8(fp)
  NIOS2_WRITE_STATUS (context & ~NIOS2_STATUS_PIE_MSK);
    d610:	e0fffe17 	ldw	r3,-8(fp)
    d614:	00bfff84 	movi	r2,-2
    d618:	1884703a 	and	r2,r3,r2
    d61c:	1001703a 	wrctl	status,r2
  return context;
    d620:	e0bffe17 	ldw	r2,-8(fp)
static ALT_INLINE int ALT_ALWAYS_INLINE alt_irq_enable (alt_u32 id)
{
  alt_irq_context  status;
  extern volatile alt_u32 alt_irq_active;

  status = alt_irq_disable_all ();
    d624:	e0bffd15 	stw	r2,-12(fp)

  alt_irq_active |= (1 << id);
    d628:	00c00044 	movi	r3,1
    d62c:	e0bfff17 	ldw	r2,-4(fp)
    d630:	1884983a 	sll	r2,r3,r2
    d634:	1007883a 	mov	r3,r2
    d638:	d0ab5117 	ldw	r2,-21180(gp)
    d63c:	1884b03a 	or	r2,r3,r2
    d640:	d0ab5115 	stw	r2,-21180(gp)
  NIOS2_WRITE_IENABLE (alt_irq_active);
    d644:	d0ab5117 	ldw	r2,-21180(gp)
    d648:	100170fa 	wrctl	ienable,r2
    d64c:	e0bffd17 	ldw	r2,-12(fp)
    d650:	e0bffc15 	stw	r2,-16(fp)
  NIOS2_WRITE_STATUS (context);
    d654:	e0bffc17 	ldw	r2,-16(fp)
    d658:	1001703a 	wrctl	status,r2
}
    d65c:	0001883a 	nop

  alt_irq_enable_all(status);

  return 0;
    d660:	0005883a 	mov	r2,zero
    return alt_irq_enable(irq);
}
    d664:	e037883a 	mov	sp,fp
    d668:	df000017 	ldw	fp,0(sp)
    d66c:	dec00104 	addi	sp,sp,4
    d670:	f800283a 	ret

0000d674 <alt_ic_irq_disable>:
  * @param ic_id            Ignored.
  * @param irq              IRQ number
  * @return                 0 if successful, else error (-1)
  */
int alt_ic_irq_disable(alt_u32 ic_id, alt_u32 irq)
{
    d674:	defff904 	addi	sp,sp,-28
    d678:	df000615 	stw	fp,24(sp)
    d67c:	df000604 	addi	fp,sp,24
    d680:	e13ffb15 	stw	r4,-20(fp)
    d684:	e17ffa15 	stw	r5,-24(fp)
    d688:	e0bffa17 	ldw	r2,-24(fp)
    d68c:	e0bfff15 	stw	r2,-4(fp)
  NIOS2_READ_STATUS (context);
    d690:	0005303a 	rdctl	r2,status
    d694:	e0bffe15 	stw	r2,-8(fp)
  NIOS2_WRITE_STATUS (context & ~NIOS2_STATUS_PIE_MSK);
    d698:	e0fffe17 	ldw	r3,-8(fp)
    d69c:	00bfff84 	movi	r2,-2
    d6a0:	1884703a 	and	r2,r3,r2
    d6a4:	1001703a 	wrctl	status,r2
  return context;
    d6a8:	e0bffe17 	ldw	r2,-8(fp)
  status = alt_irq_disable_all ();
    d6ac:	e0bffd15 	stw	r2,-12(fp)
  alt_irq_active &= ~(1 << id);
    d6b0:	00c00044 	movi	r3,1
    d6b4:	e0bfff17 	ldw	r2,-4(fp)
    d6b8:	1884983a 	sll	r2,r3,r2
    d6bc:	0084303a 	nor	r2,zero,r2
    d6c0:	1007883a 	mov	r3,r2
    d6c4:	d0ab5117 	ldw	r2,-21180(gp)
    d6c8:	1884703a 	and	r2,r3,r2
    d6cc:	d0ab5115 	stw	r2,-21180(gp)
  NIOS2_WRITE_IENABLE (alt_irq_active);
    d6d0:	d0ab5117 	ldw	r2,-21180(gp)
    d6d4:	100170fa 	wrctl	ienable,r2
    d6d8:	e0bffd17 	ldw	r2,-12(fp)
    d6dc:	e0bffc15 	stw	r2,-16(fp)
  NIOS2_WRITE_STATUS (context);
    d6e0:	e0bffc17 	ldw	r2,-16(fp)
    d6e4:	1001703a 	wrctl	status,r2
}
    d6e8:	0001883a 	nop
  return 0;
    d6ec:	0005883a 	mov	r2,zero
    return alt_irq_disable(irq);
}
    d6f0:	e037883a 	mov	sp,fp
    d6f4:	df000017 	ldw	fp,0(sp)
    d6f8:	dec00104 	addi	sp,sp,4
    d6fc:	f800283a 	ret

0000d700 <alt_ic_irq_enabled>:
  * @param irq              IRQ number
  * @return                 Zero if corresponding interrupt is disabled and
  *                         non-zero otherwise.
  */
alt_u32 alt_ic_irq_enabled(alt_u32 ic_id, alt_u32 irq)
{
    d700:	defffc04 	addi	sp,sp,-16
    d704:	df000315 	stw	fp,12(sp)
    d708:	df000304 	addi	fp,sp,12
    d70c:	e13ffe15 	stw	r4,-8(fp)
    d710:	e17ffd15 	stw	r5,-12(fp)
    alt_u32 irq_enabled;

    NIOS2_READ_IENABLE(irq_enabled);
    d714:	000530fa 	rdctl	r2,ienable
    d718:	e0bfff15 	stw	r2,-4(fp)

    return (irq_enabled & (1 << irq)) ? 1: 0;
    d71c:	00c00044 	movi	r3,1
    d720:	e0bffd17 	ldw	r2,-12(fp)
    d724:	1884983a 	sll	r2,r3,r2
    d728:	1007883a 	mov	r3,r2
    d72c:	e0bfff17 	ldw	r2,-4(fp)
    d730:	1884703a 	and	r2,r3,r2
    d734:	1004c03a 	cmpne	r2,r2,zero
    d738:	10803fcc 	andi	r2,r2,255
}
    d73c:	e037883a 	mov	sp,fp
    d740:	df000017 	ldw	fp,0(sp)
    d744:	dec00104 	addi	sp,sp,4
    d748:	f800283a 	ret

0000d74c <alt_iic_isr_register>:
  * @param flags            
  * @return                 0 if successful, else error (-1)
  */
int alt_iic_isr_register(alt_u32 ic_id, alt_u32 irq, alt_isr_func isr, 
  void *isr_context, void *flags)
{
    d74c:	defff504 	addi	sp,sp,-44
    d750:	dfc00a15 	stw	ra,40(sp)
    d754:	df000915 	stw	fp,36(sp)
    d758:	df000904 	addi	fp,sp,36
    d75c:	e13ffa15 	stw	r4,-24(fp)
    d760:	e17ff915 	stw	r5,-28(fp)
    d764:	e1bff815 	stw	r6,-32(fp)
    d768:	e1fff715 	stw	r7,-36(fp)
  int rc = -EINVAL;  
    d76c:	00bffa84 	movi	r2,-22
    d770:	e0bfff15 	stw	r2,-4(fp)
  int id = irq;             /* IRQ interpreted as the interrupt ID. */
    d774:	e0bff917 	ldw	r2,-28(fp)
    d778:	e0bffe15 	stw	r2,-8(fp)
  alt_irq_context status;

  if (id < ALT_NIRQ)
    d77c:	e0bffe17 	ldw	r2,-8(fp)
    d780:	10800808 	cmpgei	r2,r2,32
    d784:	1000251e 	bne	r2,zero,d81c <alt_iic_isr_register+0xd0>
  NIOS2_READ_STATUS (context);
    d788:	0005303a 	rdctl	r2,status
    d78c:	e0bffc15 	stw	r2,-16(fp)
  NIOS2_WRITE_STATUS (context & ~NIOS2_STATUS_PIE_MSK);
    d790:	e0fffc17 	ldw	r3,-16(fp)
    d794:	00bfff84 	movi	r2,-2
    d798:	1884703a 	and	r2,r3,r2
    d79c:	1001703a 	wrctl	status,r2
  return context;
    d7a0:	e0bffc17 	ldw	r2,-16(fp)
     * interrupts are disabled while the handler tables are updated to ensure
     * that an interrupt doesn't occur while the tables are in an inconsistant
     * state.
     */

    status = alt_irq_disable_all();
    d7a4:	e0bffd15 	stw	r2,-12(fp)

    alt_irq[id].handler = isr;
    d7a8:	e0bffe17 	ldw	r2,-8(fp)
    d7ac:	100890fa 	slli	r4,r2,3
    d7b0:	e0fff817 	ldw	r3,-32(fp)
    d7b4:	008000b4 	movhi	r2,2
    d7b8:	2085883a 	add	r2,r4,r2
    d7bc:	10eae515 	stw	r3,-21612(r2)
    alt_irq[id].context = isr_context;
    d7c0:	e0bffe17 	ldw	r2,-8(fp)
    d7c4:	100890fa 	slli	r4,r2,3
    d7c8:	e0fff717 	ldw	r3,-36(fp)
    d7cc:	008000b4 	movhi	r2,2
    d7d0:	2085883a 	add	r2,r4,r2
    d7d4:	10eae615 	stw	r3,-21608(r2)

    rc = (isr) ? alt_ic_irq_enable(ic_id, id) : alt_ic_irq_disable(ic_id, id);
    d7d8:	e0bff817 	ldw	r2,-32(fp)
    d7dc:	10000526 	beq	r2,zero,d7f4 <alt_iic_isr_register+0xa8>
    d7e0:	e0bffe17 	ldw	r2,-8(fp)
    d7e4:	100b883a 	mov	r5,r2
    d7e8:	e13ffa17 	ldw	r4,-24(fp)
    d7ec:	000d5ec0 	call	d5ec <alt_ic_irq_enable>
    d7f0:	00000406 	br	d804 <alt_iic_isr_register+0xb8>
    d7f4:	e0bffe17 	ldw	r2,-8(fp)
    d7f8:	100b883a 	mov	r5,r2
    d7fc:	e13ffa17 	ldw	r4,-24(fp)
    d800:	000d6740 	call	d674 <alt_ic_irq_disable>
    d804:	e0bfff15 	stw	r2,-4(fp)
    d808:	e0bffd17 	ldw	r2,-12(fp)
    d80c:	e0bffb15 	stw	r2,-20(fp)
  NIOS2_WRITE_STATUS (context);
    d810:	e0bffb17 	ldw	r2,-20(fp)
    d814:	1001703a 	wrctl	status,r2
}
    d818:	0001883a 	nop

    alt_irq_enable_all(status);
  }

  return rc; 
    d81c:	e0bfff17 	ldw	r2,-4(fp)
}
    d820:	e037883a 	mov	sp,fp
    d824:	dfc00117 	ldw	ra,4(sp)
    d828:	df000017 	ldw	fp,0(sp)
    d82c:	dec00204 	addi	sp,sp,8
    d830:	f800283a 	ret

0000d834 <alt_open_fd>:
 * If the device can not be succesfully opened, then the input file descriptor
 * remains unchanged.
 */

static void alt_open_fd(alt_fd* fd, const char* name, int flags, int mode)
{
    d834:	defff904 	addi	sp,sp,-28
    d838:	dfc00615 	stw	ra,24(sp)
    d83c:	df000515 	stw	fp,20(sp)
    d840:	df000504 	addi	fp,sp,20
    d844:	e13ffe15 	stw	r4,-8(fp)
    d848:	e17ffd15 	stw	r5,-12(fp)
    d84c:	e1bffc15 	stw	r6,-16(fp)
    d850:	e1fffb15 	stw	r7,-20(fp)
  int old;

  old = open (name, flags, mode);
    d854:	e1bffb17 	ldw	r6,-20(fp)
    d858:	e17ffc17 	ldw	r5,-16(fp)
    d85c:	e13ffd17 	ldw	r4,-12(fp)
    d860:	000da540 	call	da54 <open>
    d864:	e0bfff15 	stw	r2,-4(fp)

  if (old >= 0)
    d868:	e0bfff17 	ldw	r2,-4(fp)
    d86c:	10001716 	blt	r2,zero,d8cc <alt_open_fd+0x98>
  {
    fd->dev      = alt_fd_list[old].dev;
    d870:	e0bfff17 	ldw	r2,-4(fp)
    d874:	10c00324 	muli	r3,r2,12
    d878:	00800074 	movhi	r2,1
    d87c:	1885883a 	add	r2,r3,r2
    d880:	10c0d217 	ldw	r3,840(r2)
    d884:	e0bffe17 	ldw	r2,-8(fp)
    d888:	10c00015 	stw	r3,0(r2)
    fd->priv     = alt_fd_list[old].priv;
    d88c:	e0bfff17 	ldw	r2,-4(fp)
    d890:	10c00324 	muli	r3,r2,12
    d894:	00800074 	movhi	r2,1
    d898:	1885883a 	add	r2,r3,r2
    d89c:	10c0d317 	ldw	r3,844(r2)
    d8a0:	e0bffe17 	ldw	r2,-8(fp)
    d8a4:	10c00115 	stw	r3,4(r2)
    fd->fd_flags = alt_fd_list[old].fd_flags;
    d8a8:	e0bfff17 	ldw	r2,-4(fp)
    d8ac:	10c00324 	muli	r3,r2,12
    d8b0:	00800074 	movhi	r2,1
    d8b4:	1885883a 	add	r2,r3,r2
    d8b8:	10c0d417 	ldw	r3,848(r2)
    d8bc:	e0bffe17 	ldw	r2,-8(fp)
    d8c0:	10c00215 	stw	r3,8(r2)

    alt_release_fd (old);
    d8c4:	e13fff17 	ldw	r4,-4(fp)
    d8c8:	0003e000 	call	3e00 <alt_release_fd>
  }
} 
    d8cc:	0001883a 	nop
    d8d0:	e037883a 	mov	sp,fp
    d8d4:	dfc00117 	ldw	ra,4(sp)
    d8d8:	df000017 	ldw	fp,0(sp)
    d8dc:	dec00204 	addi	sp,sp,8
    d8e0:	f800283a 	ret

0000d8e4 <alt_io_redirect>:
 */
 
void alt_io_redirect(const char* stdout_dev, 
                     const char* stdin_dev, 
                     const char* stderr_dev)
{
    d8e4:	defffb04 	addi	sp,sp,-20
    d8e8:	dfc00415 	stw	ra,16(sp)
    d8ec:	df000315 	stw	fp,12(sp)
    d8f0:	df000304 	addi	fp,sp,12
    d8f4:	e13fff15 	stw	r4,-4(fp)
    d8f8:	e17ffe15 	stw	r5,-8(fp)
    d8fc:	e1bffd15 	stw	r6,-12(fp)
  /* Redirect the channels */

  alt_open_fd (&alt_fd_list[STDOUT_FILENO], stdout_dev, O_WRONLY, 0777);
    d900:	01c07fc4 	movi	r7,511
    d904:	01800044 	movi	r6,1
    d908:	e17fff17 	ldw	r5,-4(fp)
    d90c:	01000074 	movhi	r4,1
    d910:	2100d504 	addi	r4,r4,852
    d914:	000d8340 	call	d834 <alt_open_fd>
  alt_open_fd (&alt_fd_list[STDIN_FILENO], stdin_dev, O_RDONLY, 0777);
    d918:	01c07fc4 	movi	r7,511
    d91c:	000d883a 	mov	r6,zero
    d920:	e17ffe17 	ldw	r5,-8(fp)
    d924:	01000074 	movhi	r4,1
    d928:	2100d204 	addi	r4,r4,840
    d92c:	000d8340 	call	d834 <alt_open_fd>
  alt_open_fd (&alt_fd_list[STDERR_FILENO], stderr_dev, O_WRONLY, 0777);
    d930:	01c07fc4 	movi	r7,511
    d934:	01800044 	movi	r6,1
    d938:	e17ffd17 	ldw	r5,-12(fp)
    d93c:	01000074 	movhi	r4,1
    d940:	2100d804 	addi	r4,r4,864
    d944:	000d8340 	call	d834 <alt_open_fd>
}  
    d948:	0001883a 	nop
    d94c:	e037883a 	mov	sp,fp
    d950:	dfc00117 	ldw	ra,4(sp)
    d954:	df000017 	ldw	fp,0(sp)
    d958:	dec00204 	addi	sp,sp,8
    d95c:	f800283a 	ret

0000d960 <alt_get_errno>:
{
    d960:	defffe04 	addi	sp,sp,-8
    d964:	dfc00115 	stw	ra,4(sp)
    d968:	df000015 	stw	fp,0(sp)
    d96c:	d839883a 	mov	fp,sp
  return ((alt_errno) ? alt_errno() : &errno);
    d970:	d0a00917 	ldw	r2,-32732(gp)
    d974:	10000326 	beq	r2,zero,d984 <alt_get_errno+0x24>
    d978:	d0a00917 	ldw	r2,-32732(gp)
    d97c:	103ee83a 	callr	r2
    d980:	00000106 	br	d988 <alt_get_errno+0x28>
    d984:	d0ab3504 	addi	r2,gp,-21292
}
    d988:	e037883a 	mov	sp,fp
    d98c:	dfc00117 	ldw	ra,4(sp)
    d990:	df000017 	ldw	fp,0(sp)
    d994:	dec00204 	addi	sp,sp,8
    d998:	f800283a 	ret

0000d99c <alt_file_locked>:
 * performed for devices. Filesystems are required to handle the ioctl() call
 * themselves, and report the error from the filesystems open() function. 
 */ 

static int alt_file_locked (alt_fd* fd)
{
    d99c:	defffd04 	addi	sp,sp,-12
    d9a0:	df000215 	stw	fp,8(sp)
    d9a4:	df000204 	addi	fp,sp,8
    d9a8:	e13ffe15 	stw	r4,-8(fp)

  /*
   * Mark the file descriptor as belonging to a device.
   */

  fd->fd_flags |= ALT_FD_DEV;
    d9ac:	e0bffe17 	ldw	r2,-8(fp)
    d9b0:	10800217 	ldw	r2,8(r2)
    d9b4:	10d00034 	orhi	r3,r2,16384
    d9b8:	e0bffe17 	ldw	r2,-8(fp)
    d9bc:	10c00215 	stw	r3,8(r2)
  /*
   * Loop through all current file descriptors searching for one that's locked
   * for exclusive access. If a match is found, generate an error.
   */

  for (i = 0; i <= alt_max_fd; i++)
    d9c0:	e03fff15 	stw	zero,-4(fp)
    d9c4:	00001a06 	br	da30 <alt_file_locked+0x94>
  {
    if ((alt_fd_list[i].dev == fd->dev) &&
    d9c8:	e0bfff17 	ldw	r2,-4(fp)
    d9cc:	10c00324 	muli	r3,r2,12
    d9d0:	00800074 	movhi	r2,1
    d9d4:	1885883a 	add	r2,r3,r2
    d9d8:	10c0d217 	ldw	r3,840(r2)
    d9dc:	e0bffe17 	ldw	r2,-8(fp)
    d9e0:	10800017 	ldw	r2,0(r2)
    d9e4:	18800f1e 	bne	r3,r2,da24 <alt_file_locked+0x88>
        (alt_fd_list[i].fd_flags & ALT_FD_EXCL) &&
    d9e8:	e0bfff17 	ldw	r2,-4(fp)
    d9ec:	10c00324 	muli	r3,r2,12
    d9f0:	00800074 	movhi	r2,1
    d9f4:	1885883a 	add	r2,r3,r2
    d9f8:	1080d417 	ldw	r2,848(r2)
    if ((alt_fd_list[i].dev == fd->dev) &&
    d9fc:	1000090e 	bge	r2,zero,da24 <alt_file_locked+0x88>
        (&alt_fd_list[i] != fd))
    da00:	e0bfff17 	ldw	r2,-4(fp)
    da04:	10c00324 	muli	r3,r2,12
    da08:	00800074 	movhi	r2,1
    da0c:	1080d204 	addi	r2,r2,840
    da10:	1885883a 	add	r2,r3,r2
        (alt_fd_list[i].fd_flags & ALT_FD_EXCL) &&
    da14:	e0fffe17 	ldw	r3,-8(fp)
    da18:	18800226 	beq	r3,r2,da24 <alt_file_locked+0x88>
    {
      return -EACCES;
    da1c:	00bffcc4 	movi	r2,-13
    da20:	00000806 	br	da44 <alt_file_locked+0xa8>
  for (i = 0; i <= alt_max_fd; i++)
    da24:	e0bfff17 	ldw	r2,-4(fp)
    da28:	10800044 	addi	r2,r2,1
    da2c:	e0bfff15 	stw	r2,-4(fp)
    da30:	d0a00817 	ldw	r2,-32736(gp)
    da34:	1007883a 	mov	r3,r2
    da38:	e0bfff17 	ldw	r2,-4(fp)
    da3c:	18bfe22e 	bgeu	r3,r2,d9c8 <alt_file_locked+0x2c>
    }
  }
  
  /* The device is not locked */
 
  return 0;
    da40:	0005883a 	mov	r2,zero
}
    da44:	e037883a 	mov	sp,fp
    da48:	df000017 	ldw	fp,0(sp)
    da4c:	dec00104 	addi	sp,sp,4
    da50:	f800283a 	ret

0000da54 <open>:
 *
 * ALT_OPEN is mapped onto the open() system call in alt_syscall.h
 */
 
int ALT_OPEN (const char* file, int flags, int mode)
{ 
    da54:	defff604 	addi	sp,sp,-40
    da58:	dfc00915 	stw	ra,36(sp)
    da5c:	df000815 	stw	fp,32(sp)
    da60:	df000804 	addi	fp,sp,32
    da64:	e13ffa15 	stw	r4,-24(fp)
    da68:	e17ff915 	stw	r5,-28(fp)
    da6c:	e1bff815 	stw	r6,-32(fp)
  alt_dev* dev;
  alt_fd*  fd;
  int index  = -1;
    da70:	00bfffc4 	movi	r2,-1
    da74:	e0bffe15 	stw	r2,-8(fp)
  int status = -ENODEV;
    da78:	00bffb44 	movi	r2,-19
    da7c:	e0bffd15 	stw	r2,-12(fp)
  int isafs = 0;
    da80:	e03ffc15 	stw	zero,-16(fp)
  /* 
   * Check the device list, to see if a device with a matching name is 
   * registered.
   */
  
  if (!(dev = alt_find_dev (file, &alt_dev_list)))
    da84:	d1600604 	addi	r5,gp,-32744
    da88:	e13ffa17 	ldw	r4,-24(fp)
    da8c:	000e1080 	call	e108 <alt_find_dev>
    da90:	e0bfff15 	stw	r2,-4(fp)
    da94:	e0bfff17 	ldw	r2,-4(fp)
    da98:	1000051e 	bne	r2,zero,dab0 <open+0x5c>
  {
    /* No matching device, so try the filesystem list */

    dev   = alt_find_file (file);
    da9c:	e13ffa17 	ldw	r4,-24(fp)
    daa0:	000e1980 	call	e198 <alt_find_file>
    daa4:	e0bfff15 	stw	r2,-4(fp)
    isafs = 1;
    daa8:	00800044 	movi	r2,1
    daac:	e0bffc15 	stw	r2,-16(fp)

  /* 
   * If a matching device or filesystem is found, allocate a file descriptor. 
   */

  if (dev)
    dab0:	e0bfff17 	ldw	r2,-4(fp)
    dab4:	10002926 	beq	r2,zero,db5c <open+0x108>
  {
    if ((index = alt_get_fd (dev)) < 0)
    dab8:	e13fff17 	ldw	r4,-4(fp)
    dabc:	000e2a00 	call	e2a0 <alt_get_fd>
    dac0:	e0bffe15 	stw	r2,-8(fp)
    dac4:	e0bffe17 	ldw	r2,-8(fp)
    dac8:	1000030e 	bge	r2,zero,dad8 <open+0x84>
    {
      status = index;
    dacc:	e0bffe17 	ldw	r2,-8(fp)
    dad0:	e0bffd15 	stw	r2,-12(fp)
    dad4:	00002306 	br	db64 <open+0x110>
    }
    else
    {
      fd = &alt_fd_list[index];
    dad8:	e0bffe17 	ldw	r2,-8(fp)
    dadc:	10c00324 	muli	r3,r2,12
    dae0:	00800074 	movhi	r2,1
    dae4:	1080d204 	addi	r2,r2,840
    dae8:	1885883a 	add	r2,r3,r2
    daec:	e0bffb15 	stw	r2,-20(fp)
      fd->fd_flags = (flags & ~ALT_FD_FLAGS_MASK);
    daf0:	e0fff917 	ldw	r3,-28(fp)
    daf4:	00900034 	movhi	r2,16384
    daf8:	10bfffc4 	addi	r2,r2,-1
    dafc:	1886703a 	and	r3,r3,r2
    db00:	e0bffb17 	ldw	r2,-20(fp)
    db04:	10c00215 	stw	r3,8(r2)
      
      /* If this is a device, ensure it isn't already locked */

      if (isafs || ((status = alt_file_locked (fd)) >= 0))
    db08:	e0bffc17 	ldw	r2,-16(fp)
    db0c:	1000051e 	bne	r2,zero,db24 <open+0xd0>
    db10:	e13ffb17 	ldw	r4,-20(fp)
    db14:	000d99c0 	call	d99c <alt_file_locked>
    db18:	e0bffd15 	stw	r2,-12(fp)
    db1c:	e0bffd17 	ldw	r2,-12(fp)
    db20:	10001016 	blt	r2,zero,db64 <open+0x110>
        /* 
         * If the device or filesystem provides an open() callback function,
         * call it now to perform any device/filesystem specific operations.
         */
    
        status = (dev->open) ? dev->open(fd, file, flags, mode): 0;
    db24:	e0bfff17 	ldw	r2,-4(fp)
    db28:	10800317 	ldw	r2,12(r2)
    db2c:	10000826 	beq	r2,zero,db50 <open+0xfc>
    db30:	e0bfff17 	ldw	r2,-4(fp)
    db34:	10800317 	ldw	r2,12(r2)
    db38:	e1fff817 	ldw	r7,-32(fp)
    db3c:	e1bff917 	ldw	r6,-28(fp)
    db40:	e17ffa17 	ldw	r5,-24(fp)
    db44:	e13ffb17 	ldw	r4,-20(fp)
    db48:	103ee83a 	callr	r2
    db4c:	00000106 	br	db54 <open+0x100>
    db50:	0005883a 	mov	r2,zero
    db54:	e0bffd15 	stw	r2,-12(fp)
    db58:	00000206 	br	db64 <open+0x110>
      }
    }
  }
  else
  {
    status = -ENODEV;
    db5c:	00bffb44 	movi	r2,-19
    db60:	e0bffd15 	stw	r2,-12(fp)
  }

  /* Allocation failed, so clean up and return an error */ 

  if (status < 0)
    db64:	e0bffd17 	ldw	r2,-12(fp)
    db68:	1000090e 	bge	r2,zero,db90 <open+0x13c>
  {
    alt_release_fd (index);  
    db6c:	e13ffe17 	ldw	r4,-8(fp)
    db70:	0003e000 	call	3e00 <alt_release_fd>
    ALT_ERRNO = -status;
    db74:	000d9600 	call	d960 <alt_get_errno>
    db78:	1007883a 	mov	r3,r2
    db7c:	e0bffd17 	ldw	r2,-12(fp)
    db80:	0085c83a 	sub	r2,zero,r2
    db84:	18800015 	stw	r2,0(r3)
    return -1;
    db88:	00bfffc4 	movi	r2,-1
    db8c:	00000106 	br	db94 <open+0x140>
  }
  
  /* return the reference upon success */

  return index;
    db90:	e0bffe17 	ldw	r2,-8(fp)
}
    db94:	e037883a 	mov	sp,fp
    db98:	dfc00117 	ldw	ra,4(sp)
    db9c:	df000017 	ldw	fp,0(sp)
    dba0:	dec00204 	addi	sp,sp,8
    dba4:	f800283a 	ret

0000dba8 <alt_alarm_stop>:
 * alarms. Alternatively an alarm can unregister itself by returning zero when 
 * the alarm executes.
 */

void alt_alarm_stop (alt_alarm* alarm)
{
    dba8:	defffa04 	addi	sp,sp,-24
    dbac:	df000515 	stw	fp,20(sp)
    dbb0:	df000504 	addi	fp,sp,20
    dbb4:	e13ffb15 	stw	r4,-20(fp)
  NIOS2_READ_STATUS (context);
    dbb8:	0005303a 	rdctl	r2,status
    dbbc:	e0bffc15 	stw	r2,-16(fp)
  NIOS2_WRITE_STATUS (context & ~NIOS2_STATUS_PIE_MSK);
    dbc0:	e0fffc17 	ldw	r3,-16(fp)
    dbc4:	00bfff84 	movi	r2,-2
    dbc8:	1884703a 	and	r2,r3,r2
    dbcc:	1001703a 	wrctl	status,r2
  return context;
    dbd0:	e0bffc17 	ldw	r2,-16(fp)
  alt_irq_context irq_context;

  irq_context = alt_irq_disable_all();
    dbd4:	e0bfff15 	stw	r2,-4(fp)
  alt_llist_remove (&alarm->llist);
    dbd8:	e0bffb17 	ldw	r2,-20(fp)
    dbdc:	e0bffd15 	stw	r2,-12(fp)
 * input argument is the element to remove.
 */
     
static ALT_INLINE void ALT_ALWAYS_INLINE alt_llist_remove(alt_llist* entry)
{
  entry->next->previous = entry->previous;
    dbe0:	e0bffd17 	ldw	r2,-12(fp)
    dbe4:	10800017 	ldw	r2,0(r2)
    dbe8:	e0fffd17 	ldw	r3,-12(fp)
    dbec:	18c00117 	ldw	r3,4(r3)
    dbf0:	10c00115 	stw	r3,4(r2)
  entry->previous->next = entry->next;
    dbf4:	e0bffd17 	ldw	r2,-12(fp)
    dbf8:	10800117 	ldw	r2,4(r2)
    dbfc:	e0fffd17 	ldw	r3,-12(fp)
    dc00:	18c00017 	ldw	r3,0(r3)
    dc04:	10c00015 	stw	r3,0(r2)
  /* 
   * Set the entry to point to itself, so that any further calls to
   * alt_llist_remove() are harmless.
   */

  entry->previous = entry;
    dc08:	e0bffd17 	ldw	r2,-12(fp)
    dc0c:	e0fffd17 	ldw	r3,-12(fp)
    dc10:	10c00115 	stw	r3,4(r2)
  entry->next     = entry;
    dc14:	e0bffd17 	ldw	r2,-12(fp)
    dc18:	e0fffd17 	ldw	r3,-12(fp)
    dc1c:	10c00015 	stw	r3,0(r2)
} 
    dc20:	0001883a 	nop
    dc24:	e0bfff17 	ldw	r2,-4(fp)
    dc28:	e0bffe15 	stw	r2,-8(fp)
  NIOS2_WRITE_STATUS (context);
    dc2c:	e0bffe17 	ldw	r2,-8(fp)
    dc30:	1001703a 	wrctl	status,r2
}
    dc34:	0001883a 	nop
  alt_irq_enable_all (irq_context);
}
    dc38:	0001883a 	nop
    dc3c:	e037883a 	mov	sp,fp
    dc40:	df000017 	ldw	fp,0(sp)
    dc44:	dec00104 	addi	sp,sp,4
    dc48:	f800283a 	ret

0000dc4c <alt_tick>:
 * 
 * alt_tick() is expected to run at interrupt level.
 */

void alt_tick (void)
{
    dc4c:	defff904 	addi	sp,sp,-28
    dc50:	dfc00615 	stw	ra,24(sp)
    dc54:	df000515 	stw	fp,20(sp)
    dc58:	dc400415 	stw	r17,16(sp)
    dc5c:	dc000315 	stw	r16,12(sp)
    dc60:	df000504 	addi	fp,sp,20
  alt_alarm* next;
  alt_alarm* alarm = (alt_alarm*) alt_alarm_list.next;
    dc64:	d0a02c17 	ldw	r2,-32592(gp)
    dc68:	e0bffd15 	stw	r2,-12(fp)

  alt_u32    next_callback;

  /* update the tick counter */

  _alt_nticks++;
    dc6c:	d12b5317 	ldw	r4,-21172(gp)
    dc70:	d16b5417 	ldw	r5,-21168(gp)
    dc74:	01800044 	movi	r6,1
    dc78:	000f883a 	mov	r7,zero
    dc7c:	2185883a 	add	r2,r4,r6
    dc80:	1111803a 	cmpltu	r8,r2,r4
    dc84:	29c7883a 	add	r3,r5,r7
    dc88:	40c9883a 	add	r4,r8,r3
    dc8c:	2007883a 	mov	r3,r4
    dc90:	1009883a 	mov	r4,r2
    dc94:	180b883a 	mov	r5,r3
    dc98:	d12b5315 	stw	r4,-21172(gp)
    dc9c:	d16b5415 	stw	r5,-21168(gp)
 
  /* process the registered callbacks */

  while (alarm != (alt_alarm*) &alt_alarm_list)
    dca0:	00002906 	br	dd48 <alt_tick+0xfc>
  {
    next = (alt_alarm*) alarm->llist.next;
    dca4:	e0bffd17 	ldw	r2,-12(fp)
    dca8:	10800017 	ldw	r2,0(r2)
    dcac:	e0bffc15 	stw	r2,-16(fp)
    
    /* if the alarm period has expired, make the callback */    
    if (alarm->time <= _alt_nticks)
    dcb0:	e13ffd17 	ldw	r4,-12(fp)
    dcb4:	20800217 	ldw	r2,8(r4)
    dcb8:	20c00317 	ldw	r3,12(r4)
    dcbc:	d12b5317 	ldw	r4,-21172(gp)
    dcc0:	d16b5417 	ldw	r5,-21168(gp)
    dcc4:	28c01e36 	bltu	r5,r3,dd40 <alt_tick+0xf4>
    dcc8:	1940011e 	bne	r3,r5,dcd0 <alt_tick+0x84>
    dccc:	20801c36 	bltu	r4,r2,dd40 <alt_tick+0xf4>
    {
      next_callback = alarm->callback (alarm->context);
    dcd0:	e0bffd17 	ldw	r2,-12(fp)
    dcd4:	10800417 	ldw	r2,16(r2)
    dcd8:	e0fffd17 	ldw	r3,-12(fp)
    dcdc:	18c00517 	ldw	r3,20(r3)
    dce0:	1809883a 	mov	r4,r3
    dce4:	103ee83a 	callr	r2
    dce8:	e0bffb15 	stw	r2,-20(fp)

      /* deactivate the alarm if the return value is zero */

      if (next_callback == 0)
    dcec:	e0bffb17 	ldw	r2,-20(fp)
    dcf0:	1000031e 	bne	r2,zero,dd00 <alt_tick+0xb4>
      {
        alt_alarm_stop (alarm);
    dcf4:	e13ffd17 	ldw	r4,-12(fp)
    dcf8:	000dba80 	call	dba8 <alt_alarm_stop>
    dcfc:	00001006 	br	dd40 <alt_tick+0xf4>
      }
      else
      {
        alarm->time += next_callback;
    dd00:	e0bffd17 	ldw	r2,-12(fp)
    dd04:	11000217 	ldw	r4,8(r2)
    dd08:	11400317 	ldw	r5,12(r2)
    dd0c:	e0bffb17 	ldw	r2,-20(fp)
    dd10:	1021883a 	mov	r16,r2
    dd14:	0023883a 	mov	r17,zero
    dd18:	2405883a 	add	r2,r4,r16
    dd1c:	110d803a 	cmpltu	r6,r2,r4
    dd20:	2c47883a 	add	r3,r5,r17
    dd24:	30c9883a 	add	r4,r6,r3
    dd28:	2007883a 	mov	r3,r4
    dd2c:	1009883a 	mov	r4,r2
    dd30:	180b883a 	mov	r5,r3
    dd34:	e0bffd17 	ldw	r2,-12(fp)
    dd38:	11000215 	stw	r4,8(r2)
    dd3c:	11400315 	stw	r5,12(r2)
      }
    }
    alarm = next;
    dd40:	e0bffc17 	ldw	r2,-16(fp)
    dd44:	e0bffd15 	stw	r2,-12(fp)
  while (alarm != (alt_alarm*) &alt_alarm_list)
    dd48:	e0fffd17 	ldw	r3,-12(fp)
    dd4c:	d0a02c04 	addi	r2,gp,-32592
    dd50:	18bfd41e 	bne	r3,r2,dca4 <alt_tick+0x58>

  /* 
   * Update the operating system specific timer facilities.
   */

  ALT_OS_TIME_TICK();
    dd54:	0004fd80 	call	4fd8 <OSTimeTick>
}
    dd58:	0001883a 	nop
    dd5c:	e6fffe04 	addi	sp,fp,-8
    dd60:	dfc00317 	ldw	ra,12(sp)
    dd64:	df000217 	ldw	fp,8(sp)
    dd68:	dc400117 	ldw	r17,4(sp)
    dd6c:	dc000017 	ldw	r16,0(sp)
    dd70:	dec00404 	addi	sp,sp,16
    dd74:	f800283a 	ret

0000dd78 <altera_nios2_gen2_irq_init>:
/*
 * To initialize the internal interrupt controller, just clear the IENABLE
 * register so that all possible IRQs are disabled.
 */
void altera_nios2_gen2_irq_init(void) 
{
    dd78:	deffff04 	addi	sp,sp,-4
    dd7c:	df000015 	stw	fp,0(sp)
    dd80:	d839883a 	mov	fp,sp
    NIOS2_WRITE_IENABLE(0);
    dd84:	000170fa 	wrctl	ienable,zero
}
    dd88:	0001883a 	nop
    dd8c:	e037883a 	mov	sp,fp
    dd90:	df000017 	ldw	fp,0(sp)
    dd94:	dec00104 	addi	sp,sp,4
    dd98:	f800283a 	ret

0000dd9c <OSCtxSw>:

      /* 
       * Save the remaining registers to the stack. 
       */

      addi sp, sp, -44
    dd9c:	defff504 	addi	sp,sp,-44
      bltu  sp, et, .Lstack_overflow

#endif

#if OS_THREAD_SAFE_NEWLIB
      ldw r3, %gprel(_impure_ptr)(gp)   /* load the pointer */
    dda0:	d0e00117 	ldw	r3,-32764(gp)
#endif /* OS_THREAD_SAFE_NEWLIB */

      ldw r4, %gprel(OSTCBCur)(gp)
    dda4:	d12b4817 	ldw	r4,-21216(gp)

      stw ra,  0(sp)
    dda8:	dfc00015 	stw	ra,0(sp)
      stw fp,  4(sp)
    ddac:	df000115 	stw	fp,4(sp)
      stw r23, 8(sp)
    ddb0:	ddc00215 	stw	r23,8(sp)
      stw r22, 12(sp)
    ddb4:	dd800315 	stw	r22,12(sp)
      stw r21, 16(sp)
    ddb8:	dd400415 	stw	r21,16(sp)
      stw r20, 20(sp)
    ddbc:	dd000515 	stw	r20,20(sp)
      stw r19, 24(sp)
    ddc0:	dcc00615 	stw	r19,24(sp)
      stw r18, 28(sp)
    ddc4:	dc800715 	stw	r18,28(sp)
      stw r17, 32(sp)
    ddc8:	dc400815 	stw	r17,32(sp)
      stw r16, 36(sp)
    ddcc:	dc000915 	stw	r16,36(sp)
       * store the current value of _impure_ptr so it can be restored
       * later; _impure_ptr is asigned on a per task basis. It is used
       * by Newlib to achieve reentrancy.	
       */

      stw r3, 40(sp)                  /* save the impure pointer */
    ddd0:	d8c00a15 	stw	r3,40(sp)
      /* 
       * Save the current tasks stack pointer into the current tasks OS_TCB.
       * i.e. OSTCBCur->OSTCBStkPtr = sp;
       */

      stw sp, (r4)                  /* save the stack pointer (OSTCBStkPtr */
    ddd4:	26c00015 	stw	sp,0(r4)

      /*
       * Call the user definable OSTaskSWHook()
       */

      call OSTaskSwHook
    ddd8:	000e0000 	call	e000 <OSTaskSwHook>
      /*
       * OSTCBCur = OSTCBHighRdy; 
       * OSPrioCur = OSPrioHighRdy; 
       */

      ldw r4, %gprel(OSTCBHighRdy)(gp)
    dddc:	d12b4a17 	ldw	r4,-21208(gp)
      ldb r5, %gprel(OSPrioHighRdy)(gp)
    dde0:	d16b4507 	ldb	r5,-21228(gp)

      stw r4, %gprel(OSTCBCur)(gp)     /* set the current task to be the new task */
    dde4:	d12b4815 	stw	r4,-21216(gp)
      stb r5, %gprel(OSPrioCur)(gp)    /* store the new task's priority as the current */
    dde8:	d16b44c5 	stb	r5,-21229(gp)

      /*
       * Set the stack pointer to point to the new task's stack
       */

      ldw sp, (r4) /* the stack pointer is the first entry in the OS_TCB structure */
    ddec:	26c00017 	ldw	sp,0(r4)
      /*
       * restore the value of _impure_ptr ; _impure_ptr is asigned on a 
       * per task basis. It is used by Newlib to achieve reentrancy.	
       */

      ldw r3, 40(sp)                  /* load the new impure pointer */
    ddf0:	d8c00a17 	ldw	r3,40(sp)

      /*
       * Restore the saved registers for the new task.
       */

      ldw ra,  0(sp)
    ddf4:	dfc00017 	ldw	ra,0(sp)
      ldw fp,  4(sp)
    ddf8:	df000117 	ldw	fp,4(sp)
      ldw r23, 8(sp)
    ddfc:	ddc00217 	ldw	r23,8(sp)
      ldw r22, 12(sp)
    de00:	dd800317 	ldw	r22,12(sp)
      ldw r21, 16(sp)
    de04:	dd400417 	ldw	r21,16(sp)
      ldw r20, 20(sp)
    de08:	dd000517 	ldw	r20,20(sp)
      ldw r19, 24(sp)
    de0c:	dcc00617 	ldw	r19,24(sp)
      ldw r18, 28(sp)
    de10:	dc800717 	ldw	r18,28(sp)
      ldw r17, 32(sp)
    de14:	dc400817 	ldw	r17,32(sp)
      ldw r16, 36(sp)
    de18:	dc000917 	ldw	r16,36(sp)

#if OS_THREAD_SAFE_NEWLIB

      stw r3, %gprel(_impure_ptr)(gp) /* update _impure_ptr */
    de1c:	d0e00115 	stw	r3,-32764(gp)

      stw et, %gprel(alt_stack_limit_value)(gp)

#endif

      addi sp, sp, 44
    de20:	dec00b04 	addi	sp,sp,44

      /*
       * resume execution of the new task.
       */

      ret
    de24:	f800283a 	ret

0000de28 <OSStartHighRdy>:

      /*
       * disable interrupts so that the scheduler doesn't run while
       * we're initialising this task.
       */  
      rdctl r18, status
    de28:	0025303a 	rdctl	r18,status
      subi  r17, zero, 2   /* r17 = 0xfffffffe */
    de2c:	047fff84 	movi	r17,-2
      and   r18, r18, r17
    de30:	9464703a 	and	r18,r18,r17
      wrctl status, r18
    de34:	9001703a 	wrctl	status,r18

      /*
       * Call the user definable OSTaskSWHook()
       */

      call OSTaskSwHook
    de38:	000e0000 	call	e000 <OSTaskSwHook>

      /* 
       * set OSRunning = TRUE.
       */

      movi r18, 1                    /* set r18 to the value 'TRUE' */
    de3c:	04800044 	movi	r18,1
      stb r18, %gprel(OSRunning)(gp) /* save this to OSRunning */
    de40:	d4ab4645 	stb	r18,-21223(gp)

      /*
       * start execution of the new task.
       */

      br 9b
    de44:	003fe506 	br	dddc <OSCtxSw+0x40>

0000de48 <OSStartTsk>:

OSStartTsk:
      /* This instruction is never executed.  Its here to make the
       * backtrace work right 
       */
      movi sp, 0
    de48:	06c00004 	movi	sp,0

      /* Enable interrupts */
      rdctl r2, status
    de4c:	0005303a 	rdctl	r2,status
      ori   r2, r2, 0x1
    de50:	10800054 	ori	r2,r2,1
      wrctl status, r2
    de54:	1001703a 	wrctl	status,r2

      ldw r2, 4(sp)
    de58:	d8800117 	ldw	r2,4(sp)
      ldw r4, 0(sp)
    de5c:	d9000017 	ldw	r4,0(sp)

      addi sp, sp, 8
    de60:	dec00204 	addi	sp,sp,8

      callr r2
    de64:	103ee83a 	callr	r2

      nop
    de68:	0001883a 	nop

0000de6c <OSTaskStkInit>:
 *              been placed on the stack in the proper order.
 *
 ***********************************************************************************************/

OS_STK *OSTaskStkInit(void (*task)(void *pd), void *pdata, OS_STK *pstk, INT16U opt)
{
    de6c:	defff704 	addi	sp,sp,-36
    de70:	dfc00815 	stw	ra,32(sp)
    de74:	df000715 	stw	fp,28(sp)
    de78:	df000704 	addi	fp,sp,28
    de7c:	e13ffc15 	stw	r4,-16(fp)
    de80:	e17ffb15 	stw	r5,-20(fp)
    de84:	e1bffa15 	stw	r6,-24(fp)
    de88:	3805883a 	mov	r2,r7
    de8c:	e0bff90d 	sth	r2,-28(fp)
    * create and initialise the impure pointer used for Newlib thread local storage.
    * This is only done if the C library is being used in a thread safe mode. Otherwise
    * a single reent structure is used for all threads, which saves memory.
    */

   local_impure_ptr = (struct _reent*)((((INT32U)(pstk)) & ~0x3) - sizeof(struct _reent));
    de90:	e0fffa17 	ldw	r3,-24(fp)
    de94:	00bfff04 	movi	r2,-4
    de98:	1884703a 	and	r2,r3,r2
    de9c:	10bef704 	addi	r2,r2,-1060
    dea0:	e0bfff15 	stw	r2,-4(fp)

   _REENT_INIT_PTR (local_impure_ptr);
    dea4:	01810904 	movi	r6,1060
    dea8:	000b883a 	mov	r5,zero
    deac:	e13fff17 	ldw	r4,-4(fp)
    deb0:	0001f4c0 	call	1f4c <memset>
    deb4:	e0bfff17 	ldw	r2,-4(fp)
    deb8:	10c0bb04 	addi	r3,r2,748
    debc:	e0bfff17 	ldw	r2,-4(fp)
    dec0:	10c00115 	stw	r3,4(r2)
    dec4:	e0bfff17 	ldw	r2,-4(fp)
    dec8:	10c0d504 	addi	r3,r2,852
    decc:	e0bfff17 	ldw	r2,-4(fp)
    ded0:	10c00215 	stw	r3,8(r2)
    ded4:	e0bfff17 	ldw	r2,-4(fp)
    ded8:	10c0ef04 	addi	r3,r2,956
    dedc:	e0bfff17 	ldw	r2,-4(fp)
    dee0:	10c00315 	stw	r3,12(r2)
    dee4:	e0bfff17 	ldw	r2,-4(fp)
    dee8:	00c00044 	movi	r3,1
    deec:	10c02915 	stw	r3,164(r2)
    def0:	10002a15 	stw	zero,168(r2)
    def4:	e0bfff17 	ldw	r2,-4(fp)
    def8:	00ccc384 	movi	r3,13070
    defc:	10c02b0d 	sth	r3,172(r2)
    df00:	e0bfff17 	ldw	r2,-4(fp)
    df04:	00eaf344 	movi	r3,-21555
    df08:	10c02b8d 	sth	r3,174(r2)
    df0c:	e0bfff17 	ldw	r2,-4(fp)
    df10:	00c48d04 	movi	r3,4660
    df14:	10c02c0d 	sth	r3,176(r2)
    df18:	e0bfff17 	ldw	r2,-4(fp)
    df1c:	00f99b44 	movi	r3,-6547
    df20:	10c02c8d 	sth	r3,178(r2)
    df24:	e0bfff17 	ldw	r2,-4(fp)
    df28:	00f7bb04 	movi	r3,-8468
    df2c:	10c02d0d 	sth	r3,180(r2)
    df30:	e0bfff17 	ldw	r2,-4(fp)
    df34:	00c00144 	movi	r3,5
    df38:	10c02d8d 	sth	r3,182(r2)
    df3c:	e0bfff17 	ldw	r2,-4(fp)
    df40:	00c002c4 	movi	r3,11
    df44:	10c02e0d 	sth	r3,184(r2)
   /* 
    * create a stack frame at the top of the stack (leaving space for the 
    * reentrant data structure).
    */

   frame_pointer = (INT32U*) local_impure_ptr;
    df48:	e0bfff17 	ldw	r2,-4(fp)
    df4c:	e0bffe15 	stw	r2,-8(fp)
#else
   frame_pointer =   (INT32U*) (((INT32U)(pstk)) & ~0x3);
#endif /* OS_THREAD_SAFE_NEWLIB */
   stk = frame_pointer - 13;
    df50:	e0bffe17 	ldw	r2,-8(fp)
    df54:	10bff304 	addi	r2,r2,-52
    df58:	e0bffd15 	stw	r2,-12(fp)

   /* Now fill the stack frame. */

   stk[12] = (INT32U)task;            /* task address (ra) */
    df5c:	e0bffd17 	ldw	r2,-12(fp)
    df60:	10800c04 	addi	r2,r2,48
    df64:	e0fffc17 	ldw	r3,-16(fp)
    df68:	10c00015 	stw	r3,0(r2)
   stk[11] = (INT32U) pdata;          /* first register argument (r4) */
    df6c:	e0bffd17 	ldw	r2,-12(fp)
    df70:	10800b04 	addi	r2,r2,44
    df74:	e0fffb17 	ldw	r3,-20(fp)
    df78:	10c00015 	stw	r3,0(r2)

#if OS_THREAD_SAFE_NEWLIB
   stk[10] = (INT32U) local_impure_ptr; /* value of _impure_ptr for this thread */
    df7c:	e0bffd17 	ldw	r2,-12(fp)
    df80:	10800a04 	addi	r2,r2,40
    df84:	e0ffff17 	ldw	r3,-4(fp)
    df88:	10c00015 	stw	r3,0(r2)
#endif /* OS_THREAD_SAFE_NEWLIB */
   stk[0]  = ((INT32U)&OSStartTsk) + 4;/* exception return address (ea) */  
    df8c:	00800074 	movhi	r2,1
    df90:	10b79204 	addi	r2,r2,-8632
    df94:	10c00104 	addi	r3,r2,4
    df98:	e0bffd17 	ldw	r2,-12(fp)
    df9c:	10c00015 	stw	r3,0(r2)
    */
   __asm__ (".set OSTCBNext_OFFSET,%0" :: "i" (offsetof(OS_TCB, OSTCBNext)));
   __asm__ (".set OSTCBPrio_OFFSET,%0" :: "i" (offsetof(OS_TCB, OSTCBPrio)));
   __asm__ (".set OSTCBStkPtr_OFFSET,%0" :: "i" (offsetof(OS_TCB, OSTCBStkPtr)));
  
   return((OS_STK *)stk);
    dfa0:	e0bffd17 	ldw	r2,-12(fp)
}
    dfa4:	e037883a 	mov	sp,fp
    dfa8:	dfc00117 	ldw	ra,4(sp)
    dfac:	df000017 	ldw	fp,0(sp)
    dfb0:	dec00204 	addi	sp,sp,8
    dfb4:	f800283a 	ret

0000dfb8 <OSTaskCreateHook>:
*
* Note(s)    : 1) Interrupts are disabled during this call.
*********************************************************************************************************
*/
void OSTaskCreateHook (OS_TCB *ptcb)
{
    dfb8:	defffe04 	addi	sp,sp,-8
    dfbc:	df000115 	stw	fp,4(sp)
    dfc0:	df000104 	addi	fp,sp,4
    dfc4:	e13fff15 	stw	r4,-4(fp)
    ptcb = ptcb;                       /* Prevent compiler warning */
}
    dfc8:	0001883a 	nop
    dfcc:	e037883a 	mov	sp,fp
    dfd0:	df000017 	ldw	fp,0(sp)
    dfd4:	dec00104 	addi	sp,sp,4
    dfd8:	f800283a 	ret

0000dfdc <OSTaskDelHook>:
*
* Note(s)    : 1) Interrupts are disabled during this call.
*********************************************************************************************************
*/
void OSTaskDelHook (OS_TCB *ptcb)
{
    dfdc:	defffe04 	addi	sp,sp,-8
    dfe0:	df000115 	stw	fp,4(sp)
    dfe4:	df000104 	addi	fp,sp,4
    dfe8:	e13fff15 	stw	r4,-4(fp)
    ptcb = ptcb;                       /* Prevent compiler warning                                     */
}
    dfec:	0001883a 	nop
    dff0:	e037883a 	mov	sp,fp
    dff4:	df000017 	ldw	fp,0(sp)
    dff8:	dec00104 	addi	sp,sp,4
    dffc:	f800283a 	ret

0000e000 <OSTaskSwHook>:
*                 will be 'switched in' (i.e. the highest priority task) and, 'OSTCBCur' points to the
*                 task being switched out (i.e. the preempted task).
*********************************************************************************************************
*/
void OSTaskSwHook (void)
{
    e000:	deffff04 	addi	sp,sp,-4
    e004:	df000015 	stw	fp,0(sp)
    e008:	d839883a 	mov	fp,sp
}
    e00c:	0001883a 	nop
    e010:	e037883a 	mov	sp,fp
    e014:	df000017 	ldw	fp,0(sp)
    e018:	dec00104 	addi	sp,sp,4
    e01c:	f800283a 	ret

0000e020 <OSTaskStatHook>:
*
* Arguments  : none
*********************************************************************************************************
*/
void OSTaskStatHook (void)
{
    e020:	deffff04 	addi	sp,sp,-4
    e024:	df000015 	stw	fp,0(sp)
    e028:	d839883a 	mov	fp,sp
}
    e02c:	0001883a 	nop
    e030:	e037883a 	mov	sp,fp
    e034:	df000017 	ldw	fp,0(sp)
    e038:	dec00104 	addi	sp,sp,4
    e03c:	f800283a 	ret

0000e040 <OSTimeTickHook>:
#ifdef ALT_INICHE
void cticks_hook(void);
#endif

void OSTimeTickHook (void)
{
    e040:	deffff04 	addi	sp,sp,-4
    e044:	df000015 	stw	fp,0(sp)
    e048:	d839883a 	mov	fp,sp
    
#ifdef ALT_INICHE
    /* Service the Interniche timer */
    cticks_hook();
#endif
}
    e04c:	0001883a 	nop
    e050:	e037883a 	mov	sp,fp
    e054:	df000017 	ldw	fp,0(sp)
    e058:	dec00104 	addi	sp,sp,4
    e05c:	f800283a 	ret

0000e060 <OSInitHookBegin>:

void OSInitHookBegin(void)
{
    e060:	deffff04 	addi	sp,sp,-4
    e064:	df000015 	stw	fp,0(sp)
    e068:	d839883a 	mov	fp,sp
#if OS_TMR_EN > 0
    OSTmrCtr = 0;
#endif
}
    e06c:	0001883a 	nop
    e070:	e037883a 	mov	sp,fp
    e074:	df000017 	ldw	fp,0(sp)
    e078:	dec00104 	addi	sp,sp,4
    e07c:	f800283a 	ret

0000e080 <OSInitHookEnd>:

void OSInitHookEnd(void)
{
    e080:	deffff04 	addi	sp,sp,-4
    e084:	df000015 	stw	fp,0(sp)
    e088:	d839883a 	mov	fp,sp
}
    e08c:	0001883a 	nop
    e090:	e037883a 	mov	sp,fp
    e094:	df000017 	ldw	fp,0(sp)
    e098:	dec00104 	addi	sp,sp,4
    e09c:	f800283a 	ret

0000e0a0 <OSTaskIdleHook>:

void OSTaskIdleHook(void)
{
    e0a0:	deffff04 	addi	sp,sp,-4
    e0a4:	df000015 	stw	fp,0(sp)
    e0a8:	d839883a 	mov	fp,sp
}
    e0ac:	0001883a 	nop
    e0b0:	e037883a 	mov	sp,fp
    e0b4:	df000017 	ldw	fp,0(sp)
    e0b8:	dec00104 	addi	sp,sp,4
    e0bc:	f800283a 	ret

0000e0c0 <OSTaskReturnHook>:

void  OSTaskReturnHook(OS_TCB  *ptcb)
{
    e0c0:	defffe04 	addi	sp,sp,-8
    e0c4:	df000115 	stw	fp,4(sp)
    e0c8:	df000104 	addi	fp,sp,4
    e0cc:	e13fff15 	stw	r4,-4(fp)
}
    e0d0:	0001883a 	nop
    e0d4:	e037883a 	mov	sp,fp
    e0d8:	df000017 	ldw	fp,0(sp)
    e0dc:	dec00104 	addi	sp,sp,4
    e0e0:	f800283a 	ret

0000e0e4 <OSTCBInitHook>:

void OSTCBInitHook(OS_TCB *ptcb)
{
    e0e4:	defffe04 	addi	sp,sp,-8
    e0e8:	df000115 	stw	fp,4(sp)
    e0ec:	df000104 	addi	fp,sp,4
    e0f0:	e13fff15 	stw	r4,-4(fp)
}
    e0f4:	0001883a 	nop
    e0f8:	e037883a 	mov	sp,fp
    e0fc:	df000017 	ldw	fp,0(sp)
    e100:	dec00104 	addi	sp,sp,4
    e104:	f800283a 	ret

0000e108 <alt_find_dev>:
 * "name" must be an exact match for the devices registered name for a match to
 * be found.
 */
 
alt_dev* alt_find_dev(const char* name, alt_llist* llist)
{
    e108:	defffa04 	addi	sp,sp,-24
    e10c:	dfc00515 	stw	ra,20(sp)
    e110:	df000415 	stw	fp,16(sp)
    e114:	df000404 	addi	fp,sp,16
    e118:	e13ffd15 	stw	r4,-12(fp)
    e11c:	e17ffc15 	stw	r5,-16(fp)
  alt_dev* next = (alt_dev*) llist->next;
    e120:	e0bffc17 	ldw	r2,-16(fp)
    e124:	10800017 	ldw	r2,0(r2)
    e128:	e0bfff15 	stw	r2,-4(fp)
  alt_32 len;

  len  = strlen(name) + 1;
    e12c:	e13ffd17 	ldw	r4,-12(fp)
    e130:	0000a580 	call	a58 <strlen>
    e134:	10800044 	addi	r2,r2,1
    e138:	e0bffe15 	stw	r2,-8(fp)
  /*
   * Check each list entry in turn, until a match is found, or we reach the
   * end of the list (i.e. next winds up pointing back to the list head).
   */ 

  while (next != (alt_dev*) llist)
    e13c:	00000d06 	br	e174 <alt_find_dev+0x6c>
    /* 
     * memcmp() is used here rather than strcmp() in order to reduce the size
     * of the executable.
     */

    if (!memcmp (next->name, name, len))
    e140:	e0bfff17 	ldw	r2,-4(fp)
    e144:	10800217 	ldw	r2,8(r2)
    e148:	e0fffe17 	ldw	r3,-8(fp)
    e14c:	180d883a 	mov	r6,r3
    e150:	e17ffd17 	ldw	r5,-12(fp)
    e154:	1009883a 	mov	r4,r2
    e158:	000e4c40 	call	e4c4 <memcmp>
    e15c:	1000021e 	bne	r2,zero,e168 <alt_find_dev+0x60>
    {
      /* match found */

      return next;
    e160:	e0bfff17 	ldw	r2,-4(fp)
    e164:	00000706 	br	e184 <alt_find_dev+0x7c>
    }
    next = (alt_dev*) next->llist.next;
    e168:	e0bfff17 	ldw	r2,-4(fp)
    e16c:	10800017 	ldw	r2,0(r2)
    e170:	e0bfff15 	stw	r2,-4(fp)
  while (next != (alt_dev*) llist)
    e174:	e0ffff17 	ldw	r3,-4(fp)
    e178:	e0bffc17 	ldw	r2,-16(fp)
    e17c:	18bff01e 	bne	r3,r2,e140 <alt_find_dev+0x38>
  }
  
  /* No match found */
  
  return NULL;
    e180:	0005883a 	mov	r2,zero
}
    e184:	e037883a 	mov	sp,fp
    e188:	dfc00117 	ldw	ra,4(sp)
    e18c:	df000017 	ldw	fp,0(sp)
    e190:	dec00204 	addi	sp,sp,8
    e194:	f800283a 	ret

0000e198 <alt_find_file>:
 * either '/' or '\0' is the prefix of the filename. For example the filename:
 * "/myfilesystem/junk.txt" would match: "/myfilesystem", but not: "/myfile". 
 */
 
alt_dev* alt_find_file (const char* name)
{
    e198:	defffb04 	addi	sp,sp,-20
    e19c:	dfc00415 	stw	ra,16(sp)
    e1a0:	df000315 	stw	fp,12(sp)
    e1a4:	df000304 	addi	fp,sp,12
    e1a8:	e13ffd15 	stw	r4,-12(fp)
  alt_dev* next = (alt_dev*) alt_fs_list.next;   
    e1ac:	d0a00417 	ldw	r2,-32752(gp)
    e1b0:	e0bfff15 	stw	r2,-4(fp)
  /*
   * Check each list entry in turn, until a match is found, or we reach the
   * end of the list (i.e. next winds up pointing back to the list head).
   */ 
 
  while (next != (alt_dev*) &alt_fs_list)
    e1b4:	00003106 	br	e27c <alt_find_file+0xe4>
  {
    len = strlen(next->name);
    e1b8:	e0bfff17 	ldw	r2,-4(fp)
    e1bc:	10800217 	ldw	r2,8(r2)
    e1c0:	1009883a 	mov	r4,r2
    e1c4:	0000a580 	call	a58 <strlen>
    e1c8:	e0bffe15 	stw	r2,-8(fp)
    
    if (next->name[len-1] == '/')
    e1cc:	e0bfff17 	ldw	r2,-4(fp)
    e1d0:	10c00217 	ldw	r3,8(r2)
    e1d4:	e0bffe17 	ldw	r2,-8(fp)
    e1d8:	10bfffc4 	addi	r2,r2,-1
    e1dc:	1885883a 	add	r2,r3,r2
    e1e0:	10800003 	ldbu	r2,0(r2)
    e1e4:	10803fcc 	andi	r2,r2,255
    e1e8:	1080201c 	xori	r2,r2,128
    e1ec:	10bfe004 	addi	r2,r2,-128
    e1f0:	10800bd8 	cmpnei	r2,r2,47
    e1f4:	1000031e 	bne	r2,zero,e204 <alt_find_file+0x6c>
    {
      len -= 1;
    e1f8:	e0bffe17 	ldw	r2,-8(fp)
    e1fc:	10bfffc4 	addi	r2,r2,-1
    e200:	e0bffe15 	stw	r2,-8(fp)
    }

    if (((name[len] == '/') || (name[len] == '\0')) && 
    e204:	e0bffe17 	ldw	r2,-8(fp)
    e208:	e0fffd17 	ldw	r3,-12(fp)
    e20c:	1885883a 	add	r2,r3,r2
    e210:	10800003 	ldbu	r2,0(r2)
    e214:	10803fcc 	andi	r2,r2,255
    e218:	1080201c 	xori	r2,r2,128
    e21c:	10bfe004 	addi	r2,r2,-128
    e220:	10800be0 	cmpeqi	r2,r2,47
    e224:	1000081e 	bne	r2,zero,e248 <alt_find_file+0xb0>
    e228:	e0bffe17 	ldw	r2,-8(fp)
    e22c:	e0fffd17 	ldw	r3,-12(fp)
    e230:	1885883a 	add	r2,r3,r2
    e234:	10800003 	ldbu	r2,0(r2)
    e238:	10803fcc 	andi	r2,r2,255
    e23c:	1080201c 	xori	r2,r2,128
    e240:	10bfe004 	addi	r2,r2,-128
    e244:	10000a1e 	bne	r2,zero,e270 <alt_find_file+0xd8>
        !memcmp (next->name, name, len))
    e248:	e0bfff17 	ldw	r2,-4(fp)
    e24c:	10800217 	ldw	r2,8(r2)
    e250:	e0fffe17 	ldw	r3,-8(fp)
    e254:	180d883a 	mov	r6,r3
    e258:	e17ffd17 	ldw	r5,-12(fp)
    e25c:	1009883a 	mov	r4,r2
    e260:	000e4c40 	call	e4c4 <memcmp>
    if (((name[len] == '/') || (name[len] == '\0')) && 
    e264:	1000021e 	bne	r2,zero,e270 <alt_find_file+0xd8>
    {
      /* match found */

      return next;
    e268:	e0bfff17 	ldw	r2,-4(fp)
    e26c:	00000706 	br	e28c <alt_find_file+0xf4>
    }
    next = (alt_dev*) next->llist.next;
    e270:	e0bfff17 	ldw	r2,-4(fp)
    e274:	10800017 	ldw	r2,0(r2)
    e278:	e0bfff15 	stw	r2,-4(fp)
  while (next != (alt_dev*) &alt_fs_list)
    e27c:	e0ffff17 	ldw	r3,-4(fp)
    e280:	d0a00404 	addi	r2,gp,-32752
    e284:	18bfcc1e 	bne	r3,r2,e1b8 <alt_find_file+0x20>
  }
  
  /* No match found */
  
  return NULL;     
    e288:	0005883a 	mov	r2,zero
}
    e28c:	e037883a 	mov	sp,fp
    e290:	dfc00117 	ldw	ra,4(sp)
    e294:	df000017 	ldw	fp,0(sp)
    e298:	dec00204 	addi	sp,sp,8
    e29c:	f800283a 	ret

0000e2a0 <alt_get_fd>:
 * the offset of the file descriptor within the file descriptor array). A
 * negative value indicates failure.
 */

int alt_get_fd (alt_dev* dev)
{
    e2a0:	defff904 	addi	sp,sp,-28
    e2a4:	dfc00615 	stw	ra,24(sp)
    e2a8:	df000515 	stw	fp,20(sp)
    e2ac:	df000504 	addi	fp,sp,20
    e2b0:	e13ffb15 	stw	r4,-20(fp)
  alt_32 i;
  int rc = -EMFILE;
    e2b4:	00bffa04 	movi	r2,-24
    e2b8:	e0bffe15 	stw	r2,-8(fp)
  /* 
   * Take the alt_fd_list_lock semaphore in order to avoid races when 
   * accessing the file descriptor pool.
   */
  
  ALT_SEM_PEND(alt_fd_list_lock, 0);
    e2bc:	d0ab3617 	ldw	r2,-21288(gp)
    e2c0:	e0bffd15 	stw	r2,-12(fp)
    e2c4:	e03ffc8d 	sth	zero,-14(fp)
    e2c8:	e0bffc8b 	ldhu	r2,-14(fp)
    e2cc:	e0fffc44 	addi	r3,fp,-15
    e2d0:	180d883a 	mov	r6,r3
    e2d4:	100b883a 	mov	r5,r2
    e2d8:	e13ffd17 	ldw	r4,-12(fp)
    e2dc:	00098c40 	call	98c4 <OSSemPend>
   * indicates the highest file descriptor ever allocated. This is used to
   * improve efficency when searching the file descriptor list, and 
   * therefore reduce contention on the alt_fd_list_lock semaphore. 
   */

  for (i = 0; i < ALT_MAX_FD; i++)
    e2e0:	e03fff15 	stw	zero,-4(fp)
    e2e4:	00001706 	br	e344 <alt_get_fd+0xa4>
  {
    if (!alt_fd_list[i].dev)
    e2e8:	e0bfff17 	ldw	r2,-4(fp)
    e2ec:	10c00324 	muli	r3,r2,12
    e2f0:	00800074 	movhi	r2,1
    e2f4:	1885883a 	add	r2,r3,r2
    e2f8:	1080d217 	ldw	r2,840(r2)
    e2fc:	10000e1e 	bne	r2,zero,e338 <alt_get_fd+0x98>
    {
      alt_fd_list[i].dev = dev;
    e300:	e0bfff17 	ldw	r2,-4(fp)
    e304:	11000324 	muli	r4,r2,12
    e308:	e0fffb17 	ldw	r3,-20(fp)
    e30c:	00800074 	movhi	r2,1
    e310:	2085883a 	add	r2,r4,r2
    e314:	10c0d215 	stw	r3,840(r2)
      if (i > alt_max_fd)
    e318:	d0e00817 	ldw	r3,-32736(gp)
    e31c:	e0bfff17 	ldw	r2,-4(fp)
    e320:	1880020e 	bge	r3,r2,e32c <alt_get_fd+0x8c>
      {
        alt_max_fd = i;
    e324:	e0bfff17 	ldw	r2,-4(fp)
    e328:	d0a00815 	stw	r2,-32736(gp)
      }
      rc = i;
    e32c:	e0bfff17 	ldw	r2,-4(fp)
    e330:	e0bffe15 	stw	r2,-8(fp)
      goto alt_get_fd_exit;
    e334:	00000706 	br	e354 <alt_get_fd+0xb4>
  for (i = 0; i < ALT_MAX_FD; i++)
    e338:	e0bfff17 	ldw	r2,-4(fp)
    e33c:	10800044 	addi	r2,r2,1
    e340:	e0bfff15 	stw	r2,-4(fp)
    e344:	e0bfff17 	ldw	r2,-4(fp)
    e348:	10800810 	cmplti	r2,r2,32
    e34c:	103fe61e 	bne	r2,zero,e2e8 <alt_get_fd+0x48>
    }
  }

 alt_get_fd_exit:
    e350:	0001883a 	nop
  /*
   * Release the alt_fd_list_lock semaphore now that we are done with the
   * file descriptor pool.
   */

  ALT_SEM_POST(alt_fd_list_lock);
    e354:	d0ab3617 	ldw	r2,-21288(gp)
    e358:	1009883a 	mov	r4,r2
    e35c:	0009c340 	call	9c34 <OSSemPost>

  return rc;
    e360:	e0bffe17 	ldw	r2,-8(fp)
}
    e364:	e037883a 	mov	sp,fp
    e368:	dfc00117 	ldw	ra,4(sp)
    e36c:	df000017 	ldw	fp,0(sp)
    e370:	dec00204 	addi	sp,sp,8
    e374:	f800283a 	ret

0000e378 <alt_icache_flush>:
 * alt_icache_flush() is called to flush the instruction cache for a memory
 * region of length "len" bytes, starting at address "start".
 */

void alt_icache_flush (void* start, alt_u32 len)
{
    e378:	defffb04 	addi	sp,sp,-20
    e37c:	df000415 	stw	fp,16(sp)
    e380:	df000404 	addi	fp,sp,16
    e384:	e13ffd15 	stw	r4,-12(fp)
    e388:	e17ffc15 	stw	r5,-16(fp)

  /*
   * This is the most we would ever need to flush.
   */
 
  if (len > NIOS2_ICACHE_SIZE)
    e38c:	e0bffc17 	ldw	r2,-16(fp)
    e390:	10840070 	cmpltui	r2,r2,4097
    e394:	1000021e 	bne	r2,zero,e3a0 <alt_icache_flush+0x28>
  {
    len = NIOS2_ICACHE_SIZE;
    e398:	00840004 	movi	r2,4096
    e39c:	e0bffc15 	stw	r2,-16(fp)
  }

  end = ((char*) start) + len;
    e3a0:	e0fffd17 	ldw	r3,-12(fp)
    e3a4:	e0bffc17 	ldw	r2,-16(fp)
    e3a8:	1885883a 	add	r2,r3,r2
    e3ac:	e0bffe15 	stw	r2,-8(fp)

  for (i = start; i < end; i+= NIOS2_ICACHE_LINE_SIZE)
    e3b0:	e0bffd17 	ldw	r2,-12(fp)
    e3b4:	e0bfff15 	stw	r2,-4(fp)
    e3b8:	00000506 	br	e3d0 <alt_icache_flush+0x58>
  { 
    __asm__ volatile ("flushi %0" :: "r" (i)); 
    e3bc:	e0bfff17 	ldw	r2,-4(fp)
    e3c0:	1000603a 	flushi	r2
  for (i = start; i < end; i+= NIOS2_ICACHE_LINE_SIZE)
    e3c4:	e0bfff17 	ldw	r2,-4(fp)
    e3c8:	10800804 	addi	r2,r2,32
    e3cc:	e0bfff15 	stw	r2,-4(fp)
    e3d0:	e0ffff17 	ldw	r3,-4(fp)
    e3d4:	e0bffe17 	ldw	r2,-8(fp)
    e3d8:	18bff836 	bltu	r3,r2,e3bc <alt_icache_flush+0x44>
   * For an unaligned flush request, we've got one more line left.
   * Note that this is dependent on NIOS2_ICACHE_LINE_SIZE to be a 
   * multiple of 2 (which it always is).
   */

  if (((alt_u32) start) & (NIOS2_ICACHE_LINE_SIZE - 1))
    e3dc:	e0bffd17 	ldw	r2,-12(fp)
    e3e0:	108007cc 	andi	r2,r2,31
    e3e4:	10000226 	beq	r2,zero,e3f0 <alt_icache_flush+0x78>
  {
    __asm__ volatile ("flushi %0" :: "r" (i));
    e3e8:	e0bfff17 	ldw	r2,-4(fp)
    e3ec:	1000603a 	flushi	r2
  /* 
   * Having flushed the cache, flush any stale instructions in the 
   * pipeline 
   */

  __asm__ volatile ("flushp");
    e3f0:	0000203a 	flushp

#endif /* NIOS2_ICACHE_SIZE > 0 */
}
    e3f4:	0001883a 	nop
    e3f8:	e037883a 	mov	sp,fp
    e3fc:	df000017 	ldw	fp,0(sp)
    e400:	dec00104 	addi	sp,sp,4
    e404:	f800283a 	ret

0000e408 <alt_exception_cause_generated_bad_addr>:
 * Return: 1: BADADDR (bad_addr argument to handler) is valid
 *         0: BADADDR is not valid
 */
int 
alt_exception_cause_generated_bad_addr(alt_exception_cause cause)
{
    e408:	defffe04 	addi	sp,sp,-8
    e40c:	df000115 	stw	fp,4(sp)
    e410:	df000104 	addi	fp,sp,4
    e414:	e13fff15 	stw	r4,-4(fp)
    e418:	e0bfff17 	ldw	r2,-4(fp)
    e41c:	10bffe84 	addi	r2,r2,-6
    e420:	10c00428 	cmpgeui	r3,r2,16
    e424:	18c03fcc 	andi	r3,r3,255
    e428:	18000f1e 	bne	r3,zero,e468 <alt_exception_cause_generated_bad_addr+0x60>
    e42c:	00c00044 	movi	r3,1
    e430:	1884983a 	sll	r2,r3,r2
    e434:	10e2c8cc 	andi	r3,r2,35619
    e438:	1806c03a 	cmpne	r3,r3,zero
    e43c:	18c03fcc 	andi	r3,r3,255
    e440:	1800051e 	bne	r3,zero,e458 <alt_exception_cause_generated_bad_addr+0x50>
    e444:	1084100c 	andi	r2,r2,4160
    e448:	1004c03a 	cmpne	r2,r2,zero
    e44c:	10803fcc 	andi	r2,r2,255
    e450:	1000031e 	bne	r2,zero,e460 <alt_exception_cause_generated_bad_addr+0x58>
    e454:	00000406 	br	e468 <alt_exception_cause_generated_bad_addr+0x60>
  case NIOS2_EXCEPTION_MISALIGNED_TARGET_PC:
  case NIOS2_EXCEPTION_TLB_READ_PERM_VIOLATION:
  case NIOS2_EXCEPTION_TLB_WRITE_PERM_VIOLATION:
  case NIOS2_EXCEPTION_MPU_DATA_REGION_VIOLATION:
  case NIOS2_EXCEPTION_ECC_DATA_ERR:
    return 1;
    e458:	00800044 	movi	r2,1
    e45c:	00000306 	br	e46c <alt_exception_cause_generated_bad_addr+0x64>

  case NIOS2_EXCEPTION_TLB_MISS:
  case NIOS2_EXCEPTION_ECC_TLB_ERR:
    return 0;
    e460:	0005883a 	mov	r2,zero
    e464:	00000106 	br	e46c <alt_exception_cause_generated_bad_addr+0x64>

  default:
    return 0;
    e468:	0005883a 	mov	r2,zero
  }
}
    e46c:	e037883a 	mov	sp,fp
    e470:	df000017 	ldw	fp,0(sp)
    e474:	dec00104 	addi	sp,sp,4
    e478:	f800283a 	ret

0000e47c <atexit>:
    e47c:	200b883a 	mov	r5,r4
    e480:	000f883a 	mov	r7,zero
    e484:	000d883a 	mov	r6,zero
    e488:	0009883a 	mov	r4,zero
    e48c:	000e53c1 	jmpi	e53c <__register_exitproc>

0000e490 <exit>:
    e490:	defffe04 	addi	sp,sp,-8
    e494:	000b883a 	mov	r5,zero
    e498:	dc000015 	stw	r16,0(sp)
    e49c:	dfc00115 	stw	ra,4(sp)
    e4a0:	2021883a 	mov	r16,r4
    e4a4:	000e5cc0 	call	e5cc <__call_exitprocs>
    e4a8:	00800074 	movhi	r2,1
    e4ac:	11058c17 	ldw	r4,5680(r2)
    e4b0:	20800f17 	ldw	r2,60(r4)
    e4b4:	10000126 	beq	r2,zero,e4bc <exit+0x2c>
    e4b8:	103ee83a 	callr	r2
    e4bc:	8009883a 	mov	r4,r16
    e4c0:	000e6ec0 	call	e6ec <_exit>

0000e4c4 <memcmp>:
    e4c4:	30800130 	cmpltui	r2,r6,4
    e4c8:	10000b1e 	bne	r2,zero,e4f8 <memcmp+0x34>
    e4cc:	2144b03a 	or	r2,r4,r5
    e4d0:	108000cc 	andi	r2,r2,3
    e4d4:	1000171e 	bne	r2,zero,e534 <memcmp+0x70>
    e4d8:	20c00017 	ldw	r3,0(r4)
    e4dc:	28800017 	ldw	r2,0(r5)
    e4e0:	1880141e 	bne	r3,r2,e534 <memcmp+0x70>
    e4e4:	31bfff04 	addi	r6,r6,-4
    e4e8:	30800128 	cmpgeui	r2,r6,4
    e4ec:	21000104 	addi	r4,r4,4
    e4f0:	29400104 	addi	r5,r5,4
    e4f4:	103ff81e 	bne	r2,zero,e4d8 <memcmp+0x14>
    e4f8:	30bfffc4 	addi	r2,r6,-1
    e4fc:	30000b26 	beq	r6,zero,e52c <memcmp+0x68>
    e500:	11800044 	addi	r6,r2,1
    e504:	218d883a 	add	r6,r4,r6
    e508:	00000106 	br	e510 <memcmp+0x4c>
    e50c:	21800726 	beq	r4,r6,e52c <memcmp+0x68>
    e510:	20800003 	ldbu	r2,0(r4)
    e514:	28c00003 	ldbu	r3,0(r5)
    e518:	21000044 	addi	r4,r4,1
    e51c:	29400044 	addi	r5,r5,1
    e520:	10fffa26 	beq	r2,r3,e50c <memcmp+0x48>
    e524:	10c5c83a 	sub	r2,r2,r3
    e528:	f800283a 	ret
    e52c:	0005883a 	mov	r2,zero
    e530:	f800283a 	ret
    e534:	30bfffc4 	addi	r2,r6,-1
    e538:	003ff106 	br	e500 <memcmp+0x3c>

0000e53c <__register_exitproc>:
    e53c:	00800074 	movhi	r2,1
    e540:	10c58c17 	ldw	r3,5680(r2)
    e544:	18805217 	ldw	r2,328(r3)
    e548:	10001726 	beq	r2,zero,e5a8 <__register_exitproc+0x6c>
    e54c:	10c00117 	ldw	r3,4(r2)
    e550:	1a000808 	cmpgei	r8,r3,32
    e554:	40001b1e 	bne	r8,zero,e5c4 <__register_exitproc+0x88>
    e558:	20000b26 	beq	r4,zero,e588 <__register_exitproc+0x4c>
    e55c:	181090ba 	slli	r8,r3,2
    e560:	02400044 	movi	r9,1
    e564:	48d2983a 	sll	r9,r9,r3
    e568:	1211883a 	add	r8,r2,r8
    e56c:	41802215 	stw	r6,136(r8)
    e570:	11806217 	ldw	r6,392(r2)
    e574:	21000098 	cmpnei	r4,r4,2
    e578:	324cb03a 	or	r6,r6,r9
    e57c:	11806215 	stw	r6,392(r2)
    e580:	41c04215 	stw	r7,264(r8)
    e584:	20000b26 	beq	r4,zero,e5b4 <__register_exitproc+0x78>
    e588:	19000084 	addi	r4,r3,2
    e58c:	200890ba 	slli	r4,r4,2
    e590:	18c00044 	addi	r3,r3,1
    e594:	10c00115 	stw	r3,4(r2)
    e598:	1105883a 	add	r2,r2,r4
    e59c:	11400015 	stw	r5,0(r2)
    e5a0:	0005883a 	mov	r2,zero
    e5a4:	f800283a 	ret
    e5a8:	18805304 	addi	r2,r3,332
    e5ac:	18805215 	stw	r2,328(r3)
    e5b0:	003fe606 	br	e54c <__register_exitproc+0x10>
    e5b4:	11006317 	ldw	r4,396(r2)
    e5b8:	2248b03a 	or	r4,r4,r9
    e5bc:	11006315 	stw	r4,396(r2)
    e5c0:	003ff106 	br	e588 <__register_exitproc+0x4c>
    e5c4:	00bfffc4 	movi	r2,-1
    e5c8:	f800283a 	ret

0000e5cc <__call_exitprocs>:
    e5cc:	defff704 	addi	sp,sp,-36
    e5d0:	00800074 	movhi	r2,1
    e5d4:	dcc00315 	stw	r19,12(sp)
    e5d8:	14c58c17 	ldw	r19,5680(r2)
    e5dc:	dc800215 	stw	r18,8(sp)
    e5e0:	dfc00815 	stw	ra,32(sp)
    e5e4:	9c805217 	ldw	r18,328(r19)
    e5e8:	ddc00715 	stw	r23,28(sp)
    e5ec:	dd800615 	stw	r22,24(sp)
    e5f0:	dd400515 	stw	r21,20(sp)
    e5f4:	dd000415 	stw	r20,16(sp)
    e5f8:	dc400115 	stw	r17,4(sp)
    e5fc:	dc000015 	stw	r16,0(sp)
    e600:	90001026 	beq	r18,zero,e644 <__call_exitprocs+0x78>
    e604:	202b883a 	mov	r21,r4
    e608:	282d883a 	mov	r22,r5
    e60c:	05000044 	movi	r20,1
    e610:	94000117 	ldw	r16,4(r18)
    e614:	847fffc4 	addi	r17,r16,-1
    e618:	88000a16 	blt	r17,zero,e644 <__call_exitprocs+0x78>
    e61c:	84000044 	addi	r16,r16,1
    e620:	802090ba 	slli	r16,r16,2
    e624:	9421883a 	add	r16,r18,r16
    e628:	b0001126 	beq	r22,zero,e670 <__call_exitprocs+0xa4>
    e62c:	80804017 	ldw	r2,256(r16)
    e630:	15800f26 	beq	r2,r22,e670 <__call_exitprocs+0xa4>
    e634:	8c7fffc4 	addi	r17,r17,-1
    e638:	88bfffd8 	cmpnei	r2,r17,-1
    e63c:	843fff04 	addi	r16,r16,-4
    e640:	103ff91e 	bne	r2,zero,e628 <__call_exitprocs+0x5c>
    e644:	dfc00817 	ldw	ra,32(sp)
    e648:	ddc00717 	ldw	r23,28(sp)
    e64c:	dd800617 	ldw	r22,24(sp)
    e650:	dd400517 	ldw	r21,20(sp)
    e654:	dd000417 	ldw	r20,16(sp)
    e658:	dcc00317 	ldw	r19,12(sp)
    e65c:	dc800217 	ldw	r18,8(sp)
    e660:	dc400117 	ldw	r17,4(sp)
    e664:	dc000017 	ldw	r16,0(sp)
    e668:	dec00904 	addi	sp,sp,36
    e66c:	f800283a 	ret
    e670:	90800117 	ldw	r2,4(r18)
    e674:	81800017 	ldw	r6,0(r16)
    e678:	10bfffc4 	addi	r2,r2,-1
    e67c:	14401726 	beq	r2,r17,e6dc <__call_exitprocs+0x110>
    e680:	80000015 	stw	zero,0(r16)
    e684:	303feb26 	beq	r6,zero,e634 <__call_exitprocs+0x68>
    e688:	a446983a 	sll	r3,r20,r17
    e68c:	90806217 	ldw	r2,392(r18)
    e690:	95c00117 	ldw	r23,4(r18)
    e694:	1884703a 	and	r2,r3,r2
    e698:	1000081e 	bne	r2,zero,e6bc <__call_exitprocs+0xf0>
    e69c:	303ee83a 	callr	r6
    e6a0:	90c00117 	ldw	r3,4(r18)
    e6a4:	98805217 	ldw	r2,328(r19)
    e6a8:	1dc0011e 	bne	r3,r23,e6b0 <__call_exitprocs+0xe4>
    e6ac:	14bfe126 	beq	r2,r18,e634 <__call_exitprocs+0x68>
    e6b0:	103fe426 	beq	r2,zero,e644 <__call_exitprocs+0x78>
    e6b4:	1025883a 	mov	r18,r2
    e6b8:	003fd506 	br	e610 <__call_exitprocs+0x44>
    e6bc:	90806317 	ldw	r2,396(r18)
    e6c0:	81002017 	ldw	r4,128(r16)
    e6c4:	1886703a 	and	r3,r3,r2
    e6c8:	1800061e 	bne	r3,zero,e6e4 <__call_exitprocs+0x118>
    e6cc:	200b883a 	mov	r5,r4
    e6d0:	a809883a 	mov	r4,r21
    e6d4:	303ee83a 	callr	r6
    e6d8:	003ff106 	br	e6a0 <__call_exitprocs+0xd4>
    e6dc:	94400115 	stw	r17,4(r18)
    e6e0:	003fe806 	br	e684 <__call_exitprocs+0xb8>
    e6e4:	303ee83a 	callr	r6
    e6e8:	003fed06 	br	e6a0 <__call_exitprocs+0xd4>

0000e6ec <_exit>:
 *
 * ALT_EXIT is mapped onto the _exit() system call in alt_syscall.h
 */

void ALT_EXIT (int exit_code)
{
    e6ec:	defffd04 	addi	sp,sp,-12
    e6f0:	df000215 	stw	fp,8(sp)
    e6f4:	df000204 	addi	fp,sp,8
    e6f8:	e13ffe15 	stw	r4,-8(fp)
  ALT_LOG_PRINT_BOOT("[alt_exit.c] Entering _exit() function.\r\n");
  ALT_LOG_PRINT_BOOT("[alt_exit.c] Exit code from main was %d.\r\n",exit_code);
  /* Stop all other threads */

  ALT_LOG_PRINT_BOOT("[alt_exit.c] Calling ALT_OS_STOP().\r\n");
  ALT_OS_STOP();
    e6fc:	d02b4645 	stb	zero,-21223(gp)
    e700:	e0bffe17 	ldw	r2,-8(fp)
    e704:	e0bfff15 	stw	r2,-4(fp)
/*
 * Routine called on exit.
 */
static ALT_INLINE ALT_ALWAYS_INLINE void alt_sim_halt(int exit_code)
{
  register int r2 asm ("r2") = exit_code;
    e708:	e0bfff17 	ldw	r2,-4(fp)
  __asm__ volatile ("\n0:\n\taddi %0,%0, -1\n\tbgt %0,zero,0b" : : "r" (ALT_CPU_FREQ/100) ); /* Delay for >30ms */

  __asm__ volatile ("break 2" : : "r"(r2), "r"(r3) ALT_GMON_DATA );

#else /* !DEBUG_STUB */
  if (r2) {
    e70c:	10000226 	beq	r2,zero,e718 <_exit+0x2c>
    ALT_SIM_FAIL();
    e710:	002af070 	cmpltui	zero,zero,43969
  } else {
    ALT_SIM_PASS();
  }
#endif /* DEBUG_STUB */
}
    e714:	00000106 	br	e71c <_exit+0x30>
    ALT_SIM_PASS();
    e718:	002af0b0 	cmpltui	zero,zero,43970
}
    e71c:	0001883a 	nop
  ALT_SIM_HALT(exit_code);

  /* spin forever, since there's no where to go back to */

  ALT_LOG_PRINT_BOOT("[alt_exit.c] Spinning forever.\r\n");
  while (1);
    e720:	003fff06 	br	e720 <_exit+0x34>
